(dp1
S'output'
p2
S"<type 'exceptions.IndentationError'> unindent does not match any outer indentation level (initial.py, line 82)"
p3
sS'layer'
p4
S'/var/www/conferencia/applications/projeto/controllers/initial.py'
p5
sS'code'
p6
S'# coding: utf-8\n\ndef principal():\n\tresponse.title="Usu\xc3\xa1rios"\n\n\tgrid = SQLFORM.grid(db.usuario,\n\t\tuser_signature=False, searchable=True, csv=False, \n\t\tpaginate=50, details=False,  \n\t\tignore_rw = True, maxtextlength=36, \n    \t)\n\treturn response.render("initial/show_grid.html", grid=grid)\n\ndef show_cliente():\n\tresponse.title="Eventos"\n\n\tgrid = SQLFORM.grid(db.meetme, orderby=db.meetme.endtime,\n\t\tuser_signature=False, searchable=True, csv=False, \n\t\tpaginate=50, details=False,  \n\t\tignore_rw = True, maxtextlength=36,\n\t\tlinks=[lambda row: A(\'Editar\', \n    \t\t      _class=\'btn\', \n    \t\t      _title=\'Editar\', \n    \t\t      _href=URL("initial", "/edit_host", \n    \t\t      vars=dict(f=row.confno)))] \n    \t)\n\treturn response.render("initial/show_grid.html", grid=grid)\n\ndef show_servidor():\n\tresponse.title="Eventos"\n\tdata = request.now\n\n\tquery=(db.meetme.endtime > data) \n\tprint query\n\n\tgrid = SQLFORM.grid(query=query, orderby=db.meetme.endtime,\n\t\tuser_signature=False, searchable=True, editable=False,  \n\t\tpaginate=50, details=False, csv=False,\n\t\tignore_rw = True, maxtextlength=36,\n\t\tlinks=[lambda row: A(\'Editar\', \n    \t\t      _class=\'btn\', \n    \t\t      _title=\'Editar\', \n    \t\t      _href=URL("initial", "/edit_host", \n    \t\t      vars=dict(f=row.confno)))] \n    \t)\n\treturn response.render("initial/show_grid.html", grid=grid)\n\ndef interface():\n\t#adicionar\n    form = SQLFORM(db.meetme, submit_button=\'Adicionar\', \n    \t\t\tfields = [\'starttime\', \'endtime\', \'membros_user\', \n    \t\t\t\t\'admin_user\', \'gravacao\'], \n\t\t\t\tlabels = {\'starttime\':\'In\xc3\xadcio\', \'endtime\':\'Fim\', \n\t\t\t\t\'membros_user\':\'Membros\', \'admin_user\':\'Admins\', \'gravacao\':\'Grava\xc3\xa7\xc3\xa3o\'})\n   \n    if form.process().accepted:\n    \tevento = request.vars\n    \tconfno = form.vars.id\n    \temail(evento, confno)\n    \tresponse.flash = \'Inserido com sucesso\'\t\t\n    elif form.errors:\n       response.flash = \'Ops, algo n\xc3\xa3o est\xc3\xa1 correto\'\n    else:\n       response.flash = \'Insira os dados do novo host\'\n    return response.render("initial/show_form2.html", form=form)\n\ndef edit_host():\n    form = SQLFORM(db.meetme, request.vars[\'f\'], submit_button=\'Editar\')\n\n    if form.process().accepted:\n       response.flash = \'Editado com sucesso\'\n    elif form.errors:\n       response.flash = \'Ops, algo n\xc3\xa3o est\xc3\xa1 correto\'\n    else:\n       response.flash = \'Edite os dados do host\'\n\n    return response.render("initial/show_form2.html", form=form)\n\ndef email(evento, confno):\n\tprint evento \n\n\tmembros = evento.membros_user\n    print membros\n    for a in membros:        \n   \t\tprint \'membro:\',a\n   \t\tteste = db.executesql(\'SELECT nome FROM usuario WHERE id = %s;\' %str(a))\n   \t\tprint  \'select:\',teste[0][0]\n   \t\tprint evento.starttime, evento.endtime, confno\n   \tadmin = evento.admin_user\n   \tprint admin\n   \tfor a in admin:\n   \t\tprint \'admin:\',a\n   \t\tteste = db.executesql(\'SELECT nome FROM usuario WHERE id = %s;\' %str(a))\n   \t\tprint \'select:\',a\n   \t\tprint evento.starttime, evento.endtime, confno\n\n\t#if auth.has_membership(\'voip\'):\n\t#\tmail.send(\n\t#\t\tto="fndiaz02@gmail.com",\n\t#\t\tsubject="host adicionado",\n\t#\t\tmessage="<html>Um novo host foi adicionado pelo usu\xc3\xa1rio %s <br>nome: %s <br>vpn: %s<br><br>\xc3\x89 preciso fazer a instala\xc3\xa7\xc3\xa3o do client zabbix e bacula</html>" % (auth.user.first_name, host.nome, host.ip_chegada,)\n\t#\t\t)\n\t#elif auth.has_membership(\'internet\'):\n\t#\tmail.send(\n\t#\t\tto="fernando@ad2.com.br",\n\t#\t\tsubject="host adicionado",\n\t#\t\tmessage="<html>Um novo host foi adicionado pelo usu\xc3\xa1rio %s <br>nome: %s <br>vpn: %s<br><br>\xc3\x89 preciso fazer a instala\xc3\xa7\xc3\xa3o do client zabbix e bacula</html>" % (auth.user.first_name, host.nome, host.ip_chegada,)\n\t#\t\t)\n\n\n@auth.requires_login()\ndef show_distro():\n\tresponse.title="Distribui\xc3\xa7\xc3\xb5es"\n\n\tdb.args=Distro.id.readable=False\n\tdb.args=Distro.img.readable=False\n\tgrid = SQLFORM.grid(Distro,\n\t\tuser_signature=True, searchable=True, csv=False,\n\t\tpaginate=50, details=False, ignore_rw = True, \n\t\tmaxtextlength=26, links_placement=\'left\',\n\t\tcreate=auth.has_membership("admin"),\n\t\teditable=auth.has_membership("admin"),\n\t\tdeletable=auth.has_membership("admin"),  \n    \tlinks = [lambda row: A(\'hosts\', \n    \t\t_class=\'btn\', \n    \t\t_title=\'ver servidores\', \n    \t\t_href=URL("initial", "/distro_host", \n    \t\tvars=dict(f=row.id, n1=\'Distros\', p1=\'show_distro\'))), \n    \tdict(header=\'\',body=lambda row: A( IMG(_src=URL("static", "images", args=(row.img) ))))]\n\t\t)\n\treturn response.render("initial/show_grid.html", grid=grid)\n\n\n@auth.requires_login()\ndef cliente_host():\n\tfiltro = request.vars[\'f\']\n\tqueryset = db(db.cliente.id == filtro)\n\trows = queryset.select()\n\tcliente = rows[0]\n\tresponse.title = cliente.nome\n\tprint cliente\n\n\tnome_ant1 = request.vars[\'n1\']\n\tfuncao_ant1 = request.vars[\'p1\']\n\tnome_atual = cliente.nome\n\n\tquery = ((db.hosts.id_cliente == filtro) & (db.distro.id == db.hosts.id_distro))\n\tlinks = [dict(header=\'\',body=lambda row: A( IMG(_src=URL("static", "images", args=(row.distro.img)) ))), \n\t lambda row: A(\'Detalhes\', \n    \t\t      _class=\'btn\', \n    \t\t      _title=\'Detalhes\', \n    \t\t      _href=URL("initial", "/detalhes_nav", \n    \t\t      vars=dict(f=row.hosts.id, c=filtro, n=cliente.nome, \n    \t\t      \t\t\tn1=\'Clientes\', p1=\'show_cliente\', p=\'cliente_host\'))),\n\t lambda row: A(\'Editar\', \n    \t\t      _class=\'btn\', \n    \t\t      _title=\'Editar\', \n    \t\t      _href=URL("initial", "/edit_host", \n    \t\t      vars=dict(f=row.hosts.id, c=filtro, n=cliente.nome, \n    \t\t      \t\tn1=\'Clientes\', p1=\'show_cliente\', p=\'cliente_host\')))]\n\tdb.hosts.id.readable=False\n\tdb.distro.img.readable=False\n\t\n\tfields = (db.hosts.id, db.hosts.id_servidor, db.hosts.id_distro, db.distro.img, \n\t\t\t  db.hosts.ip_chegada, db.hosts.porta_ssh, db.hosts.gateway)\n\theaders = {\'hosts.id\':   \'ID\',\n\t\t\t   \'hosts.id_cliente\': \'Cliente\',\n               \'hosts.id_servidor\': \'Servidor\',\n               \'hosts.id_distro\': \'Distro\',\n               \'hosts.nome\': \'Nome\',\n\t           \'hosts.servicos\': \'Servicos\'}\n\tgrid = SQLFORM.grid(query=query, fields=fields, headers=headers, csv=False,\n\t\t\t\t\t\tdetails=False, searchable=False, maxtextlength=23, links=links, \n\t\t\t\t\t\tlinks_placement=\'left\', editable=False, create=False)\n\n\treturn response.render("initial/show_grid2.html", grid=grid, nome_ant1=nome_ant1, \n\t\t\t\t\t\tfuncao_ant1=funcao_ant1, nome_atual=nome_atual)\n\n@auth.requires_login()\ndef servidor_host():\n\tfiltro = request.vars[\'f\']\n\tqueryset = db(db.servidor.id == filtro)\n\trows = queryset.select()\n\tservidor = rows[0]\n\tresponse.title = servidor.nome\n\n\tnome_ant1 = request.vars[\'n1\']\n\tfuncao_ant1 = request.vars[\'p1\']\n\tnome_atual = servidor.nome\t\n\n\tdb.distro.img.readable=False\n\tdb.hosts.id.readable=False\n\tquery = ((db.hosts.id_servidor == filtro) & (db.distro.id == db.hosts.id_distro))\n\n\tlinks = [dict(header=\'\',body=lambda row: A( IMG(_src=URL("static", "images", args=(row.distro.img)) ))), \n\t lambda row: A(\'Detalhes\', \n    \t\t      _class=\'btn\', \n    \t\t      _title=\'Detalhes\', \n    \t\t      _href=URL("initial", "/detalhes_nav", \n    \t\t      vars=dict(f=row.hosts.id, c=filtro, n=servidor.nome, \n    \t\t      \t\tn1=\'Servidores\', p1=\'show_servidor\', p=\'servidor_host\'))),\n\t lambda row: A(\'Editar\', \n    \t\t      _class=\'btn\', \n    \t\t      _title=\'Editar\', \n    \t\t      _href=URL("initial", "/edit_host", \n    \t\t      vars=dict(f=row.hosts.id, c=filtro, n=servidor.nome, \n    \t\t      \t\tn1=\'Servidores\', p1=\'show_servidor\', p=\'servidor_host\')))]\n\n\tfields = (db.hosts.id, db.hosts.id_cliente, db.hosts.id_distro, db.distro.img, \n\t\t\t\tdb.hosts.ip_chegada, db.hosts.porta_ssh, db.hosts.gateway)\n\theaders = {\'hosts.id\':   \'ID\',\n\t\t\t   \'hosts.id_cliente\': \'Cliente\',\n               \'hosts.id_servidor\': \'Servidor\',\n               \'hosts.id_distro\': \'Distro\',\n               \'hosts.nome\': \'Nome\',\n\t           \'hosts.servicos\': \'Servicos\'}\n\tgrid = SQLFORM.grid(query=query, fields=fields, headers=headers, csv=False,\n\t\t\t\t\t\tdetails=False, searchable=False, maxtextlength=23, links=links, \n\t\t\t\t\t\tlinks_placement=\'left\', editable=False, create=False)\n\n\treturn response.render("initial/show_grid2.html", grid=grid, nome_ant1=nome_ant1, \n\t\t\t\t\t\tfuncao_ant1=funcao_ant1, nome_atual=nome_atual)\n\n@auth.requires_login()\ndef distro_host():\n\tfiltro = request.vars[\'f\']\n\tqueryset = db(db.distro.id == filtro)\n\trows = queryset.select()\n\tdistro = rows[0]\n\tresponse.title = distro.nome\n\n\tnome_ant1 = request.vars[\'n1\']\n\tfuncao_ant1 = request.vars[\'p1\']\n\tnome_atual = distro.nome\t\n\t\n\tdb.hosts.id.readable=False\n\tdb.distro.img.readable=False\n\tquery = ((db.hosts.id_distro == filtro) & (db.distro.id == db.hosts.id_distro))\n\tlinks = [dict(header=\'\',body=lambda row: A( IMG(_src=URL("static", "images", args=(row.distro.img)) ))), \n\t lambda row: A(\'Detalhes\', \n    \t\t      _class=\'btn\', \n    \t\t      _title=\'Detalhes\', \n    \t\t      _href=URL("initial", "/detalhes_nav", \n    \t\t      vars=dict(f=row.hosts.id, c=filtro, n=distro.nome, \n    \t\t      \t\tn1=\'Distros\', p1=\'show_distro\', p=\'distro_host\'))),\n\t lambda row: A(\'Editar\', \n    \t\t      _class=\'btn\', \n    \t\t      _title=\'Editar\', \n    \t\t      _href=URL("initial", "/edit_host", \n    \t\t      vars=dict(f=row.hosts.id, c=filtro, n=distro.nome, \n    \t\t      \t\tn1=\'Distros\', p1=\'show_distro\', p=\'distro_host\')))]\n\n\tfields = (db.hosts.id, db.hosts.id_cliente, db.hosts.id_servidor, db.distro.img, \n\t\t\t  db.hosts.ip_chegada, db.hosts.porta_ssh, db.hosts.gateway)\n\theaders = {\'hosts.id\':   \'ID\',\n\t\t\t\t\'hosts.id_cliente\': \'Cliente\',\n               \'hosts.id_servidor\': \'Servidor\',\n               \'hosts.id_distro\': \'Distro\',\n               \'hosts.nome\': \'Nome\',\n\t           \'hosts.servicos\': \'Servicos\'}\n\tgrid = SQLFORM.grid(query=query, fields=fields, headers=headers, csv=False,\n\t\t\t\t\t\tdetails=False, searchable=False, maxtextlength=23, links=links, \n\t\t\t\t\t\tlinks_placement=\'left\', editable=False, create=False)\n\n\treturn response.render("initial/show_grid2.html", grid=grid, nome_ant1=nome_ant1, \n\t\t\t\t\t\tfuncao_ant1=funcao_ant1, nome_atual=nome_atual)\n\ndef detalhes_nav():\n\t#detalhes\n\tfiltro = request.vars[\'f\'] #id_host\n\tid_cliente = request.vars[\'c\'] #id_cliente\n\tnome_ant = request.vars[\'n\'] #nome (asterisk ou agronelli ou debian)\n\tnome_ant1 = request.vars[\'n1\'] #nome (servidores ou clientes ou distros)\n\tfuncao_ant = request.vars[\'p\'] #funcao(host_servidores)\n\tfuncao_ant1 = request.vars[\'p1\'] #funcao(show_servidores)\n\t\n\n\tquery = ((db.hosts.id == filtro) & (db.hosts.id_cliente == db.cliente.id)\n\t \t    & (db.hosts.id_servidor == db.servidor.id) \n\t \t    & (db.hosts.id_distro == db.distro.id)) \n\tdetalhes = db.hosts(query)\n\t\n\t\n\treturn response.render("initial/detalhes_host.html", detalhes=detalhes, \n\t\t\t\tid_cliente=id_cliente, funcao_ant=funcao_ant, funcao_ant1=funcao_ant1, \n\t\t\t\tnome_ant=nome_ant, nome_ant1=nome_ant1, filtro=filtro)\n\n\ndef about():\n\tfiltro = request.vars[\'f\']\n\tquery = ((db.hosts.id_servidor == filtro) & (db.distro.id == db.hosts.id_distro))\n\tfields = (db.hosts.id, db.hosts.id_cliente, db.hosts.id_distro, db.distro.img, \n\t\t\t\tdb.hosts.ip_chegada, db.hosts.porta_ssh, db.hosts.gateway)\n\theaders = {\'host.id\':   \'ID\',\n               \'host.id_servidor\': \'Servidor\',\n               \'host.id_distro\': \'Distro\',\n               \'host.nome\': \'Nome\',\n\t           \'host.servicos\': \'Servicos\'}\n\tgrid = SQLFORM.grid(query=query, fields=fields, headers=headers, csv=False,\n\t\t\t\t\t\tdetails=False, maxtextlength=23, searchable=True, editable=False, create=False)\n\n\treturn response.render("initial/teste.html", grid=grid,)\n\ndef user():\n\t#if request.args(0) == \'register\':\n    #    \tdb.auth_user.bio.writable = db.auth_user.bio.readable = False\n\treturn response.render("initial/user.html", user=auth())\n\ndef register():\n\treturn auth.register()\n\ndef login():\n        return auth.login()\n\ndef account():\n    return dict(register=auth.register(),\n                login=auth.login())\n\t\ndef download():\n\treturn response.download(request, db)\n\t\ndef detalhes_clean():\n\tfiltro = request.vars[\'f\'] #id_host\n\t\t\n\n\tquery = ((db.hosts.id == filtro) & (db.hosts.id_cliente == db.cliente.id)\n\t \t    & (db.hosts.id_servidor == db.servidor.id) \n\t \t    & (db.hosts.id_distro == db.distro.id)) \n\tdetalhes = db.hosts(query)\n\n\t\n\treturn response.render("initial/detalhes_host_clean.html", detalhes=detalhes)\n\n\n\nresponse._vars=response._caller(principal)\n'
p7
sS'snapshot'
p8
(dp9
S'exception'
p10
(dp11
S'__getslice__'
p12
S"<method-wrapper '__getslice__' of exceptions.IndentationError object>"
p13
sS'text'
p14
S"'    print membros\\n'"
p15
sS'__str__'
p16
S"<method-wrapper '__str__' of exceptions.IndentationError object>"
p17
sS'__reduce__'
p18
S'<built-in method __reduce__ of exceptions.IndentationError object>'
p19
sS'__dict__'
p20
S'{}'
p21
sS'__sizeof__'
p22
S'<built-in method __sizeof__ of exceptions.IndentationError object>'
p23
sS'__init__'
p24
S"<method-wrapper '__init__' of exceptions.IndentationError object>"
p25
sS'__setattr__'
p26
S"<method-wrapper '__setattr__' of exceptions.IndentationError object>"
p27
sS'__reduce_ex__'
p28
S'<built-in method __reduce_ex__ of exceptions.IndentationError object>'
p29
sS'__new__'
p30
S'<built-in method __new__ of type object>'
p31
sS'__format__'
p32
S'<built-in method __format__ of exceptions.IndentationError object>'
p33
sS'__class__'
p34
S"<type 'exceptions.IndentationError'>"
p35
sS'filename'
p36
S"'/var/www/conferencia/applications/projeto/controllers/initial.py'"
p37
sS'lineno'
p38
S'82'
p39
sS'msg'
p40
S"'unindent does not match any outer indentation level'"
p41
sS'__doc__'
p42
S"'Improper indentation.'"
p43
sS'__getitem__'
p44
S"<method-wrapper '__getitem__' of exceptions.IndentationError object>"
p45
sS'__setstate__'
p46
S'<built-in method __setstate__ of exceptions.IndentationError object>'
p47
sS'__getattribute__'
p48
S"<method-wrapper '__getattribute__' of exceptions.IndentationError object>"
p49
sS'print_file_and_line'
p50
S'None'
p51
sS'args'
p52
S"('unindent does not match any outer indentation level', ('/var/www/conferencia/applications/projeto/controllers/initial.py', 82, 18, '    print membros\\n'))"
p53
sS'__subclasshook__'
p54
S'<built-in method __subclasshook__ of type object>'
p55
sS'offset'
p56
S'18'
p57
sS'__unicode__'
p58
S'<built-in method __unicode__ of exceptions.IndentationError object>'
p59
sS'__delattr__'
p60
S"<method-wrapper '__delattr__' of exceptions.IndentationError object>"
p61
sS'__repr__'
p62
S"<method-wrapper '__repr__' of exceptions.IndentationError object>"
p63
sS'__hash__'
p64
S"<method-wrapper '__hash__' of exceptions.IndentationError object>"
p65
ssS'evalue'
p66
S'unindent does not match any outer indentation level (initial.py, line 82)'
p67
sS'request'
p68
ccopy_reg
_reconstructor
p69
(cgluon.html
BEAUTIFY
p70
c__builtin__
object
p71
NtRp72
(dp73
S'attributes'
p74
(dp75
sS'components'
p76
(lp77
g69
(cgluon.html
TABLE
p78
g71
NtRp79
(dp80
g74
(dp81
S'level'
p82
I5
ssS'parent'
p83
Nsg76
(lp84
g69
(cgluon.html
TR
p85
g71
NtRp86
(dp87
g74
(dp88
sg83
g79
sg76
(lp89
g69
(cgluon.html
TD
p90
g71
NtRp91
(dp92
g74
(dp93
S'_style'
p94
S'font-weight:bold;vertical-align:top'
p95
ssg83
g86
sg76
(lp96
S'ajax'
p97
asbag69
(g90
g71
NtRp98
(dp99
g74
(dp100
S'_valign'
p101
S'top'
p102
ssg83
g86
sg76
(lp103
S':'
asbag69
(g90
g71
NtRp104
(dp105
g74
(dp106
sg83
g86
sg76
(lp107
g69
(g70
g71
NtRp108
(dp109
g74
(dp110
g82
I5
ssg83
g104
sg76
(lp111
S'False'
p112
asbasbasbag69
(g85
g71
NtRp113
(dp114
g74
(dp115
sg83
g79
sg76
(lp116
g69
(g90
g71
NtRp117
(dp118
g74
(dp119
g94
g95
ssg83
g113
sg76
(lp120
S'application'
p121
asbag69
(g90
g71
NtRp122
(dp123
g74
(dp124
g101
g102
ssg83
g113
sg76
(lp125
S':'
asbag69
(g90
g71
NtRp126
(dp127
g74
(dp128
sg83
g113
sg76
(lp129
g69
(g70
g71
NtRp130
(dp131
g74
(dp132
g82
I5
ssg83
g126
sg76
(lp133
S'projeto'
p134
asbasbasbag69
(g85
g71
NtRp135
(dp136
g74
(dp137
sg83
g79
sg76
(lp138
g69
(g90
g71
NtRp139
(dp140
g74
(dp141
g94
g95
ssg83
g135
sg76
(lp142
g52
asbag69
(g90
g71
NtRp143
(dp144
g74
(dp145
g101
g102
ssg83
g135
sg76
(lp146
S':'
asbag69
(g90
g71
NtRp147
(dp148
g74
(dp149
sg83
g135
sg76
(lp150
g69
(g70
g71
NtRp151
(dp152
g74
(dp153
g82
I5
ssg83
g147
sg76
(lp154
g69
(g78
g71
NtRp155
(dp156
g74
(dp157
g82
I4
ssg83
Nsg76
(lp158
sbasbasbasbag69
(g85
g71
NtRp159
(dp160
g74
(dp161
sg83
g79
sg76
(lp162
g69
(g90
g71
NtRp163
(dp164
g74
(dp165
g94
g95
ssg83
g159
sg76
(lp166
S'body'
p167
asbag69
(g90
g71
NtRp168
(dp169
g74
(dp170
g101
g102
ssg83
g159
sg76
(lp171
S':'
asbag69
(g90
g71
NtRp172
(dp173
g74
(dp174
sg83
g159
sg76
(lp175
g69
(g70
g71
NtRp176
(dp177
g74
(dp178
g82
I5
ssg83
g172
sg76
(lp179
S'<cStringIO.StringO object at 0x7fc3ec926110>'
p180
asbasbasbag69
(g85
g71
NtRp181
(dp182
g74
(dp183
sg83
g79
sg76
(lp184
g69
(g90
g71
NtRp185
(dp186
g74
(dp187
g94
g95
ssg83
g181
sg76
(lp188
S'cid'
p189
asbag69
(g90
g71
NtRp190
(dp191
g74
(dp192
g101
g102
ssg83
g181
sg76
(lp193
S':'
asbag69
(g90
g71
NtRp194
(dp195
g74
(dp196
sg83
g181
sg76
(lp197
g69
(g70
g71
NtRp198
(dp199
g74
(dp200
g82
I5
ssg83
g194
sg76
(lp201
S'None'
p202
asbasbasbag69
(g85
g71
NtRp203
(dp204
g74
(dp205
sg83
g79
sg76
(lp206
g69
(g90
g71
NtRp207
(dp208
g74
(dp209
g94
g95
ssg83
g203
sg76
(lp210
S'client'
p211
asbag69
(g90
g71
NtRp212
(dp213
g74
(dp214
g101
g102
ssg83
g203
sg76
(lp215
S':'
asbag69
(g90
g71
NtRp216
(dp217
g74
(dp218
sg83
g203
sg76
(lp219
g69
(g70
g71
NtRp220
(dp221
g74
(dp222
g82
I5
ssg83
g216
sg76
(lp223
S'127.0.0.1'
p224
asbasbasbag69
(g85
g71
NtRp225
(dp226
g74
(dp227
sg83
g79
sg76
(lp228
g69
(g90
g71
NtRp229
(dp230
g74
(dp231
g94
g95
ssg83
g225
sg76
(lp232
S'controller'
p233
asbag69
(g90
g71
NtRp234
(dp235
g74
(dp236
g101
g102
ssg83
g225
sg76
(lp237
S':'
asbag69
(g90
g71
NtRp238
(dp239
g74
(dp240
sg83
g225
sg76
(lp241
g69
(g70
g71
NtRp242
(dp243
g74
(dp244
g82
I5
ssg83
g238
sg76
(lp245
S'initial'
p246
asbasbasbag69
(g85
g71
NtRp247
(dp248
g74
(dp249
sg83
g79
sg76
(lp250
g69
(g90
g71
NtRp251
(dp252
g74
(dp253
g94
g95
ssg83
g247
sg76
(lp254
S'cookies'
p255
asbag69
(g90
g71
NtRp256
(dp257
g74
(dp258
g101
g102
ssg83
g247
sg76
(lp259
S':'
asbag69
(g90
g71
NtRp260
(dp261
g74
(dp262
sg83
g247
sg76
(lp263
g69
(g70
g71
NtRp264
(dp265
g74
(dp266
g82
I5
ssg83
g260
sg76
(lp267
g69
(g78
g71
NtRp268
(dp269
g74
(dp270
g82
I4
ssg83
Nsg76
(lp271
g69
(g85
g71
NtRp272
(dp273
g74
(dp274
sg83
g268
sg76
(lp275
g69
(g90
g71
NtRp276
(dp277
g74
(dp278
g94
g95
ssg83
g272
sg76
(lp279
S'session_id_admin'
p280
asbag69
(g90
g71
NtRp281
(dp282
g74
(dp283
g101
g102
ssg83
g272
sg76
(lp284
S':'
asbag69
(g90
g71
NtRp285
(dp286
g74
(dp287
sg83
g272
sg76
(lp288
g69
(g70
g71
NtRp289
(dp290
g74
(dp291
g82
I4
ssg83
g285
sg76
(lp292
S'127.0.0.1-ded1ddd8-3c4e-4361-a616-1b194320894a'
p293
ag69
(g78
g71
NtRp294
(dp295
g74
(dp296
g82
I3
ssg83
Nsg76
(lp297
g69
(g85
g71
NtRp298
(dp299
g74
(dp300
sg83
g294
sg76
(lp301
g69
(g90
g71
NtRp302
(dp303
g74
(dp304
g94
g95
ssg83
g298
sg76
(lp305
S'comment'
p306
asbag69
(g90
g71
NtRp307
(dp308
g74
(dp309
g101
g102
ssg83
g298
sg76
(lp310
S':'
asbag69
(g90
g71
NtRp311
(dp312
g74
(dp313
sg83
g298
sg76
(lp314
g69
(g70
g71
NtRp315
(dp316
g74
(dp317
g82
I3
ssg83
g311
sg76
(lp318
S''
asbasbasbag69
(g85
g71
NtRp319
(dp320
g74
(dp321
sg83
g294
sg76
(lp322
g69
(g90
g71
NtRp323
(dp324
g74
(dp325
g94
g95
ssg83
g319
sg76
(lp326
S'domain'
p327
asbag69
(g90
g71
NtRp328
(dp329
g74
(dp330
g101
g102
ssg83
g319
sg76
(lp331
S':'
asbag69
(g90
g71
NtRp332
(dp333
g74
(dp334
sg83
g319
sg76
(lp335
g69
(g70
g71
NtRp336
(dp337
g74
(dp338
g82
I3
ssg83
g332
sg76
(lp339
S''
asbasbasbag69
(g85
g71
NtRp340
(dp341
g74
(dp342
sg83
g294
sg76
(lp343
g69
(g90
g71
NtRp344
(dp345
g74
(dp346
g94
g95
ssg83
g340
sg76
(lp347
S'expires'
p348
asbag69
(g90
g71
NtRp349
(dp350
g74
(dp351
g101
g102
ssg83
g340
sg76
(lp352
S':'
asbag69
(g90
g71
NtRp353
(dp354
g74
(dp355
sg83
g340
sg76
(lp356
g69
(g70
g71
NtRp357
(dp358
g74
(dp359
g82
I3
ssg83
g353
sg76
(lp360
S''
asbasbasbag69
(g85
g71
NtRp361
(dp362
g74
(dp363
sg83
g294
sg76
(lp364
g69
(g90
g71
NtRp365
(dp366
g74
(dp367
g94
g95
ssg83
g361
sg76
(lp368
S'httponly'
p369
asbag69
(g90
g71
NtRp370
(dp371
g74
(dp372
g101
g102
ssg83
g361
sg76
(lp373
S':'
asbag69
(g90
g71
NtRp374
(dp375
g74
(dp376
sg83
g361
sg76
(lp377
g69
(g70
g71
NtRp378
(dp379
g74
(dp380
g82
I3
ssg83
g374
sg76
(lp381
S''
asbasbasbag69
(g85
g71
NtRp382
(dp383
g74
(dp384
sg83
g294
sg76
(lp385
g69
(g90
g71
NtRp386
(dp387
g74
(dp388
g94
g95
ssg83
g382
sg76
(lp389
S'max-age'
p390
asbag69
(g90
g71
NtRp391
(dp392
g74
(dp393
g101
g102
ssg83
g382
sg76
(lp394
S':'
asbag69
(g90
g71
NtRp395
(dp396
g74
(dp397
sg83
g382
sg76
(lp398
g69
(g70
g71
NtRp399
(dp400
g74
(dp401
g82
I3
ssg83
g395
sg76
(lp402
S''
asbasbasbag69
(g85
g71
NtRp403
(dp404
g74
(dp405
sg83
g294
sg76
(lp406
g69
(g90
g71
NtRp407
(dp408
g74
(dp409
g94
g95
ssg83
g403
sg76
(lp410
S'path'
p411
asbag69
(g90
g71
NtRp412
(dp413
g74
(dp414
g101
g102
ssg83
g403
sg76
(lp415
S':'
asbag69
(g90
g71
NtRp416
(dp417
g74
(dp418
sg83
g403
sg76
(lp419
g69
(g70
g71
NtRp420
(dp421
g74
(dp422
g82
I3
ssg83
g416
sg76
(lp423
S''
asbasbasbag69
(g85
g71
NtRp424
(dp425
g74
(dp426
sg83
g294
sg76
(lp427
g69
(g90
g71
NtRp428
(dp429
g74
(dp430
g94
g95
ssg83
g424
sg76
(lp431
S'secure'
p432
asbag69
(g90
g71
NtRp433
(dp434
g74
(dp435
g101
g102
ssg83
g424
sg76
(lp436
S':'
asbag69
(g90
g71
NtRp437
(dp438
g74
(dp439
sg83
g424
sg76
(lp440
g69
(g70
g71
NtRp441
(dp442
g74
(dp443
g82
I3
ssg83
g437
sg76
(lp444
S''
asbasbasbag69
(g85
g71
NtRp445
(dp446
g74
(dp447
sg83
g294
sg76
(lp448
g69
(g90
g71
NtRp449
(dp450
g74
(dp451
g94
g95
ssg83
g445
sg76
(lp452
S'version'
p453
asbag69
(g90
g71
NtRp454
(dp455
g74
(dp456
g101
g102
ssg83
g445
sg76
(lp457
S':'
asbag69
(g90
g71
NtRp458
(dp459
g74
(dp460
sg83
g445
sg76
(lp461
g69
(g70
g71
NtRp462
(dp463
g74
(dp464
g82
I3
ssg83
g458
sg76
(lp465
S''
asbasbasbasbasbasbasbag69
(g85
g71
NtRp466
(dp467
g74
(dp468
sg83
g268
sg76
(lp469
g69
(g90
g71
NtRp470
(dp471
g74
(dp472
g94
g95
ssg83
g466
sg76
(lp473
S'session_id_projeto'
p474
asbag69
(g90
g71
NtRp475
(dp476
g74
(dp477
g101
g102
ssg83
g466
sg76
(lp478
S':'
asbag69
(g90
g71
NtRp479
(dp480
g74
(dp481
sg83
g466
sg76
(lp482
g69
(g70
g71
NtRp483
(dp484
g74
(dp485
g82
I4
ssg83
g479
sg76
(lp486
S'127.0.0.1-b222eab6-fff3-4ee1-9193-07dc6b9c8361'
p487
ag69
(g78
g71
NtRp488
(dp489
g74
(dp490
g82
I3
ssg83
Nsg76
(lp491
g69
(g85
g71
NtRp492
(dp493
g74
(dp494
sg83
g488
sg76
(lp495
g69
(g90
g71
NtRp496
(dp497
g74
(dp498
g94
g95
ssg83
g492
sg76
(lp499
g306
asbag69
(g90
g71
NtRp500
(dp501
g74
(dp502
g101
g102
ssg83
g492
sg76
(lp503
S':'
asbag69
(g90
g71
NtRp504
(dp505
g74
(dp506
sg83
g492
sg76
(lp507
g69
(g70
g71
NtRp508
(dp509
g74
(dp510
g82
I3
ssg83
g504
sg76
(lp511
S''
asbasbasbag69
(g85
g71
NtRp512
(dp513
g74
(dp514
sg83
g488
sg76
(lp515
g69
(g90
g71
NtRp516
(dp517
g74
(dp518
g94
g95
ssg83
g512
sg76
(lp519
g327
asbag69
(g90
g71
NtRp520
(dp521
g74
(dp522
g101
g102
ssg83
g512
sg76
(lp523
S':'
asbag69
(g90
g71
NtRp524
(dp525
g74
(dp526
sg83
g512
sg76
(lp527
g69
(g70
g71
NtRp528
(dp529
g74
(dp530
g82
I3
ssg83
g524
sg76
(lp531
S''
asbasbasbag69
(g85
g71
NtRp532
(dp533
g74
(dp534
sg83
g488
sg76
(lp535
g69
(g90
g71
NtRp536
(dp537
g74
(dp538
g94
g95
ssg83
g532
sg76
(lp539
g348
asbag69
(g90
g71
NtRp540
(dp541
g74
(dp542
g101
g102
ssg83
g532
sg76
(lp543
S':'
asbag69
(g90
g71
NtRp544
(dp545
g74
(dp546
sg83
g532
sg76
(lp547
g69
(g70
g71
NtRp548
(dp549
g74
(dp550
g82
I3
ssg83
g544
sg76
(lp551
S''
asbasbasbag69
(g85
g71
NtRp552
(dp553
g74
(dp554
sg83
g488
sg76
(lp555
g69
(g90
g71
NtRp556
(dp557
g74
(dp558
g94
g95
ssg83
g552
sg76
(lp559
g369
asbag69
(g90
g71
NtRp560
(dp561
g74
(dp562
g101
g102
ssg83
g552
sg76
(lp563
S':'
asbag69
(g90
g71
NtRp564
(dp565
g74
(dp566
sg83
g552
sg76
(lp567
g69
(g70
g71
NtRp568
(dp569
g74
(dp570
g82
I3
ssg83
g564
sg76
(lp571
S''
asbasbasbag69
(g85
g71
NtRp572
(dp573
g74
(dp574
sg83
g488
sg76
(lp575
g69
(g90
g71
NtRp576
(dp577
g74
(dp578
g94
g95
ssg83
g572
sg76
(lp579
g390
asbag69
(g90
g71
NtRp580
(dp581
g74
(dp582
g101
g102
ssg83
g572
sg76
(lp583
S':'
asbag69
(g90
g71
NtRp584
(dp585
g74
(dp586
sg83
g572
sg76
(lp587
g69
(g70
g71
NtRp588
(dp589
g74
(dp590
g82
I3
ssg83
g584
sg76
(lp591
S''
asbasbasbag69
(g85
g71
NtRp592
(dp593
g74
(dp594
sg83
g488
sg76
(lp595
g69
(g90
g71
NtRp596
(dp597
g74
(dp598
g94
g95
ssg83
g592
sg76
(lp599
g411
asbag69
(g90
g71
NtRp600
(dp601
g74
(dp602
g101
g102
ssg83
g592
sg76
(lp603
S':'
asbag69
(g90
g71
NtRp604
(dp605
g74
(dp606
sg83
g592
sg76
(lp607
g69
(g70
g71
NtRp608
(dp609
g74
(dp610
g82
I3
ssg83
g604
sg76
(lp611
S''
asbasbasbag69
(g85
g71
NtRp612
(dp613
g74
(dp614
sg83
g488
sg76
(lp615
g69
(g90
g71
NtRp616
(dp617
g74
(dp618
g94
g95
ssg83
g612
sg76
(lp619
g432
asbag69
(g90
g71
NtRp620
(dp621
g74
(dp622
g101
g102
ssg83
g612
sg76
(lp623
S':'
asbag69
(g90
g71
NtRp624
(dp625
g74
(dp626
sg83
g612
sg76
(lp627
g69
(g70
g71
NtRp628
(dp629
g74
(dp630
g82
I3
ssg83
g624
sg76
(lp631
S''
asbasbasbag69
(g85
g71
NtRp632
(dp633
g74
(dp634
sg83
g488
sg76
(lp635
g69
(g90
g71
NtRp636
(dp637
g74
(dp638
g94
g95
ssg83
g632
sg76
(lp639
g453
asbag69
(g90
g71
NtRp640
(dp641
g74
(dp642
g101
g102
ssg83
g632
sg76
(lp643
S':'
asbag69
(g90
g71
NtRp644
(dp645
g74
(dp646
sg83
g632
sg76
(lp647
g69
(g70
g71
NtRp648
(dp649
g74
(dp650
g82
I3
ssg83
g644
sg76
(lp651
S''
asbasbasbasbasbasbasbasbasbasbasbag69
(g85
g71
NtRp652
(dp653
g74
(dp654
sg83
g79
sg76
(lp655
g69
(g90
g71
NtRp656
(dp657
g74
(dp658
g94
g95
ssg83
g652
sg76
(lp659
S'env'
p660
asbag69
(g90
g71
NtRp661
(dp662
g74
(dp663
g101
g102
ssg83
g652
sg76
(lp664
S':'
asbag69
(g90
g71
NtRp665
(dp666
g74
(dp667
sg83
g652
sg76
(lp668
g69
(g70
g71
NtRp669
(dp670
g74
(dp671
g82
I5
ssg83
g665
sg76
(lp672
g69
(g78
g71
NtRp673
(dp674
g74
(dp675
g82
I4
ssg83
Nsg76
(lp676
g69
(g85
g71
NtRp677
(dp678
g74
(dp679
sg83
g673
sg76
(lp680
g69
(g90
g71
NtRp681
(dp682
g74
(dp683
g94
g95
ssg83
g677
sg76
(lp684
S'app_folders'
p685
asbag69
(g90
g71
NtRp686
(dp687
g74
(dp688
g101
g102
ssg83
g677
sg76
(lp689
S':'
asbag69
(g90
g71
NtRp690
(dp691
g74
(dp692
sg83
g677
sg76
(lp693
g69
(g70
g71
NtRp694
(dp695
g74
(dp696
g82
I4
ssg83
g690
sg76
(lp697
S"set(['/var/www/conferencia/applications/admin/', '/var/www/conferencia/applications/projeto/'])"
p698
asbasbasbag69
(g85
g71
NtRp699
(dp700
g74
(dp701
sg83
g673
sg76
(lp702
g69
(g90
g71
NtRp703
(dp704
g74
(dp705
g94
g95
ssg83
g699
sg76
(lp706
S'applications_parent'
p707
asbag69
(g90
g71
NtRp708
(dp709
g74
(dp710
g101
g102
ssg83
g699
sg76
(lp711
S':'
asbag69
(g90
g71
NtRp712
(dp713
g74
(dp714
sg83
g699
sg76
(lp715
g69
(g70
g71
NtRp716
(dp717
g74
(dp718
g82
I4
ssg83
g712
sg76
(lp719
S'/var/www/conferencia'
p720
asbasbasbag69
(g85
g71
NtRp721
(dp722
g74
(dp723
sg83
g673
sg76
(lp724
g69
(g90
g71
NtRp725
(dp726
g74
(dp727
g94
g95
ssg83
g721
sg76
(lp728
S'cmd_args'
p729
asbag69
(g90
g71
NtRp730
(dp731
g74
(dp732
g101
g102
ssg83
g721
sg76
(lp733
S':'
asbag69
(g90
g71
NtRp734
(dp735
g74
(dp736
sg83
g721
sg76
(lp737
g69
(g70
g71
NtRp738
(dp739
g74
(dp740
g82
I4
ssg83
g734
sg76
(lp741
g69
(g78
g71
NtRp742
(dp743
g74
(dp744
g82
I3
ssg83
Nsg76
(lp745
sbasbasbasbag69
(g85
g71
NtRp746
(dp747
g74
(dp748
sg83
g673
sg76
(lp749
g69
(g90
g71
NtRp750
(dp751
g74
(dp752
g94
g95
ssg83
g746
sg76
(lp753
S'cmd_options'
p754
asbag69
(g90
g71
NtRp755
(dp756
g74
(dp757
g101
g102
ssg83
g746
sg76
(lp758
S':'
asbag69
(g90
g71
NtRp759
(dp760
g74
(dp761
sg83
g746
sg76
(lp762
g69
(g70
g71
NtRp763
(dp764
g74
(dp765
g82
I4
ssg83
g759
sg76
(lp766
S"<Values at 0x1885248: {'verbose': False, 'ip': '127.0.0.1', 'with_scheduler': False, 'ips': [], 'shutdown_timeout': 5, 'taskbar': False, 'port': 8000, 'maxthreads': None, 'softcron': False, 'server_name': 'fernando-workstation', 'bpython': False, 'nogui': False, 'pid_filename': 'httpserver.pid', 'extcron': False, 'runcron': False, 'run_system_tests': False, 'test': None, 'folder': '/var/www/conferencia', 'config': '', 'minthreads': None, 'winservice': '', 'shell': None, 'run': '', 'log_filename': 'httpserver.log', 'debuglevel': 30, 'args': [''], 'socket_timeout': 5, 'ssl_ca_certificate': None, 'scheduler': None, 'profiler_filename': None, 'ssl_private_key': '', 'scheduler_groups': None, 'password': '123456', 'request_queue_size': 5, 'ssl_certificate': '', 'cronjob': False, 'numthreads': None, 'quiet': False, 'interfaces': None, 'import_models': False, 'timeout': 10, 'plain': False, 'nobanner': False}>"
p767
asbasbasbag69
(g85
g71
NtRp768
(dp769
g74
(dp770
sg83
g673
sg76
(lp771
g69
(g90
g71
NtRp772
(dp773
g74
(dp774
g94
g95
ssg83
g768
sg76
(lp775
S'db_sessions'
p776
asbag69
(g90
g71
NtRp777
(dp778
g74
(dp779
g101
g102
ssg83
g768
sg76
(lp780
S':'
asbag69
(g90
g71
NtRp781
(dp782
g74
(dp783
sg83
g768
sg76
(lp784
g69
(g70
g71
NtRp785
(dp786
g74
(dp787
g82
I4
ssg83
g781
sg76
(lp788
S'set([])'
p789
asbasbasbag69
(g85
g71
NtRp790
(dp791
g74
(dp792
sg83
g673
sg76
(lp793
g69
(g90
g71
NtRp794
(dp795
g74
(dp796
g94
g95
ssg83
g790
sg76
(lp797
S'debugging'
p798
asbag69
(g90
g71
NtRp799
(dp800
g74
(dp801
g101
g102
ssg83
g790
sg76
(lp802
S':'
asbag69
(g90
g71
NtRp803
(dp804
g74
(dp805
sg83
g790
sg76
(lp806
g69
(g70
g71
NtRp807
(dp808
g74
(dp809
g82
I4
ssg83
g803
sg76
(lp810
g112
asbasbasbag69
(g85
g71
NtRp811
(dp812
g74
(dp813
sg83
g673
sg76
(lp814
g69
(g90
g71
NtRp815
(dp816
g74
(dp817
g94
g95
ssg83
g811
sg76
(lp818
S'gluon_parent'
p819
asbag69
(g90
g71
NtRp820
(dp821
g74
(dp822
g101
g102
ssg83
g811
sg76
(lp823
S':'
asbag69
(g90
g71
NtRp824
(dp825
g74
(dp826
sg83
g811
sg76
(lp827
g69
(g70
g71
NtRp828
(dp829
g74
(dp830
g82
I4
ssg83
g824
sg76
(lp831
S'/var/www/conferencia'
p832
asbasbasbag69
(g85
g71
NtRp833
(dp834
g74
(dp835
sg83
g673
sg76
(lp836
g69
(g90
g71
NtRp837
(dp838
g74
(dp839
g94
g95
ssg83
g833
sg76
(lp840
S'http_accept'
p841
asbag69
(g90
g71
NtRp842
(dp843
g74
(dp844
g101
g102
ssg83
g833
sg76
(lp845
S':'
asbag69
(g90
g71
NtRp846
(dp847
g74
(dp848
sg83
g833
sg76
(lp849
g69
(g70
g71
NtRp850
(dp851
g74
(dp852
g82
I4
ssg83
g846
sg76
(lp853
S'text/html,application/xhtml+xml,application/xml;q=0.9,*/*;q=0.8'
p854
asbasbasbag69
(g85
g71
NtRp855
(dp856
g74
(dp857
sg83
g673
sg76
(lp858
g69
(g90
g71
NtRp859
(dp860
g74
(dp861
g94
g95
ssg83
g855
sg76
(lp862
S'http_accept_charset'
p863
asbag69
(g90
g71
NtRp864
(dp865
g74
(dp866
g101
g102
ssg83
g855
sg76
(lp867
S':'
asbag69
(g90
g71
NtRp868
(dp869
g74
(dp870
sg83
g855
sg76
(lp871
g69
(g70
g71
NtRp872
(dp873
g74
(dp874
g82
I4
ssg83
g868
sg76
(lp875
S'ISO-8859-1,utf-8;q=0.7,*;q=0.3'
p876
asbasbasbag69
(g85
g71
NtRp877
(dp878
g74
(dp879
sg83
g673
sg76
(lp880
g69
(g90
g71
NtRp881
(dp882
g74
(dp883
g94
g95
ssg83
g877
sg76
(lp884
S'http_accept_encoding'
p885
asbag69
(g90
g71
NtRp886
(dp887
g74
(dp888
g101
g102
ssg83
g877
sg76
(lp889
S':'
asbag69
(g90
g71
NtRp890
(dp891
g74
(dp892
sg83
g877
sg76
(lp893
g69
(g70
g71
NtRp894
(dp895
g74
(dp896
g82
I4
ssg83
g890
sg76
(lp897
S'gzip,deflate,sdch'
p898
asbasbasbag69
(g85
g71
NtRp899
(dp900
g74
(dp901
sg83
g673
sg76
(lp902
g69
(g90
g71
NtRp903
(dp904
g74
(dp905
g94
g95
ssg83
g899
sg76
(lp906
S'http_accept_language'
p907
asbag69
(g90
g71
NtRp908
(dp909
g74
(dp910
g101
g102
ssg83
g899
sg76
(lp911
S':'
asbag69
(g90
g71
NtRp912
(dp913
g74
(dp914
sg83
g899
sg76
(lp915
g69
(g70
g71
NtRp916
(dp917
g74
(dp918
g82
I4
ssg83
g912
sg76
(lp919
S'pt-BR,pt;q=0.8,en-US;q=0.6,en;q=0.4'
p920
asbasbasbag69
(g85
g71
NtRp921
(dp922
g74
(dp923
sg83
g673
sg76
(lp924
g69
(g90
g71
NtRp925
(dp926
g74
(dp927
g94
g95
ssg83
g921
sg76
(lp928
S'http_connection'
p929
asbag69
(g90
g71
NtRp930
(dp931
g74
(dp932
g101
g102
ssg83
g921
sg76
(lp933
S':'
asbag69
(g90
g71
NtRp934
(dp935
g74
(dp936
sg83
g921
sg76
(lp937
g69
(g70
g71
NtRp938
(dp939
g74
(dp940
g82
I4
ssg83
g934
sg76
(lp941
S'keep-alive'
p942
asbasbasbag69
(g85
g71
NtRp943
(dp944
g74
(dp945
sg83
g673
sg76
(lp946
g69
(g90
g71
NtRp947
(dp948
g74
(dp949
g94
g95
ssg83
g943
sg76
(lp950
S'http_cookie'
p951
asbag69
(g90
g71
NtRp952
(dp953
g74
(dp954
g101
g102
ssg83
g943
sg76
(lp955
S':'
asbag69
(g90
g71
NtRp956
(dp957
g74
(dp958
sg83
g943
sg76
(lp959
g69
(g70
g71
NtRp960
(dp961
g74
(dp962
g82
I4
ssg83
g956
sg76
(lp963
S'session_id_projeto=127.0.0.1-b222eab6-fff3-4ee1-9193-07dc6b9c8361; session_id_admin=127.0.0.1-ded1ddd8-3c4e-4361-a616-1b194320894a'
p964
asbasbasbag69
(g85
g71
NtRp965
(dp966
g74
(dp967
sg83
g673
sg76
(lp968
g69
(g90
g71
NtRp969
(dp970
g74
(dp971
g94
g95
ssg83
g965
sg76
(lp972
S'http_host'
p973
asbag69
(g90
g71
NtRp974
(dp975
g74
(dp976
g101
g102
ssg83
g965
sg76
(lp977
S':'
asbag69
(g90
g71
NtRp978
(dp979
g74
(dp980
sg83
g965
sg76
(lp981
g69
(g70
g71
NtRp982
(dp983
g74
(dp984
g82
I4
ssg83
g978
sg76
(lp985
S'127.0.0.1:8000'
p986
asbasbasbag69
(g85
g71
NtRp987
(dp988
g74
(dp989
sg83
g673
sg76
(lp990
g69
(g90
g71
NtRp991
(dp992
g74
(dp993
g94
g95
ssg83
g987
sg76
(lp994
S'http_user_agent'
p995
asbag69
(g90
g71
NtRp996
(dp997
g74
(dp998
g101
g102
ssg83
g987
sg76
(lp999
S':'
asbag69
(g90
g71
NtRp1000
(dp1001
g74
(dp1002
sg83
g987
sg76
(lp1003
g69
(g70
g71
NtRp1004
(dp1005
g74
(dp1006
g82
I4
ssg83
g1000
sg76
(lp1007
S'Mozilla/5.0 (X11; Linux x86_64) AppleWebKit/537.4 (KHTML, like Gecko) Ubuntu/12.10 Chromium/22.0.1229.94 Chrome/22.0.1229.94 Safari/537.4'
p1008
asbasbasbag69
(g85
g71
NtRp1009
(dp1010
g74
(dp1011
sg83
g673
sg76
(lp1012
g69
(g90
g71
NtRp1013
(dp1014
g74
(dp1015
g94
g95
ssg83
g1009
sg76
(lp1016
S'is_jython'
p1017
asbag69
(g90
g71
NtRp1018
(dp1019
g74
(dp1020
g101
g102
ssg83
g1009
sg76
(lp1021
S':'
asbag69
(g90
g71
NtRp1022
(dp1023
g74
(dp1024
sg83
g1009
sg76
(lp1025
g69
(g70
g71
NtRp1026
(dp1027
g74
(dp1028
g82
I4
ssg83
g1022
sg76
(lp1029
g112
asbasbasbag69
(g85
g71
NtRp1030
(dp1031
g74
(dp1032
sg83
g673
sg76
(lp1033
g69
(g90
g71
NtRp1034
(dp1035
g74
(dp1036
g94
g95
ssg83
g1030
sg76
(lp1037
S'is_pypy'
p1038
asbag69
(g90
g71
NtRp1039
(dp1040
g74
(dp1041
g101
g102
ssg83
g1030
sg76
(lp1042
S':'
asbag69
(g90
g71
NtRp1043
(dp1044
g74
(dp1045
sg83
g1030
sg76
(lp1046
g69
(g70
g71
NtRp1047
(dp1048
g74
(dp1049
g82
I4
ssg83
g1043
sg76
(lp1050
g112
asbasbasbag69
(g85
g71
NtRp1051
(dp1052
g74
(dp1053
sg83
g673
sg76
(lp1054
g69
(g90
g71
NtRp1055
(dp1056
g74
(dp1057
g94
g95
ssg83
g1051
sg76
(lp1058
S'local_hosts'
p1059
asbag69
(g90
g71
NtRp1060
(dp1061
g74
(dp1062
g101
g102
ssg83
g1051
sg76
(lp1063
S':'
asbag69
(g90
g71
NtRp1064
(dp1065
g74
(dp1066
sg83
g1051
sg76
(lp1067
g69
(g70
g71
NtRp1068
(dp1069
g74
(dp1070
g82
I4
ssg83
g1064
sg76
(lp1071
g69
(g78
g71
NtRp1072
(dp1073
g74
(dp1074
g82
I3
ssg83
Nsg76
(lp1075
g69
(g85
g71
NtRp1076
(dp1077
g74
(dp1078
sg83
g1072
sg76
(lp1079
g69
(g90
g71
NtRp1080
(dp1081
g74
(dp1082
sg83
g1076
sg76
(lp1083
g69
(g70
g71
NtRp1084
(dp1085
g74
(dp1086
g82
I3
ssg83
g1080
sg76
(lp1087
S'::1'
p1088
asbasbasbag69
(g85
g71
NtRp1089
(dp1090
g74
(dp1091
sg83
g1072
sg76
(lp1092
g69
(g90
g71
NtRp1093
(dp1094
g74
(dp1095
sg83
g1089
sg76
(lp1096
g69
(g70
g71
NtRp1097
(dp1098
g74
(dp1099
g82
I3
ssg83
g1093
sg76
(lp1100
S'::ffff:127.0.0.1'
p1101
asbasbasbag69
(g85
g71
NtRp1102
(dp1103
g74
(dp1104
sg83
g1072
sg76
(lp1105
g69
(g90
g71
NtRp1106
(dp1107
g74
(dp1108
sg83
g1102
sg76
(lp1109
g69
(g70
g71
NtRp1110
(dp1111
g74
(dp1112
g82
I3
ssg83
g1106
sg76
(lp1113
S'127.0.0.1'
p1114
asbasbasbag69
(g85
g71
NtRp1115
(dp1116
g74
(dp1117
sg83
g1072
sg76
(lp1118
g69
(g90
g71
NtRp1119
(dp1120
g74
(dp1121
sg83
g1115
sg76
(lp1122
g69
(g70
g71
NtRp1123
(dp1124
g74
(dp1125
g82
I3
ssg83
g1119
sg76
(lp1126
S'fernando-workstation'
p1127
asbasbasbasbasbasbasbag69
(g85
g71
NtRp1128
(dp1129
g74
(dp1130
sg83
g673
sg76
(lp1131
g69
(g90
g71
NtRp1132
(dp1133
g74
(dp1134
g94
g95
ssg83
g1128
sg76
(lp1135
S'path_info'
p1136
asbag69
(g90
g71
NtRp1137
(dp1138
g74
(dp1139
g101
g102
ssg83
g1128
sg76
(lp1140
S':'
asbag69
(g90
g71
NtRp1141
(dp1142
g74
(dp1143
sg83
g1128
sg76
(lp1144
g69
(g70
g71
NtRp1145
(dp1146
g74
(dp1147
g82
I4
ssg83
g1141
sg76
(lp1148
S'/'
asbasbasbag69
(g85
g71
NtRp1149
(dp1150
g74
(dp1151
sg83
g673
sg76
(lp1152
g69
(g90
g71
NtRp1153
(dp1154
g74
(dp1155
g94
g95
ssg83
g1149
sg76
(lp1156
S'query_string'
p1157
asbag69
(g90
g71
NtRp1158
(dp1159
g74
(dp1160
g101
g102
ssg83
g1149
sg76
(lp1161
S':'
asbag69
(g90
g71
NtRp1162
(dp1163
g74
(dp1164
sg83
g1149
sg76
(lp1165
g69
(g70
g71
NtRp1166
(dp1167
g74
(dp1168
g82
I4
ssg83
g1162
sg76
(lp1169
S''
asbasbasbag69
(g85
g71
NtRp1170
(dp1171
g74
(dp1172
sg83
g673
sg76
(lp1173
g69
(g90
g71
NtRp1174
(dp1175
g74
(dp1176
g94
g95
ssg83
g1170
sg76
(lp1177
S'remote_addr'
p1178
asbag69
(g90
g71
NtRp1179
(dp1180
g74
(dp1181
g101
g102
ssg83
g1170
sg76
(lp1182
S':'
asbag69
(g90
g71
NtRp1183
(dp1184
g74
(dp1185
sg83
g1170
sg76
(lp1186
g69
(g70
g71
NtRp1187
(dp1188
g74
(dp1189
g82
I4
ssg83
g1183
sg76
(lp1190
g224
asbasbasbag69
(g85
g71
NtRp1191
(dp1192
g74
(dp1193
sg83
g673
sg76
(lp1194
g69
(g90
g71
NtRp1195
(dp1196
g74
(dp1197
g94
g95
ssg83
g1191
sg76
(lp1198
S'remote_port'
p1199
asbag69
(g90
g71
NtRp1200
(dp1201
g74
(dp1202
g101
g102
ssg83
g1191
sg76
(lp1203
S':'
asbag69
(g90
g71
NtRp1204
(dp1205
g74
(dp1206
sg83
g1191
sg76
(lp1207
g69
(g70
g71
NtRp1208
(dp1209
g74
(dp1210
g82
I4
ssg83
g1204
sg76
(lp1211
S'35612'
p1212
asbasbasbag69
(g85
g71
NtRp1213
(dp1214
g74
(dp1215
sg83
g673
sg76
(lp1216
g69
(g90
g71
NtRp1217
(dp1218
g74
(dp1219
g94
g95
ssg83
g1213
sg76
(lp1220
S'request_method'
p1221
asbag69
(g90
g71
NtRp1222
(dp1223
g74
(dp1224
g101
g102
ssg83
g1213
sg76
(lp1225
S':'
asbag69
(g90
g71
NtRp1226
(dp1227
g74
(dp1228
sg83
g1213
sg76
(lp1229
g69
(g70
g71
NtRp1230
(dp1231
g74
(dp1232
g82
I4
ssg83
g1226
sg76
(lp1233
S'GET'
p1234
asbasbasbag69
(g85
g71
NtRp1235
(dp1236
g74
(dp1237
sg83
g673
sg76
(lp1238
g69
(g90
g71
NtRp1239
(dp1240
g74
(dp1241
g94
g95
ssg83
g1235
sg76
(lp1242
S'request_uri'
p1243
asbag69
(g90
g71
NtRp1244
(dp1245
g74
(dp1246
g101
g102
ssg83
g1235
sg76
(lp1247
S':'
asbag69
(g90
g71
NtRp1248
(dp1249
g74
(dp1250
sg83
g1235
sg76
(lp1251
g69
(g70
g71
NtRp1252
(dp1253
g74
(dp1254
g82
I4
ssg83
g1248
sg76
(lp1255
S'/projeto/initial/principal'
p1256
asbasbasbag69
(g85
g71
NtRp1257
(dp1258
g74
(dp1259
sg83
g673
sg76
(lp1260
g69
(g90
g71
NtRp1261
(dp1262
g74
(dp1263
g94
g95
ssg83
g1257
sg76
(lp1264
S'script_name'
p1265
asbag69
(g90
g71
NtRp1266
(dp1267
g74
(dp1268
g101
g102
ssg83
g1257
sg76
(lp1269
S':'
asbag69
(g90
g71
NtRp1270
(dp1271
g74
(dp1272
sg83
g1257
sg76
(lp1273
g69
(g70
g71
NtRp1274
(dp1275
g74
(dp1276
g82
I4
ssg83
g1270
sg76
(lp1277
S''
asbasbasbag69
(g85
g71
NtRp1278
(dp1279
g74
(dp1280
sg83
g673
sg76
(lp1281
g69
(g90
g71
NtRp1282
(dp1283
g74
(dp1284
g94
g95
ssg83
g1278
sg76
(lp1285
S'server_name'
p1286
asbag69
(g90
g71
NtRp1287
(dp1288
g74
(dp1289
g101
g102
ssg83
g1278
sg76
(lp1290
S':'
asbag69
(g90
g71
NtRp1291
(dp1292
g74
(dp1293
sg83
g1278
sg76
(lp1294
g69
(g70
g71
NtRp1295
(dp1296
g74
(dp1297
g82
I4
ssg83
g1291
sg76
(lp1298
S'fernando-workstation'
p1299
asbasbasbag69
(g85
g71
NtRp1300
(dp1301
g74
(dp1302
sg83
g673
sg76
(lp1303
g69
(g90
g71
NtRp1304
(dp1305
g74
(dp1306
g94
g95
ssg83
g1300
sg76
(lp1307
S'server_port'
p1308
asbag69
(g90
g71
NtRp1309
(dp1310
g74
(dp1311
g101
g102
ssg83
g1300
sg76
(lp1312
S':'
asbag69
(g90
g71
NtRp1313
(dp1314
g74
(dp1315
sg83
g1300
sg76
(lp1316
g69
(g70
g71
NtRp1317
(dp1318
g74
(dp1319
g82
I4
ssg83
g1313
sg76
(lp1320
S'8000'
p1321
asbasbasbag69
(g85
g71
NtRp1322
(dp1323
g74
(dp1324
sg83
g673
sg76
(lp1325
g69
(g90
g71
NtRp1326
(dp1327
g74
(dp1328
g94
g95
ssg83
g1322
sg76
(lp1329
S'server_protocol'
p1330
asbag69
(g90
g71
NtRp1331
(dp1332
g74
(dp1333
g101
g102
ssg83
g1322
sg76
(lp1334
S':'
asbag69
(g90
g71
NtRp1335
(dp1336
g74
(dp1337
sg83
g1322
sg76
(lp1338
g69
(g70
g71
NtRp1339
(dp1340
g74
(dp1341
g82
I4
ssg83
g1335
sg76
(lp1342
S'HTTP/1.1'
p1343
asbasbasbag69
(g85
g71
NtRp1344
(dp1345
g74
(dp1346
sg83
g673
sg76
(lp1347
g69
(g90
g71
NtRp1348
(dp1349
g74
(dp1350
g94
g95
ssg83
g1344
sg76
(lp1351
S'server_software'
p1352
asbag69
(g90
g71
NtRp1353
(dp1354
g74
(dp1355
g101
g102
ssg83
g1344
sg76
(lp1356
S':'
asbag69
(g90
g71
NtRp1357
(dp1358
g74
(dp1359
sg83
g1344
sg76
(lp1360
g69
(g70
g71
NtRp1361
(dp1362
g74
(dp1363
g82
I4
ssg83
g1357
sg76
(lp1364
S'Rocket 1.2.6'
p1365
asbasbasbag69
(g85
g71
NtRp1366
(dp1367
g74
(dp1368
sg83
g673
sg76
(lp1369
g69
(g90
g71
NtRp1370
(dp1371
g74
(dp1372
g94
g95
ssg83
g1366
sg76
(lp1373
S'web2py_original_uri'
p1374
asbag69
(g90
g71
NtRp1375
(dp1376
g74
(dp1377
g101
g102
ssg83
g1366
sg76
(lp1378
S':'
asbag69
(g90
g71
NtRp1379
(dp1380
g74
(dp1381
sg83
g1366
sg76
(lp1382
g69
(g70
g71
NtRp1383
(dp1384
g74
(dp1385
g82
I4
ssg83
g1379
sg76
(lp1386
S'/'
asbasbasbag69
(g85
g71
NtRp1387
(dp1388
g74
(dp1389
sg83
g673
sg76
(lp1390
g69
(g90
g71
NtRp1391
(dp1392
g74
(dp1393
g94
g95
ssg83
g1387
sg76
(lp1394
S'web2py_path'
p1395
asbag69
(g90
g71
NtRp1396
(dp1397
g74
(dp1398
g101
g102
ssg83
g1387
sg76
(lp1399
S':'
asbag69
(g90
g71
NtRp1400
(dp1401
g74
(dp1402
sg83
g1387
sg76
(lp1403
g69
(g70
g71
NtRp1404
(dp1405
g74
(dp1406
g82
I4
ssg83
g1400
sg76
(lp1407
g720
asbasbasbag69
(g85
g71
NtRp1408
(dp1409
g74
(dp1410
sg83
g673
sg76
(lp1411
g69
(g90
g71
NtRp1412
(dp1413
g74
(dp1414
g94
g95
ssg83
g1408
sg76
(lp1415
S'web2py_version'
p1416
asbag69
(g90
g71
NtRp1417
(dp1418
g74
(dp1419
g101
g102
ssg83
g1408
sg76
(lp1420
S':'
asbag69
(g90
g71
NtRp1421
(dp1422
g74
(dp1423
sg83
g1408
sg76
(lp1424
g69
(g70
g71
NtRp1425
(dp1426
g74
(dp1427
g82
I4
ssg83
g1421
sg76
(lp1428
g69
(g78
g71
NtRp1429
(dp1430
g74
(dp1431
g82
I3
ssg83
Nsg76
(lp1432
g69
(g85
g71
NtRp1433
(dp1434
g74
(dp1435
sg83
g1429
sg76
(lp1436
g69
(g90
g71
NtRp1437
(dp1438
g74
(dp1439
sg83
g1433
sg76
(lp1440
g69
(g70
g71
NtRp1441
(dp1442
g74
(dp1443
g82
I3
ssg83
g1437
sg76
(lp1444
S'2'
asbasbasbag69
(g85
g71
NtRp1445
(dp1446
g74
(dp1447
sg83
g1429
sg76
(lp1448
g69
(g90
g71
NtRp1449
(dp1450
g74
(dp1451
sg83
g1445
sg76
(lp1452
g69
(g70
g71
NtRp1453
(dp1454
g74
(dp1455
g82
I3
ssg83
g1449
sg76
(lp1456
S'3'
asbasbasbag69
(g85
g71
NtRp1457
(dp1458
g74
(dp1459
sg83
g1429
sg76
(lp1460
g69
(g90
g71
NtRp1461
(dp1462
g74
(dp1463
sg83
g1457
sg76
(lp1464
g69
(g70
g71
NtRp1465
(dp1466
g74
(dp1467
g82
I3
ssg83
g1461
sg76
(lp1468
S'2'
asbasbasbag69
(g85
g71
NtRp1469
(dp1470
g74
(dp1471
sg83
g1429
sg76
(lp1472
g69
(g90
g71
NtRp1473
(dp1474
g74
(dp1475
sg83
g1469
sg76
(lp1476
g69
(g70
g71
NtRp1477
(dp1478
g74
(dp1479
g82
I3
ssg83
g1473
sg76
(lp1480
S'datetime.datetime(2012, 12, 17, 15, 3, 30)'
p1481
asbasbasbag69
(g85
g71
NtRp1482
(dp1483
g74
(dp1484
sg83
g1429
sg76
(lp1485
g69
(g90
g71
NtRp1486
(dp1487
g74
(dp1488
sg83
g1482
sg76
(lp1489
g69
(g70
g71
NtRp1490
(dp1491
g74
(dp1492
g82
I3
ssg83
g1486
sg76
(lp1493
S'stable'
p1494
asbasbasbasbasbasbasbag69
(g85
g71
NtRp1495
(dp1496
g74
(dp1497
sg83
g673
sg76
(lp1498
g69
(g90
g71
NtRp1499
(dp1500
g74
(dp1501
g94
g95
ssg83
g1495
sg76
(lp1502
S'wsgi_errors'
p1503
asbag69
(g90
g71
NtRp1504
(dp1505
g74
(dp1506
g101
g102
ssg83
g1495
sg76
(lp1507
S':'
asbag69
(g90
g71
NtRp1508
(dp1509
g74
(dp1510
sg83
g1495
sg76
(lp1511
g69
(g70
g71
NtRp1512
(dp1513
g74
(dp1514
g82
I4
ssg83
g1508
sg76
(lp1515
S"<open file '<stderr>', mode 'w' at 0x7fc41b634270>"
p1516
asbasbasbag69
(g85
g71
NtRp1517
(dp1518
g74
(dp1519
sg83
g673
sg76
(lp1520
g69
(g90
g71
NtRp1521
(dp1522
g74
(dp1523
g94
g95
ssg83
g1517
sg76
(lp1524
S'wsgi_file_wrapper'
p1525
asbag69
(g90
g71
NtRp1526
(dp1527
g74
(dp1528
g101
g102
ssg83
g1517
sg76
(lp1529
S':'
asbag69
(g90
g71
NtRp1530
(dp1531
g74
(dp1532
sg83
g1517
sg76
(lp1533
g69
(g70
g71
NtRp1534
(dp1535
g74
(dp1536
g82
I4
ssg83
g1530
sg76
(lp1537
S'<class wsgiref.util.FileWrapper at 0x17fd598>'
p1538
asbasbasbag69
(g85
g71
NtRp1539
(dp1540
g74
(dp1541
sg83
g673
sg76
(lp1542
g69
(g90
g71
NtRp1543
(dp1544
g74
(dp1545
g94
g95
ssg83
g1539
sg76
(lp1546
S'wsgi_input'
p1547
asbag69
(g90
g71
NtRp1548
(dp1549
g74
(dp1550
g101
g102
ssg83
g1539
sg76
(lp1551
S':'
asbag69
(g90
g71
NtRp1552
(dp1553
g74
(dp1554
sg83
g1539
sg76
(lp1555
g69
(g70
g71
NtRp1556
(dp1557
g74
(dp1558
g82
I4
ssg83
g1552
sg76
(lp1559
S'<socket._fileobject object at 0x196c6d0>'
p1560
asbasbasbag69
(g85
g71
NtRp1561
(dp1562
g74
(dp1563
sg83
g673
sg76
(lp1564
g69
(g90
g71
NtRp1565
(dp1566
g74
(dp1567
g94
g95
ssg83
g1561
sg76
(lp1568
S'wsgi_multiprocess'
p1569
asbag69
(g90
g71
NtRp1570
(dp1571
g74
(dp1572
g101
g102
ssg83
g1561
sg76
(lp1573
S':'
asbag69
(g90
g71
NtRp1574
(dp1575
g74
(dp1576
sg83
g1561
sg76
(lp1577
g69
(g70
g71
NtRp1578
(dp1579
g74
(dp1580
g82
I4
ssg83
g1574
sg76
(lp1581
g112
asbasbasbag69
(g85
g71
NtRp1582
(dp1583
g74
(dp1584
sg83
g673
sg76
(lp1585
g69
(g90
g71
NtRp1586
(dp1587
g74
(dp1588
g94
g95
ssg83
g1582
sg76
(lp1589
S'wsgi_multithread'
p1590
asbag69
(g90
g71
NtRp1591
(dp1592
g74
(dp1593
g101
g102
ssg83
g1582
sg76
(lp1594
S':'
asbag69
(g90
g71
NtRp1595
(dp1596
g74
(dp1597
sg83
g1582
sg76
(lp1598
g69
(g70
g71
NtRp1599
(dp1600
g74
(dp1601
g82
I4
ssg83
g1595
sg76
(lp1602
S'True'
p1603
asbasbasbag69
(g85
g71
NtRp1604
(dp1605
g74
(dp1606
sg83
g673
sg76
(lp1607
g69
(g90
g71
NtRp1608
(dp1609
g74
(dp1610
g94
g95
ssg83
g1604
sg76
(lp1611
S'wsgi_run_once'
p1612
asbag69
(g90
g71
NtRp1613
(dp1614
g74
(dp1615
g101
g102
ssg83
g1604
sg76
(lp1616
S':'
asbag69
(g90
g71
NtRp1617
(dp1618
g74
(dp1619
sg83
g1604
sg76
(lp1620
g69
(g70
g71
NtRp1621
(dp1622
g74
(dp1623
g82
I4
ssg83
g1617
sg76
(lp1624
g112
asbasbasbag69
(g85
g71
NtRp1625
(dp1626
g74
(dp1627
sg83
g673
sg76
(lp1628
g69
(g90
g71
NtRp1629
(dp1630
g74
(dp1631
g94
g95
ssg83
g1625
sg76
(lp1632
S'wsgi_url_scheme'
p1633
asbag69
(g90
g71
NtRp1634
(dp1635
g74
(dp1636
g101
g102
ssg83
g1625
sg76
(lp1637
S':'
asbag69
(g90
g71
NtRp1638
(dp1639
g74
(dp1640
sg83
g1625
sg76
(lp1641
g69
(g70
g71
NtRp1642
(dp1643
g74
(dp1644
g82
I4
ssg83
g1638
sg76
(lp1645
S'http'
p1646
asbasbasbag69
(g85
g71
NtRp1647
(dp1648
g74
(dp1649
sg83
g673
sg76
(lp1650
g69
(g90
g71
NtRp1651
(dp1652
g74
(dp1653
g94
g95
ssg83
g1647
sg76
(lp1654
S'wsgi_version'
p1655
asbag69
(g90
g71
NtRp1656
(dp1657
g74
(dp1658
g101
g102
ssg83
g1647
sg76
(lp1659
S':'
asbag69
(g90
g71
NtRp1660
(dp1661
g74
(dp1662
sg83
g1647
sg76
(lp1663
g69
(g70
g71
NtRp1664
(dp1665
g74
(dp1666
g82
I4
ssg83
g1660
sg76
(lp1667
g69
(g78
g71
NtRp1668
(dp1669
g74
(dp1670
g82
I3
ssg83
Nsg76
(lp1671
g69
(g85
g71
NtRp1672
(dp1673
g74
(dp1674
sg83
g1668
sg76
(lp1675
g69
(g90
g71
NtRp1676
(dp1677
g74
(dp1678
sg83
g1672
sg76
(lp1679
g69
(g70
g71
NtRp1680
(dp1681
g74
(dp1682
g82
I3
ssg83
g1676
sg76
(lp1683
S'1'
asbasbasbag69
(g85
g71
NtRp1684
(dp1685
g74
(dp1686
sg83
g1668
sg76
(lp1687
g69
(g90
g71
NtRp1688
(dp1689
g74
(dp1690
sg83
g1684
sg76
(lp1691
g69
(g70
g71
NtRp1692
(dp1693
g74
(dp1694
g82
I3
ssg83
g1688
sg76
(lp1695
S'0'
asbasbasbasbasbasbasbasbasbasbasbag69
(g85
g71
NtRp1696
(dp1697
g74
(dp1698
sg83
g79
sg76
(lp1699
g69
(g90
g71
NtRp1700
(dp1701
g74
(dp1702
g94
g95
ssg83
g1696
sg76
(lp1703
S'extension'
p1704
asbag69
(g90
g71
NtRp1705
(dp1706
g74
(dp1707
g101
g102
ssg83
g1696
sg76
(lp1708
S':'
asbag69
(g90
g71
NtRp1709
(dp1710
g74
(dp1711
sg83
g1696
sg76
(lp1712
g69
(g70
g71
NtRp1713
(dp1714
g74
(dp1715
g82
I5
ssg83
g1709
sg76
(lp1716
S'html'
p1717
asbasbasbag69
(g85
g71
NtRp1718
(dp1719
g74
(dp1720
sg83
g79
sg76
(lp1721
g69
(g90
g71
NtRp1722
(dp1723
g74
(dp1724
g94
g95
ssg83
g1718
sg76
(lp1725
S'folder'
p1726
asbag69
(g90
g71
NtRp1727
(dp1728
g74
(dp1729
g101
g102
ssg83
g1718
sg76
(lp1730
S':'
asbag69
(g90
g71
NtRp1731
(dp1732
g74
(dp1733
sg83
g1718
sg76
(lp1734
g69
(g70
g71
NtRp1735
(dp1736
g74
(dp1737
g82
I5
ssg83
g1731
sg76
(lp1738
S'/var/www/conferencia/applications/projeto/'
p1739
asbasbasbag69
(g85
g71
NtRp1740
(dp1741
g74
(dp1742
sg83
g79
sg76
(lp1743
g69
(g90
g71
NtRp1744
(dp1745
g74
(dp1746
g94
g95
ssg83
g1740
sg76
(lp1747
S'function'
p1748
asbag69
(g90
g71
NtRp1749
(dp1750
g74
(dp1751
g101
g102
ssg83
g1740
sg76
(lp1752
S':'
asbag69
(g90
g71
NtRp1753
(dp1754
g74
(dp1755
sg83
g1740
sg76
(lp1756
g69
(g70
g71
NtRp1757
(dp1758
g74
(dp1759
g82
I5
ssg83
g1753
sg76
(lp1760
S'principal'
p1761
asbasbasbag69
(g85
g71
NtRp1762
(dp1763
g74
(dp1764
sg83
g79
sg76
(lp1765
g69
(g90
g71
NtRp1766
(dp1767
g74
(dp1768
g94
g95
ssg83
g1762
sg76
(lp1769
S'get_vars'
p1770
asbag69
(g90
g71
NtRp1771
(dp1772
g74
(dp1773
g101
g102
ssg83
g1762
sg76
(lp1774
S':'
asbag69
(g90
g71
NtRp1775
(dp1776
g74
(dp1777
sg83
g1762
sg76
(lp1778
g69
(g70
g71
NtRp1779
(dp1780
g74
(dp1781
g82
I5
ssg83
g1775
sg76
(lp1782
g69
(g78
g71
NtRp1783
(dp1784
g74
(dp1785
g82
I4
ssg83
Nsg76
(lp1786
sbasbasbasbag69
(g85
g71
NtRp1787
(dp1788
g74
(dp1789
sg83
g79
sg76
(lp1790
g69
(g90
g71
NtRp1791
(dp1792
g74
(dp1793
g94
g95
ssg83
g1787
sg76
(lp1794
S'global_settings'
p1795
asbag69
(g90
g71
NtRp1796
(dp1797
g74
(dp1798
g101
g102
ssg83
g1787
sg76
(lp1799
S':'
asbag69
(g90
g71
NtRp1800
(dp1801
g74
(dp1802
sg83
g1787
sg76
(lp1803
g69
(g70
g71
NtRp1804
(dp1805
g74
(dp1806
g82
I5
ssg83
g1800
sg76
(lp1807
g69
(g78
g71
NtRp1808
(dp1809
g74
(dp1810
g82
I4
ssg83
Nsg76
(lp1811
g69
(g85
g71
NtRp1812
(dp1813
g74
(dp1814
sg83
g1808
sg76
(lp1815
g69
(g90
g71
NtRp1816
(dp1817
g74
(dp1818
g94
g95
ssg83
g1812
sg76
(lp1819
g685
asbag69
(g90
g71
NtRp1820
(dp1821
g74
(dp1822
g101
g102
ssg83
g1812
sg76
(lp1823
S':'
asbag69
(g90
g71
NtRp1824
(dp1825
g74
(dp1826
sg83
g1812
sg76
(lp1827
g69
(g70
g71
NtRp1828
(dp1829
g74
(dp1830
g82
I4
ssg83
g1824
sg76
(lp1831
S"set(['/var/www/conferencia/applications/admin/', '/var/www/conferencia/applications/projeto/'])"
p1832
asbasbasbag69
(g85
g71
NtRp1833
(dp1834
g74
(dp1835
sg83
g1808
sg76
(lp1836
g69
(g90
g71
NtRp1837
(dp1838
g74
(dp1839
g94
g95
ssg83
g1833
sg76
(lp1840
g707
asbag69
(g90
g71
NtRp1841
(dp1842
g74
(dp1843
g101
g102
ssg83
g1833
sg76
(lp1844
S':'
asbag69
(g90
g71
NtRp1845
(dp1846
g74
(dp1847
sg83
g1833
sg76
(lp1848
g69
(g70
g71
NtRp1849
(dp1850
g74
(dp1851
g82
I4
ssg83
g1845
sg76
(lp1852
g720
asbasbasbag69
(g85
g71
NtRp1853
(dp1854
g74
(dp1855
sg83
g1808
sg76
(lp1856
g69
(g90
g71
NtRp1857
(dp1858
g74
(dp1859
g94
g95
ssg83
g1853
sg76
(lp1860
g729
asbag69
(g90
g71
NtRp1861
(dp1862
g74
(dp1863
g101
g102
ssg83
g1853
sg76
(lp1864
S':'
asbag69
(g90
g71
NtRp1865
(dp1866
g74
(dp1867
sg83
g1853
sg76
(lp1868
g69
(g70
g71
NtRp1869
(dp1870
g74
(dp1871
g82
I4
ssg83
g1865
sg76
(lp1872
g69
(g78
g71
NtRp1873
(dp1874
g74
(dp1875
g82
I3
ssg83
Nsg76
(lp1876
sbasbasbasbag69
(g85
g71
NtRp1877
(dp1878
g74
(dp1879
sg83
g1808
sg76
(lp1880
g69
(g90
g71
NtRp1881
(dp1882
g74
(dp1883
g94
g95
ssg83
g1877
sg76
(lp1884
g754
asbag69
(g90
g71
NtRp1885
(dp1886
g74
(dp1887
g101
g102
ssg83
g1877
sg76
(lp1888
S':'
asbag69
(g90
g71
NtRp1889
(dp1890
g74
(dp1891
sg83
g1877
sg76
(lp1892
g69
(g70
g71
NtRp1893
(dp1894
g74
(dp1895
g82
I4
ssg83
g1889
sg76
(lp1896
S"<Values at 0x1885248: {'verbose': False, 'ip': '127.0.0.1', 'with_scheduler': False, 'ips': [], 'shutdown_timeout': 5, 'taskbar': False, 'port': 8000, 'maxthreads': None, 'softcron': False, 'server_name': 'fernando-workstation', 'bpython': False, 'nogui': False, 'pid_filename': 'httpserver.pid', 'extcron': False, 'runcron': False, 'run_system_tests': False, 'test': None, 'folder': '/var/www/conferencia', 'config': '', 'minthreads': None, 'winservice': '', 'shell': None, 'run': '', 'log_filename': 'httpserver.log', 'debuglevel': 30, 'args': [''], 'socket_timeout': 5, 'ssl_ca_certificate': None, 'scheduler': None, 'profiler_filename': None, 'ssl_private_key': '', 'scheduler_groups': None, 'password': '123456', 'request_queue_size': 5, 'ssl_certificate': '', 'cronjob': False, 'numthreads': None, 'quiet': False, 'interfaces': None, 'import_models': False, 'timeout': 10, 'plain': False, 'nobanner': False}>"
p1897
asbasbasbag69
(g85
g71
NtRp1898
(dp1899
g74
(dp1900
sg83
g1808
sg76
(lp1901
g69
(g90
g71
NtRp1902
(dp1903
g74
(dp1904
g94
g95
ssg83
g1898
sg76
(lp1905
g776
asbag69
(g90
g71
NtRp1906
(dp1907
g74
(dp1908
g101
g102
ssg83
g1898
sg76
(lp1909
S':'
asbag69
(g90
g71
NtRp1910
(dp1911
g74
(dp1912
sg83
g1898
sg76
(lp1913
g69
(g70
g71
NtRp1914
(dp1915
g74
(dp1916
g82
I4
ssg83
g1910
sg76
(lp1917
S'set([])'
p1918
asbasbasbag69
(g85
g71
NtRp1919
(dp1920
g74
(dp1921
sg83
g1808
sg76
(lp1922
g69
(g90
g71
NtRp1923
(dp1924
g74
(dp1925
g94
g95
ssg83
g1919
sg76
(lp1926
g798
asbag69
(g90
g71
NtRp1927
(dp1928
g74
(dp1929
g101
g102
ssg83
g1919
sg76
(lp1930
S':'
asbag69
(g90
g71
NtRp1931
(dp1932
g74
(dp1933
sg83
g1919
sg76
(lp1934
g69
(g70
g71
NtRp1935
(dp1936
g74
(dp1937
g82
I4
ssg83
g1931
sg76
(lp1938
g112
asbasbasbag69
(g85
g71
NtRp1939
(dp1940
g74
(dp1941
sg83
g1808
sg76
(lp1942
g69
(g90
g71
NtRp1943
(dp1944
g74
(dp1945
g94
g95
ssg83
g1939
sg76
(lp1946
g819
asbag69
(g90
g71
NtRp1947
(dp1948
g74
(dp1949
g101
g102
ssg83
g1939
sg76
(lp1950
S':'
asbag69
(g90
g71
NtRp1951
(dp1952
g74
(dp1953
sg83
g1939
sg76
(lp1954
g69
(g70
g71
NtRp1955
(dp1956
g74
(dp1957
g82
I4
ssg83
g1951
sg76
(lp1958
g832
asbasbasbag69
(g85
g71
NtRp1959
(dp1960
g74
(dp1961
sg83
g1808
sg76
(lp1962
g69
(g90
g71
NtRp1963
(dp1964
g74
(dp1965
g94
g95
ssg83
g1959
sg76
(lp1966
g1017
asbag69
(g90
g71
NtRp1967
(dp1968
g74
(dp1969
g101
g102
ssg83
g1959
sg76
(lp1970
S':'
asbag69
(g90
g71
NtRp1971
(dp1972
g74
(dp1973
sg83
g1959
sg76
(lp1974
g69
(g70
g71
NtRp1975
(dp1976
g74
(dp1977
g82
I4
ssg83
g1971
sg76
(lp1978
g112
asbasbasbag69
(g85
g71
NtRp1979
(dp1980
g74
(dp1981
sg83
g1808
sg76
(lp1982
g69
(g90
g71
NtRp1983
(dp1984
g74
(dp1985
g94
g95
ssg83
g1979
sg76
(lp1986
g1038
asbag69
(g90
g71
NtRp1987
(dp1988
g74
(dp1989
g101
g102
ssg83
g1979
sg76
(lp1990
S':'
asbag69
(g90
g71
NtRp1991
(dp1992
g74
(dp1993
sg83
g1979
sg76
(lp1994
g69
(g70
g71
NtRp1995
(dp1996
g74
(dp1997
g82
I4
ssg83
g1991
sg76
(lp1998
g112
asbasbasbag69
(g85
g71
NtRp1999
(dp2000
g74
(dp2001
sg83
g1808
sg76
(lp2002
g69
(g90
g71
NtRp2003
(dp2004
g74
(dp2005
g94
g95
ssg83
g1999
sg76
(lp2006
g1059
asbag69
(g90
g71
NtRp2007
(dp2008
g74
(dp2009
g101
g102
ssg83
g1999
sg76
(lp2010
S':'
asbag69
(g90
g71
NtRp2011
(dp2012
g74
(dp2013
sg83
g1999
sg76
(lp2014
g69
(g70
g71
NtRp2015
(dp2016
g74
(dp2017
g82
I4
ssg83
g2011
sg76
(lp2018
g69
(g78
g71
NtRp2019
(dp2020
g74
(dp2021
g82
I3
ssg83
Nsg76
(lp2022
g69
(g85
g71
NtRp2023
(dp2024
g74
(dp2025
sg83
g2019
sg76
(lp2026
g69
(g90
g71
NtRp2027
(dp2028
g74
(dp2029
sg83
g2023
sg76
(lp2030
g69
(g70
g71
NtRp2031
(dp2032
g74
(dp2033
g82
I3
ssg83
g2027
sg76
(lp2034
g1088
asbasbasbag69
(g85
g71
NtRp2035
(dp2036
g74
(dp2037
sg83
g2019
sg76
(lp2038
g69
(g90
g71
NtRp2039
(dp2040
g74
(dp2041
sg83
g2035
sg76
(lp2042
g69
(g70
g71
NtRp2043
(dp2044
g74
(dp2045
g82
I3
ssg83
g2039
sg76
(lp2046
g1101
asbasbasbag69
(g85
g71
NtRp2047
(dp2048
g74
(dp2049
sg83
g2019
sg76
(lp2050
g69
(g90
g71
NtRp2051
(dp2052
g74
(dp2053
sg83
g2047
sg76
(lp2054
g69
(g70
g71
NtRp2055
(dp2056
g74
(dp2057
g82
I3
ssg83
g2051
sg76
(lp2058
g1114
asbasbasbag69
(g85
g71
NtRp2059
(dp2060
g74
(dp2061
sg83
g2019
sg76
(lp2062
g69
(g90
g71
NtRp2063
(dp2064
g74
(dp2065
sg83
g2059
sg76
(lp2066
g69
(g70
g71
NtRp2067
(dp2068
g74
(dp2069
g82
I3
ssg83
g2063
sg76
(lp2070
g1127
asbasbasbasbasbasbasbag69
(g85
g71
NtRp2071
(dp2072
g74
(dp2073
sg83
g1808
sg76
(lp2074
g69
(g90
g71
NtRp2075
(dp2076
g74
(dp2077
g94
g95
ssg83
g2071
sg76
(lp2078
g1416
asbag69
(g90
g71
NtRp2079
(dp2080
g74
(dp2081
g101
g102
ssg83
g2071
sg76
(lp2082
S':'
asbag69
(g90
g71
NtRp2083
(dp2084
g74
(dp2085
sg83
g2071
sg76
(lp2086
g69
(g70
g71
NtRp2087
(dp2088
g74
(dp2089
g82
I4
ssg83
g2083
sg76
(lp2090
g69
(g78
g71
NtRp2091
(dp2092
g74
(dp2093
g82
I3
ssg83
Nsg76
(lp2094
g69
(g85
g71
NtRp2095
(dp2096
g74
(dp2097
sg83
g2091
sg76
(lp2098
g69
(g90
g71
NtRp2099
(dp2100
g74
(dp2101
sg83
g2095
sg76
(lp2102
g69
(g70
g71
NtRp2103
(dp2104
g74
(dp2105
g82
I3
ssg83
g2099
sg76
(lp2106
S'2'
asbasbasbag69
(g85
g71
NtRp2107
(dp2108
g74
(dp2109
sg83
g2091
sg76
(lp2110
g69
(g90
g71
NtRp2111
(dp2112
g74
(dp2113
sg83
g2107
sg76
(lp2114
g69
(g70
g71
NtRp2115
(dp2116
g74
(dp2117
g82
I3
ssg83
g2111
sg76
(lp2118
S'3'
asbasbasbag69
(g85
g71
NtRp2119
(dp2120
g74
(dp2121
sg83
g2091
sg76
(lp2122
g69
(g90
g71
NtRp2123
(dp2124
g74
(dp2125
sg83
g2119
sg76
(lp2126
g69
(g70
g71
NtRp2127
(dp2128
g74
(dp2129
g82
I3
ssg83
g2123
sg76
(lp2130
S'2'
asbasbasbag69
(g85
g71
NtRp2131
(dp2132
g74
(dp2133
sg83
g2091
sg76
(lp2134
g69
(g90
g71
NtRp2135
(dp2136
g74
(dp2137
sg83
g2131
sg76
(lp2138
g69
(g70
g71
NtRp2139
(dp2140
g74
(dp2141
g82
I3
ssg83
g2135
sg76
(lp2142
S'datetime.datetime(2012, 12, 17, 15, 3, 30)'
p2143
asbasbasbag69
(g85
g71
NtRp2144
(dp2145
g74
(dp2146
sg83
g2091
sg76
(lp2147
g69
(g90
g71
NtRp2148
(dp2149
g74
(dp2150
sg83
g2144
sg76
(lp2151
g69
(g70
g71
NtRp2152
(dp2153
g74
(dp2154
g82
I3
ssg83
g2148
sg76
(lp2155
g1494
asbasbasbasbasbasbasbasbasbasbasbag69
(g85
g71
NtRp2156
(dp2157
g74
(dp2158
sg83
g79
sg76
(lp2159
g69
(g90
g71
NtRp2160
(dp2161
g74
(dp2162
g94
g95
ssg83
g2156
sg76
(lp2163
S'is_https'
p2164
asbag69
(g90
g71
NtRp2165
(dp2166
g74
(dp2167
g101
g102
ssg83
g2156
sg76
(lp2168
S':'
asbag69
(g90
g71
NtRp2169
(dp2170
g74
(dp2171
sg83
g2156
sg76
(lp2172
g69
(g70
g71
NtRp2173
(dp2174
g74
(dp2175
g82
I5
ssg83
g2169
sg76
(lp2176
g112
asbasbasbag69
(g85
g71
NtRp2177
(dp2178
g74
(dp2179
sg83
g79
sg76
(lp2180
g69
(g90
g71
NtRp2181
(dp2182
g74
(dp2183
g94
g95
ssg83
g2177
sg76
(lp2184
S'is_local'
p2185
asbag69
(g90
g71
NtRp2186
(dp2187
g74
(dp2188
g101
g102
ssg83
g2177
sg76
(lp2189
S':'
asbag69
(g90
g71
NtRp2190
(dp2191
g74
(dp2192
sg83
g2177
sg76
(lp2193
g69
(g70
g71
NtRp2194
(dp2195
g74
(dp2196
g82
I5
ssg83
g2190
sg76
(lp2197
g1603
asbasbasbag69
(g85
g71
NtRp2198
(dp2199
g74
(dp2200
sg83
g79
sg76
(lp2201
g69
(g90
g71
NtRp2202
(dp2203
g74
(dp2204
g94
g95
ssg83
g2198
sg76
(lp2205
S'is_restful'
p2206
asbag69
(g90
g71
NtRp2207
(dp2208
g74
(dp2209
g101
g102
ssg83
g2198
sg76
(lp2210
S':'
asbag69
(g90
g71
NtRp2211
(dp2212
g74
(dp2213
sg83
g2198
sg76
(lp2214
g69
(g70
g71
NtRp2215
(dp2216
g74
(dp2217
g82
I5
ssg83
g2211
sg76
(lp2218
g112
asbasbasbag69
(g85
g71
NtRp2219
(dp2220
g74
(dp2221
sg83
g79
sg76
(lp2222
g69
(g90
g71
NtRp2223
(dp2224
g74
(dp2225
g94
g95
ssg83
g2219
sg76
(lp2226
S'now'
p2227
asbag69
(g90
g71
NtRp2228
(dp2229
g74
(dp2230
g101
g102
ssg83
g2219
sg76
(lp2231
S':'
asbag69
(g90
g71
NtRp2232
(dp2233
g74
(dp2234
sg83
g2219
sg76
(lp2235
g69
(g70
g71
NtRp2236
(dp2237
g74
(dp2238
g82
I5
ssg83
g2232
sg76
(lp2239
S'datetime.datetime(2013, 4, 5, 15, 56, 3, 202514)'
p2240
asbasbasbag69
(g85
g71
NtRp2241
(dp2242
g74
(dp2243
sg83
g79
sg76
(lp2244
g69
(g90
g71
NtRp2245
(dp2246
g74
(dp2247
g94
g95
ssg83
g2241
sg76
(lp2248
S'post_vars'
p2249
asbag69
(g90
g71
NtRp2250
(dp2251
g74
(dp2252
g101
g102
ssg83
g2241
sg76
(lp2253
S':'
asbag69
(g90
g71
NtRp2254
(dp2255
g74
(dp2256
sg83
g2241
sg76
(lp2257
g69
(g70
g71
NtRp2258
(dp2259
g74
(dp2260
g82
I5
ssg83
g2254
sg76
(lp2261
g69
(g78
g71
NtRp2262
(dp2263
g74
(dp2264
g82
I4
ssg83
Nsg76
(lp2265
sbasbasbasbag69
(g85
g71
NtRp2266
(dp2267
g74
(dp2268
sg83
g79
sg76
(lp2269
g69
(g90
g71
NtRp2270
(dp2271
g74
(dp2272
g94
g95
ssg83
g2266
sg76
(lp2273
S'url'
p2274
asbag69
(g90
g71
NtRp2275
(dp2276
g74
(dp2277
g101
g102
ssg83
g2266
sg76
(lp2278
S':'
asbag69
(g90
g71
NtRp2279
(dp2280
g74
(dp2281
sg83
g2266
sg76
(lp2282
g69
(g70
g71
NtRp2283
(dp2284
g74
(dp2285
g82
I5
ssg83
g2279
sg76
(lp2286
S'/'
asbasbasbag69
(g85
g71
NtRp2287
(dp2288
g74
(dp2289
sg83
g79
sg76
(lp2290
g69
(g90
g71
NtRp2291
(dp2292
g74
(dp2293
g94
g95
ssg83
g2287
sg76
(lp2294
S'utcnow'
p2295
asbag69
(g90
g71
NtRp2296
(dp2297
g74
(dp2298
g101
g102
ssg83
g2287
sg76
(lp2299
S':'
asbag69
(g90
g71
NtRp2300
(dp2301
g74
(dp2302
sg83
g2287
sg76
(lp2303
g69
(g70
g71
NtRp2304
(dp2305
g74
(dp2306
g82
I5
ssg83
g2300
sg76
(lp2307
S'datetime.datetime(2013, 4, 5, 18, 56, 3, 202556)'
p2308
asbasbasbag69
(g85
g71
NtRp2309
(dp2310
g74
(dp2311
sg83
g79
sg76
(lp2312
g69
(g90
g71
NtRp2313
(dp2314
g74
(dp2315
g94
g95
ssg83
g2309
sg76
(lp2316
S'uuid'
p2317
asbag69
(g90
g71
NtRp2318
(dp2319
g74
(dp2320
g101
g102
ssg83
g2309
sg76
(lp2321
S':'
asbag69
(g90
g71
NtRp2322
(dp2323
g74
(dp2324
sg83
g2309
sg76
(lp2325
g69
(g70
g71
NtRp2326
(dp2327
g74
(dp2328
g82
I5
ssg83
g2322
sg76
(lp2329
S'projeto/127.0.0.1.2013-04-05.15-56-03.a9706362-0d56-47c4-b57d-64dc7709ddeb'
p2330
asbasbasbag69
(g85
g71
NtRp2331
(dp2332
g74
(dp2333
sg83
g79
sg76
(lp2334
g69
(g90
g71
NtRp2335
(dp2336
g74
(dp2337
g94
g95
ssg83
g2331
sg76
(lp2338
S'vars'
p2339
asbag69
(g90
g71
NtRp2340
(dp2341
g74
(dp2342
g101
g102
ssg83
g2331
sg76
(lp2343
S':'
asbag69
(g90
g71
NtRp2344
(dp2345
g74
(dp2346
sg83
g2331
sg76
(lp2347
g69
(g70
g71
NtRp2348
(dp2349
g74
(dp2350
g82
I5
ssg83
g2344
sg76
(lp2351
g69
(g78
g71
NtRp2352
(dp2353
g74
(dp2354
g82
I4
ssg83
Nsg76
(lp2355
sbasbasbasbag69
(g85
g71
NtRp2356
(dp2357
g74
(dp2358
sg83
g79
sg76
(lp2359
g69
(g90
g71
NtRp2360
(dp2361
g74
(dp2362
g94
g95
ssg83
g2356
sg76
(lp2363
S'wsgi'
p2364
asbag69
(g90
g71
NtRp2365
(dp2366
g74
(dp2367
g101
g102
ssg83
g2356
sg76
(lp2368
S':'
asbag69
(g90
g71
NtRp2369
(dp2370
g74
(dp2371
sg83
g2356
sg76
(lp2372
g69
(g70
g71
NtRp2373
(dp2374
g74
(dp2375
g82
I5
ssg83
g2369
sg76
(lp2376
g69
(g78
g71
NtRp2377
(dp2378
g74
(dp2379
g82
I4
ssg83
Nsg76
(lp2380
g69
(g85
g71
NtRp2381
(dp2382
g74
(dp2383
sg83
g2377
sg76
(lp2384
g69
(g90
g71
NtRp2385
(dp2386
g74
(dp2387
g94
g95
ssg83
g2381
sg76
(lp2388
S'environ'
p2389
asbag69
(g90
g71
NtRp2390
(dp2391
g74
(dp2392
g101
g102
ssg83
g2381
sg76
(lp2393
S':'
asbag69
(g90
g71
NtRp2394
(dp2395
g74
(dp2396
sg83
g2381
sg76
(lp2397
g69
(g70
g71
NtRp2398
(dp2399
g74
(dp2400
g82
I4
ssg83
g2394
sg76
(lp2401
g69
(g78
g71
NtRp2402
(dp2403
g74
(dp2404
g82
I3
ssg83
Nsg76
(lp2405
g69
(g85
g71
NtRp2406
(dp2407
g74
(dp2408
sg83
g2402
sg76
(lp2409
g69
(g90
g71
NtRp2410
(dp2411
g74
(dp2412
g94
g95
ssg83
g2406
sg76
(lp2413
S'HTTP_ACCEPT'
p2414
asbag69
(g90
g71
NtRp2415
(dp2416
g74
(dp2417
g101
g102
ssg83
g2406
sg76
(lp2418
S':'
asbag69
(g90
g71
NtRp2419
(dp2420
g74
(dp2421
sg83
g2406
sg76
(lp2422
g69
(g70
g71
NtRp2423
(dp2424
g74
(dp2425
g82
I3
ssg83
g2419
sg76
(lp2426
g854
asbasbasbag69
(g85
g71
NtRp2427
(dp2428
g74
(dp2429
sg83
g2402
sg76
(lp2430
g69
(g90
g71
NtRp2431
(dp2432
g74
(dp2433
g94
g95
ssg83
g2427
sg76
(lp2434
S'HTTP_ACCEPT_CHARSET'
p2435
asbag69
(g90
g71
NtRp2436
(dp2437
g74
(dp2438
g101
g102
ssg83
g2427
sg76
(lp2439
S':'
asbag69
(g90
g71
NtRp2440
(dp2441
g74
(dp2442
sg83
g2427
sg76
(lp2443
g69
(g70
g71
NtRp2444
(dp2445
g74
(dp2446
g82
I3
ssg83
g2440
sg76
(lp2447
g876
asbasbasbag69
(g85
g71
NtRp2448
(dp2449
g74
(dp2450
sg83
g2402
sg76
(lp2451
g69
(g90
g71
NtRp2452
(dp2453
g74
(dp2454
g94
g95
ssg83
g2448
sg76
(lp2455
S'HTTP_ACCEPT_ENCODING'
p2456
asbag69
(g90
g71
NtRp2457
(dp2458
g74
(dp2459
g101
g102
ssg83
g2448
sg76
(lp2460
S':'
asbag69
(g90
g71
NtRp2461
(dp2462
g74
(dp2463
sg83
g2448
sg76
(lp2464
g69
(g70
g71
NtRp2465
(dp2466
g74
(dp2467
g82
I3
ssg83
g2461
sg76
(lp2468
g898
asbasbasbag69
(g85
g71
NtRp2469
(dp2470
g74
(dp2471
sg83
g2402
sg76
(lp2472
g69
(g90
g71
NtRp2473
(dp2474
g74
(dp2475
g94
g95
ssg83
g2469
sg76
(lp2476
S'HTTP_ACCEPT_LANGUAGE'
p2477
asbag69
(g90
g71
NtRp2478
(dp2479
g74
(dp2480
g101
g102
ssg83
g2469
sg76
(lp2481
S':'
asbag69
(g90
g71
NtRp2482
(dp2483
g74
(dp2484
sg83
g2469
sg76
(lp2485
g69
(g70
g71
NtRp2486
(dp2487
g74
(dp2488
g82
I3
ssg83
g2482
sg76
(lp2489
g920
asbasbasbag69
(g85
g71
NtRp2490
(dp2491
g74
(dp2492
sg83
g2402
sg76
(lp2493
g69
(g90
g71
NtRp2494
(dp2495
g74
(dp2496
g94
g95
ssg83
g2490
sg76
(lp2497
S'HTTP_CONNECTION'
p2498
asbag69
(g90
g71
NtRp2499
(dp2500
g74
(dp2501
g101
g102
ssg83
g2490
sg76
(lp2502
S':'
asbag69
(g90
g71
NtRp2503
(dp2504
g74
(dp2505
sg83
g2490
sg76
(lp2506
g69
(g70
g71
NtRp2507
(dp2508
g74
(dp2509
g82
I3
ssg83
g2503
sg76
(lp2510
g942
asbasbasbag69
(g85
g71
NtRp2511
(dp2512
g74
(dp2513
sg83
g2402
sg76
(lp2514
g69
(g90
g71
NtRp2515
(dp2516
g74
(dp2517
g94
g95
ssg83
g2511
sg76
(lp2518
S'HTTP_COOKIE'
p2519
asbag69
(g90
g71
NtRp2520
(dp2521
g74
(dp2522
g101
g102
ssg83
g2511
sg76
(lp2523
S':'
asbag69
(g90
g71
NtRp2524
(dp2525
g74
(dp2526
sg83
g2511
sg76
(lp2527
g69
(g70
g71
NtRp2528
(dp2529
g74
(dp2530
g82
I3
ssg83
g2524
sg76
(lp2531
g964
asbasbasbag69
(g85
g71
NtRp2532
(dp2533
g74
(dp2534
sg83
g2402
sg76
(lp2535
g69
(g90
g71
NtRp2536
(dp2537
g74
(dp2538
g94
g95
ssg83
g2532
sg76
(lp2539
S'HTTP_HOST'
p2540
asbag69
(g90
g71
NtRp2541
(dp2542
g74
(dp2543
g101
g102
ssg83
g2532
sg76
(lp2544
S':'
asbag69
(g90
g71
NtRp2545
(dp2546
g74
(dp2547
sg83
g2532
sg76
(lp2548
g69
(g70
g71
NtRp2549
(dp2550
g74
(dp2551
g82
I3
ssg83
g2545
sg76
(lp2552
g986
asbasbasbag69
(g85
g71
NtRp2553
(dp2554
g74
(dp2555
sg83
g2402
sg76
(lp2556
g69
(g90
g71
NtRp2557
(dp2558
g74
(dp2559
g94
g95
ssg83
g2553
sg76
(lp2560
S'HTTP_USER_AGENT'
p2561
asbag69
(g90
g71
NtRp2562
(dp2563
g74
(dp2564
g101
g102
ssg83
g2553
sg76
(lp2565
S':'
asbag69
(g90
g71
NtRp2566
(dp2567
g74
(dp2568
sg83
g2553
sg76
(lp2569
g69
(g70
g71
NtRp2570
(dp2571
g74
(dp2572
g82
I3
ssg83
g2566
sg76
(lp2573
g1008
asbasbasbag69
(g85
g71
NtRp2574
(dp2575
g74
(dp2576
sg83
g2402
sg76
(lp2577
g69
(g90
g71
NtRp2578
(dp2579
g74
(dp2580
g94
g95
ssg83
g2574
sg76
(lp2581
S'PATH_INFO'
p2582
asbag69
(g90
g71
NtRp2583
(dp2584
g74
(dp2585
g101
g102
ssg83
g2574
sg76
(lp2586
S':'
asbag69
(g90
g71
NtRp2587
(dp2588
g74
(dp2589
sg83
g2574
sg76
(lp2590
g69
(g70
g71
NtRp2591
(dp2592
g74
(dp2593
g82
I3
ssg83
g2587
sg76
(lp2594
S'/'
asbasbasbag69
(g85
g71
NtRp2595
(dp2596
g74
(dp2597
sg83
g2402
sg76
(lp2598
g69
(g90
g71
NtRp2599
(dp2600
g74
(dp2601
g94
g95
ssg83
g2595
sg76
(lp2602
S'QUERY_STRING'
p2603
asbag69
(g90
g71
NtRp2604
(dp2605
g74
(dp2606
g101
g102
ssg83
g2595
sg76
(lp2607
S':'
asbag69
(g90
g71
NtRp2608
(dp2609
g74
(dp2610
sg83
g2595
sg76
(lp2611
g69
(g70
g71
NtRp2612
(dp2613
g74
(dp2614
g82
I3
ssg83
g2608
sg76
(lp2615
S''
asbasbasbag69
(g85
g71
NtRp2616
(dp2617
g74
(dp2618
sg83
g2402
sg76
(lp2619
g69
(g90
g71
NtRp2620
(dp2621
g74
(dp2622
g94
g95
ssg83
g2616
sg76
(lp2623
S'REMOTE_ADDR'
p2624
asbag69
(g90
g71
NtRp2625
(dp2626
g74
(dp2627
g101
g102
ssg83
g2616
sg76
(lp2628
S':'
asbag69
(g90
g71
NtRp2629
(dp2630
g74
(dp2631
sg83
g2616
sg76
(lp2632
g69
(g70
g71
NtRp2633
(dp2634
g74
(dp2635
g82
I3
ssg83
g2629
sg76
(lp2636
g224
asbasbasbag69
(g85
g71
NtRp2637
(dp2638
g74
(dp2639
sg83
g2402
sg76
(lp2640
g69
(g90
g71
NtRp2641
(dp2642
g74
(dp2643
g94
g95
ssg83
g2637
sg76
(lp2644
S'REMOTE_PORT'
p2645
asbag69
(g90
g71
NtRp2646
(dp2647
g74
(dp2648
g101
g102
ssg83
g2637
sg76
(lp2649
S':'
asbag69
(g90
g71
NtRp2650
(dp2651
g74
(dp2652
sg83
g2637
sg76
(lp2653
g69
(g70
g71
NtRp2654
(dp2655
g74
(dp2656
g82
I3
ssg83
g2650
sg76
(lp2657
g1212
asbasbasbag69
(g85
g71
NtRp2658
(dp2659
g74
(dp2660
sg83
g2402
sg76
(lp2661
g69
(g90
g71
NtRp2662
(dp2663
g74
(dp2664
g94
g95
ssg83
g2658
sg76
(lp2665
S'REQUEST_METHOD'
p2666
asbag69
(g90
g71
NtRp2667
(dp2668
g74
(dp2669
g101
g102
ssg83
g2658
sg76
(lp2670
S':'
asbag69
(g90
g71
NtRp2671
(dp2672
g74
(dp2673
sg83
g2658
sg76
(lp2674
g69
(g70
g71
NtRp2675
(dp2676
g74
(dp2677
g82
I3
ssg83
g2671
sg76
(lp2678
g1234
asbasbasbag69
(g85
g71
NtRp2679
(dp2680
g74
(dp2681
sg83
g2402
sg76
(lp2682
g69
(g90
g71
NtRp2683
(dp2684
g74
(dp2685
g94
g95
ssg83
g2679
sg76
(lp2686
S'REQUEST_URI'
p2687
asbag69
(g90
g71
NtRp2688
(dp2689
g74
(dp2690
g101
g102
ssg83
g2679
sg76
(lp2691
S':'
asbag69
(g90
g71
NtRp2692
(dp2693
g74
(dp2694
sg83
g2679
sg76
(lp2695
g69
(g70
g71
NtRp2696
(dp2697
g74
(dp2698
g82
I3
ssg83
g2692
sg76
(lp2699
g1256
asbasbasbag69
(g85
g71
NtRp2700
(dp2701
g74
(dp2702
sg83
g2402
sg76
(lp2703
g69
(g90
g71
NtRp2704
(dp2705
g74
(dp2706
g94
g95
ssg83
g2700
sg76
(lp2707
S'SCRIPT_NAME'
p2708
asbag69
(g90
g71
NtRp2709
(dp2710
g74
(dp2711
g101
g102
ssg83
g2700
sg76
(lp2712
S':'
asbag69
(g90
g71
NtRp2713
(dp2714
g74
(dp2715
sg83
g2700
sg76
(lp2716
g69
(g70
g71
NtRp2717
(dp2718
g74
(dp2719
g82
I3
ssg83
g2713
sg76
(lp2720
S''
asbasbasbag69
(g85
g71
NtRp2721
(dp2722
g74
(dp2723
sg83
g2402
sg76
(lp2724
g69
(g90
g71
NtRp2725
(dp2726
g74
(dp2727
g94
g95
ssg83
g2721
sg76
(lp2728
S'SERVER_NAME'
p2729
asbag69
(g90
g71
NtRp2730
(dp2731
g74
(dp2732
g101
g102
ssg83
g2721
sg76
(lp2733
S':'
asbag69
(g90
g71
NtRp2734
(dp2735
g74
(dp2736
sg83
g2721
sg76
(lp2737
g69
(g70
g71
NtRp2738
(dp2739
g74
(dp2740
g82
I3
ssg83
g2734
sg76
(lp2741
g1299
asbasbasbag69
(g85
g71
NtRp2742
(dp2743
g74
(dp2744
sg83
g2402
sg76
(lp2745
g69
(g90
g71
NtRp2746
(dp2747
g74
(dp2748
g94
g95
ssg83
g2742
sg76
(lp2749
S'SERVER_PORT'
p2750
asbag69
(g90
g71
NtRp2751
(dp2752
g74
(dp2753
g101
g102
ssg83
g2742
sg76
(lp2754
S':'
asbag69
(g90
g71
NtRp2755
(dp2756
g74
(dp2757
sg83
g2742
sg76
(lp2758
g69
(g70
g71
NtRp2759
(dp2760
g74
(dp2761
g82
I3
ssg83
g2755
sg76
(lp2762
g1321
asbasbasbag69
(g85
g71
NtRp2763
(dp2764
g74
(dp2765
sg83
g2402
sg76
(lp2766
g69
(g90
g71
NtRp2767
(dp2768
g74
(dp2769
g94
g95
ssg83
g2763
sg76
(lp2770
S'SERVER_PROTOCOL'
p2771
asbag69
(g90
g71
NtRp2772
(dp2773
g74
(dp2774
g101
g102
ssg83
g2763
sg76
(lp2775
S':'
asbag69
(g90
g71
NtRp2776
(dp2777
g74
(dp2778
sg83
g2763
sg76
(lp2779
g69
(g70
g71
NtRp2780
(dp2781
g74
(dp2782
g82
I3
ssg83
g2776
sg76
(lp2783
g1343
asbasbasbag69
(g85
g71
NtRp2784
(dp2785
g74
(dp2786
sg83
g2402
sg76
(lp2787
g69
(g90
g71
NtRp2788
(dp2789
g74
(dp2790
g94
g95
ssg83
g2784
sg76
(lp2791
S'SERVER_SOFTWARE'
p2792
asbag69
(g90
g71
NtRp2793
(dp2794
g74
(dp2795
g101
g102
ssg83
g2784
sg76
(lp2796
S':'
asbag69
(g90
g71
NtRp2797
(dp2798
g74
(dp2799
sg83
g2784
sg76
(lp2800
g69
(g70
g71
NtRp2801
(dp2802
g74
(dp2803
g82
I3
ssg83
g2797
sg76
(lp2804
g1365
asbasbasbag69
(g85
g71
NtRp2805
(dp2806
g74
(dp2807
sg83
g2402
sg76
(lp2808
g69
(g90
g71
NtRp2809
(dp2810
g74
(dp2811
g94
g95
ssg83
g2805
sg76
(lp2812
S'WEB2PY_ORIGINAL_URI'
p2813
asbag69
(g90
g71
NtRp2814
(dp2815
g74
(dp2816
g101
g102
ssg83
g2805
sg76
(lp2817
S':'
asbag69
(g90
g71
NtRp2818
(dp2819
g74
(dp2820
sg83
g2805
sg76
(lp2821
g69
(g70
g71
NtRp2822
(dp2823
g74
(dp2824
g82
I3
ssg83
g2818
sg76
(lp2825
S'/'
asbasbasbag69
(g85
g71
NtRp2826
(dp2827
g74
(dp2828
sg83
g2402
sg76
(lp2829
g69
(g90
g71
NtRp2830
(dp2831
g74
(dp2832
g94
g95
ssg83
g2826
sg76
(lp2833
S'wsgi.errors'
p2834
asbag69
(g90
g71
NtRp2835
(dp2836
g74
(dp2837
g101
g102
ssg83
g2826
sg76
(lp2838
S':'
asbag69
(g90
g71
NtRp2839
(dp2840
g74
(dp2841
sg83
g2826
sg76
(lp2842
g69
(g70
g71
NtRp2843
(dp2844
g74
(dp2845
g82
I3
ssg83
g2839
sg76
(lp2846
S"<open file '<stderr>', mode 'w' at 0x7fc41b634270>"
p2847
asbasbasbag69
(g85
g71
NtRp2848
(dp2849
g74
(dp2850
sg83
g2402
sg76
(lp2851
g69
(g90
g71
NtRp2852
(dp2853
g74
(dp2854
g94
g95
ssg83
g2848
sg76
(lp2855
S'wsgi.file_wrapper'
p2856
asbag69
(g90
g71
NtRp2857
(dp2858
g74
(dp2859
g101
g102
ssg83
g2848
sg76
(lp2860
S':'
asbag69
(g90
g71
NtRp2861
(dp2862
g74
(dp2863
sg83
g2848
sg76
(lp2864
g69
(g70
g71
NtRp2865
(dp2866
g74
(dp2867
g82
I3
ssg83
g2861
sg76
(lp2868
S'<class wsgiref.util.FileWrapper at 0x17fd598>'
p2869
asbasbasbag69
(g85
g71
NtRp2870
(dp2871
g74
(dp2872
sg83
g2402
sg76
(lp2873
g69
(g90
g71
NtRp2874
(dp2875
g74
(dp2876
g94
g95
ssg83
g2870
sg76
(lp2877
S'wsgi.input'
p2878
asbag69
(g90
g71
NtRp2879
(dp2880
g74
(dp2881
g101
g102
ssg83
g2870
sg76
(lp2882
S':'
asbag69
(g90
g71
NtRp2883
(dp2884
g74
(dp2885
sg83
g2870
sg76
(lp2886
g69
(g70
g71
NtRp2887
(dp2888
g74
(dp2889
g82
I3
ssg83
g2883
sg76
(lp2890
S'<cStringIO.StringO object at 0x7fc3ec926110>'
p2891
asbasbasbag69
(g85
g71
NtRp2892
(dp2893
g74
(dp2894
sg83
g2402
sg76
(lp2895
g69
(g90
g71
NtRp2896
(dp2897
g74
(dp2898
g94
g95
ssg83
g2892
sg76
(lp2899
S'wsgi.multiprocess'
p2900
asbag69
(g90
g71
NtRp2901
(dp2902
g74
(dp2903
g101
g102
ssg83
g2892
sg76
(lp2904
S':'
asbag69
(g90
g71
NtRp2905
(dp2906
g74
(dp2907
sg83
g2892
sg76
(lp2908
g69
(g70
g71
NtRp2909
(dp2910
g74
(dp2911
g82
I3
ssg83
g2905
sg76
(lp2912
g112
asbasbasbag69
(g85
g71
NtRp2913
(dp2914
g74
(dp2915
sg83
g2402
sg76
(lp2916
g69
(g90
g71
NtRp2917
(dp2918
g74
(dp2919
g94
g95
ssg83
g2913
sg76
(lp2920
S'wsgi.multithread'
p2921
asbag69
(g90
g71
NtRp2922
(dp2923
g74
(dp2924
g101
g102
ssg83
g2913
sg76
(lp2925
S':'
asbag69
(g90
g71
NtRp2926
(dp2927
g74
(dp2928
sg83
g2913
sg76
(lp2929
g69
(g70
g71
NtRp2930
(dp2931
g74
(dp2932
g82
I3
ssg83
g2926
sg76
(lp2933
g1603
asbasbasbag69
(g85
g71
NtRp2934
(dp2935
g74
(dp2936
sg83
g2402
sg76
(lp2937
g69
(g90
g71
NtRp2938
(dp2939
g74
(dp2940
g94
g95
ssg83
g2934
sg76
(lp2941
S'wsgi.run_once'
p2942
asbag69
(g90
g71
NtRp2943
(dp2944
g74
(dp2945
g101
g102
ssg83
g2934
sg76
(lp2946
S':'
asbag69
(g90
g71
NtRp2947
(dp2948
g74
(dp2949
sg83
g2934
sg76
(lp2950
g69
(g70
g71
NtRp2951
(dp2952
g74
(dp2953
g82
I3
ssg83
g2947
sg76
(lp2954
g112
asbasbasbag69
(g85
g71
NtRp2955
(dp2956
g74
(dp2957
sg83
g2402
sg76
(lp2958
g69
(g90
g71
NtRp2959
(dp2960
g74
(dp2961
g94
g95
ssg83
g2955
sg76
(lp2962
S'wsgi.url_scheme'
p2963
asbag69
(g90
g71
NtRp2964
(dp2965
g74
(dp2966
g101
g102
ssg83
g2955
sg76
(lp2967
S':'
asbag69
(g90
g71
NtRp2968
(dp2969
g74
(dp2970
sg83
g2955
sg76
(lp2971
g69
(g70
g71
NtRp2972
(dp2973
g74
(dp2974
g82
I3
ssg83
g2968
sg76
(lp2975
g1646
asbasbasbag69
(g85
g71
NtRp2976
(dp2977
g74
(dp2978
sg83
g2402
sg76
(lp2979
g69
(g90
g71
NtRp2980
(dp2981
g74
(dp2982
g94
g95
ssg83
g2976
sg76
(lp2983
S'wsgi.version'
p2984
asbag69
(g90
g71
NtRp2985
(dp2986
g74
(dp2987
g101
g102
ssg83
g2976
sg76
(lp2988
S':'
asbag69
(g90
g71
NtRp2989
(dp2990
g74
(dp2991
sg83
g2976
sg76
(lp2992
g69
(g70
g71
NtRp2993
(dp2994
g74
(dp2995
g82
I3
ssg83
g2989
sg76
(lp2996
S'1'
asbasbasbasbasbasbasbasbasbasbasbasbasbsS'frames'
p2997
(lp2998
(dp2999
S'file'
p3000
S'/var/www/conferencia/gluon/restricted.py'
p3001
sS'dump'
p3002
(dp3003
S'code'
p3004
S"'# coding: utf-8\\n\\ndef principal():\\n\\tresponse.titl...s)\\n\\n\\n\\nresponse._vars=response._caller(principal)\\n'"
p3005
sS'layer'
p3006
S"'/var/www/conferencia/applications/projeto/controllers/initial.py'"
p3007
sS'global compile2'
p3008
S'<function compile2>'
p3009
sS'ccode'
p3010
S'undefined'
p3011
ssS'lnum'
p3012
I211
sS'lines'
p3013
(dp3014
I206
S"    environment['__name__'] = '__restricted__'"
p3015
sI207
S'    try:'
p3016
sI208
S'        if isinstance(code, types.CodeType):'
p3017
sI209
S'            ccode = code'
p3018
sI210
S'        else:'
p3019
sI211
S'            ccode = compile2(code, layer)'
p3020
sI212
S'        exec ccode in environment'
p3021
sI213
S'    except HTTP:'
p3022
sI214
S'        raise'
p3023
sI215
S'    except RestrictedError:'
p3024
ssS'call'
p3025
S"(code='# coding: utf-8\\n\\ndef principal():\\n\\tresponse.titl...s)\\n\\n\\n\\nresponse._vars=response._caller(principal)\\n', environment={'A': <class 'gluon.html.A'>, 'Auth': <class 'gluon.tools.Auth'>, 'B': <class 'gluon.html.B'>, 'BEAUTIFY': <class 'gluon.html.BEAUTIFY'>, 'BODY': <class 'gluon.html.BODY'>, 'BR': <class 'gluon.html.BR'>, 'BUTTON': <class 'gluon.html.BUTTON'>, 'CAT': <class 'gluon.html.CAT'>, 'CENTER': <class 'gluon.html.CENTER'>, 'CLEANUP': <class 'gluon.validators.CLEANUP'>, ...}, layer='/var/www/conferencia/applications/projeto/controllers/initial.py')"
p3026
sS'func'
p3027
S'restricted'
p3028
sa(dp3029
g3000
S'/var/www/conferencia/gluon/restricted.py'
p3030
sg3002
(dp3031
S'builtincompile'
p3032
S'<built-in function compile>'
p3033
sS'code'
p3034
S"'# coding: utf-8\\n\\ndef principal():\\n\\tresponse.titl...s)\\n\\n\\n\\nresponse._vars=response._caller(principal)\\n'"
p3035
sS'code.rstrip'
p3036
S'<built-in method rstrip of str object>'
p3037
sS').replace'
p3038
g3011
sS'layer'
p3039
S"'/var/www/conferencia/applications/projeto/controllers/initial.py'"
p3040
ssg3012
I194
sg3013
(dp3041
I192
S"    The +'\\n' is necessary else compile fails when code ends in a comment."
p3042
sI193
S'    """'
p3043
sI194
S"    return compile(code.rstrip().replace('\\r\\n', '\\n') + '\\n', layer, 'exec')"
p3044
sI195
S''
sI196
S''
sI197
S"def restricted(code, environment=None, layer='Unknown'):"
p3045
sI198
S'    """'
p3046
sI189
S''
sI190
S'def compile2(code, layer):'
p3047
sI191
S'    """'
p3048
ssg3025
S"(code='# coding: utf-8\\n\\ndef principal():\\n\\tresponse.titl...s)\\n\\n\\n\\nresponse._vars=response._caller(principal)\\n', layer='/var/www/conferencia/applications/projeto/controllers/initial.py')"
p3049
sg3027
S'compile2'
p3050
sasS'pyver'
p3051
S'Python 2.7.3: /usr/bin/python'
p3052
sS'session'
p3053
g69
(g70
g71
NtRp3054
(dp3055
g74
(dp3056
sg76
(lp3057
g69
(g78
g71
NtRp3058
(dp3059
g74
(dp3060
g82
I5
ssg83
Nsg76
(lp3061
sbasbsS'etype'
p3062
S"<type 'exceptions.IndentationError'>"
p3063
sS'date'
p3064
S'Fri Apr  5 15:56:03 2013'
p3065
sS'response'
p3066
g69
(g70
g71
NtRp3067
(dp3068
g74
(dp3069
sg76
(lp3070
g69
(g78
g71
NtRp3071
(dp3072
g74
(dp3073
g82
I5
ssg83
Nsg76
(lp3074
g69
(g85
g71
NtRp3075
(dp3076
g74
(dp3077
sg83
g3071
sg76
(lp3078
g69
(g90
g71
NtRp3079
(dp3080
g74
(dp3081
g94
g95
ssg83
g3075
sg76
(lp3082
g167
asbag69
(g90
g71
NtRp3083
(dp3084
g74
(dp3085
g101
g102
ssg83
g3075
sg76
(lp3086
S':'
asbag69
(g90
g71
NtRp3087
(dp3088
g74
(dp3089
sg83
g3075
sg76
(lp3090
g69
(g70
g71
NtRp3091
(dp3092
g74
(dp3093
g82
I5
ssg83
g3087
sg76
(lp3094
S'<cStringIO.StringO object at 0x7fc3ec926c00>'
p3095
asbasbasbag69
(g85
g71
NtRp3096
(dp3097
g74
(dp3098
sg83
g3071
sg76
(lp3099
g69
(g90
g71
NtRp3100
(dp3101
g74
(dp3102
g94
g95
ssg83
g3096
sg76
(lp3103
g255
asbag69
(g90
g71
NtRp3104
(dp3105
g74
(dp3106
g101
g102
ssg83
g3096
sg76
(lp3107
S':'
asbag69
(g90
g71
NtRp3108
(dp3109
g74
(dp3110
sg83
g3096
sg76
(lp3111
g69
(g70
g71
NtRp3112
(dp3113
g74
(dp3114
g82
I5
ssg83
g3108
sg76
(lp3115
g69
(g78
g71
NtRp3116
(dp3117
g74
(dp3118
g82
I4
ssg83
Nsg76
(lp3119
g69
(g85
g71
NtRp3120
(dp3121
g74
(dp3122
sg83
g3116
sg76
(lp3123
g69
(g90
g71
NtRp3124
(dp3125
g74
(dp3126
g94
g95
ssg83
g3120
sg76
(lp3127
S'session_id_projeto'
p3128
asbag69
(g90
g71
NtRp3129
(dp3130
g74
(dp3131
g101
g102
ssg83
g3120
sg76
(lp3132
S':'
asbag69
(g90
g71
NtRp3133
(dp3134
g74
(dp3135
sg83
g3120
sg76
(lp3136
g69
(g70
g71
NtRp3137
(dp3138
g74
(dp3139
g82
I4
ssg83
g3133
sg76
(lp3140
g487
ag69
(g78
g71
NtRp3141
(dp3142
g74
(dp3143
g82
I3
ssg83
Nsg76
(lp3144
g69
(g85
g71
NtRp3145
(dp3146
g74
(dp3147
sg83
g3141
sg76
(lp3148
g69
(g90
g71
NtRp3149
(dp3150
g74
(dp3151
g94
g95
ssg83
g3145
sg76
(lp3152
g306
asbag69
(g90
g71
NtRp3153
(dp3154
g74
(dp3155
g101
g102
ssg83
g3145
sg76
(lp3156
S':'
asbag69
(g90
g71
NtRp3157
(dp3158
g74
(dp3159
sg83
g3145
sg76
(lp3160
g69
(g70
g71
NtRp3161
(dp3162
g74
(dp3163
g82
I3
ssg83
g3157
sg76
(lp3164
S''
asbasbasbag69
(g85
g71
NtRp3165
(dp3166
g74
(dp3167
sg83
g3141
sg76
(lp3168
g69
(g90
g71
NtRp3169
(dp3170
g74
(dp3171
g94
g95
ssg83
g3165
sg76
(lp3172
g327
asbag69
(g90
g71
NtRp3173
(dp3174
g74
(dp3175
g101
g102
ssg83
g3165
sg76
(lp3176
S':'
asbag69
(g90
g71
NtRp3177
(dp3178
g74
(dp3179
sg83
g3165
sg76
(lp3180
g69
(g70
g71
NtRp3181
(dp3182
g74
(dp3183
g82
I3
ssg83
g3177
sg76
(lp3184
S''
asbasbasbag69
(g85
g71
NtRp3185
(dp3186
g74
(dp3187
sg83
g3141
sg76
(lp3188
g69
(g90
g71
NtRp3189
(dp3190
g74
(dp3191
g94
g95
ssg83
g3185
sg76
(lp3192
g348
asbag69
(g90
g71
NtRp3193
(dp3194
g74
(dp3195
g101
g102
ssg83
g3185
sg76
(lp3196
S':'
asbag69
(g90
g71
NtRp3197
(dp3198
g74
(dp3199
sg83
g3185
sg76
(lp3200
g69
(g70
g71
NtRp3201
(dp3202
g74
(dp3203
g82
I3
ssg83
g3197
sg76
(lp3204
S''
asbasbasbag69
(g85
g71
NtRp3205
(dp3206
g74
(dp3207
sg83
g3141
sg76
(lp3208
g69
(g90
g71
NtRp3209
(dp3210
g74
(dp3211
g94
g95
ssg83
g3205
sg76
(lp3212
g369
asbag69
(g90
g71
NtRp3213
(dp3214
g74
(dp3215
g101
g102
ssg83
g3205
sg76
(lp3216
S':'
asbag69
(g90
g71
NtRp3217
(dp3218
g74
(dp3219
sg83
g3205
sg76
(lp3220
g69
(g70
g71
NtRp3221
(dp3222
g74
(dp3223
g82
I3
ssg83
g3217
sg76
(lp3224
S''
asbasbasbag69
(g85
g71
NtRp3225
(dp3226
g74
(dp3227
sg83
g3141
sg76
(lp3228
g69
(g90
g71
NtRp3229
(dp3230
g74
(dp3231
g94
g95
ssg83
g3225
sg76
(lp3232
g390
asbag69
(g90
g71
NtRp3233
(dp3234
g74
(dp3235
g101
g102
ssg83
g3225
sg76
(lp3236
S':'
asbag69
(g90
g71
NtRp3237
(dp3238
g74
(dp3239
sg83
g3225
sg76
(lp3240
g69
(g70
g71
NtRp3241
(dp3242
g74
(dp3243
g82
I3
ssg83
g3237
sg76
(lp3244
S''
asbasbasbag69
(g85
g71
NtRp3245
(dp3246
g74
(dp3247
sg83
g3141
sg76
(lp3248
g69
(g90
g71
NtRp3249
(dp3250
g74
(dp3251
g94
g95
ssg83
g3245
sg76
(lp3252
g411
asbag69
(g90
g71
NtRp3253
(dp3254
g74
(dp3255
g101
g102
ssg83
g3245
sg76
(lp3256
S':'
asbag69
(g90
g71
NtRp3257
(dp3258
g74
(dp3259
sg83
g3245
sg76
(lp3260
g69
(g70
g71
NtRp3261
(dp3262
g74
(dp3263
g82
I3
ssg83
g3257
sg76
(lp3264
S'/'
asbasbasbag69
(g85
g71
NtRp3265
(dp3266
g74
(dp3267
sg83
g3141
sg76
(lp3268
g69
(g90
g71
NtRp3269
(dp3270
g74
(dp3271
g94
g95
ssg83
g3265
sg76
(lp3272
g432
asbag69
(g90
g71
NtRp3273
(dp3274
g74
(dp3275
g101
g102
ssg83
g3265
sg76
(lp3276
S':'
asbag69
(g90
g71
NtRp3277
(dp3278
g74
(dp3279
sg83
g3265
sg76
(lp3280
g69
(g70
g71
NtRp3281
(dp3282
g74
(dp3283
g82
I3
ssg83
g3277
sg76
(lp3284
S''
asbasbasbag69
(g85
g71
NtRp3285
(dp3286
g74
(dp3287
sg83
g3141
sg76
(lp3288
g69
(g90
g71
NtRp3289
(dp3290
g74
(dp3291
g94
g95
ssg83
g3285
sg76
(lp3292
g453
asbag69
(g90
g71
NtRp3293
(dp3294
g74
(dp3295
g101
g102
ssg83
g3285
sg76
(lp3296
S':'
asbag69
(g90
g71
NtRp3297
(dp3298
g74
(dp3299
sg83
g3285
sg76
(lp3300
g69
(g70
g71
NtRp3301
(dp3302
g74
(dp3303
g82
I3
ssg83
g3297
sg76
(lp3304
S''
asbasbasbasbasbasbasbasbasbasbasbag69
(g85
g71
NtRp3305
(dp3306
g74
(dp3307
sg83
g3071
sg76
(lp3308
g69
(g90
g71
NtRp3309
(dp3310
g74
(dp3311
g94
g95
ssg83
g3305
sg76
(lp3312
S'delimiters'
p3313
asbag69
(g90
g71
NtRp3314
(dp3315
g74
(dp3316
g101
g102
ssg83
g3305
sg76
(lp3317
S':'
asbag69
(g90
g71
NtRp3318
(dp3319
g74
(dp3320
sg83
g3305
sg76
(lp3321
g69
(g70
g71
NtRp3322
(dp3323
g74
(dp3324
g82
I5
ssg83
g3318
sg76
(lp3325
g69
(g78
g71
NtRp3326
(dp3327
g74
(dp3328
g82
I4
ssg83
Nsg76
(lp3329
g69
(g85
g71
NtRp3330
(dp3331
g74
(dp3332
sg83
g3326
sg76
(lp3333
g69
(g90
g71
NtRp3334
(dp3335
g74
(dp3336
sg83
g3330
sg76
(lp3337
g69
(g70
g71
NtRp3338
(dp3339
g74
(dp3340
g82
I4
ssg83
g3334
sg76
(lp3341
S'{{'
p3342
asbasbasbag69
(g85
g71
NtRp3343
(dp3344
g74
(dp3345
sg83
g3326
sg76
(lp3346
g69
(g90
g71
NtRp3347
(dp3348
g74
(dp3349
sg83
g3343
sg76
(lp3350
g69
(g70
g71
NtRp3351
(dp3352
g74
(dp3353
g82
I4
ssg83
g3347
sg76
(lp3354
S'}}'
p3355
asbasbasbasbasbasbasbag69
(g85
g71
NtRp3356
(dp3357
g74
(dp3358
sg83
g3071
sg76
(lp3359
g69
(g90
g71
NtRp3360
(dp3361
g74
(dp3362
g94
g95
ssg83
g3356
sg76
(lp3363
S'files'
p3364
asbag69
(g90
g71
NtRp3365
(dp3366
g74
(dp3367
g101
g102
ssg83
g3356
sg76
(lp3368
S':'
asbag69
(g90
g71
NtRp3369
(dp3370
g74
(dp3371
sg83
g3356
sg76
(lp3372
g69
(g70
g71
NtRp3373
(dp3374
g74
(dp3375
g82
I5
ssg83
g3369
sg76
(lp3376
g69
(g78
g71
NtRp3377
(dp3378
g74
(dp3379
g82
I4
ssg83
Nsg76
(lp3380
sbasbasbasbag69
(g85
g71
NtRp3381
(dp3382
g74
(dp3383
sg83
g3071
sg76
(lp3384
g69
(g90
g71
NtRp3385
(dp3386
g74
(dp3387
g94
g95
ssg83
g3381
sg76
(lp3388
S'flash'
p3389
asbag69
(g90
g71
NtRp3390
(dp3391
g74
(dp3392
g101
g102
ssg83
g3381
sg76
(lp3393
S':'
asbag69
(g90
g71
NtRp3394
(dp3395
g74
(dp3396
sg83
g3381
sg76
(lp3397
g69
(g70
g71
NtRp3398
(dp3399
g74
(dp3400
g82
I5
ssg83
g3394
sg76
(lp3401
S''
asbasbasbag69
(g85
g71
NtRp3402
(dp3403
g74
(dp3404
sg83
g3071
sg76
(lp3405
g69
(g90
g71
NtRp3406
(dp3407
g74
(dp3408
g94
g95
ssg83
g3402
sg76
(lp3409
S'generic_patterns'
p3410
asbag69
(g90
g71
NtRp3411
(dp3412
g74
(dp3413
g101
g102
ssg83
g3402
sg76
(lp3414
S':'
asbag69
(g90
g71
NtRp3415
(dp3416
g74
(dp3417
sg83
g3402
sg76
(lp3418
g69
(g70
g71
NtRp3419
(dp3420
g74
(dp3421
g82
I5
ssg83
g3415
sg76
(lp3422
g69
(g78
g71
NtRp3423
(dp3424
g74
(dp3425
g82
I4
ssg83
Nsg76
(lp3426
g69
(g85
g71
NtRp3427
(dp3428
g74
(dp3429
sg83
g3423
sg76
(lp3430
g69
(g90
g71
NtRp3431
(dp3432
g74
(dp3433
sg83
g3427
sg76
(lp3434
g69
(g70
g71
NtRp3435
(dp3436
g74
(dp3437
g82
I4
ssg83
g3431
sg76
(lp3438
S'*'
asbasbasbasbasbasbasbag69
(g85
g71
NtRp3439
(dp3440
g74
(dp3441
sg83
g3071
sg76
(lp3442
g69
(g90
g71
NtRp3443
(dp3444
g74
(dp3445
g94
g95
ssg83
g3439
sg76
(lp3446
S'google_analytics_id'
p3447
asbag69
(g90
g71
NtRp3448
(dp3449
g74
(dp3450
g101
g102
ssg83
g3439
sg76
(lp3451
S':'
asbag69
(g90
g71
NtRp3452
(dp3453
g74
(dp3454
sg83
g3439
sg76
(lp3455
g69
(g70
g71
NtRp3456
(dp3457
g74
(dp3458
g82
I5
ssg83
g3452
sg76
(lp3459
S'None'
p3460
asbasbasbag69
(g85
g71
NtRp3461
(dp3462
g74
(dp3463
sg83
g3071
sg76
(lp3464
g69
(g90
g71
NtRp3465
(dp3466
g74
(dp3467
g94
g95
ssg83
g3461
sg76
(lp3468
S'headers'
p3469
asbag69
(g90
g71
NtRp3470
(dp3471
g74
(dp3472
g101
g102
ssg83
g3461
sg76
(lp3473
S':'
asbag69
(g90
g71
NtRp3474
(dp3475
g74
(dp3476
sg83
g3461
sg76
(lp3477
g69
(g70
g71
NtRp3478
(dp3479
g74
(dp3480
g82
I5
ssg83
g3474
sg76
(lp3481
g69
(g78
g71
NtRp3482
(dp3483
g74
(dp3484
g82
I4
ssg83
Nsg76
(lp3485
g69
(g85
g71
NtRp3486
(dp3487
g74
(dp3488
sg83
g3482
sg76
(lp3489
g69
(g90
g71
NtRp3490
(dp3491
g74
(dp3492
g94
g95
ssg83
g3486
sg76
(lp3493
S'X-Powered-By'
p3494
asbag69
(g90
g71
NtRp3495
(dp3496
g74
(dp3497
g101
g102
ssg83
g3486
sg76
(lp3498
S':'
asbag69
(g90
g71
NtRp3499
(dp3500
g74
(dp3501
sg83
g3486
sg76
(lp3502
g69
(g70
g71
NtRp3503
(dp3504
g74
(dp3505
g82
I4
ssg83
g3499
sg76
(lp3506
S'web2py'
p3507
asbasbasbasbasbasbasbag69
(g85
g71
NtRp3508
(dp3509
g74
(dp3510
sg83
g3071
sg76
(lp3511
g69
(g90
g71
NtRp3512
(dp3513
g74
(dp3514
g94
g95
ssg83
g3508
sg76
(lp3515
S'logo'
p3516
asbag69
(g90
g71
NtRp3517
(dp3518
g74
(dp3519
g101
g102
ssg83
g3508
sg76
(lp3520
S':'
asbag69
(g90
g71
NtRp3521
(dp3522
g74
(dp3523
sg83
g3508
sg76
(lp3524
g69
(g70
g71
NtRp3525
(dp3526
g74
(dp3527
g82
I5
ssg83
g3521
sg76
(lp3528
g69
(cgluon.html
A
p3529
g71
NtRp3530
(dp3531
g74
(dp3532
S'_class'
p3533
S'brand'
p3534
sS'_href'
p3535
g1761
ssg83
Nsg76
(lp3536
g69
(cgluon.html
B
p3537
g71
NtRp3538
(dp3539
g74
(dp3540
sg83
g3530
sg76
(lp3541
S'hosts'
p3542
ag69
(cgluon.html
SPAN
p3543
g71
NtRp3544
(dp3545
g74
(dp3546
sg83
g3538
sg76
(lp3547
S'3'
asbaS''
asbacgluon.html
XML_unpickle
p3548
(S's\r\x00\x00\x00&trade;&nbsp;'
tRp3549
asbasbasbasbag69
(g85
g71
NtRp3550
(dp3551
g74
(dp3552
sg83
g3071
sg76
(lp3553
g69
(g90
g71
NtRp3554
(dp3555
g74
(dp3556
g94
g95
ssg83
g3550
sg76
(lp3557
S'menu'
p3558
asbag69
(g90
g71
NtRp3559
(dp3560
g74
(dp3561
g101
g102
ssg83
g3550
sg76
(lp3562
S':'
asbag69
(g90
g71
NtRp3563
(dp3564
g74
(dp3565
sg83
g3550
sg76
(lp3566
g69
(g70
g71
NtRp3567
(dp3568
g74
(dp3569
g82
I5
ssg83
g3563
sg76
(lp3570
g69
(g78
g71
NtRp3571
(dp3572
g74
(dp3573
g82
I4
ssg83
Nsg76
(lp3574
g69
(g85
g71
NtRp3575
(dp3576
g74
(dp3577
sg83
g3571
sg76
(lp3578
g69
(g90
g71
NtRp3579
(dp3580
g74
(dp3581
sg83
g3575
sg76
(lp3582
g69
(g70
g71
NtRp3583
(dp3584
g74
(dp3585
g82
I4
ssg83
g3579
sg76
(lp3586
g69
(g78
g71
NtRp3587
(dp3588
g74
(dp3589
g82
I3
ssg83
Nsg76
(lp3590
g69
(g85
g71
NtRp3591
(dp3592
g74
(dp3593
sg83
g3587
sg76
(lp3594
g69
(g90
g71
NtRp3595
(dp3596
g74
(dp3597
sg83
g3591
sg76
(lp3598
g69
(g70
g71
NtRp3599
(dp3600
g74
(dp3601
g82
I3
ssg83
g3595
sg76
(lp3602
cgluon.languages
lazyT_unpickle
p3603
(S't\x08\x00\x00\x00Clientes'
tRp3604
asbasbasbag69
(g85
g71
NtRp3605
(dp3606
g74
(dp3607
sg83
g3587
sg76
(lp3608
g69
(g90
g71
NtRp3609
(dp3610
g74
(dp3611
sg83
g3605
sg76
(lp3612
g69
(g70
g71
NtRp3613
(dp3614
g74
(dp3615
g82
I3
ssg83
g3609
sg76
(lp3616
g112
asbasbasbag69
(g85
g71
NtRp3617
(dp3618
g74
(dp3619
sg83
g3587
sg76
(lp3620
g69
(g90
g71
NtRp3621
(dp3622
g74
(dp3623
sg83
g3617
sg76
(lp3624
g69
(g70
g71
NtRp3625
(dp3626
g74
(dp3627
g82
I3
ssg83
g3621
sg76
(lp3628
S'/show_cliente'
p3629
asbasbasbag69
(g85
g71
NtRp3630
(dp3631
g74
(dp3632
sg83
g3587
sg76
(lp3633
g69
(g90
g71
NtRp3634
(dp3635
g74
(dp3636
sg83
g3630
sg76
(lp3637
g69
(g70
g71
NtRp3638
(dp3639
g74
(dp3640
g82
I3
ssg83
g3634
sg76
(lp3641
g69
(g78
g71
NtRp3642
(dp3643
g74
(dp3644
g82
I2
ssg83
Nsg76
(lp3645
sbasbasbasbasbasbasbasbag69
(g85
g71
NtRp3646
(dp3647
g74
(dp3648
sg83
g3571
sg76
(lp3649
g69
(g90
g71
NtRp3650
(dp3651
g74
(dp3652
sg83
g3646
sg76
(lp3653
g69
(g70
g71
NtRp3654
(dp3655
g74
(dp3656
g82
I4
ssg83
g3650
sg76
(lp3657
g69
(g78
g71
NtRp3658
(dp3659
g74
(dp3660
g82
I3
ssg83
Nsg76
(lp3661
g69
(g85
g71
NtRp3662
(dp3663
g74
(dp3664
sg83
g3658
sg76
(lp3665
g69
(g90
g71
NtRp3666
(dp3667
g74
(dp3668
sg83
g3662
sg76
(lp3669
g69
(g70
g71
NtRp3670
(dp3671
g74
(dp3672
g82
I3
ssg83
g3666
sg76
(lp3673
g3603
(S't\n\x00\x00\x00Servidores'
tRp3674
asbasbasbag69
(g85
g71
NtRp3675
(dp3676
g74
(dp3677
sg83
g3658
sg76
(lp3678
g69
(g90
g71
NtRp3679
(dp3680
g74
(dp3681
sg83
g3675
sg76
(lp3682
g69
(g70
g71
NtRp3683
(dp3684
g74
(dp3685
g82
I3
ssg83
g3679
sg76
(lp3686
g112
asbasbasbag69
(g85
g71
NtRp3687
(dp3688
g74
(dp3689
sg83
g3658
sg76
(lp3690
g69
(g90
g71
NtRp3691
(dp3692
g74
(dp3693
sg83
g3687
sg76
(lp3694
g69
(g70
g71
NtRp3695
(dp3696
g74
(dp3697
g82
I3
ssg83
g3691
sg76
(lp3698
S'/show_servidor'
p3699
asbasbasbag69
(g85
g71
NtRp3700
(dp3701
g74
(dp3702
sg83
g3658
sg76
(lp3703
g69
(g90
g71
NtRp3704
(dp3705
g74
(dp3706
sg83
g3700
sg76
(lp3707
g69
(g70
g71
NtRp3708
(dp3709
g74
(dp3710
g82
I3
ssg83
g3704
sg76
(lp3711
g69
(g78
g71
NtRp3712
(dp3713
g74
(dp3714
g82
I2
ssg83
Nsg76
(lp3715
sbasbasbasbasbasbasbasbag69
(g85
g71
NtRp3716
(dp3717
g74
(dp3718
sg83
g3571
sg76
(lp3719
g69
(g90
g71
NtRp3720
(dp3721
g74
(dp3722
sg83
g3716
sg76
(lp3723
g69
(g70
g71
NtRp3724
(dp3725
g74
(dp3726
g82
I4
ssg83
g3720
sg76
(lp3727
g69
(g78
g71
NtRp3728
(dp3729
g74
(dp3730
g82
I3
ssg83
Nsg76
(lp3731
g69
(g85
g71
NtRp3732
(dp3733
g74
(dp3734
sg83
g3728
sg76
(lp3735
g69
(g90
g71
NtRp3736
(dp3737
g74
(dp3738
sg83
g3732
sg76
(lp3739
g69
(g70
g71
NtRp3740
(dp3741
g74
(dp3742
g82
I3
ssg83
g3736
sg76
(lp3743
g3603
(S't\x07\x00\x00\x00Distros'
tRp3744
asbasbasbag69
(g85
g71
NtRp3745
(dp3746
g74
(dp3747
sg83
g3728
sg76
(lp3748
g69
(g90
g71
NtRp3749
(dp3750
g74
(dp3751
sg83
g3745
sg76
(lp3752
g69
(g70
g71
NtRp3753
(dp3754
g74
(dp3755
g82
I3
ssg83
g3749
sg76
(lp3756
g112
asbasbasbag69
(g85
g71
NtRp3757
(dp3758
g74
(dp3759
sg83
g3728
sg76
(lp3760
g69
(g90
g71
NtRp3761
(dp3762
g74
(dp3763
sg83
g3757
sg76
(lp3764
g69
(g70
g71
NtRp3765
(dp3766
g74
(dp3767
g82
I3
ssg83
g3761
sg76
(lp3768
S'/show_distro'
p3769
asbasbasbag69
(g85
g71
NtRp3770
(dp3771
g74
(dp3772
sg83
g3728
sg76
(lp3773
g69
(g90
g71
NtRp3774
(dp3775
g74
(dp3776
sg83
g3770
sg76
(lp3777
g69
(g70
g71
NtRp3778
(dp3779
g74
(dp3780
g82
I3
ssg83
g3774
sg76
(lp3781
g69
(g78
g71
NtRp3782
(dp3783
g74
(dp3784
g82
I2
ssg83
Nsg76
(lp3785
sbasbasbasbasbasbasbasbag69
(g85
g71
NtRp3786
(dp3787
g74
(dp3788
sg83
g3571
sg76
(lp3789
g69
(g90
g71
NtRp3790
(dp3791
g74
(dp3792
sg83
g3786
sg76
(lp3793
g69
(g70
g71
NtRp3794
(dp3795
g74
(dp3796
g82
I4
ssg83
g3790
sg76
(lp3797
g69
(g78
g71
NtRp3798
(dp3799
g74
(dp3800
g82
I3
ssg83
Nsg76
(lp3801
g69
(g85
g71
NtRp3802
(dp3803
g74
(dp3804
sg83
g3798
sg76
(lp3805
g69
(g90
g71
NtRp3806
(dp3807
g74
(dp3808
sg83
g3802
sg76
(lp3809
g69
(g70
g71
NtRp3810
(dp3811
g74
(dp3812
g82
I3
ssg83
g3806
sg76
(lp3813
g3603
(S's\x05\x00\x00\x00+host'
tRp3814
asbasbasbag69
(g85
g71
NtRp3815
(dp3816
g74
(dp3817
sg83
g3798
sg76
(lp3818
g69
(g90
g71
NtRp3819
(dp3820
g74
(dp3821
sg83
g3815
sg76
(lp3822
g69
(g70
g71
NtRp3823
(dp3824
g74
(dp3825
g82
I3
ssg83
g3819
sg76
(lp3826
g112
asbasbasbag69
(g85
g71
NtRp3827
(dp3828
g74
(dp3829
sg83
g3798
sg76
(lp3830
g69
(g90
g71
NtRp3831
(dp3832
g74
(dp3833
sg83
g3827
sg76
(lp3834
g69
(g70
g71
NtRp3835
(dp3836
g74
(dp3837
g82
I3
ssg83
g3831
sg76
(lp3838
S'/interface'
p3839
asbasbasbag69
(g85
g71
NtRp3840
(dp3841
g74
(dp3842
sg83
g3798
sg76
(lp3843
g69
(g90
g71
NtRp3844
(dp3845
g74
(dp3846
sg83
g3840
sg76
(lp3847
g69
(g70
g71
NtRp3848
(dp3849
g74
(dp3850
g82
I3
ssg83
g3844
sg76
(lp3851
g69
(g78
g71
NtRp3852
(dp3853
g74
(dp3854
g82
I2
ssg83
Nsg76
(lp3855
sbasbasbasbasbasbasbasbasbasbasbasbag69
(g85
g71
NtRp3856
(dp3857
g74
(dp3858
sg83
g3071
sg76
(lp3859
g69
(g90
g71
NtRp3860
(dp3861
g74
(dp3862
g94
g95
ssg83
g3856
sg76
(lp3863
S'menu2'
p3864
asbag69
(g90
g71
NtRp3865
(dp3866
g74
(dp3867
g101
g102
ssg83
g3856
sg76
(lp3868
S':'
asbag69
(g90
g71
NtRp3869
(dp3870
g74
(dp3871
sg83
g3856
sg76
(lp3872
g69
(g70
g71
NtRp3873
(dp3874
g74
(dp3875
g82
I5
ssg83
g3869
sg76
(lp3876
g69
(g78
g71
NtRp3877
(dp3878
g74
(dp3879
g82
I4
ssg83
Nsg76
(lp3880
g69
(g85
g71
NtRp3881
(dp3882
g74
(dp3883
sg83
g3877
sg76
(lp3884
g69
(g90
g71
NtRp3885
(dp3886
g74
(dp3887
sg83
g3881
sg76
(lp3888
g69
(g70
g71
NtRp3889
(dp3890
g74
(dp3891
g82
I4
ssg83
g3885
sg76
(lp3892
g69
(g78
g71
NtRp3893
(dp3894
g74
(dp3895
g82
I3
ssg83
Nsg76
(lp3896
g69
(g85
g71
NtRp3897
(dp3898
g74
(dp3899
sg83
g3893
sg76
(lp3900
g69
(g90
g71
NtRp3901
(dp3902
g74
(dp3903
sg83
g3897
sg76
(lp3904
g69
(g70
g71
NtRp3905
(dp3906
g74
(dp3907
g82
I3
ssg83
g3901
sg76
(lp3908
g69
(g3543
g71
NtRp3909
(dp3910
g74
(dp3911
g3533
S'dropdown-toggle'
p3912
ssg83
Nsg76
(lp3913
S'Admin'
p3914
asbasbasbasbag69
(g85
g71
NtRp3915
(dp3916
g74
(dp3917
sg83
g3893
sg76
(lp3918
g69
(g90
g71
NtRp3919
(dp3920
g74
(dp3921
sg83
g3915
sg76
(lp3922
g69
(g70
g71
NtRp3923
(dp3924
g74
(dp3925
g82
I3
ssg83
g3919
sg76
(lp3926
g112
asbasbasbag69
(g85
g71
NtRp3927
(dp3928
g74
(dp3929
sg83
g3893
sg76
(lp3930
g69
(g90
g71
NtRp3931
(dp3932
g74
(dp3933
sg83
g3927
sg76
(lp3934
g69
(g70
g71
NtRp3935
(dp3936
g74
(dp3937
g82
I3
ssg83
g3931
sg76
(lp3938
S'#'
asbasbasbag69
(g85
g71
NtRp3939
(dp3940
g74
(dp3941
sg83
g3893
sg76
(lp3942
g69
(g90
g71
NtRp3943
(dp3944
g74
(dp3945
sg83
g3939
sg76
(lp3946
g69
(g70
g71
NtRp3947
(dp3948
g74
(dp3949
g82
I3
ssg83
g3943
sg76
(lp3950
g69
(g78
g71
NtRp3951
(dp3952
g74
(dp3953
g82
I2
ssg83
Nsg76
(lp3954
g69
(g85
g71
NtRp3955
(dp3956
g74
(dp3957
sg83
g3951
sg76
(lp3958
g69
(g90
g71
NtRp3959
(dp3960
g74
(dp3961
sg83
g3955
sg76
(lp3962
g69
(g70
g71
NtRp3963
(dp3964
g74
(dp3965
g82
I2
ssg83
g3959
sg76
(lp3966
g69
(g78
g71
NtRp3967
(dp3968
g74
(dp3969
g82
I1
ssg83
Nsg76
(lp3970
g69
(g85
g71
NtRp3971
(dp3972
g74
(dp3973
sg83
g3967
sg76
(lp3974
g69
(g90
g71
NtRp3975
(dp3976
g74
(dp3977
sg83
g3971
sg76
(lp3978
g69
(g70
g71
NtRp3979
(dp3980
g74
(dp3981
g82
I1
ssg83
g3975
sg76
(lp3982
g3603
(S's\t\x00\x00\x00Usu\xc3\xa1rios'
tRp3983
asbasbasbag69
(g85
g71
NtRp3984
(dp3985
g74
(dp3986
sg83
g3967
sg76
(lp3987
g69
(g90
g71
NtRp3988
(dp3989
g74
(dp3990
sg83
g3984
sg76
(lp3991
g69
(g70
g71
NtRp3992
(dp3993
g74
(dp3994
g82
I1
ssg83
g3988
sg76
(lp3995
I00
asbasbasbag69
(g85
g71
NtRp3996
(dp3997
g74
(dp3998
sg83
g3967
sg76
(lp3999
g69
(g90
g71
NtRp4000
(dp4001
g74
(dp4002
sg83
g3996
sg76
(lp4003
g69
(g70
g71
NtRp4004
(dp4005
g74
(dp4006
g82
I1
ssg83
g4000
sg76
(lp4007
S'/manager/users'
p4008
asbasbasbasbasbasbasbag69
(g85
g71
NtRp4009
(dp4010
g74
(dp4011
sg83
g3951
sg76
(lp4012
g69
(g90
g71
NtRp4013
(dp4014
g74
(dp4015
sg83
g4009
sg76
(lp4016
g69
(g70
g71
NtRp4017
(dp4018
g74
(dp4019
g82
I2
ssg83
g4013
sg76
(lp4020
g69
(g78
g71
NtRp4021
(dp4022
g74
(dp4023
g82
I1
ssg83
Nsg76
(lp4024
g69
(g85
g71
NtRp4025
(dp4026
g74
(dp4027
sg83
g4021
sg76
(lp4028
g69
(g90
g71
NtRp4029
(dp4030
g74
(dp4031
sg83
g4025
sg76
(lp4032
g69
(g70
g71
NtRp4033
(dp4034
g74
(dp4035
g82
I1
ssg83
g4029
sg76
(lp4036
g3603
(S't\x06\x00\x00\x00Grupos'
tRp4037
asbasbasbag69
(g85
g71
NtRp4038
(dp4039
g74
(dp4040
sg83
g4021
sg76
(lp4041
g69
(g90
g71
NtRp4042
(dp4043
g74
(dp4044
sg83
g4038
sg76
(lp4045
g69
(g70
g71
NtRp4046
(dp4047
g74
(dp4048
g82
I1
ssg83
g4042
sg76
(lp4049
I00
asbasbasbag69
(g85
g71
NtRp4050
(dp4051
g74
(dp4052
sg83
g4021
sg76
(lp4053
g69
(g90
g71
NtRp4054
(dp4055
g74
(dp4056
sg83
g4050
sg76
(lp4057
g69
(g70
g71
NtRp4058
(dp4059
g74
(dp4060
g82
I1
ssg83
g4054
sg76
(lp4061
S'/manager/groups'
p4062
asbasbasbasbasbasbasbag69
(g85
g71
NtRp4063
(dp4064
g74
(dp4065
sg83
g3951
sg76
(lp4066
g69
(g90
g71
NtRp4067
(dp4068
g74
(dp4069
sg83
g4063
sg76
(lp4070
g69
(g70
g71
NtRp4071
(dp4072
g74
(dp4073
g82
I2
ssg83
g4067
sg76
(lp4074
g69
(g78
g71
NtRp4075
(dp4076
g74
(dp4077
g82
I1
ssg83
Nsg76
(lp4078
g69
(g85
g71
NtRp4079
(dp4080
g74
(dp4081
sg83
g4075
sg76
(lp4082
g69
(g90
g71
NtRp4083
(dp4084
g74
(dp4085
sg83
g4079
sg76
(lp4086
g69
(g70
g71
NtRp4087
(dp4088
g74
(dp4089
g82
I1
ssg83
g4083
sg76
(lp4090
g3603
(S't\x07\x00\x00\x00Membros'
tRp4091
asbasbasbag69
(g85
g71
NtRp4092
(dp4093
g74
(dp4094
sg83
g4075
sg76
(lp4095
g69
(g90
g71
NtRp4096
(dp4097
g74
(dp4098
sg83
g4092
sg76
(lp4099
g69
(g70
g71
NtRp4100
(dp4101
g74
(dp4102
g82
I1
ssg83
g4096
sg76
(lp4103
I00
asbasbasbag69
(g85
g71
NtRp4104
(dp4105
g74
(dp4106
sg83
g4075
sg76
(lp4107
g69
(g90
g71
NtRp4108
(dp4109
g74
(dp4110
sg83
g4104
sg76
(lp4111
g69
(g70
g71
NtRp4112
(dp4113
g74
(dp4114
g82
I1
ssg83
g4108
sg76
(lp4115
S'/manager/membership'
p4116
asbasbasbasbasbasbasbasbasbasbasbasbasbasbasbag69
(g85
g71
NtRp4117
(dp4118
g74
(dp4119
sg83
g3877
sg76
(lp4120
g69
(g90
g71
NtRp4121
(dp4122
g74
(dp4123
sg83
g4117
sg76
(lp4124
g69
(g70
g71
NtRp4125
(dp4126
g74
(dp4127
g82
I4
ssg83
g4121
sg76
(lp4128
g69
(g78
g71
NtRp4129
(dp4130
g74
(dp4131
g82
I3
ssg83
Nsg76
(lp4132
g69
(g85
g71
NtRp4133
(dp4134
g74
(dp4135
sg83
g4129
sg76
(lp4136
g69
(g90
g71
NtRp4137
(dp4138
g74
(dp4139
sg83
g4133
sg76
(lp4140
g69
(g70
g71
NtRp4141
(dp4142
g74
(dp4143
g82
I3
ssg83
g4137
sg76
(lp4144
g69
(g3543
g71
NtRp4145
(dp4146
g74
(dp4147
g3533
g3912
ssg83
Nsg76
(lp4148
S'Login'
p4149
asbasbasbasbag69
(g85
g71
NtRp4150
(dp4151
g74
(dp4152
sg83
g4129
sg76
(lp4153
g69
(g90
g71
NtRp4154
(dp4155
g74
(dp4156
sg83
g4150
sg76
(lp4157
g69
(g70
g71
NtRp4158
(dp4159
g74
(dp4160
g82
I3
ssg83
g4154
sg76
(lp4161
g112
asbasbasbag69
(g85
g71
NtRp4162
(dp4163
g74
(dp4164
sg83
g4129
sg76
(lp4165
g69
(g90
g71
NtRp4166
(dp4167
g74
(dp4168
sg83
g4162
sg76
(lp4169
g69
(g70
g71
NtRp4170
(dp4171
g74
(dp4172
g82
I3
ssg83
g4166
sg76
(lp4173
S'#'
asbasbasbag69
(g85
g71
NtRp4174
(dp4175
g74
(dp4176
sg83
g4129
sg76
(lp4177
g69
(g90
g71
NtRp4178
(dp4179
g74
(dp4180
sg83
g4174
sg76
(lp4181
g69
(g70
g71
NtRp4182
(dp4183
g74
(dp4184
g82
I3
ssg83
g4178
sg76
(lp4185
g69
(g78
g71
NtRp4186
(dp4187
g74
(dp4188
g82
I2
ssg83
Nsg76
(lp4189
g69
(g85
g71
NtRp4190
(dp4191
g74
(dp4192
sg83
g4186
sg76
(lp4193
g69
(g90
g71
NtRp4194
(dp4195
g74
(dp4196
sg83
g4190
sg76
(lp4197
g69
(g70
g71
NtRp4198
(dp4199
g74
(dp4200
g82
I2
ssg83
g4194
sg76
(lp4201
g69
(g78
g71
NtRp4202
(dp4203
g74
(dp4204
g82
I1
ssg83
Nsg76
(lp4205
g69
(g85
g71
NtRp4206
(dp4207
g74
(dp4208
sg83
g4202
sg76
(lp4209
g69
(g90
g71
NtRp4210
(dp4211
g74
(dp4212
sg83
g4206
sg76
(lp4213
g69
(g70
g71
NtRp4214
(dp4215
g74
(dp4216
g82
I1
ssg83
g4210
sg76
(lp4217
g3603
(S't\x06\x00\x00\x00Logout'
tRp4218
asbasbasbag69
(g85
g71
NtRp4219
(dp4220
g74
(dp4221
sg83
g4202
sg76
(lp4222
g69
(g90
g71
NtRp4223
(dp4224
g74
(dp4225
sg83
g4219
sg76
(lp4226
g69
(g70
g71
NtRp4227
(dp4228
g74
(dp4229
g82
I1
ssg83
g4223
sg76
(lp4230
I00
asbasbasbag69
(g85
g71
NtRp4231
(dp4232
g74
(dp4233
sg83
g4202
sg76
(lp4234
g69
(g90
g71
NtRp4235
(dp4236
g74
(dp4237
sg83
g4231
sg76
(lp4238
g69
(g70
g71
NtRp4239
(dp4240
g74
(dp4241
g82
I1
ssg83
g4235
sg76
(lp4242
S'/initial/user/logout'
p4243
asbasbasbasbasbasbasbasbasbasbasbasbasbasbasbasbasbasbasbag69
(g85
g71
NtRp4244
(dp4245
g74
(dp4246
sg83
g3071
sg76
(lp4247
g69
(g90
g71
NtRp4248
(dp4249
g74
(dp4250
g94
g95
ssg83
g4244
sg76
(lp4251
S'meta'
p4252
asbag69
(g90
g71
NtRp4253
(dp4254
g74
(dp4255
g101
g102
ssg83
g4244
sg76
(lp4256
S':'
asbag69
(g90
g71
NtRp4257
(dp4258
g74
(dp4259
sg83
g4244
sg76
(lp4260
g69
(g70
g71
NtRp4261
(dp4262
g74
(dp4263
g82
I5
ssg83
g4257
sg76
(lp4264
g69
(g78
g71
NtRp4265
(dp4266
g74
(dp4267
g82
I4
ssg83
Nsg76
(lp4268
g69
(g85
g71
NtRp4269
(dp4270
g74
(dp4271
sg83
g4265
sg76
(lp4272
g69
(g90
g71
NtRp4273
(dp4274
g74
(dp4275
g94
g95
ssg83
g4269
sg76
(lp4276
S'author'
p4277
asbag69
(g90
g71
NtRp4278
(dp4279
g74
(dp4280
g101
g102
ssg83
g4269
sg76
(lp4281
S':'
asbag69
(g90
g71
NtRp4282
(dp4283
g74
(dp4284
sg83
g4269
sg76
(lp4285
g69
(g70
g71
NtRp4286
(dp4287
g74
(dp4288
g82
I4
ssg83
g4282
sg76
(lp4289
S'Your Name <you@example.com>'
p4290
asbasbasbag69
(g85
g71
NtRp4291
(dp4292
g74
(dp4293
sg83
g4265
sg76
(lp4294
g69
(g90
g71
NtRp4295
(dp4296
g74
(dp4297
g94
g95
ssg83
g4291
sg76
(lp4298
S'description'
p4299
asbag69
(g90
g71
NtRp4300
(dp4301
g74
(dp4302
g101
g102
ssg83
g4291
sg76
(lp4303
S':'
asbag69
(g90
g71
NtRp4304
(dp4305
g74
(dp4306
sg83
g4291
sg76
(lp4307
g69
(g70
g71
NtRp4308
(dp4309
g74
(dp4310
g82
I4
ssg83
g4304
sg76
(lp4311
S'a cool new app'
p4312
asbasbasbag69
(g85
g71
NtRp4313
(dp4314
g74
(dp4315
sg83
g4265
sg76
(lp4316
g69
(g90
g71
NtRp4317
(dp4318
g74
(dp4319
g94
g95
ssg83
g4313
sg76
(lp4320
S'generator'
p4321
asbag69
(g90
g71
NtRp4322
(dp4323
g74
(dp4324
g101
g102
ssg83
g4313
sg76
(lp4325
S':'
asbag69
(g90
g71
NtRp4326
(dp4327
g74
(dp4328
sg83
g4313
sg76
(lp4329
g69
(g70
g71
NtRp4330
(dp4331
g74
(dp4332
g82
I4
ssg83
g4326
sg76
(lp4333
S'Web2py Web Framework'
p4334
asbasbasbag69
(g85
g71
NtRp4335
(dp4336
g74
(dp4337
sg83
g4265
sg76
(lp4338
g69
(g90
g71
NtRp4339
(dp4340
g74
(dp4341
g94
g95
ssg83
g4335
sg76
(lp4342
S'keywords'
p4343
asbag69
(g90
g71
NtRp4344
(dp4345
g74
(dp4346
g101
g102
ssg83
g4335
sg76
(lp4347
S':'
asbag69
(g90
g71
NtRp4348
(dp4349
g74
(dp4350
sg83
g4335
sg76
(lp4351
g69
(g70
g71
NtRp4352
(dp4353
g74
(dp4354
g82
I4
ssg83
g4348
sg76
(lp4355
S'web2py, python, framework'
p4356
asbasbasbasbasbasbasbag69
(g85
g71
NtRp4357
(dp4358
g74
(dp4359
sg83
g3071
sg76
(lp4360
g69
(g90
g71
NtRp4361
(dp4362
g74
(dp4363
g94
g95
ssg83
g4357
sg76
(lp4364
S'models_to_run'
p4365
asbag69
(g90
g71
NtRp4366
(dp4367
g74
(dp4368
g101
g102
ssg83
g4357
sg76
(lp4369
S':'
asbag69
(g90
g71
NtRp4370
(dp4371
g74
(dp4372
sg83
g4357
sg76
(lp4373
g69
(g70
g71
NtRp4374
(dp4375
g74
(dp4376
g82
I5
ssg83
g4370
sg76
(lp4377
g69
(g78
g71
NtRp4378
(dp4379
g74
(dp4380
g82
I4
ssg83
Nsg76
(lp4381
g69
(g85
g71
NtRp4382
(dp4383
g74
(dp4384
sg83
g4378
sg76
(lp4385
g69
(g90
g71
NtRp4386
(dp4387
g74
(dp4388
sg83
g4382
sg76
(lp4389
g69
(g70
g71
NtRp4390
(dp4391
g74
(dp4392
g82
I4
ssg83
g4386
sg76
(lp4393
S'^\\w+\\.py$'
p4394
asbasbasbag69
(g85
g71
NtRp4395
(dp4396
g74
(dp4397
sg83
g4378
sg76
(lp4398
g69
(g90
g71
NtRp4399
(dp4400
g74
(dp4401
sg83
g4395
sg76
(lp4402
g69
(g70
g71
NtRp4403
(dp4404
g74
(dp4405
g82
I4
ssg83
g4399
sg76
(lp4406
S'^initial/\\w+\\.py$'
p4407
asbasbasbag69
(g85
g71
NtRp4408
(dp4409
g74
(dp4410
sg83
g4378
sg76
(lp4411
g69
(g90
g71
NtRp4412
(dp4413
g74
(dp4414
sg83
g4408
sg76
(lp4415
g69
(g70
g71
NtRp4416
(dp4417
g74
(dp4418
g82
I4
ssg83
g4412
sg76
(lp4419
S'^initial/principal/\\w+\\.py$'
p4420
asbasbasbasbasbasbasbag69
(g85
g71
NtRp4421
(dp4422
g74
(dp4423
sg83
g3071
sg76
(lp4424
g69
(g90
g71
NtRp4425
(dp4426
g74
(dp4427
g94
g95
ssg83
g4421
sg76
(lp4428
S'postprocessing'
p4429
asbag69
(g90
g71
NtRp4430
(dp4431
g74
(dp4432
g101
g102
ssg83
g4421
sg76
(lp4433
S':'
asbag69
(g90
g71
NtRp4434
(dp4435
g74
(dp4436
sg83
g4421
sg76
(lp4437
g69
(g70
g71
NtRp4438
(dp4439
g74
(dp4440
g82
I5
ssg83
g4434
sg76
(lp4441
g69
(g78
g71
NtRp4442
(dp4443
g74
(dp4444
g82
I4
ssg83
Nsg76
(lp4445
sbasbasbasbag69
(g85
g71
NtRp4446
(dp4447
g74
(dp4448
sg83
g3071
sg76
(lp4449
g69
(g90
g71
NtRp4450
(dp4451
g74
(dp4452
g94
g95
ssg83
g4446
sg76
(lp4453
S'session_cookie_expires'
p4454
asbag69
(g90
g71
NtRp4455
(dp4456
g74
(dp4457
g101
g102
ssg83
g4446
sg76
(lp4458
S':'
asbag69
(g90
g71
NtRp4459
(dp4460
g74
(dp4461
sg83
g4446
sg76
(lp4462
g69
(g70
g71
NtRp4463
(dp4464
g74
(dp4465
g82
I5
ssg83
g4459
sg76
(lp4466
S'None'
p4467
asbasbasbag69
(g85
g71
NtRp4468
(dp4469
g74
(dp4470
sg83
g3071
sg76
(lp4471
g69
(g90
g71
NtRp4472
(dp4473
g74
(dp4474
g94
g95
ssg83
g4468
sg76
(lp4475
S'session_data_name'
p4476
asbag69
(g90
g71
NtRp4477
(dp4478
g74
(dp4479
g101
g102
ssg83
g4468
sg76
(lp4480
S':'
asbag69
(g90
g71
NtRp4481
(dp4482
g74
(dp4483
sg83
g4468
sg76
(lp4484
g69
(g70
g71
NtRp4485
(dp4486
g74
(dp4487
g82
I5
ssg83
g4481
sg76
(lp4488
S'session_data_projeto'
p4489
asbasbasbag69
(g85
g71
NtRp4490
(dp4491
g74
(dp4492
sg83
g3071
sg76
(lp4493
g69
(g90
g71
NtRp4494
(dp4495
g74
(dp4496
g94
g95
ssg83
g4490
sg76
(lp4497
S'session_file'
p4498
asbag69
(g90
g71
NtRp4499
(dp4500
g74
(dp4501
g101
g102
ssg83
g4490
sg76
(lp4502
S':'
asbag69
(g90
g71
NtRp4503
(dp4504
g74
(dp4505
sg83
g4490
sg76
(lp4506
g69
(g70
g71
NtRp4507
(dp4508
g74
(dp4509
g82
I5
ssg83
g4503
sg76
(lp4510
S"<open file '/var/www/conferencia/applications/projeto/sessions/127.0.0.1-b222eab6-fff3-4ee1-9193-07dc6b9c8361', mode 'rb+' at 0x7fc40c324d20>"
p4511
asbasbasbag69
(g85
g71
NtRp4512
(dp4513
g74
(dp4514
sg83
g3071
sg76
(lp4515
g69
(g90
g71
NtRp4516
(dp4517
g74
(dp4518
g94
g95
ssg83
g4512
sg76
(lp4519
S'session_filename'
p4520
asbag69
(g90
g71
NtRp4521
(dp4522
g74
(dp4523
g101
g102
ssg83
g4512
sg76
(lp4524
S':'
asbag69
(g90
g71
NtRp4525
(dp4526
g74
(dp4527
sg83
g4512
sg76
(lp4528
g69
(g70
g71
NtRp4529
(dp4530
g74
(dp4531
g82
I5
ssg83
g4525
sg76
(lp4532
S'/var/www/conferencia/applications/projeto/sessions/127.0.0.1-b222eab6-fff3-4ee1-9193-07dc6b9c8361'
p4533
asbasbasbag69
(g85
g71
NtRp4534
(dp4535
g74
(dp4536
sg83
g3071
sg76
(lp4537
g69
(g90
g71
NtRp4538
(dp4539
g74
(dp4540
g94
g95
ssg83
g4534
sg76
(lp4541
S'session_id'
p4542
asbag69
(g90
g71
NtRp4543
(dp4544
g74
(dp4545
g101
g102
ssg83
g4534
sg76
(lp4546
S':'
asbag69
(g90
g71
NtRp4547
(dp4548
g74
(dp4549
sg83
g4534
sg76
(lp4550
g69
(g70
g71
NtRp4551
(dp4552
g74
(dp4553
g82
I5
ssg83
g4547
sg76
(lp4554
g487
asbasbasbag69
(g85
g71
NtRp4555
(dp4556
g74
(dp4557
sg83
g3071
sg76
(lp4558
g69
(g90
g71
NtRp4559
(dp4560
g74
(dp4561
g94
g95
ssg83
g4555
sg76
(lp4562
S'session_id_name'
p4563
asbag69
(g90
g71
NtRp4564
(dp4565
g74
(dp4566
g101
g102
ssg83
g4555
sg76
(lp4567
S':'
asbag69
(g90
g71
NtRp4568
(dp4569
g74
(dp4570
sg83
g4555
sg76
(lp4571
g69
(g70
g71
NtRp4572
(dp4573
g74
(dp4574
g82
I5
ssg83
g4568
sg76
(lp4575
g3128
asbasbasbag69
(g85
g71
NtRp4576
(dp4577
g74
(dp4578
sg83
g3071
sg76
(lp4579
g69
(g90
g71
NtRp4580
(dp4581
g74
(dp4582
g94
g95
ssg83
g4576
sg76
(lp4583
S'session_locked'
p4584
asbag69
(g90
g71
NtRp4585
(dp4586
g74
(dp4587
g101
g102
ssg83
g4576
sg76
(lp4588
S':'
asbag69
(g90
g71
NtRp4589
(dp4590
g74
(dp4591
sg83
g4576
sg76
(lp4592
g69
(g70
g71
NtRp4593
(dp4594
g74
(dp4595
g82
I5
ssg83
g4589
sg76
(lp4596
g1603
asbasbasbag69
(g85
g71
NtRp4597
(dp4598
g74
(dp4599
sg83
g3071
sg76
(lp4600
g69
(g90
g71
NtRp4601
(dp4602
g74
(dp4603
g94
g95
ssg83
g4597
sg76
(lp4604
S'session_new'
p4605
asbag69
(g90
g71
NtRp4606
(dp4607
g74
(dp4608
g101
g102
ssg83
g4597
sg76
(lp4609
S':'
asbag69
(g90
g71
NtRp4610
(dp4611
g74
(dp4612
sg83
g4597
sg76
(lp4613
g69
(g70
g71
NtRp4614
(dp4615
g74
(dp4616
g82
I5
ssg83
g4610
sg76
(lp4617
g112
asbasbasbag69
(g85
g71
NtRp4618
(dp4619
g74
(dp4620
sg83
g3071
sg76
(lp4621
g69
(g90
g71
NtRp4622
(dp4623
g74
(dp4624
g94
g95
ssg83
g4618
sg76
(lp4625
S'session_storage_type'
p4626
asbag69
(g90
g71
NtRp4627
(dp4628
g74
(dp4629
g101
g102
ssg83
g4618
sg76
(lp4630
S':'
asbag69
(g90
g71
NtRp4631
(dp4632
g74
(dp4633
sg83
g4618
sg76
(lp4634
g69
(g70
g71
NtRp4635
(dp4636
g74
(dp4637
g82
I5
ssg83
g4631
sg76
(lp4638
g3000
asbasbasbag69
(g85
g71
NtRp4639
(dp4640
g74
(dp4641
sg83
g3071
sg76
(lp4642
g69
(g90
g71
NtRp4643
(dp4644
g74
(dp4645
g94
g95
ssg83
g4639
sg76
(lp4646
S'status'
p4647
asbag69
(g90
g71
NtRp4648
(dp4649
g74
(dp4650
g101
g102
ssg83
g4639
sg76
(lp4651
S':'
asbag69
(g90
g71
NtRp4652
(dp4653
g74
(dp4654
sg83
g4639
sg76
(lp4655
g69
(g70
g71
NtRp4656
(dp4657
g74
(dp4658
g82
I5
ssg83
g4652
sg76
(lp4659
S'200'
p4660
asbasbasbag69
(g85
g71
NtRp4661
(dp4662
g74
(dp4663
sg83
g3071
sg76
(lp4664
g69
(g90
g71
NtRp4665
(dp4666
g74
(dp4667
g94
g95
ssg83
g4661
sg76
(lp4668
S'subtitle'
p4669
asbag69
(g90
g71
NtRp4670
(dp4671
g74
(dp4672
g101
g102
ssg83
g4661
sg76
(lp4673
S':'
asbag69
(g90
g71
NtRp4674
(dp4675
g74
(dp4676
sg83
g4661
sg76
(lp4677
g69
(g70
g71
NtRp4678
(dp4679
g74
(dp4680
g82
I5
ssg83
g4674
sg76
(lp4681
g3603
(S's\r\x00\x00\x00customize me!'
tRp4682
asbasbasbag69
(g85
g71
NtRp4683
(dp4684
g74
(dp4685
sg83
g3071
sg76
(lp4686
g69
(g90
g71
NtRp4687
(dp4688
g74
(dp4689
g94
g95
ssg83
g4683
sg76
(lp4690
S'title'
p4691
asbag69
(g90
g71
NtRp4692
(dp4693
g74
(dp4694
g101
g102
ssg83
g4683
sg76
(lp4695
S':'
asbag69
(g90
g71
NtRp4696
(dp4697
g74
(dp4698
sg83
g4683
sg76
(lp4699
g69
(g70
g71
NtRp4700
(dp4701
g74
(dp4702
g82
I5
ssg83
g4696
sg76
(lp4703
S'Projeto'
p4704
asbasbasbag69
(g85
g71
NtRp4705
(dp4706
g74
(dp4707
sg83
g3071
sg76
(lp4708
g69
(g90
g71
NtRp4709
(dp4710
g74
(dp4711
g94
g95
ssg83
g4705
sg76
(lp4712
S'view'
p4713
asbag69
(g90
g71
NtRp4714
(dp4715
g74
(dp4716
g101
g102
ssg83
g4705
sg76
(lp4717
S':'
asbag69
(g90
g71
NtRp4718
(dp4719
g74
(dp4720
sg83
g4705
sg76
(lp4721
g69
(g70
g71
NtRp4722
(dp4723
g74
(dp4724
g82
I5
ssg83
g4718
sg76
(lp4725
S'initial/principal.html'
p4726
asbasbasbasbasbsS'locals'
p4727
(dp4728
g4
S"'/var/www/conferencia/applications/projeto/controllers/initial.py'"
p4729
sg6
S"'# coding: utf-8\\n\\ndef principal():\\n\\tresponse.titl...s)\\n\\n\\n\\nresponse._vars=response._caller(principal)\\n'"
p4730
sssS'traceback'
p4731
S'Traceback (most recent call last):\n  File "/var/www/conferencia/gluon/restricted.py", line 211, in restricted\n    ccode = compile2(code, layer)\n  File "/var/www/conferencia/gluon/restricted.py", line 194, in compile2\n    return compile(code.rstrip().replace(\'\\r\\n\', \'\\n\') + \'\\n\', layer, \'exec\')\n  File "/var/www/conferencia/applications/projeto/controllers/initial.py", line 82\n    print membros\n                ^\nIndentationError: unindent does not match any outer indentation level\n'
p4732
s.