(dp1
S'output'
p2
S'<type \'exceptions.RuntimeError\'> Failure to connect, tried 5 times:\nTraceback (most recent call last):\n  File "/home/fernando/Documentos/web2py/gluon/dal.py", line 6853, in __init__\n    self._adapter = ADAPTERS[self._dbname](**kwargs)\n  File "/home/fernando/Documentos/web2py/gluon/dal.py", line 2402, in __init__\n    if do_connect: self.reconnect()\n  File "/home/fernando/Documentos/web2py/gluon/dal.py", line 597, in reconnect\n    self.connection = f()\n  File "/home/fernando/Documentos/web2py/gluon/dal.py", line 2400, in connector\n    return self.driver.connect(**driver_args)\n  File "/usr/lib/python2.7/dist-packages/MySQLdb/__init__.py", line 81, in Connect\n    return Connection(*args, **kwargs)\n  File "/usr/lib/python2.7/dist-packages/MySQLdb/connections.py", line 187, in __init__\n    super(Connection, self).__init__(*args, **kwargs2)\nOperationalError: (1045, "Access denied for user \'root\'@\'localhost\' (using password: YES)")\n'
p3
sS'layer'
p4
S'/home/fernando/Documentos/web2py/applications/projeto/models/config.py'
p5
sS'code'
p6
S'from gluon.storage import Storage\n\nconfig = Storage(\n        db=Storage(),\n        auth=Storage(),\n        mail=Storage()\n        )\n\nconfig.db.uri = "mysql://root:senha@localhost/adm"\n#config.db.uri = "postgres:pg8000://postgres:123456@127.0.0.1/agenda"\n#config.db.uri = "sqlite://hosts.sqlite"\nconfig.db.pool_size = 10\nconfig.db.check_reserved = [\'all\']\n#config.migrate_enable=True\n#config.migrate=True\n\ndb = DAL(**config.db)\n\n# logging\nimport logging\nlogger = logging.getLogger("web2py.app.blog")\nlogger.setLevel(logging.DEBUG)\n\n#auth Rbac\nfrom gluon.tools import Auth\n\nauth = Auth(db, controller="initial", function="user")\n\n#settings\nauth.settings.remember_me_form = False\nauth.settings.formstyle = "divs"\nauth.settings.login_next = URL(\'initial\', \'principal\')\nauth.settings.logout_next = URL(\'user\', \'login?_next=\')\nauth.settings.registration_requires_verification = False\nauth.settings.registration_requires_approval = False\n#auth.settings.formstyle = "divs"\n#auth.settings.actions_disabled = [\'register\']\n\nauth.messages.logged_in = \'Bem Vindo\' \nauth.messages.logged_out = \'At\xc3\xa9 logo\'\nauth.messages.access_denied = \'Acesso negado! Contate o administrador\'\nauth.messages.invalid_email = \'email Inv\xc3\xa1lido\'\nauth.messages.invalid_login = \'Login Inv\xc3\xa1lido\'\n\n#mail\nmail = auth.settings.mailer\nmail.settings.server = "mail.ad2.com.br:587"\nmail.settings.sender = "smtp_avisos@ad2.com.br"\nmail.settings.login = "smtp_avisos@ad2.com.br:senha"\n\n\n#signals\ndef notifica(form):\n\tlogger.info("notifica")\n\tmail.send(\n\t\tto="fndiaz02@gmail.com",\n\t\tsubject="Usuario %(first_name)s pendente" % form.vars,\n\t\tmessage="<html>Voce tem um novo usuario para aprovacao %(first_name)s %(last_name)s </html>" % form.vars\n\t)\n\n#auth.settings.register_onaccept = notifica\n#auth.settings.register_onaccept = funcao\n\n#messages\nauth.messages.login_button = "Entrar"\n\n#fields\n#auth.settings.extra_fields[\'auth_user\'] = [\n#\tField("bio", "text"),\n#\tField("photo", "upload"),\n#\tField("gender", requires=IS_IN_SET(["masculino","feminino"]))\n#]\n\n#janrain\n#from gluon.contrib.login_methods.rpx_account import use_janrain\n#use_janrain(auth, filename="private/janrain.key")\n\nauth.define_tables(username=False)\n\n#genericas views\nif request.is_local:\n\tresponse.generic_patterns = [\'*\']\n\nimport datetime\n#response\nresponse.title= "titulo response"\nresponse.meta.keywords= "chave, outra, e outra"\n\nif not \'pastas\' in session:\n    session.pastas = []\n\nif not \'ano\' in session:\n    session.ano = \'0\'\n\nif not \'mes\' in session:\n    session.mes = \'0\'\n\nif not \'form_ano\' in session:\n    now = datetime.datetime.now()\n    ano = now.year\n    lista=[]\n    for i in range(12):\n        lista.append(ano)\n        ano = ano - 1\n    session.form_ano = lista\n'
p7
sS'snapshot'
p8
(dp9
S'exception'
p10
(dp11
S'__hash__'
p12
S"<method-wrapper '__hash__' of exceptions.RuntimeError object>"
p13
sS'__setattr__'
p14
S"<method-wrapper '__setattr__' of exceptions.RuntimeError object>"
p15
sS'__reduce_ex__'
p16
S'<built-in method __reduce_ex__ of exceptions.RuntimeError object>'
p17
sS'__getslice__'
p18
S"<method-wrapper '__getslice__' of exceptions.RuntimeError object>"
p19
sS'__getitem__'
p20
S"<method-wrapper '__getitem__' of exceptions.RuntimeError object>"
p21
sS'__setstate__'
p22
S'<built-in method __setstate__ of exceptions.RuntimeError object>'
p23
sS'args'
p24
S'(\'Failure to connect, tried 5 times:\\nTraceback (mo... user \\\'root\\\'@\\\'localhost\\\' (using password: YES)")\\n\',)'
p25
sS'__reduce__'
p26
S'<built-in method __reduce__ of exceptions.RuntimeError object>'
p27
sS'__str__'
p28
S"<method-wrapper '__str__' of exceptions.RuntimeError object>"
p29
sS'__format__'
p30
S'<built-in method __format__ of exceptions.RuntimeError object>'
p31
sS'__getattribute__'
p32
S"<method-wrapper '__getattribute__' of exceptions.RuntimeError object>"
p33
sS'__class__'
p34
S"<type 'exceptions.RuntimeError'>"
p35
sS'__unicode__'
p36
S'<built-in method __unicode__ of exceptions.RuntimeError object>'
p37
sS'__delattr__'
p38
S"<method-wrapper '__delattr__' of exceptions.RuntimeError object>"
p39
sS'__subclasshook__'
p40
S'<built-in method __subclasshook__ of type object>'
p41
sS'__repr__'
p42
S"<method-wrapper '__repr__' of exceptions.RuntimeError object>"
p43
sS'__dict__'
p44
S'{}'
p45
sS'__sizeof__'
p46
S'<built-in method __sizeof__ of exceptions.RuntimeError object>'
p47
sS'__doc__'
p48
S"'Unspecified run-time error.'"
p49
sS'__init__'
p50
S"<method-wrapper '__init__' of exceptions.RuntimeError object>"
p51
sS'__new__'
p52
S'<built-in method __new__ of type object>'
p53
ssS'evalue'
p54
S'Failure to connect, tried 5 times:\nTraceback (most recent call last):\n  File "/home/fernando/Documentos/web2py/gluon/dal.py", line 6853, in __init__\n    self._adapter = ADAPTERS[self._dbname](**kwargs)\n  File "/home/fernando/Documentos/web2py/gluon/dal.py", line 2402, in __init__\n    if do_connect: self.reconnect()\n  File "/home/fernando/Documentos/web2py/gluon/dal.py", line 597, in reconnect\n    self.connection = f()\n  File "/home/fernando/Documentos/web2py/gluon/dal.py", line 2400, in connector\n    return self.driver.connect(**driver_args)\n  File "/usr/lib/python2.7/dist-packages/MySQLdb/__init__.py", line 81, in Connect\n    return Connection(*args, **kwargs)\n  File "/usr/lib/python2.7/dist-packages/MySQLdb/connections.py", line 187, in __init__\n    super(Connection, self).__init__(*args, **kwargs2)\nOperationalError: (1045, "Access denied for user \'root\'@\'localhost\' (using password: YES)")\n'
p55
sS'request'
p56
ccopy_reg
_reconstructor
p57
(cgluon.html
BEAUTIFY
p58
c__builtin__
object
p59
NtRp60
(dp61
S'attributes'
p62
(dp63
sS'components'
p64
(lp65
g57
(cgluon.html
TABLE
p66
g59
NtRp67
(dp68
g62
(dp69
S'level'
p70
I5
ssS'parent'
p71
Nsg64
(lp72
g57
(cgluon.html
TR
p73
g59
NtRp74
(dp75
g62
(dp76
sg71
g67
sg64
(lp77
g57
(cgluon.html
TD
p78
g59
NtRp79
(dp80
g62
(dp81
S'_style'
p82
S'font-weight:bold;vertical-align:top'
p83
ssg71
g74
sg64
(lp84
S'ajax'
p85
asbag57
(g78
g59
NtRp86
(dp87
g62
(dp88
S'_valign'
p89
S'top'
p90
ssg71
g74
sg64
(lp91
S':'
asbag57
(g78
g59
NtRp92
(dp93
g62
(dp94
sg71
g74
sg64
(lp95
g57
(g58
g59
NtRp96
(dp97
g62
(dp98
g70
I5
ssg71
g92
sg64
(lp99
S'False'
p100
asbasbasbag57
(g73
g59
NtRp101
(dp102
g62
(dp103
sg71
g67
sg64
(lp104
g57
(g78
g59
NtRp105
(dp106
g62
(dp107
g82
g83
ssg71
g101
sg64
(lp108
S'application'
p109
asbag57
(g78
g59
NtRp110
(dp111
g62
(dp112
g89
g90
ssg71
g101
sg64
(lp113
S':'
asbag57
(g78
g59
NtRp114
(dp115
g62
(dp116
sg71
g101
sg64
(lp117
g57
(g58
g59
NtRp118
(dp119
g62
(dp120
g70
I5
ssg71
g114
sg64
(lp121
S'projeto'
p122
asbasbasbag57
(g73
g59
NtRp123
(dp124
g62
(dp125
sg71
g67
sg64
(lp126
g57
(g78
g59
NtRp127
(dp128
g62
(dp129
g82
g83
ssg71
g123
sg64
(lp130
g24
asbag57
(g78
g59
NtRp131
(dp132
g62
(dp133
g89
g90
ssg71
g123
sg64
(lp134
S':'
asbag57
(g78
g59
NtRp135
(dp136
g62
(dp137
sg71
g123
sg64
(lp138
g57
(g58
g59
NtRp139
(dp140
g62
(dp141
g70
I5
ssg71
g135
sg64
(lp142
g57
(g66
g59
NtRp143
(dp144
g62
(dp145
g70
I4
ssg71
Nsg64
(lp146
sbasbasbasbag57
(g73
g59
NtRp147
(dp148
g62
(dp149
sg71
g67
sg64
(lp150
g57
(g78
g59
NtRp151
(dp152
g62
(dp153
g82
g83
ssg71
g147
sg64
(lp154
S'body'
p155
asbag57
(g78
g59
NtRp156
(dp157
g62
(dp158
g89
g90
ssg71
g147
sg64
(lp159
S':'
asbag57
(g78
g59
NtRp160
(dp161
g62
(dp162
sg71
g147
sg64
(lp163
g57
(g58
g59
NtRp164
(dp165
g62
(dp166
g70
I5
ssg71
g160
sg64
(lp167
S'<cStringIO.StringO object at 0x2e8c0a0>'
p168
asbasbasbag57
(g73
g59
NtRp169
(dp170
g62
(dp171
sg71
g67
sg64
(lp172
g57
(g78
g59
NtRp173
(dp174
g62
(dp175
g82
g83
ssg71
g169
sg64
(lp176
S'cid'
p177
asbag57
(g78
g59
NtRp178
(dp179
g62
(dp180
g89
g90
ssg71
g169
sg64
(lp181
S':'
asbag57
(g78
g59
NtRp182
(dp183
g62
(dp184
sg71
g169
sg64
(lp185
g57
(g58
g59
NtRp186
(dp187
g62
(dp188
g70
I5
ssg71
g182
sg64
(lp189
S'None'
p190
asbasbasbag57
(g73
g59
NtRp191
(dp192
g62
(dp193
sg71
g67
sg64
(lp194
g57
(g78
g59
NtRp195
(dp196
g62
(dp197
g82
g83
ssg71
g191
sg64
(lp198
S'client'
p199
asbag57
(g78
g59
NtRp200
(dp201
g62
(dp202
g89
g90
ssg71
g191
sg64
(lp203
S':'
asbag57
(g78
g59
NtRp204
(dp205
g62
(dp206
sg71
g191
sg64
(lp207
g57
(g58
g59
NtRp208
(dp209
g62
(dp210
g70
I5
ssg71
g204
sg64
(lp211
S'127.0.0.1'
p212
asbasbasbag57
(g73
g59
NtRp213
(dp214
g62
(dp215
sg71
g67
sg64
(lp216
g57
(g78
g59
NtRp217
(dp218
g62
(dp219
g82
g83
ssg71
g213
sg64
(lp220
S'controller'
p221
asbag57
(g78
g59
NtRp222
(dp223
g62
(dp224
g89
g90
ssg71
g213
sg64
(lp225
S':'
asbag57
(g78
g59
NtRp226
(dp227
g62
(dp228
sg71
g213
sg64
(lp229
g57
(g58
g59
NtRp230
(dp231
g62
(dp232
g70
I5
ssg71
g226
sg64
(lp233
S'initial'
p234
asbasbasbag57
(g73
g59
NtRp235
(dp236
g62
(dp237
sg71
g67
sg64
(lp238
g57
(g78
g59
NtRp239
(dp240
g62
(dp241
g82
g83
ssg71
g235
sg64
(lp242
S'cookies'
p243
asbag57
(g78
g59
NtRp244
(dp245
g62
(dp246
g89
g90
ssg71
g235
sg64
(lp247
S':'
asbag57
(g78
g59
NtRp248
(dp249
g62
(dp250
sg71
g235
sg64
(lp251
g57
(g58
g59
NtRp252
(dp253
g62
(dp254
g70
I5
ssg71
g248
sg64
(lp255
g57
(g66
g59
NtRp256
(dp257
g62
(dp258
g70
I4
ssg71
Nsg64
(lp259
sbasbasbasbag57
(g73
g59
NtRp260
(dp261
g62
(dp262
sg71
g67
sg64
(lp263
g57
(g78
g59
NtRp264
(dp265
g62
(dp266
g82
g83
ssg71
g260
sg64
(lp267
S'env'
p268
asbag57
(g78
g59
NtRp269
(dp270
g62
(dp271
g89
g90
ssg71
g260
sg64
(lp272
S':'
asbag57
(g78
g59
NtRp273
(dp274
g62
(dp275
sg71
g260
sg64
(lp276
g57
(g58
g59
NtRp277
(dp278
g62
(dp279
g70
I5
ssg71
g273
sg64
(lp280
g57
(g66
g59
NtRp281
(dp282
g62
(dp283
g70
I4
ssg71
Nsg64
(lp284
g57
(g73
g59
NtRp285
(dp286
g62
(dp287
sg71
g281
sg64
(lp288
g57
(g78
g59
NtRp289
(dp290
g62
(dp291
g82
g83
ssg71
g285
sg64
(lp292
S'app_folders'
p293
asbag57
(g78
g59
NtRp294
(dp295
g62
(dp296
g89
g90
ssg71
g285
sg64
(lp297
S':'
asbag57
(g78
g59
NtRp298
(dp299
g62
(dp300
sg71
g285
sg64
(lp301
g57
(g58
g59
NtRp302
(dp303
g62
(dp304
g70
I4
ssg71
g298
sg64
(lp305
S"set(['/home/fernando/Documentos/web2py/applications/projeto/'])"
p306
asbasbasbag57
(g73
g59
NtRp307
(dp308
g62
(dp309
sg71
g281
sg64
(lp310
g57
(g78
g59
NtRp311
(dp312
g62
(dp313
g82
g83
ssg71
g307
sg64
(lp314
S'applications_parent'
p315
asbag57
(g78
g59
NtRp316
(dp317
g62
(dp318
g89
g90
ssg71
g307
sg64
(lp319
S':'
asbag57
(g78
g59
NtRp320
(dp321
g62
(dp322
sg71
g307
sg64
(lp323
g57
(g58
g59
NtRp324
(dp325
g62
(dp326
g70
I4
ssg71
g320
sg64
(lp327
S'/home/fernando/Documentos/web2py'
p328
asbasbasbag57
(g73
g59
NtRp329
(dp330
g62
(dp331
sg71
g281
sg64
(lp332
g57
(g78
g59
NtRp333
(dp334
g62
(dp335
g82
g83
ssg71
g329
sg64
(lp336
S'cmd_args'
p337
asbag57
(g78
g59
NtRp338
(dp339
g62
(dp340
g89
g90
ssg71
g329
sg64
(lp341
S':'
asbag57
(g78
g59
NtRp342
(dp343
g62
(dp344
sg71
g329
sg64
(lp345
g57
(g58
g59
NtRp346
(dp347
g62
(dp348
g70
I4
ssg71
g342
sg64
(lp349
g57
(g66
g59
NtRp350
(dp351
g62
(dp352
g70
I3
ssg71
Nsg64
(lp353
sbasbasbasbag57
(g73
g59
NtRp354
(dp355
g62
(dp356
sg71
g281
sg64
(lp357
g57
(g78
g59
NtRp358
(dp359
g62
(dp360
g82
g83
ssg71
g354
sg64
(lp361
S'cmd_options'
p362
asbag57
(g78
g59
NtRp363
(dp364
g62
(dp365
g89
g90
ssg71
g354
sg64
(lp366
S':'
asbag57
(g78
g59
NtRp367
(dp368
g62
(dp369
sg71
g354
sg64
(lp370
g57
(g58
g59
NtRp371
(dp372
g62
(dp373
g70
I4
ssg71
g367
sg64
(lp374
S"<Values at 0x2e729e0: {'verbose': False, 'ip': '127.0.0.1', 'with_scheduler': False, 'ips': [], 'shutdown_timeout': 5, 'taskbar': False, 'port': 8000, 'maxthreads': None, 'softcron': False, 'server_name': 'fernando-pc', 'bpython': False, 'nogui': False, 'pid_filename': 'httpserver.pid', 'extcron': False, 'runcron': False, 'run_system_tests': False, 'test': None, 'folder': '/home/fernando/Documentos/web2py', 'config': '', 'minthreads': None, 'winservice': '', 'shell': None, 'run': '', 'log_filename': 'httpserver.log', 'debuglevel': 30, 'args': [''], 'socket_timeout': 5, 'ssl_ca_certificate': None, 'scheduler': None, 'profiler_filename': None, 'ssl_private_key': '', 'scheduler_groups': None, 'password': '123456', 'request_queue_size': 5, 'ssl_certificate': '', 'cronjob': False, 'numthreads': None, 'quiet': False, 'interfaces': None, 'import_models': False, 'timeout': 10, 'plain': False, 'nobanner': False}>"
p375
asbasbasbag57
(g73
g59
NtRp376
(dp377
g62
(dp378
sg71
g281
sg64
(lp379
g57
(g78
g59
NtRp380
(dp381
g62
(dp382
g82
g83
ssg71
g376
sg64
(lp383
S'db_sessions'
p384
asbag57
(g78
g59
NtRp385
(dp386
g62
(dp387
g89
g90
ssg71
g376
sg64
(lp388
S':'
asbag57
(g78
g59
NtRp389
(dp390
g62
(dp391
sg71
g376
sg64
(lp392
g57
(g58
g59
NtRp393
(dp394
g62
(dp395
g70
I4
ssg71
g389
sg64
(lp396
S'set([])'
p397
asbasbasbag57
(g73
g59
NtRp398
(dp399
g62
(dp400
sg71
g281
sg64
(lp401
g57
(g78
g59
NtRp402
(dp403
g62
(dp404
g82
g83
ssg71
g398
sg64
(lp405
S'debugging'
p406
asbag57
(g78
g59
NtRp407
(dp408
g62
(dp409
g89
g90
ssg71
g398
sg64
(lp410
S':'
asbag57
(g78
g59
NtRp411
(dp412
g62
(dp413
sg71
g398
sg64
(lp414
g57
(g58
g59
NtRp415
(dp416
g62
(dp417
g70
I4
ssg71
g411
sg64
(lp418
g100
asbasbasbag57
(g73
g59
NtRp419
(dp420
g62
(dp421
sg71
g281
sg64
(lp422
g57
(g78
g59
NtRp423
(dp424
g62
(dp425
g82
g83
ssg71
g419
sg64
(lp426
S'gluon_parent'
p427
asbag57
(g78
g59
NtRp428
(dp429
g62
(dp430
g89
g90
ssg71
g419
sg64
(lp431
S':'
asbag57
(g78
g59
NtRp432
(dp433
g62
(dp434
sg71
g419
sg64
(lp435
g57
(g58
g59
NtRp436
(dp437
g62
(dp438
g70
I4
ssg71
g432
sg64
(lp439
S'/home/fernando/Documentos/web2py'
p440
asbasbasbag57
(g73
g59
NtRp441
(dp442
g62
(dp443
sg71
g281
sg64
(lp444
g57
(g78
g59
NtRp445
(dp446
g62
(dp447
g82
g83
ssg71
g441
sg64
(lp448
S'http_accept'
p449
asbag57
(g78
g59
NtRp450
(dp451
g62
(dp452
g89
g90
ssg71
g441
sg64
(lp453
S':'
asbag57
(g78
g59
NtRp454
(dp455
g62
(dp456
sg71
g441
sg64
(lp457
g57
(g58
g59
NtRp458
(dp459
g62
(dp460
g70
I4
ssg71
g454
sg64
(lp461
S'text/html,application/xhtml+xml,application/xml;q=0.9,*/*;q=0.8'
p462
asbasbasbag57
(g73
g59
NtRp463
(dp464
g62
(dp465
sg71
g281
sg64
(lp466
g57
(g78
g59
NtRp467
(dp468
g62
(dp469
g82
g83
ssg71
g463
sg64
(lp470
S'http_accept_charset'
p471
asbag57
(g78
g59
NtRp472
(dp473
g62
(dp474
g89
g90
ssg71
g463
sg64
(lp475
S':'
asbag57
(g78
g59
NtRp476
(dp477
g62
(dp478
sg71
g463
sg64
(lp479
g57
(g58
g59
NtRp480
(dp481
g62
(dp482
g70
I4
ssg71
g476
sg64
(lp483
S'ISO-8859-1,utf-8;q=0.7,*;q=0.3'
p484
asbasbasbag57
(g73
g59
NtRp485
(dp486
g62
(dp487
sg71
g281
sg64
(lp488
g57
(g78
g59
NtRp489
(dp490
g62
(dp491
g82
g83
ssg71
g485
sg64
(lp492
S'http_accept_encoding'
p493
asbag57
(g78
g59
NtRp494
(dp495
g62
(dp496
g89
g90
ssg71
g485
sg64
(lp497
S':'
asbag57
(g78
g59
NtRp498
(dp499
g62
(dp500
sg71
g485
sg64
(lp501
g57
(g58
g59
NtRp502
(dp503
g62
(dp504
g70
I4
ssg71
g498
sg64
(lp505
S'gzip,deflate,sdch'
p506
asbasbasbag57
(g73
g59
NtRp507
(dp508
g62
(dp509
sg71
g281
sg64
(lp510
g57
(g78
g59
NtRp511
(dp512
g62
(dp513
g82
g83
ssg71
g507
sg64
(lp514
S'http_accept_language'
p515
asbag57
(g78
g59
NtRp516
(dp517
g62
(dp518
g89
g90
ssg71
g507
sg64
(lp519
S':'
asbag57
(g78
g59
NtRp520
(dp521
g62
(dp522
sg71
g507
sg64
(lp523
g57
(g58
g59
NtRp524
(dp525
g62
(dp526
g70
I4
ssg71
g520
sg64
(lp527
S'pt-BR,pt;q=0.8,en-US;q=0.6,en;q=0.4'
p528
asbasbasbag57
(g73
g59
NtRp529
(dp530
g62
(dp531
sg71
g281
sg64
(lp532
g57
(g78
g59
NtRp533
(dp534
g62
(dp535
g82
g83
ssg71
g529
sg64
(lp536
S'http_connection'
p537
asbag57
(g78
g59
NtRp538
(dp539
g62
(dp540
g89
g90
ssg71
g529
sg64
(lp541
S':'
asbag57
(g78
g59
NtRp542
(dp543
g62
(dp544
sg71
g529
sg64
(lp545
g57
(g58
g59
NtRp546
(dp547
g62
(dp548
g70
I4
ssg71
g542
sg64
(lp549
S'keep-alive'
p550
asbasbasbag57
(g73
g59
NtRp551
(dp552
g62
(dp553
sg71
g281
sg64
(lp554
g57
(g78
g59
NtRp555
(dp556
g62
(dp557
g82
g83
ssg71
g551
sg64
(lp558
S'http_host'
p559
asbag57
(g78
g59
NtRp560
(dp561
g62
(dp562
g89
g90
ssg71
g551
sg64
(lp563
S':'
asbag57
(g78
g59
NtRp564
(dp565
g62
(dp566
sg71
g551
sg64
(lp567
g57
(g58
g59
NtRp568
(dp569
g62
(dp570
g70
I4
ssg71
g564
sg64
(lp571
S'127.0.0.1:8000'
p572
asbasbasbag57
(g73
g59
NtRp573
(dp574
g62
(dp575
sg71
g281
sg64
(lp576
g57
(g78
g59
NtRp577
(dp578
g62
(dp579
g82
g83
ssg71
g573
sg64
(lp580
S'http_user_agent'
p581
asbag57
(g78
g59
NtRp582
(dp583
g62
(dp584
g89
g90
ssg71
g573
sg64
(lp585
S':'
asbag57
(g78
g59
NtRp586
(dp587
g62
(dp588
sg71
g573
sg64
(lp589
g57
(g58
g59
NtRp590
(dp591
g62
(dp592
g70
I4
ssg71
g586
sg64
(lp593
S'Mozilla/5.0 (X11; Linux x86_64) AppleWebKit/536.11 (KHTML, like Gecko) Ubuntu/12.04 Chromium/20.0.1132.47 Chrome/20.0.1132.47 Safari/536.11'
p594
asbasbasbag57
(g73
g59
NtRp595
(dp596
g62
(dp597
sg71
g281
sg64
(lp598
g57
(g78
g59
NtRp599
(dp600
g62
(dp601
g82
g83
ssg71
g595
sg64
(lp602
S'is_jython'
p603
asbag57
(g78
g59
NtRp604
(dp605
g62
(dp606
g89
g90
ssg71
g595
sg64
(lp607
S':'
asbag57
(g78
g59
NtRp608
(dp609
g62
(dp610
sg71
g595
sg64
(lp611
g57
(g58
g59
NtRp612
(dp613
g62
(dp614
g70
I4
ssg71
g608
sg64
(lp615
g100
asbasbasbag57
(g73
g59
NtRp616
(dp617
g62
(dp618
sg71
g281
sg64
(lp619
g57
(g78
g59
NtRp620
(dp621
g62
(dp622
g82
g83
ssg71
g616
sg64
(lp623
S'is_pypy'
p624
asbag57
(g78
g59
NtRp625
(dp626
g62
(dp627
g89
g90
ssg71
g616
sg64
(lp628
S':'
asbag57
(g78
g59
NtRp629
(dp630
g62
(dp631
sg71
g616
sg64
(lp632
g57
(g58
g59
NtRp633
(dp634
g62
(dp635
g70
I4
ssg71
g629
sg64
(lp636
g100
asbasbasbag57
(g73
g59
NtRp637
(dp638
g62
(dp639
sg71
g281
sg64
(lp640
g57
(g78
g59
NtRp641
(dp642
g62
(dp643
g82
g83
ssg71
g637
sg64
(lp644
S'path_info'
p645
asbag57
(g78
g59
NtRp646
(dp647
g62
(dp648
g89
g90
ssg71
g637
sg64
(lp649
S':'
asbag57
(g78
g59
NtRp650
(dp651
g62
(dp652
sg71
g637
sg64
(lp653
g57
(g58
g59
NtRp654
(dp655
g62
(dp656
g70
I4
ssg71
g650
sg64
(lp657
S'/'
asbasbasbag57
(g73
g59
NtRp658
(dp659
g62
(dp660
sg71
g281
sg64
(lp661
g57
(g78
g59
NtRp662
(dp663
g62
(dp664
g82
g83
ssg71
g658
sg64
(lp665
S'query_string'
p666
asbag57
(g78
g59
NtRp667
(dp668
g62
(dp669
g89
g90
ssg71
g658
sg64
(lp670
S':'
asbag57
(g78
g59
NtRp671
(dp672
g62
(dp673
sg71
g658
sg64
(lp674
g57
(g58
g59
NtRp675
(dp676
g62
(dp677
g70
I4
ssg71
g671
sg64
(lp678
S''
asbasbasbag57
(g73
g59
NtRp679
(dp680
g62
(dp681
sg71
g281
sg64
(lp682
g57
(g78
g59
NtRp683
(dp684
g62
(dp685
g82
g83
ssg71
g679
sg64
(lp686
S'remote_addr'
p687
asbag57
(g78
g59
NtRp688
(dp689
g62
(dp690
g89
g90
ssg71
g679
sg64
(lp691
S':'
asbag57
(g78
g59
NtRp692
(dp693
g62
(dp694
sg71
g679
sg64
(lp695
g57
(g58
g59
NtRp696
(dp697
g62
(dp698
g70
I4
ssg71
g692
sg64
(lp699
g212
asbasbasbag57
(g73
g59
NtRp700
(dp701
g62
(dp702
sg71
g281
sg64
(lp703
g57
(g78
g59
NtRp704
(dp705
g62
(dp706
g82
g83
ssg71
g700
sg64
(lp707
S'remote_port'
p708
asbag57
(g78
g59
NtRp709
(dp710
g62
(dp711
g89
g90
ssg71
g700
sg64
(lp712
S':'
asbag57
(g78
g59
NtRp713
(dp714
g62
(dp715
sg71
g700
sg64
(lp716
g57
(g58
g59
NtRp717
(dp718
g62
(dp719
g70
I4
ssg71
g713
sg64
(lp720
S'56465'
p721
asbasbasbag57
(g73
g59
NtRp722
(dp723
g62
(dp724
sg71
g281
sg64
(lp725
g57
(g78
g59
NtRp726
(dp727
g62
(dp728
g82
g83
ssg71
g722
sg64
(lp729
S'request_method'
p730
asbag57
(g78
g59
NtRp731
(dp732
g62
(dp733
g89
g90
ssg71
g722
sg64
(lp734
S':'
asbag57
(g78
g59
NtRp735
(dp736
g62
(dp737
sg71
g722
sg64
(lp738
g57
(g58
g59
NtRp739
(dp740
g62
(dp741
g70
I4
ssg71
g735
sg64
(lp742
S'GET'
p743
asbasbasbag57
(g73
g59
NtRp744
(dp745
g62
(dp746
sg71
g281
sg64
(lp747
g57
(g78
g59
NtRp748
(dp749
g62
(dp750
g82
g83
ssg71
g744
sg64
(lp751
S'request_uri'
p752
asbag57
(g78
g59
NtRp753
(dp754
g62
(dp755
g89
g90
ssg71
g744
sg64
(lp756
S':'
asbag57
(g78
g59
NtRp757
(dp758
g62
(dp759
sg71
g744
sg64
(lp760
g57
(g58
g59
NtRp761
(dp762
g62
(dp763
g70
I4
ssg71
g757
sg64
(lp764
S'/projeto/initial/principal'
p765
asbasbasbag57
(g73
g59
NtRp766
(dp767
g62
(dp768
sg71
g281
sg64
(lp769
g57
(g78
g59
NtRp770
(dp771
g62
(dp772
g82
g83
ssg71
g766
sg64
(lp773
S'script_name'
p774
asbag57
(g78
g59
NtRp775
(dp776
g62
(dp777
g89
g90
ssg71
g766
sg64
(lp778
S':'
asbag57
(g78
g59
NtRp779
(dp780
g62
(dp781
sg71
g766
sg64
(lp782
g57
(g58
g59
NtRp783
(dp784
g62
(dp785
g70
I4
ssg71
g779
sg64
(lp786
S''
asbasbasbag57
(g73
g59
NtRp787
(dp788
g62
(dp789
sg71
g281
sg64
(lp790
g57
(g78
g59
NtRp791
(dp792
g62
(dp793
g82
g83
ssg71
g787
sg64
(lp794
S'server_name'
p795
asbag57
(g78
g59
NtRp796
(dp797
g62
(dp798
g89
g90
ssg71
g787
sg64
(lp799
S':'
asbag57
(g78
g59
NtRp800
(dp801
g62
(dp802
sg71
g787
sg64
(lp803
g57
(g58
g59
NtRp804
(dp805
g62
(dp806
g70
I4
ssg71
g800
sg64
(lp807
S'fernando-pc'
p808
asbasbasbag57
(g73
g59
NtRp809
(dp810
g62
(dp811
sg71
g281
sg64
(lp812
g57
(g78
g59
NtRp813
(dp814
g62
(dp815
g82
g83
ssg71
g809
sg64
(lp816
S'server_port'
p817
asbag57
(g78
g59
NtRp818
(dp819
g62
(dp820
g89
g90
ssg71
g809
sg64
(lp821
S':'
asbag57
(g78
g59
NtRp822
(dp823
g62
(dp824
sg71
g809
sg64
(lp825
g57
(g58
g59
NtRp826
(dp827
g62
(dp828
g70
I4
ssg71
g822
sg64
(lp829
S'8000'
p830
asbasbasbag57
(g73
g59
NtRp831
(dp832
g62
(dp833
sg71
g281
sg64
(lp834
g57
(g78
g59
NtRp835
(dp836
g62
(dp837
g82
g83
ssg71
g831
sg64
(lp838
S'server_protocol'
p839
asbag57
(g78
g59
NtRp840
(dp841
g62
(dp842
g89
g90
ssg71
g831
sg64
(lp843
S':'
asbag57
(g78
g59
NtRp844
(dp845
g62
(dp846
sg71
g831
sg64
(lp847
g57
(g58
g59
NtRp848
(dp849
g62
(dp850
g70
I4
ssg71
g844
sg64
(lp851
S'HTTP/1.1'
p852
asbasbasbag57
(g73
g59
NtRp853
(dp854
g62
(dp855
sg71
g281
sg64
(lp856
g57
(g78
g59
NtRp857
(dp858
g62
(dp859
g82
g83
ssg71
g853
sg64
(lp860
S'server_software'
p861
asbag57
(g78
g59
NtRp862
(dp863
g62
(dp864
g89
g90
ssg71
g853
sg64
(lp865
S':'
asbag57
(g78
g59
NtRp866
(dp867
g62
(dp868
sg71
g853
sg64
(lp869
g57
(g58
g59
NtRp870
(dp871
g62
(dp872
g70
I4
ssg71
g866
sg64
(lp873
S'Rocket 1.2.6'
p874
asbasbasbag57
(g73
g59
NtRp875
(dp876
g62
(dp877
sg71
g281
sg64
(lp878
g57
(g78
g59
NtRp879
(dp880
g62
(dp881
g82
g83
ssg71
g875
sg64
(lp882
S'web2py_original_uri'
p883
asbag57
(g78
g59
NtRp884
(dp885
g62
(dp886
g89
g90
ssg71
g875
sg64
(lp887
S':'
asbag57
(g78
g59
NtRp888
(dp889
g62
(dp890
sg71
g875
sg64
(lp891
g57
(g58
g59
NtRp892
(dp893
g62
(dp894
g70
I4
ssg71
g888
sg64
(lp895
S'/'
asbasbasbag57
(g73
g59
NtRp896
(dp897
g62
(dp898
sg71
g281
sg64
(lp899
g57
(g78
g59
NtRp900
(dp901
g62
(dp902
g82
g83
ssg71
g896
sg64
(lp903
S'web2py_path'
p904
asbag57
(g78
g59
NtRp905
(dp906
g62
(dp907
g89
g90
ssg71
g896
sg64
(lp908
S':'
asbag57
(g78
g59
NtRp909
(dp910
g62
(dp911
sg71
g896
sg64
(lp912
g57
(g58
g59
NtRp913
(dp914
g62
(dp915
g70
I4
ssg71
g909
sg64
(lp916
g328
asbasbasbag57
(g73
g59
NtRp917
(dp918
g62
(dp919
sg71
g281
sg64
(lp920
g57
(g78
g59
NtRp921
(dp922
g62
(dp923
g82
g83
ssg71
g917
sg64
(lp924
S'web2py_version'
p925
asbag57
(g78
g59
NtRp926
(dp927
g62
(dp928
g89
g90
ssg71
g917
sg64
(lp929
S':'
asbag57
(g78
g59
NtRp930
(dp931
g62
(dp932
sg71
g917
sg64
(lp933
g57
(g58
g59
NtRp934
(dp935
g62
(dp936
g70
I4
ssg71
g930
sg64
(lp937
g57
(g66
g59
NtRp938
(dp939
g62
(dp940
g70
I3
ssg71
Nsg64
(lp941
g57
(g73
g59
NtRp942
(dp943
g62
(dp944
sg71
g938
sg64
(lp945
g57
(g78
g59
NtRp946
(dp947
g62
(dp948
sg71
g942
sg64
(lp949
g57
(g58
g59
NtRp950
(dp951
g62
(dp952
g70
I3
ssg71
g946
sg64
(lp953
S'2'
asbasbasbag57
(g73
g59
NtRp954
(dp955
g62
(dp956
sg71
g938
sg64
(lp957
g57
(g78
g59
NtRp958
(dp959
g62
(dp960
sg71
g954
sg64
(lp961
g57
(g58
g59
NtRp962
(dp963
g62
(dp964
g70
I3
ssg71
g958
sg64
(lp965
S'3'
asbasbasbag57
(g73
g59
NtRp966
(dp967
g62
(dp968
sg71
g938
sg64
(lp969
g57
(g78
g59
NtRp970
(dp971
g62
(dp972
sg71
g966
sg64
(lp973
g57
(g58
g59
NtRp974
(dp975
g62
(dp976
g70
I3
ssg71
g970
sg64
(lp977
S'2'
asbasbasbag57
(g73
g59
NtRp978
(dp979
g62
(dp980
sg71
g938
sg64
(lp981
g57
(g78
g59
NtRp982
(dp983
g62
(dp984
sg71
g978
sg64
(lp985
g57
(g58
g59
NtRp986
(dp987
g62
(dp988
g70
I3
ssg71
g982
sg64
(lp989
S'datetime.datetime(2012, 12, 17, 15, 3, 30)'
p990
asbasbasbag57
(g73
g59
NtRp991
(dp992
g62
(dp993
sg71
g938
sg64
(lp994
g57
(g78
g59
NtRp995
(dp996
g62
(dp997
sg71
g991
sg64
(lp998
g57
(g58
g59
NtRp999
(dp1000
g62
(dp1001
g70
I3
ssg71
g995
sg64
(lp1002
S'stable'
p1003
asbasbasbasbasbasbasbag57
(g73
g59
NtRp1004
(dp1005
g62
(dp1006
sg71
g281
sg64
(lp1007
g57
(g78
g59
NtRp1008
(dp1009
g62
(dp1010
g82
g83
ssg71
g1004
sg64
(lp1011
S'wsgi_errors'
p1012
asbag57
(g78
g59
NtRp1013
(dp1014
g62
(dp1015
g89
g90
ssg71
g1004
sg64
(lp1016
S':'
asbag57
(g78
g59
NtRp1017
(dp1018
g62
(dp1019
sg71
g1004
sg64
(lp1020
g57
(g58
g59
NtRp1021
(dp1022
g62
(dp1023
g70
I4
ssg71
g1017
sg64
(lp1024
S"<open file '<stderr>', mode 'w' at 0x7f8c5a4cc270>"
p1025
asbasbasbag57
(g73
g59
NtRp1026
(dp1027
g62
(dp1028
sg71
g281
sg64
(lp1029
g57
(g78
g59
NtRp1030
(dp1031
g62
(dp1032
g82
g83
ssg71
g1026
sg64
(lp1033
S'wsgi_file_wrapper'
p1034
asbag57
(g78
g59
NtRp1035
(dp1036
g62
(dp1037
g89
g90
ssg71
g1026
sg64
(lp1038
S':'
asbag57
(g78
g59
NtRp1039
(dp1040
g62
(dp1041
sg71
g1026
sg64
(lp1042
g57
(g58
g59
NtRp1043
(dp1044
g62
(dp1045
g70
I4
ssg71
g1039
sg64
(lp1046
S'<class wsgiref.util.FileWrapper at 0x3d883f8>'
p1047
asbasbasbag57
(g73
g59
NtRp1048
(dp1049
g62
(dp1050
sg71
g281
sg64
(lp1051
g57
(g78
g59
NtRp1052
(dp1053
g62
(dp1054
g82
g83
ssg71
g1048
sg64
(lp1055
S'wsgi_input'
p1056
asbag57
(g78
g59
NtRp1057
(dp1058
g62
(dp1059
g89
g90
ssg71
g1048
sg64
(lp1060
S':'
asbag57
(g78
g59
NtRp1061
(dp1062
g62
(dp1063
sg71
g1048
sg64
(lp1064
g57
(g58
g59
NtRp1065
(dp1066
g62
(dp1067
g70
I4
ssg71
g1061
sg64
(lp1068
S'<socket._fileobject object at 0x3c9b250>'
p1069
asbasbasbag57
(g73
g59
NtRp1070
(dp1071
g62
(dp1072
sg71
g281
sg64
(lp1073
g57
(g78
g59
NtRp1074
(dp1075
g62
(dp1076
g82
g83
ssg71
g1070
sg64
(lp1077
S'wsgi_multiprocess'
p1078
asbag57
(g78
g59
NtRp1079
(dp1080
g62
(dp1081
g89
g90
ssg71
g1070
sg64
(lp1082
S':'
asbag57
(g78
g59
NtRp1083
(dp1084
g62
(dp1085
sg71
g1070
sg64
(lp1086
g57
(g58
g59
NtRp1087
(dp1088
g62
(dp1089
g70
I4
ssg71
g1083
sg64
(lp1090
g100
asbasbasbag57
(g73
g59
NtRp1091
(dp1092
g62
(dp1093
sg71
g281
sg64
(lp1094
g57
(g78
g59
NtRp1095
(dp1096
g62
(dp1097
g82
g83
ssg71
g1091
sg64
(lp1098
S'wsgi_multithread'
p1099
asbag57
(g78
g59
NtRp1100
(dp1101
g62
(dp1102
g89
g90
ssg71
g1091
sg64
(lp1103
S':'
asbag57
(g78
g59
NtRp1104
(dp1105
g62
(dp1106
sg71
g1091
sg64
(lp1107
g57
(g58
g59
NtRp1108
(dp1109
g62
(dp1110
g70
I4
ssg71
g1104
sg64
(lp1111
S'True'
p1112
asbasbasbag57
(g73
g59
NtRp1113
(dp1114
g62
(dp1115
sg71
g281
sg64
(lp1116
g57
(g78
g59
NtRp1117
(dp1118
g62
(dp1119
g82
g83
ssg71
g1113
sg64
(lp1120
S'wsgi_run_once'
p1121
asbag57
(g78
g59
NtRp1122
(dp1123
g62
(dp1124
g89
g90
ssg71
g1113
sg64
(lp1125
S':'
asbag57
(g78
g59
NtRp1126
(dp1127
g62
(dp1128
sg71
g1113
sg64
(lp1129
g57
(g58
g59
NtRp1130
(dp1131
g62
(dp1132
g70
I4
ssg71
g1126
sg64
(lp1133
g100
asbasbasbag57
(g73
g59
NtRp1134
(dp1135
g62
(dp1136
sg71
g281
sg64
(lp1137
g57
(g78
g59
NtRp1138
(dp1139
g62
(dp1140
g82
g83
ssg71
g1134
sg64
(lp1141
S'wsgi_url_scheme'
p1142
asbag57
(g78
g59
NtRp1143
(dp1144
g62
(dp1145
g89
g90
ssg71
g1134
sg64
(lp1146
S':'
asbag57
(g78
g59
NtRp1147
(dp1148
g62
(dp1149
sg71
g1134
sg64
(lp1150
g57
(g58
g59
NtRp1151
(dp1152
g62
(dp1153
g70
I4
ssg71
g1147
sg64
(lp1154
S'http'
p1155
asbasbasbag57
(g73
g59
NtRp1156
(dp1157
g62
(dp1158
sg71
g281
sg64
(lp1159
g57
(g78
g59
NtRp1160
(dp1161
g62
(dp1162
g82
g83
ssg71
g1156
sg64
(lp1163
S'wsgi_version'
p1164
asbag57
(g78
g59
NtRp1165
(dp1166
g62
(dp1167
g89
g90
ssg71
g1156
sg64
(lp1168
S':'
asbag57
(g78
g59
NtRp1169
(dp1170
g62
(dp1171
sg71
g1156
sg64
(lp1172
g57
(g58
g59
NtRp1173
(dp1174
g62
(dp1175
g70
I4
ssg71
g1169
sg64
(lp1176
g57
(g66
g59
NtRp1177
(dp1178
g62
(dp1179
g70
I3
ssg71
Nsg64
(lp1180
g57
(g73
g59
NtRp1181
(dp1182
g62
(dp1183
sg71
g1177
sg64
(lp1184
g57
(g78
g59
NtRp1185
(dp1186
g62
(dp1187
sg71
g1181
sg64
(lp1188
g57
(g58
g59
NtRp1189
(dp1190
g62
(dp1191
g70
I3
ssg71
g1185
sg64
(lp1192
S'1'
asbasbasbag57
(g73
g59
NtRp1193
(dp1194
g62
(dp1195
sg71
g1177
sg64
(lp1196
g57
(g78
g59
NtRp1197
(dp1198
g62
(dp1199
sg71
g1193
sg64
(lp1200
g57
(g58
g59
NtRp1201
(dp1202
g62
(dp1203
g70
I3
ssg71
g1197
sg64
(lp1204
S'0'
asbasbasbasbasbasbasbasbasbasbasbag57
(g73
g59
NtRp1205
(dp1206
g62
(dp1207
sg71
g67
sg64
(lp1208
g57
(g78
g59
NtRp1209
(dp1210
g62
(dp1211
g82
g83
ssg71
g1205
sg64
(lp1212
S'extension'
p1213
asbag57
(g78
g59
NtRp1214
(dp1215
g62
(dp1216
g89
g90
ssg71
g1205
sg64
(lp1217
S':'
asbag57
(g78
g59
NtRp1218
(dp1219
g62
(dp1220
sg71
g1205
sg64
(lp1221
g57
(g58
g59
NtRp1222
(dp1223
g62
(dp1224
g70
I5
ssg71
g1218
sg64
(lp1225
S'html'
p1226
asbasbasbag57
(g73
g59
NtRp1227
(dp1228
g62
(dp1229
sg71
g67
sg64
(lp1230
g57
(g78
g59
NtRp1231
(dp1232
g62
(dp1233
g82
g83
ssg71
g1227
sg64
(lp1234
S'folder'
p1235
asbag57
(g78
g59
NtRp1236
(dp1237
g62
(dp1238
g89
g90
ssg71
g1227
sg64
(lp1239
S':'
asbag57
(g78
g59
NtRp1240
(dp1241
g62
(dp1242
sg71
g1227
sg64
(lp1243
g57
(g58
g59
NtRp1244
(dp1245
g62
(dp1246
g70
I5
ssg71
g1240
sg64
(lp1247
S'/home/fernando/Documentos/web2py/applications/projeto/'
p1248
asbasbasbag57
(g73
g59
NtRp1249
(dp1250
g62
(dp1251
sg71
g67
sg64
(lp1252
g57
(g78
g59
NtRp1253
(dp1254
g62
(dp1255
g82
g83
ssg71
g1249
sg64
(lp1256
S'function'
p1257
asbag57
(g78
g59
NtRp1258
(dp1259
g62
(dp1260
g89
g90
ssg71
g1249
sg64
(lp1261
S':'
asbag57
(g78
g59
NtRp1262
(dp1263
g62
(dp1264
sg71
g1249
sg64
(lp1265
g57
(g58
g59
NtRp1266
(dp1267
g62
(dp1268
g70
I5
ssg71
g1262
sg64
(lp1269
S'principal'
p1270
asbasbasbag57
(g73
g59
NtRp1271
(dp1272
g62
(dp1273
sg71
g67
sg64
(lp1274
g57
(g78
g59
NtRp1275
(dp1276
g62
(dp1277
g82
g83
ssg71
g1271
sg64
(lp1278
S'get_vars'
p1279
asbag57
(g78
g59
NtRp1280
(dp1281
g62
(dp1282
g89
g90
ssg71
g1271
sg64
(lp1283
S':'
asbag57
(g78
g59
NtRp1284
(dp1285
g62
(dp1286
sg71
g1271
sg64
(lp1287
g57
(g58
g59
NtRp1288
(dp1289
g62
(dp1290
g70
I5
ssg71
g1284
sg64
(lp1291
g57
(g66
g59
NtRp1292
(dp1293
g62
(dp1294
g70
I4
ssg71
Nsg64
(lp1295
sbasbasbasbag57
(g73
g59
NtRp1296
(dp1297
g62
(dp1298
sg71
g67
sg64
(lp1299
g57
(g78
g59
NtRp1300
(dp1301
g62
(dp1302
g82
g83
ssg71
g1296
sg64
(lp1303
S'global_settings'
p1304
asbag57
(g78
g59
NtRp1305
(dp1306
g62
(dp1307
g89
g90
ssg71
g1296
sg64
(lp1308
S':'
asbag57
(g78
g59
NtRp1309
(dp1310
g62
(dp1311
sg71
g1296
sg64
(lp1312
g57
(g58
g59
NtRp1313
(dp1314
g62
(dp1315
g70
I5
ssg71
g1309
sg64
(lp1316
g57
(g66
g59
NtRp1317
(dp1318
g62
(dp1319
g70
I4
ssg71
Nsg64
(lp1320
g57
(g73
g59
NtRp1321
(dp1322
g62
(dp1323
sg71
g1317
sg64
(lp1324
g57
(g78
g59
NtRp1325
(dp1326
g62
(dp1327
g82
g83
ssg71
g1321
sg64
(lp1328
g293
asbag57
(g78
g59
NtRp1329
(dp1330
g62
(dp1331
g89
g90
ssg71
g1321
sg64
(lp1332
S':'
asbag57
(g78
g59
NtRp1333
(dp1334
g62
(dp1335
sg71
g1321
sg64
(lp1336
g57
(g58
g59
NtRp1337
(dp1338
g62
(dp1339
g70
I4
ssg71
g1333
sg64
(lp1340
S"set(['/home/fernando/Documentos/web2py/applications/projeto/'])"
p1341
asbasbasbag57
(g73
g59
NtRp1342
(dp1343
g62
(dp1344
sg71
g1317
sg64
(lp1345
g57
(g78
g59
NtRp1346
(dp1347
g62
(dp1348
g82
g83
ssg71
g1342
sg64
(lp1349
g315
asbag57
(g78
g59
NtRp1350
(dp1351
g62
(dp1352
g89
g90
ssg71
g1342
sg64
(lp1353
S':'
asbag57
(g78
g59
NtRp1354
(dp1355
g62
(dp1356
sg71
g1342
sg64
(lp1357
g57
(g58
g59
NtRp1358
(dp1359
g62
(dp1360
g70
I4
ssg71
g1354
sg64
(lp1361
g328
asbasbasbag57
(g73
g59
NtRp1362
(dp1363
g62
(dp1364
sg71
g1317
sg64
(lp1365
g57
(g78
g59
NtRp1366
(dp1367
g62
(dp1368
g82
g83
ssg71
g1362
sg64
(lp1369
g337
asbag57
(g78
g59
NtRp1370
(dp1371
g62
(dp1372
g89
g90
ssg71
g1362
sg64
(lp1373
S':'
asbag57
(g78
g59
NtRp1374
(dp1375
g62
(dp1376
sg71
g1362
sg64
(lp1377
g57
(g58
g59
NtRp1378
(dp1379
g62
(dp1380
g70
I4
ssg71
g1374
sg64
(lp1381
g57
(g66
g59
NtRp1382
(dp1383
g62
(dp1384
g70
I3
ssg71
Nsg64
(lp1385
sbasbasbasbag57
(g73
g59
NtRp1386
(dp1387
g62
(dp1388
sg71
g1317
sg64
(lp1389
g57
(g78
g59
NtRp1390
(dp1391
g62
(dp1392
g82
g83
ssg71
g1386
sg64
(lp1393
g362
asbag57
(g78
g59
NtRp1394
(dp1395
g62
(dp1396
g89
g90
ssg71
g1386
sg64
(lp1397
S':'
asbag57
(g78
g59
NtRp1398
(dp1399
g62
(dp1400
sg71
g1386
sg64
(lp1401
g57
(g58
g59
NtRp1402
(dp1403
g62
(dp1404
g70
I4
ssg71
g1398
sg64
(lp1405
S"<Values at 0x2e729e0: {'verbose': False, 'ip': '127.0.0.1', 'with_scheduler': False, 'ips': [], 'shutdown_timeout': 5, 'taskbar': False, 'port': 8000, 'maxthreads': None, 'softcron': False, 'server_name': 'fernando-pc', 'bpython': False, 'nogui': False, 'pid_filename': 'httpserver.pid', 'extcron': False, 'runcron': False, 'run_system_tests': False, 'test': None, 'folder': '/home/fernando/Documentos/web2py', 'config': '', 'minthreads': None, 'winservice': '', 'shell': None, 'run': '', 'log_filename': 'httpserver.log', 'debuglevel': 30, 'args': [''], 'socket_timeout': 5, 'ssl_ca_certificate': None, 'scheduler': None, 'profiler_filename': None, 'ssl_private_key': '', 'scheduler_groups': None, 'password': '123456', 'request_queue_size': 5, 'ssl_certificate': '', 'cronjob': False, 'numthreads': None, 'quiet': False, 'interfaces': None, 'import_models': False, 'timeout': 10, 'plain': False, 'nobanner': False}>"
p1406
asbasbasbag57
(g73
g59
NtRp1407
(dp1408
g62
(dp1409
sg71
g1317
sg64
(lp1410
g57
(g78
g59
NtRp1411
(dp1412
g62
(dp1413
g82
g83
ssg71
g1407
sg64
(lp1414
g384
asbag57
(g78
g59
NtRp1415
(dp1416
g62
(dp1417
g89
g90
ssg71
g1407
sg64
(lp1418
S':'
asbag57
(g78
g59
NtRp1419
(dp1420
g62
(dp1421
sg71
g1407
sg64
(lp1422
g57
(g58
g59
NtRp1423
(dp1424
g62
(dp1425
g70
I4
ssg71
g1419
sg64
(lp1426
S'set([])'
p1427
asbasbasbag57
(g73
g59
NtRp1428
(dp1429
g62
(dp1430
sg71
g1317
sg64
(lp1431
g57
(g78
g59
NtRp1432
(dp1433
g62
(dp1434
g82
g83
ssg71
g1428
sg64
(lp1435
g406
asbag57
(g78
g59
NtRp1436
(dp1437
g62
(dp1438
g89
g90
ssg71
g1428
sg64
(lp1439
S':'
asbag57
(g78
g59
NtRp1440
(dp1441
g62
(dp1442
sg71
g1428
sg64
(lp1443
g57
(g58
g59
NtRp1444
(dp1445
g62
(dp1446
g70
I4
ssg71
g1440
sg64
(lp1447
g100
asbasbasbag57
(g73
g59
NtRp1448
(dp1449
g62
(dp1450
sg71
g1317
sg64
(lp1451
g57
(g78
g59
NtRp1452
(dp1453
g62
(dp1454
g82
g83
ssg71
g1448
sg64
(lp1455
g427
asbag57
(g78
g59
NtRp1456
(dp1457
g62
(dp1458
g89
g90
ssg71
g1448
sg64
(lp1459
S':'
asbag57
(g78
g59
NtRp1460
(dp1461
g62
(dp1462
sg71
g1448
sg64
(lp1463
g57
(g58
g59
NtRp1464
(dp1465
g62
(dp1466
g70
I4
ssg71
g1460
sg64
(lp1467
g440
asbasbasbag57
(g73
g59
NtRp1468
(dp1469
g62
(dp1470
sg71
g1317
sg64
(lp1471
g57
(g78
g59
NtRp1472
(dp1473
g62
(dp1474
g82
g83
ssg71
g1468
sg64
(lp1475
g603
asbag57
(g78
g59
NtRp1476
(dp1477
g62
(dp1478
g89
g90
ssg71
g1468
sg64
(lp1479
S':'
asbag57
(g78
g59
NtRp1480
(dp1481
g62
(dp1482
sg71
g1468
sg64
(lp1483
g57
(g58
g59
NtRp1484
(dp1485
g62
(dp1486
g70
I4
ssg71
g1480
sg64
(lp1487
g100
asbasbasbag57
(g73
g59
NtRp1488
(dp1489
g62
(dp1490
sg71
g1317
sg64
(lp1491
g57
(g78
g59
NtRp1492
(dp1493
g62
(dp1494
g82
g83
ssg71
g1488
sg64
(lp1495
g624
asbag57
(g78
g59
NtRp1496
(dp1497
g62
(dp1498
g89
g90
ssg71
g1488
sg64
(lp1499
S':'
asbag57
(g78
g59
NtRp1500
(dp1501
g62
(dp1502
sg71
g1488
sg64
(lp1503
g57
(g58
g59
NtRp1504
(dp1505
g62
(dp1506
g70
I4
ssg71
g1500
sg64
(lp1507
g100
asbasbasbag57
(g73
g59
NtRp1508
(dp1509
g62
(dp1510
sg71
g1317
sg64
(lp1511
g57
(g78
g59
NtRp1512
(dp1513
g62
(dp1514
g82
g83
ssg71
g1508
sg64
(lp1515
S'local_hosts'
p1516
asbag57
(g78
g59
NtRp1517
(dp1518
g62
(dp1519
g89
g90
ssg71
g1508
sg64
(lp1520
S':'
asbag57
(g78
g59
NtRp1521
(dp1522
g62
(dp1523
sg71
g1508
sg64
(lp1524
g57
(g58
g59
NtRp1525
(dp1526
g62
(dp1527
g70
I4
ssg71
g1521
sg64
(lp1528
g57
(g66
g59
NtRp1529
(dp1530
g62
(dp1531
g70
I3
ssg71
Nsg64
(lp1532
g57
(g73
g59
NtRp1533
(dp1534
g62
(dp1535
sg71
g1529
sg64
(lp1536
g57
(g78
g59
NtRp1537
(dp1538
g62
(dp1539
sg71
g1533
sg64
(lp1540
g57
(g58
g59
NtRp1541
(dp1542
g62
(dp1543
g70
I3
ssg71
g1537
sg64
(lp1544
S'::1'
p1545
asbasbasbag57
(g73
g59
NtRp1546
(dp1547
g62
(dp1548
sg71
g1529
sg64
(lp1549
g57
(g78
g59
NtRp1550
(dp1551
g62
(dp1552
sg71
g1546
sg64
(lp1553
g57
(g58
g59
NtRp1554
(dp1555
g62
(dp1556
g70
I3
ssg71
g1550
sg64
(lp1557
S'127.0.1.1'
p1558
asbasbasbag57
(g73
g59
NtRp1559
(dp1560
g62
(dp1561
sg71
g1529
sg64
(lp1562
g57
(g78
g59
NtRp1563
(dp1564
g62
(dp1565
sg71
g1559
sg64
(lp1566
g57
(g58
g59
NtRp1567
(dp1568
g62
(dp1569
g70
I3
ssg71
g1563
sg64
(lp1570
S'fernando-pc'
p1571
asbasbasbag57
(g73
g59
NtRp1572
(dp1573
g62
(dp1574
sg71
g1529
sg64
(lp1575
g57
(g78
g59
NtRp1576
(dp1577
g62
(dp1578
sg71
g1572
sg64
(lp1579
g57
(g58
g59
NtRp1580
(dp1581
g62
(dp1582
g70
I3
ssg71
g1576
sg64
(lp1583
S'::ffff:127.0.0.1'
p1584
asbasbasbag57
(g73
g59
NtRp1585
(dp1586
g62
(dp1587
sg71
g1529
sg64
(lp1588
g57
(g78
g59
NtRp1589
(dp1590
g62
(dp1591
sg71
g1585
sg64
(lp1592
g57
(g58
g59
NtRp1593
(dp1594
g62
(dp1595
g70
I3
ssg71
g1589
sg64
(lp1596
S'127.0.0.1'
p1597
asbasbasbasbasbasbasbag57
(g73
g59
NtRp1598
(dp1599
g62
(dp1600
sg71
g1317
sg64
(lp1601
g57
(g78
g59
NtRp1602
(dp1603
g62
(dp1604
g82
g83
ssg71
g1598
sg64
(lp1605
g925
asbag57
(g78
g59
NtRp1606
(dp1607
g62
(dp1608
g89
g90
ssg71
g1598
sg64
(lp1609
S':'
asbag57
(g78
g59
NtRp1610
(dp1611
g62
(dp1612
sg71
g1598
sg64
(lp1613
g57
(g58
g59
NtRp1614
(dp1615
g62
(dp1616
g70
I4
ssg71
g1610
sg64
(lp1617
g57
(g66
g59
NtRp1618
(dp1619
g62
(dp1620
g70
I3
ssg71
Nsg64
(lp1621
g57
(g73
g59
NtRp1622
(dp1623
g62
(dp1624
sg71
g1618
sg64
(lp1625
g57
(g78
g59
NtRp1626
(dp1627
g62
(dp1628
sg71
g1622
sg64
(lp1629
g57
(g58
g59
NtRp1630
(dp1631
g62
(dp1632
g70
I3
ssg71
g1626
sg64
(lp1633
S'2'
asbasbasbag57
(g73
g59
NtRp1634
(dp1635
g62
(dp1636
sg71
g1618
sg64
(lp1637
g57
(g78
g59
NtRp1638
(dp1639
g62
(dp1640
sg71
g1634
sg64
(lp1641
g57
(g58
g59
NtRp1642
(dp1643
g62
(dp1644
g70
I3
ssg71
g1638
sg64
(lp1645
S'3'
asbasbasbag57
(g73
g59
NtRp1646
(dp1647
g62
(dp1648
sg71
g1618
sg64
(lp1649
g57
(g78
g59
NtRp1650
(dp1651
g62
(dp1652
sg71
g1646
sg64
(lp1653
g57
(g58
g59
NtRp1654
(dp1655
g62
(dp1656
g70
I3
ssg71
g1650
sg64
(lp1657
S'2'
asbasbasbag57
(g73
g59
NtRp1658
(dp1659
g62
(dp1660
sg71
g1618
sg64
(lp1661
g57
(g78
g59
NtRp1662
(dp1663
g62
(dp1664
sg71
g1658
sg64
(lp1665
g57
(g58
g59
NtRp1666
(dp1667
g62
(dp1668
g70
I3
ssg71
g1662
sg64
(lp1669
S'datetime.datetime(2012, 12, 17, 15, 3, 30)'
p1670
asbasbasbag57
(g73
g59
NtRp1671
(dp1672
g62
(dp1673
sg71
g1618
sg64
(lp1674
g57
(g78
g59
NtRp1675
(dp1676
g62
(dp1677
sg71
g1671
sg64
(lp1678
g57
(g58
g59
NtRp1679
(dp1680
g62
(dp1681
g70
I3
ssg71
g1675
sg64
(lp1682
g1003
asbasbasbasbasbasbasbasbasbasbasbag57
(g73
g59
NtRp1683
(dp1684
g62
(dp1685
sg71
g67
sg64
(lp1686
g57
(g78
g59
NtRp1687
(dp1688
g62
(dp1689
g82
g83
ssg71
g1683
sg64
(lp1690
S'is_https'
p1691
asbag57
(g78
g59
NtRp1692
(dp1693
g62
(dp1694
g89
g90
ssg71
g1683
sg64
(lp1695
S':'
asbag57
(g78
g59
NtRp1696
(dp1697
g62
(dp1698
sg71
g1683
sg64
(lp1699
g57
(g58
g59
NtRp1700
(dp1701
g62
(dp1702
g70
I5
ssg71
g1696
sg64
(lp1703
g100
asbasbasbag57
(g73
g59
NtRp1704
(dp1705
g62
(dp1706
sg71
g67
sg64
(lp1707
g57
(g78
g59
NtRp1708
(dp1709
g62
(dp1710
g82
g83
ssg71
g1704
sg64
(lp1711
S'is_local'
p1712
asbag57
(g78
g59
NtRp1713
(dp1714
g62
(dp1715
g89
g90
ssg71
g1704
sg64
(lp1716
S':'
asbag57
(g78
g59
NtRp1717
(dp1718
g62
(dp1719
sg71
g1704
sg64
(lp1720
g57
(g58
g59
NtRp1721
(dp1722
g62
(dp1723
g70
I5
ssg71
g1717
sg64
(lp1724
g1112
asbasbasbag57
(g73
g59
NtRp1725
(dp1726
g62
(dp1727
sg71
g67
sg64
(lp1728
g57
(g78
g59
NtRp1729
(dp1730
g62
(dp1731
g82
g83
ssg71
g1725
sg64
(lp1732
S'is_restful'
p1733
asbag57
(g78
g59
NtRp1734
(dp1735
g62
(dp1736
g89
g90
ssg71
g1725
sg64
(lp1737
S':'
asbag57
(g78
g59
NtRp1738
(dp1739
g62
(dp1740
sg71
g1725
sg64
(lp1741
g57
(g58
g59
NtRp1742
(dp1743
g62
(dp1744
g70
I5
ssg71
g1738
sg64
(lp1745
g100
asbasbasbag57
(g73
g59
NtRp1746
(dp1747
g62
(dp1748
sg71
g67
sg64
(lp1749
g57
(g78
g59
NtRp1750
(dp1751
g62
(dp1752
g82
g83
ssg71
g1746
sg64
(lp1753
S'now'
p1754
asbag57
(g78
g59
NtRp1755
(dp1756
g62
(dp1757
g89
g90
ssg71
g1746
sg64
(lp1758
S':'
asbag57
(g78
g59
NtRp1759
(dp1760
g62
(dp1761
sg71
g1746
sg64
(lp1762
g57
(g58
g59
NtRp1763
(dp1764
g62
(dp1765
g70
I5
ssg71
g1759
sg64
(lp1766
S'datetime.datetime(2013, 7, 2, 20, 33, 31, 534899)'
p1767
asbasbasbag57
(g73
g59
NtRp1768
(dp1769
g62
(dp1770
sg71
g67
sg64
(lp1771
g57
(g78
g59
NtRp1772
(dp1773
g62
(dp1774
g82
g83
ssg71
g1768
sg64
(lp1775
S'post_vars'
p1776
asbag57
(g78
g59
NtRp1777
(dp1778
g62
(dp1779
g89
g90
ssg71
g1768
sg64
(lp1780
S':'
asbag57
(g78
g59
NtRp1781
(dp1782
g62
(dp1783
sg71
g1768
sg64
(lp1784
g57
(g58
g59
NtRp1785
(dp1786
g62
(dp1787
g70
I5
ssg71
g1781
sg64
(lp1788
g57
(g66
g59
NtRp1789
(dp1790
g62
(dp1791
g70
I4
ssg71
Nsg64
(lp1792
sbasbasbasbag57
(g73
g59
NtRp1793
(dp1794
g62
(dp1795
sg71
g67
sg64
(lp1796
g57
(g78
g59
NtRp1797
(dp1798
g62
(dp1799
g82
g83
ssg71
g1793
sg64
(lp1800
S'url'
p1801
asbag57
(g78
g59
NtRp1802
(dp1803
g62
(dp1804
g89
g90
ssg71
g1793
sg64
(lp1805
S':'
asbag57
(g78
g59
NtRp1806
(dp1807
g62
(dp1808
sg71
g1793
sg64
(lp1809
g57
(g58
g59
NtRp1810
(dp1811
g62
(dp1812
g70
I5
ssg71
g1806
sg64
(lp1813
S'/'
asbasbasbag57
(g73
g59
NtRp1814
(dp1815
g62
(dp1816
sg71
g67
sg64
(lp1817
g57
(g78
g59
NtRp1818
(dp1819
g62
(dp1820
g82
g83
ssg71
g1814
sg64
(lp1821
S'utcnow'
p1822
asbag57
(g78
g59
NtRp1823
(dp1824
g62
(dp1825
g89
g90
ssg71
g1814
sg64
(lp1826
S':'
asbag57
(g78
g59
NtRp1827
(dp1828
g62
(dp1829
sg71
g1814
sg64
(lp1830
g57
(g58
g59
NtRp1831
(dp1832
g62
(dp1833
g70
I5
ssg71
g1827
sg64
(lp1834
S'datetime.datetime(2013, 7, 2, 23, 33, 31, 534952)'
p1835
asbasbasbag57
(g73
g59
NtRp1836
(dp1837
g62
(dp1838
sg71
g67
sg64
(lp1839
g57
(g78
g59
NtRp1840
(dp1841
g62
(dp1842
g82
g83
ssg71
g1836
sg64
(lp1843
S'uuid'
p1844
asbag57
(g78
g59
NtRp1845
(dp1846
g62
(dp1847
g89
g90
ssg71
g1836
sg64
(lp1848
S':'
asbag57
(g78
g59
NtRp1849
(dp1850
g62
(dp1851
sg71
g1836
sg64
(lp1852
g57
(g58
g59
NtRp1853
(dp1854
g62
(dp1855
g70
I5
ssg71
g1849
sg64
(lp1856
S'projeto/127.0.0.1.2013-07-02.20-33-31.7e11069a-0027-4b48-ba24-69f3a1407643'
p1857
asbasbasbag57
(g73
g59
NtRp1858
(dp1859
g62
(dp1860
sg71
g67
sg64
(lp1861
g57
(g78
g59
NtRp1862
(dp1863
g62
(dp1864
g82
g83
ssg71
g1858
sg64
(lp1865
S'vars'
p1866
asbag57
(g78
g59
NtRp1867
(dp1868
g62
(dp1869
g89
g90
ssg71
g1858
sg64
(lp1870
S':'
asbag57
(g78
g59
NtRp1871
(dp1872
g62
(dp1873
sg71
g1858
sg64
(lp1874
g57
(g58
g59
NtRp1875
(dp1876
g62
(dp1877
g70
I5
ssg71
g1871
sg64
(lp1878
g57
(g66
g59
NtRp1879
(dp1880
g62
(dp1881
g70
I4
ssg71
Nsg64
(lp1882
sbasbasbasbag57
(g73
g59
NtRp1883
(dp1884
g62
(dp1885
sg71
g67
sg64
(lp1886
g57
(g78
g59
NtRp1887
(dp1888
g62
(dp1889
g82
g83
ssg71
g1883
sg64
(lp1890
S'wsgi'
p1891
asbag57
(g78
g59
NtRp1892
(dp1893
g62
(dp1894
g89
g90
ssg71
g1883
sg64
(lp1895
S':'
asbag57
(g78
g59
NtRp1896
(dp1897
g62
(dp1898
sg71
g1883
sg64
(lp1899
g57
(g58
g59
NtRp1900
(dp1901
g62
(dp1902
g70
I5
ssg71
g1896
sg64
(lp1903
g57
(g66
g59
NtRp1904
(dp1905
g62
(dp1906
g70
I4
ssg71
Nsg64
(lp1907
g57
(g73
g59
NtRp1908
(dp1909
g62
(dp1910
sg71
g1904
sg64
(lp1911
g57
(g78
g59
NtRp1912
(dp1913
g62
(dp1914
g82
g83
ssg71
g1908
sg64
(lp1915
S'environ'
p1916
asbag57
(g78
g59
NtRp1917
(dp1918
g62
(dp1919
g89
g90
ssg71
g1908
sg64
(lp1920
S':'
asbag57
(g78
g59
NtRp1921
(dp1922
g62
(dp1923
sg71
g1908
sg64
(lp1924
g57
(g58
g59
NtRp1925
(dp1926
g62
(dp1927
g70
I4
ssg71
g1921
sg64
(lp1928
g57
(g66
g59
NtRp1929
(dp1930
g62
(dp1931
g70
I3
ssg71
Nsg64
(lp1932
g57
(g73
g59
NtRp1933
(dp1934
g62
(dp1935
sg71
g1929
sg64
(lp1936
g57
(g78
g59
NtRp1937
(dp1938
g62
(dp1939
g82
g83
ssg71
g1933
sg64
(lp1940
S'HTTP_ACCEPT'
p1941
asbag57
(g78
g59
NtRp1942
(dp1943
g62
(dp1944
g89
g90
ssg71
g1933
sg64
(lp1945
S':'
asbag57
(g78
g59
NtRp1946
(dp1947
g62
(dp1948
sg71
g1933
sg64
(lp1949
g57
(g58
g59
NtRp1950
(dp1951
g62
(dp1952
g70
I3
ssg71
g1946
sg64
(lp1953
g462
asbasbasbag57
(g73
g59
NtRp1954
(dp1955
g62
(dp1956
sg71
g1929
sg64
(lp1957
g57
(g78
g59
NtRp1958
(dp1959
g62
(dp1960
g82
g83
ssg71
g1954
sg64
(lp1961
S'HTTP_ACCEPT_CHARSET'
p1962
asbag57
(g78
g59
NtRp1963
(dp1964
g62
(dp1965
g89
g90
ssg71
g1954
sg64
(lp1966
S':'
asbag57
(g78
g59
NtRp1967
(dp1968
g62
(dp1969
sg71
g1954
sg64
(lp1970
g57
(g58
g59
NtRp1971
(dp1972
g62
(dp1973
g70
I3
ssg71
g1967
sg64
(lp1974
g484
asbasbasbag57
(g73
g59
NtRp1975
(dp1976
g62
(dp1977
sg71
g1929
sg64
(lp1978
g57
(g78
g59
NtRp1979
(dp1980
g62
(dp1981
g82
g83
ssg71
g1975
sg64
(lp1982
S'HTTP_ACCEPT_ENCODING'
p1983
asbag57
(g78
g59
NtRp1984
(dp1985
g62
(dp1986
g89
g90
ssg71
g1975
sg64
(lp1987
S':'
asbag57
(g78
g59
NtRp1988
(dp1989
g62
(dp1990
sg71
g1975
sg64
(lp1991
g57
(g58
g59
NtRp1992
(dp1993
g62
(dp1994
g70
I3
ssg71
g1988
sg64
(lp1995
g506
asbasbasbag57
(g73
g59
NtRp1996
(dp1997
g62
(dp1998
sg71
g1929
sg64
(lp1999
g57
(g78
g59
NtRp2000
(dp2001
g62
(dp2002
g82
g83
ssg71
g1996
sg64
(lp2003
S'HTTP_ACCEPT_LANGUAGE'
p2004
asbag57
(g78
g59
NtRp2005
(dp2006
g62
(dp2007
g89
g90
ssg71
g1996
sg64
(lp2008
S':'
asbag57
(g78
g59
NtRp2009
(dp2010
g62
(dp2011
sg71
g1996
sg64
(lp2012
g57
(g58
g59
NtRp2013
(dp2014
g62
(dp2015
g70
I3
ssg71
g2009
sg64
(lp2016
g528
asbasbasbag57
(g73
g59
NtRp2017
(dp2018
g62
(dp2019
sg71
g1929
sg64
(lp2020
g57
(g78
g59
NtRp2021
(dp2022
g62
(dp2023
g82
g83
ssg71
g2017
sg64
(lp2024
S'HTTP_CONNECTION'
p2025
asbag57
(g78
g59
NtRp2026
(dp2027
g62
(dp2028
g89
g90
ssg71
g2017
sg64
(lp2029
S':'
asbag57
(g78
g59
NtRp2030
(dp2031
g62
(dp2032
sg71
g2017
sg64
(lp2033
g57
(g58
g59
NtRp2034
(dp2035
g62
(dp2036
g70
I3
ssg71
g2030
sg64
(lp2037
g550
asbasbasbag57
(g73
g59
NtRp2038
(dp2039
g62
(dp2040
sg71
g1929
sg64
(lp2041
g57
(g78
g59
NtRp2042
(dp2043
g62
(dp2044
g82
g83
ssg71
g2038
sg64
(lp2045
S'HTTP_HOST'
p2046
asbag57
(g78
g59
NtRp2047
(dp2048
g62
(dp2049
g89
g90
ssg71
g2038
sg64
(lp2050
S':'
asbag57
(g78
g59
NtRp2051
(dp2052
g62
(dp2053
sg71
g2038
sg64
(lp2054
g57
(g58
g59
NtRp2055
(dp2056
g62
(dp2057
g70
I3
ssg71
g2051
sg64
(lp2058
g572
asbasbasbag57
(g73
g59
NtRp2059
(dp2060
g62
(dp2061
sg71
g1929
sg64
(lp2062
g57
(g78
g59
NtRp2063
(dp2064
g62
(dp2065
g82
g83
ssg71
g2059
sg64
(lp2066
S'HTTP_USER_AGENT'
p2067
asbag57
(g78
g59
NtRp2068
(dp2069
g62
(dp2070
g89
g90
ssg71
g2059
sg64
(lp2071
S':'
asbag57
(g78
g59
NtRp2072
(dp2073
g62
(dp2074
sg71
g2059
sg64
(lp2075
g57
(g58
g59
NtRp2076
(dp2077
g62
(dp2078
g70
I3
ssg71
g2072
sg64
(lp2079
g594
asbasbasbag57
(g73
g59
NtRp2080
(dp2081
g62
(dp2082
sg71
g1929
sg64
(lp2083
g57
(g78
g59
NtRp2084
(dp2085
g62
(dp2086
g82
g83
ssg71
g2080
sg64
(lp2087
S'PATH_INFO'
p2088
asbag57
(g78
g59
NtRp2089
(dp2090
g62
(dp2091
g89
g90
ssg71
g2080
sg64
(lp2092
S':'
asbag57
(g78
g59
NtRp2093
(dp2094
g62
(dp2095
sg71
g2080
sg64
(lp2096
g57
(g58
g59
NtRp2097
(dp2098
g62
(dp2099
g70
I3
ssg71
g2093
sg64
(lp2100
S'/'
asbasbasbag57
(g73
g59
NtRp2101
(dp2102
g62
(dp2103
sg71
g1929
sg64
(lp2104
g57
(g78
g59
NtRp2105
(dp2106
g62
(dp2107
g82
g83
ssg71
g2101
sg64
(lp2108
S'QUERY_STRING'
p2109
asbag57
(g78
g59
NtRp2110
(dp2111
g62
(dp2112
g89
g90
ssg71
g2101
sg64
(lp2113
S':'
asbag57
(g78
g59
NtRp2114
(dp2115
g62
(dp2116
sg71
g2101
sg64
(lp2117
g57
(g58
g59
NtRp2118
(dp2119
g62
(dp2120
g70
I3
ssg71
g2114
sg64
(lp2121
S''
asbasbasbag57
(g73
g59
NtRp2122
(dp2123
g62
(dp2124
sg71
g1929
sg64
(lp2125
g57
(g78
g59
NtRp2126
(dp2127
g62
(dp2128
g82
g83
ssg71
g2122
sg64
(lp2129
S'REMOTE_ADDR'
p2130
asbag57
(g78
g59
NtRp2131
(dp2132
g62
(dp2133
g89
g90
ssg71
g2122
sg64
(lp2134
S':'
asbag57
(g78
g59
NtRp2135
(dp2136
g62
(dp2137
sg71
g2122
sg64
(lp2138
g57
(g58
g59
NtRp2139
(dp2140
g62
(dp2141
g70
I3
ssg71
g2135
sg64
(lp2142
g212
asbasbasbag57
(g73
g59
NtRp2143
(dp2144
g62
(dp2145
sg71
g1929
sg64
(lp2146
g57
(g78
g59
NtRp2147
(dp2148
g62
(dp2149
g82
g83
ssg71
g2143
sg64
(lp2150
S'REMOTE_PORT'
p2151
asbag57
(g78
g59
NtRp2152
(dp2153
g62
(dp2154
g89
g90
ssg71
g2143
sg64
(lp2155
S':'
asbag57
(g78
g59
NtRp2156
(dp2157
g62
(dp2158
sg71
g2143
sg64
(lp2159
g57
(g58
g59
NtRp2160
(dp2161
g62
(dp2162
g70
I3
ssg71
g2156
sg64
(lp2163
g721
asbasbasbag57
(g73
g59
NtRp2164
(dp2165
g62
(dp2166
sg71
g1929
sg64
(lp2167
g57
(g78
g59
NtRp2168
(dp2169
g62
(dp2170
g82
g83
ssg71
g2164
sg64
(lp2171
S'REQUEST_METHOD'
p2172
asbag57
(g78
g59
NtRp2173
(dp2174
g62
(dp2175
g89
g90
ssg71
g2164
sg64
(lp2176
S':'
asbag57
(g78
g59
NtRp2177
(dp2178
g62
(dp2179
sg71
g2164
sg64
(lp2180
g57
(g58
g59
NtRp2181
(dp2182
g62
(dp2183
g70
I3
ssg71
g2177
sg64
(lp2184
g743
asbasbasbag57
(g73
g59
NtRp2185
(dp2186
g62
(dp2187
sg71
g1929
sg64
(lp2188
g57
(g78
g59
NtRp2189
(dp2190
g62
(dp2191
g82
g83
ssg71
g2185
sg64
(lp2192
S'REQUEST_URI'
p2193
asbag57
(g78
g59
NtRp2194
(dp2195
g62
(dp2196
g89
g90
ssg71
g2185
sg64
(lp2197
S':'
asbag57
(g78
g59
NtRp2198
(dp2199
g62
(dp2200
sg71
g2185
sg64
(lp2201
g57
(g58
g59
NtRp2202
(dp2203
g62
(dp2204
g70
I3
ssg71
g2198
sg64
(lp2205
g765
asbasbasbag57
(g73
g59
NtRp2206
(dp2207
g62
(dp2208
sg71
g1929
sg64
(lp2209
g57
(g78
g59
NtRp2210
(dp2211
g62
(dp2212
g82
g83
ssg71
g2206
sg64
(lp2213
S'SCRIPT_NAME'
p2214
asbag57
(g78
g59
NtRp2215
(dp2216
g62
(dp2217
g89
g90
ssg71
g2206
sg64
(lp2218
S':'
asbag57
(g78
g59
NtRp2219
(dp2220
g62
(dp2221
sg71
g2206
sg64
(lp2222
g57
(g58
g59
NtRp2223
(dp2224
g62
(dp2225
g70
I3
ssg71
g2219
sg64
(lp2226
S''
asbasbasbag57
(g73
g59
NtRp2227
(dp2228
g62
(dp2229
sg71
g1929
sg64
(lp2230
g57
(g78
g59
NtRp2231
(dp2232
g62
(dp2233
g82
g83
ssg71
g2227
sg64
(lp2234
S'SERVER_NAME'
p2235
asbag57
(g78
g59
NtRp2236
(dp2237
g62
(dp2238
g89
g90
ssg71
g2227
sg64
(lp2239
S':'
asbag57
(g78
g59
NtRp2240
(dp2241
g62
(dp2242
sg71
g2227
sg64
(lp2243
g57
(g58
g59
NtRp2244
(dp2245
g62
(dp2246
g70
I3
ssg71
g2240
sg64
(lp2247
g808
asbasbasbag57
(g73
g59
NtRp2248
(dp2249
g62
(dp2250
sg71
g1929
sg64
(lp2251
g57
(g78
g59
NtRp2252
(dp2253
g62
(dp2254
g82
g83
ssg71
g2248
sg64
(lp2255
S'SERVER_PORT'
p2256
asbag57
(g78
g59
NtRp2257
(dp2258
g62
(dp2259
g89
g90
ssg71
g2248
sg64
(lp2260
S':'
asbag57
(g78
g59
NtRp2261
(dp2262
g62
(dp2263
sg71
g2248
sg64
(lp2264
g57
(g58
g59
NtRp2265
(dp2266
g62
(dp2267
g70
I3
ssg71
g2261
sg64
(lp2268
g830
asbasbasbag57
(g73
g59
NtRp2269
(dp2270
g62
(dp2271
sg71
g1929
sg64
(lp2272
g57
(g78
g59
NtRp2273
(dp2274
g62
(dp2275
g82
g83
ssg71
g2269
sg64
(lp2276
S'SERVER_PROTOCOL'
p2277
asbag57
(g78
g59
NtRp2278
(dp2279
g62
(dp2280
g89
g90
ssg71
g2269
sg64
(lp2281
S':'
asbag57
(g78
g59
NtRp2282
(dp2283
g62
(dp2284
sg71
g2269
sg64
(lp2285
g57
(g58
g59
NtRp2286
(dp2287
g62
(dp2288
g70
I3
ssg71
g2282
sg64
(lp2289
g852
asbasbasbag57
(g73
g59
NtRp2290
(dp2291
g62
(dp2292
sg71
g1929
sg64
(lp2293
g57
(g78
g59
NtRp2294
(dp2295
g62
(dp2296
g82
g83
ssg71
g2290
sg64
(lp2297
S'SERVER_SOFTWARE'
p2298
asbag57
(g78
g59
NtRp2299
(dp2300
g62
(dp2301
g89
g90
ssg71
g2290
sg64
(lp2302
S':'
asbag57
(g78
g59
NtRp2303
(dp2304
g62
(dp2305
sg71
g2290
sg64
(lp2306
g57
(g58
g59
NtRp2307
(dp2308
g62
(dp2309
g70
I3
ssg71
g2303
sg64
(lp2310
g874
asbasbasbag57
(g73
g59
NtRp2311
(dp2312
g62
(dp2313
sg71
g1929
sg64
(lp2314
g57
(g78
g59
NtRp2315
(dp2316
g62
(dp2317
g82
g83
ssg71
g2311
sg64
(lp2318
S'WEB2PY_ORIGINAL_URI'
p2319
asbag57
(g78
g59
NtRp2320
(dp2321
g62
(dp2322
g89
g90
ssg71
g2311
sg64
(lp2323
S':'
asbag57
(g78
g59
NtRp2324
(dp2325
g62
(dp2326
sg71
g2311
sg64
(lp2327
g57
(g58
g59
NtRp2328
(dp2329
g62
(dp2330
g70
I3
ssg71
g2324
sg64
(lp2331
S'/'
asbasbasbag57
(g73
g59
NtRp2332
(dp2333
g62
(dp2334
sg71
g1929
sg64
(lp2335
g57
(g78
g59
NtRp2336
(dp2337
g62
(dp2338
g82
g83
ssg71
g2332
sg64
(lp2339
S'wsgi.errors'
p2340
asbag57
(g78
g59
NtRp2341
(dp2342
g62
(dp2343
g89
g90
ssg71
g2332
sg64
(lp2344
S':'
asbag57
(g78
g59
NtRp2345
(dp2346
g62
(dp2347
sg71
g2332
sg64
(lp2348
g57
(g58
g59
NtRp2349
(dp2350
g62
(dp2351
g70
I3
ssg71
g2345
sg64
(lp2352
S"<open file '<stderr>', mode 'w' at 0x7f8c5a4cc270>"
p2353
asbasbasbag57
(g73
g59
NtRp2354
(dp2355
g62
(dp2356
sg71
g1929
sg64
(lp2357
g57
(g78
g59
NtRp2358
(dp2359
g62
(dp2360
g82
g83
ssg71
g2354
sg64
(lp2361
S'wsgi.file_wrapper'
p2362
asbag57
(g78
g59
NtRp2363
(dp2364
g62
(dp2365
g89
g90
ssg71
g2354
sg64
(lp2366
S':'
asbag57
(g78
g59
NtRp2367
(dp2368
g62
(dp2369
sg71
g2354
sg64
(lp2370
g57
(g58
g59
NtRp2371
(dp2372
g62
(dp2373
g70
I3
ssg71
g2367
sg64
(lp2374
S'<class wsgiref.util.FileWrapper at 0x3d883f8>'
p2375
asbasbasbag57
(g73
g59
NtRp2376
(dp2377
g62
(dp2378
sg71
g1929
sg64
(lp2379
g57
(g78
g59
NtRp2380
(dp2381
g62
(dp2382
g82
g83
ssg71
g2376
sg64
(lp2383
S'wsgi.input'
p2384
asbag57
(g78
g59
NtRp2385
(dp2386
g62
(dp2387
g89
g90
ssg71
g2376
sg64
(lp2388
S':'
asbag57
(g78
g59
NtRp2389
(dp2390
g62
(dp2391
sg71
g2376
sg64
(lp2392
g57
(g58
g59
NtRp2393
(dp2394
g62
(dp2395
g70
I3
ssg71
g2389
sg64
(lp2396
S'<cStringIO.StringO object at 0x2e8c0a0>'
p2397
asbasbasbag57
(g73
g59
NtRp2398
(dp2399
g62
(dp2400
sg71
g1929
sg64
(lp2401
g57
(g78
g59
NtRp2402
(dp2403
g62
(dp2404
g82
g83
ssg71
g2398
sg64
(lp2405
S'wsgi.multiprocess'
p2406
asbag57
(g78
g59
NtRp2407
(dp2408
g62
(dp2409
g89
g90
ssg71
g2398
sg64
(lp2410
S':'
asbag57
(g78
g59
NtRp2411
(dp2412
g62
(dp2413
sg71
g2398
sg64
(lp2414
g57
(g58
g59
NtRp2415
(dp2416
g62
(dp2417
g70
I3
ssg71
g2411
sg64
(lp2418
g100
asbasbasbag57
(g73
g59
NtRp2419
(dp2420
g62
(dp2421
sg71
g1929
sg64
(lp2422
g57
(g78
g59
NtRp2423
(dp2424
g62
(dp2425
g82
g83
ssg71
g2419
sg64
(lp2426
S'wsgi.multithread'
p2427
asbag57
(g78
g59
NtRp2428
(dp2429
g62
(dp2430
g89
g90
ssg71
g2419
sg64
(lp2431
S':'
asbag57
(g78
g59
NtRp2432
(dp2433
g62
(dp2434
sg71
g2419
sg64
(lp2435
g57
(g58
g59
NtRp2436
(dp2437
g62
(dp2438
g70
I3
ssg71
g2432
sg64
(lp2439
g1112
asbasbasbag57
(g73
g59
NtRp2440
(dp2441
g62
(dp2442
sg71
g1929
sg64
(lp2443
g57
(g78
g59
NtRp2444
(dp2445
g62
(dp2446
g82
g83
ssg71
g2440
sg64
(lp2447
S'wsgi.run_once'
p2448
asbag57
(g78
g59
NtRp2449
(dp2450
g62
(dp2451
g89
g90
ssg71
g2440
sg64
(lp2452
S':'
asbag57
(g78
g59
NtRp2453
(dp2454
g62
(dp2455
sg71
g2440
sg64
(lp2456
g57
(g58
g59
NtRp2457
(dp2458
g62
(dp2459
g70
I3
ssg71
g2453
sg64
(lp2460
g100
asbasbasbag57
(g73
g59
NtRp2461
(dp2462
g62
(dp2463
sg71
g1929
sg64
(lp2464
g57
(g78
g59
NtRp2465
(dp2466
g62
(dp2467
g82
g83
ssg71
g2461
sg64
(lp2468
S'wsgi.url_scheme'
p2469
asbag57
(g78
g59
NtRp2470
(dp2471
g62
(dp2472
g89
g90
ssg71
g2461
sg64
(lp2473
S':'
asbag57
(g78
g59
NtRp2474
(dp2475
g62
(dp2476
sg71
g2461
sg64
(lp2477
g57
(g58
g59
NtRp2478
(dp2479
g62
(dp2480
g70
I3
ssg71
g2474
sg64
(lp2481
g1155
asbasbasbag57
(g73
g59
NtRp2482
(dp2483
g62
(dp2484
sg71
g1929
sg64
(lp2485
g57
(g78
g59
NtRp2486
(dp2487
g62
(dp2488
g82
g83
ssg71
g2482
sg64
(lp2489
S'wsgi.version'
p2490
asbag57
(g78
g59
NtRp2491
(dp2492
g62
(dp2493
g89
g90
ssg71
g2482
sg64
(lp2494
S':'
asbag57
(g78
g59
NtRp2495
(dp2496
g62
(dp2497
sg71
g2482
sg64
(lp2498
g57
(g58
g59
NtRp2499
(dp2500
g62
(dp2501
g70
I3
ssg71
g2495
sg64
(lp2502
S'1'
asbasbasbasbasbasbasbasbasbasbasbasbasbsS'frames'
p2503
(lp2504
(dp2505
S'file'
p2506
S'/home/fernando/Documentos/web2py/gluon/restricted.py'
p2507
sS'dump'
p2508
(dp2509
S'environment'
p2510
S"{'A': <class 'gluon.html.A'>, 'B': <class 'gluon.html.B'>, 'BEAUTIFY': <class 'gluon.html.BEAUTIFY'>, 'BODY': <class 'gluon.html.BODY'>, 'BR': <class 'gluon.html.BR'>, 'BUTTON': <class 'gluon.html.BUTTON'>, 'CAT': <class 'gluon.html.CAT'>, 'CENTER': <class 'gluon.html.CENTER'>, 'CLEANUP': <class 'gluon.validators.CLEANUP'>, 'CODE': <class 'gluon.html.CODE'>, ...}"
p2511
sS'ccode'
p2512
S'<code object <module> at 0x2e5fab0, file "/home/...y/applications/projeto/models/config.py", line 1>'
p2513
ssS'lnum'
p2514
I212
sS'lines'
p2515
(dp2516
I207
S'    try:'
p2517
sI208
S'        if isinstance(code, types.CodeType):'
p2518
sI209
S'            ccode = code'
p2519
sI210
S'        else:'
p2520
sI211
S'            ccode = compile2(code, layer)'
p2521
sI212
S'        exec ccode in environment'
p2522
sI213
S'    except HTTP:'
p2523
sI214
S'        raise'
p2524
sI215
S'    except RestrictedError:'
p2525
sI216
S'        # do not encapsulate (obfuscate) the original RestrictedError'
p2526
ssS'call'
p2527
S"(code='from gluon.storage import Storage\\n\\nconfig = Stor...      ano = ano - 1\\n    session.form_ano = lista\\n', environment={'A': <class 'gluon.html.A'>, 'B': <class 'gluon.html.B'>, 'BEAUTIFY': <class 'gluon.html.BEAUTIFY'>, 'BODY': <class 'gluon.html.BODY'>, 'BR': <class 'gluon.html.BR'>, 'BUTTON': <class 'gluon.html.BUTTON'>, 'CAT': <class 'gluon.html.CAT'>, 'CENTER': <class 'gluon.html.CENTER'>, 'CLEANUP': <class 'gluon.validators.CLEANUP'>, 'CODE': <class 'gluon.html.CODE'>, ...}, layer='/home/fernando/Documentos/web2py/applications/projeto/models/config.py')"
p2528
sS'func'
p2529
S'restricted'
p2530
sa(dp2531
g2506
S'/home/fernando/Documentos/web2py/applications/projeto/models/config.py'
p2532
sg2508
(dp2533
S'DAL'
p2534
S"<class 'gluon.dal.DAL'>"
p2535
sS'config'
p2536
S"<Storage {'mail': <Storage {}>, 'db': <Storage {...t/adm', 'pool_size': 10}>, 'auth': <Storage {}>}>"
p2537
sS'db'
p2538
S'undefined'
p2539
sS'config.db'
p2540
S"<Storage {'check_reserved': ['all'], 'uri': 'mysql://root:senha@localhost/adm', 'pool_size': 10}>"
p2541
ssg2514
I17
sg2515
(dp2542
I12
S'config.db.pool_size = 10'
p2543
sI13
S"config.db.check_reserved = ['all']"
p2544
sI14
S'#config.migrate_enable=True'
p2545
sI15
S'#config.migrate=True'
p2546
sI16
S''
sI17
S'db = DAL(**config.db)'
p2547
sI18
S''
sI19
S'# logging'
p2548
sI20
S'import logging'
p2549
sI21
S'logger = logging.getLogger("web2py.app.blog")'
p2550
ssg2527
S'()'
p2551
sg2529
S'<module>'
p2552
sa(dp2553
g2506
S'/home/fernando/Documentos/web2py/gluon/dal.py'
p2554
sg2508
(dp2555
S'tb'
p2556
S'\'Traceback (most recent call last):\\n  File "/home... user \\\'root\\\'@\\\'localhost\\\' (using password: YES)")\\n\''
p2557
sS'attempts'
p2558
S'5'
sS'builtinRuntimeError'
p2559
S"<type 'exceptions.RuntimeError'>"
p2560
ssg2514
I6873
sg2515
(dp2561
I6868
S'                if connected:'
p2562
sI6869
S'                    break'
p2563
sI6870
S'                else:'
p2564
sI6871
S'                    time.sleep(1)'
p2565
sI6872
S'            if not connected:'
p2566
sI6873
S'                raise RuntimeError("Failure to connect, tried %d times:\\n%s" % (attempts, tb))'
p2567
sI6874
S'        else:'
p2568
sI6875
S'            self._adapter = BaseAdapter(db=self,pool_size=0,'
p2569
sI6876
S"                                        uri='None',folder=folder,"
p2570
sI6877
S'                                        db_codec=db_codec)'
p2571
ssg2527
S'(self=<DAL uri="mysql://******:senha@localhost/adm">, uri=\'mysql://root:senha@localhost/adm\', pool_size=10, folder=None, db_codec=\'UTF-8\', check_reserved=[\'all\'], migrate=True, fake_migrate=False, migrate_enabled=True, fake_migrate_all=False, decode_credentials=False, driver_args=None, adapter_args=None, attempts=5, auto_import=False, bigint_id=False, debug=False, lazy_tables=False, db_uid=None, do_connect=True)'
p2572
sg2529
g50
sasS'pyver'
p2573
S'Python 2.7.3: /usr/bin/python'
p2574
sS'session'
p2575
g57
(g58
g59
NtRp2576
(dp2577
g62
(dp2578
sg64
(lp2579
g57
(g66
g59
NtRp2580
(dp2581
g62
(dp2582
g70
I5
ssg71
Nsg64
(lp2583
sbasbsS'etype'
p2584
S"<type 'exceptions.RuntimeError'>"
p2585
sS'date'
p2586
S'Tue Jul  2 20:33:37 2013'
p2587
sS'response'
p2588
g57
(g58
g59
NtRp2589
(dp2590
g62
(dp2591
sg64
(lp2592
g57
(g66
g59
NtRp2593
(dp2594
g62
(dp2595
g70
I5
ssg71
Nsg64
(lp2596
g57
(g73
g59
NtRp2597
(dp2598
g62
(dp2599
sg71
g2593
sg64
(lp2600
g57
(g78
g59
NtRp2601
(dp2602
g62
(dp2603
g82
g83
ssg71
g2597
sg64
(lp2604
g155
asbag57
(g78
g59
NtRp2605
(dp2606
g62
(dp2607
g89
g90
ssg71
g2597
sg64
(lp2608
S':'
asbag57
(g78
g59
NtRp2609
(dp2610
g62
(dp2611
sg71
g2597
sg64
(lp2612
g57
(g58
g59
NtRp2613
(dp2614
g62
(dp2615
g70
I5
ssg71
g2609
sg64
(lp2616
S'<cStringIO.StringO object at 0x2e82e30>'
p2617
asbasbasbag57
(g73
g59
NtRp2618
(dp2619
g62
(dp2620
sg71
g2593
sg64
(lp2621
g57
(g78
g59
NtRp2622
(dp2623
g62
(dp2624
g82
g83
ssg71
g2618
sg64
(lp2625
g243
asbag57
(g78
g59
NtRp2626
(dp2627
g62
(dp2628
g89
g90
ssg71
g2618
sg64
(lp2629
S':'
asbag57
(g78
g59
NtRp2630
(dp2631
g62
(dp2632
sg71
g2618
sg64
(lp2633
g57
(g58
g59
NtRp2634
(dp2635
g62
(dp2636
g70
I5
ssg71
g2630
sg64
(lp2637
g57
(g66
g59
NtRp2638
(dp2639
g62
(dp2640
g70
I4
ssg71
Nsg64
(lp2641
g57
(g73
g59
NtRp2642
(dp2643
g62
(dp2644
sg71
g2638
sg64
(lp2645
g57
(g78
g59
NtRp2646
(dp2647
g62
(dp2648
g82
g83
ssg71
g2642
sg64
(lp2649
S'session_id_projeto'
p2650
asbag57
(g78
g59
NtRp2651
(dp2652
g62
(dp2653
g89
g90
ssg71
g2642
sg64
(lp2654
S':'
asbag57
(g78
g59
NtRp2655
(dp2656
g62
(dp2657
sg71
g2642
sg64
(lp2658
g57
(g58
g59
NtRp2659
(dp2660
g62
(dp2661
g70
I4
ssg71
g2655
sg64
(lp2662
S'127.0.0.1-a6841b56-072a-4738-b0b3-1b0cb2180225'
p2663
ag57
(g66
g59
NtRp2664
(dp2665
g62
(dp2666
g70
I3
ssg71
Nsg64
(lp2667
g57
(g73
g59
NtRp2668
(dp2669
g62
(dp2670
sg71
g2664
sg64
(lp2671
g57
(g78
g59
NtRp2672
(dp2673
g62
(dp2674
g82
g83
ssg71
g2668
sg64
(lp2675
S'comment'
p2676
asbag57
(g78
g59
NtRp2677
(dp2678
g62
(dp2679
g89
g90
ssg71
g2668
sg64
(lp2680
S':'
asbag57
(g78
g59
NtRp2681
(dp2682
g62
(dp2683
sg71
g2668
sg64
(lp2684
g57
(g58
g59
NtRp2685
(dp2686
g62
(dp2687
g70
I3
ssg71
g2681
sg64
(lp2688
S''
asbasbasbag57
(g73
g59
NtRp2689
(dp2690
g62
(dp2691
sg71
g2664
sg64
(lp2692
g57
(g78
g59
NtRp2693
(dp2694
g62
(dp2695
g82
g83
ssg71
g2689
sg64
(lp2696
S'domain'
p2697
asbag57
(g78
g59
NtRp2698
(dp2699
g62
(dp2700
g89
g90
ssg71
g2689
sg64
(lp2701
S':'
asbag57
(g78
g59
NtRp2702
(dp2703
g62
(dp2704
sg71
g2689
sg64
(lp2705
g57
(g58
g59
NtRp2706
(dp2707
g62
(dp2708
g70
I3
ssg71
g2702
sg64
(lp2709
S''
asbasbasbag57
(g73
g59
NtRp2710
(dp2711
g62
(dp2712
sg71
g2664
sg64
(lp2713
g57
(g78
g59
NtRp2714
(dp2715
g62
(dp2716
g82
g83
ssg71
g2710
sg64
(lp2717
S'expires'
p2718
asbag57
(g78
g59
NtRp2719
(dp2720
g62
(dp2721
g89
g90
ssg71
g2710
sg64
(lp2722
S':'
asbag57
(g78
g59
NtRp2723
(dp2724
g62
(dp2725
sg71
g2710
sg64
(lp2726
g57
(g58
g59
NtRp2727
(dp2728
g62
(dp2729
g70
I3
ssg71
g2723
sg64
(lp2730
S''
asbasbasbag57
(g73
g59
NtRp2731
(dp2732
g62
(dp2733
sg71
g2664
sg64
(lp2734
g57
(g78
g59
NtRp2735
(dp2736
g62
(dp2737
g82
g83
ssg71
g2731
sg64
(lp2738
S'httponly'
p2739
asbag57
(g78
g59
NtRp2740
(dp2741
g62
(dp2742
g89
g90
ssg71
g2731
sg64
(lp2743
S':'
asbag57
(g78
g59
NtRp2744
(dp2745
g62
(dp2746
sg71
g2731
sg64
(lp2747
g57
(g58
g59
NtRp2748
(dp2749
g62
(dp2750
g70
I3
ssg71
g2744
sg64
(lp2751
S''
asbasbasbag57
(g73
g59
NtRp2752
(dp2753
g62
(dp2754
sg71
g2664
sg64
(lp2755
g57
(g78
g59
NtRp2756
(dp2757
g62
(dp2758
g82
g83
ssg71
g2752
sg64
(lp2759
S'max-age'
p2760
asbag57
(g78
g59
NtRp2761
(dp2762
g62
(dp2763
g89
g90
ssg71
g2752
sg64
(lp2764
S':'
asbag57
(g78
g59
NtRp2765
(dp2766
g62
(dp2767
sg71
g2752
sg64
(lp2768
g57
(g58
g59
NtRp2769
(dp2770
g62
(dp2771
g70
I3
ssg71
g2765
sg64
(lp2772
S''
asbasbasbag57
(g73
g59
NtRp2773
(dp2774
g62
(dp2775
sg71
g2664
sg64
(lp2776
g57
(g78
g59
NtRp2777
(dp2778
g62
(dp2779
g82
g83
ssg71
g2773
sg64
(lp2780
S'path'
p2781
asbag57
(g78
g59
NtRp2782
(dp2783
g62
(dp2784
g89
g90
ssg71
g2773
sg64
(lp2785
S':'
asbag57
(g78
g59
NtRp2786
(dp2787
g62
(dp2788
sg71
g2773
sg64
(lp2789
g57
(g58
g59
NtRp2790
(dp2791
g62
(dp2792
g70
I3
ssg71
g2786
sg64
(lp2793
S'/'
asbasbasbag57
(g73
g59
NtRp2794
(dp2795
g62
(dp2796
sg71
g2664
sg64
(lp2797
g57
(g78
g59
NtRp2798
(dp2799
g62
(dp2800
g82
g83
ssg71
g2794
sg64
(lp2801
S'secure'
p2802
asbag57
(g78
g59
NtRp2803
(dp2804
g62
(dp2805
g89
g90
ssg71
g2794
sg64
(lp2806
S':'
asbag57
(g78
g59
NtRp2807
(dp2808
g62
(dp2809
sg71
g2794
sg64
(lp2810
g57
(g58
g59
NtRp2811
(dp2812
g62
(dp2813
g70
I3
ssg71
g2807
sg64
(lp2814
S''
asbasbasbag57
(g73
g59
NtRp2815
(dp2816
g62
(dp2817
sg71
g2664
sg64
(lp2818
g57
(g78
g59
NtRp2819
(dp2820
g62
(dp2821
g82
g83
ssg71
g2815
sg64
(lp2822
S'version'
p2823
asbag57
(g78
g59
NtRp2824
(dp2825
g62
(dp2826
g89
g90
ssg71
g2815
sg64
(lp2827
S':'
asbag57
(g78
g59
NtRp2828
(dp2829
g62
(dp2830
sg71
g2815
sg64
(lp2831
g57
(g58
g59
NtRp2832
(dp2833
g62
(dp2834
g70
I3
ssg71
g2828
sg64
(lp2835
S''
asbasbasbasbasbasbasbasbasbasbasbag57
(g73
g59
NtRp2836
(dp2837
g62
(dp2838
sg71
g2593
sg64
(lp2839
g57
(g78
g59
NtRp2840
(dp2841
g62
(dp2842
g82
g83
ssg71
g2836
sg64
(lp2843
S'delimiters'
p2844
asbag57
(g78
g59
NtRp2845
(dp2846
g62
(dp2847
g89
g90
ssg71
g2836
sg64
(lp2848
S':'
asbag57
(g78
g59
NtRp2849
(dp2850
g62
(dp2851
sg71
g2836
sg64
(lp2852
g57
(g58
g59
NtRp2853
(dp2854
g62
(dp2855
g70
I5
ssg71
g2849
sg64
(lp2856
g57
(g66
g59
NtRp2857
(dp2858
g62
(dp2859
g70
I4
ssg71
Nsg64
(lp2860
g57
(g73
g59
NtRp2861
(dp2862
g62
(dp2863
sg71
g2857
sg64
(lp2864
g57
(g78
g59
NtRp2865
(dp2866
g62
(dp2867
sg71
g2861
sg64
(lp2868
g57
(g58
g59
NtRp2869
(dp2870
g62
(dp2871
g70
I4
ssg71
g2865
sg64
(lp2872
S'{{'
p2873
asbasbasbag57
(g73
g59
NtRp2874
(dp2875
g62
(dp2876
sg71
g2857
sg64
(lp2877
g57
(g78
g59
NtRp2878
(dp2879
g62
(dp2880
sg71
g2874
sg64
(lp2881
g57
(g58
g59
NtRp2882
(dp2883
g62
(dp2884
g70
I4
ssg71
g2878
sg64
(lp2885
S'}}'
p2886
asbasbasbasbasbasbasbag57
(g73
g59
NtRp2887
(dp2888
g62
(dp2889
sg71
g2593
sg64
(lp2890
g57
(g78
g59
NtRp2891
(dp2892
g62
(dp2893
g82
g83
ssg71
g2887
sg64
(lp2894
S'files'
p2895
asbag57
(g78
g59
NtRp2896
(dp2897
g62
(dp2898
g89
g90
ssg71
g2887
sg64
(lp2899
S':'
asbag57
(g78
g59
NtRp2900
(dp2901
g62
(dp2902
sg71
g2887
sg64
(lp2903
g57
(g58
g59
NtRp2904
(dp2905
g62
(dp2906
g70
I5
ssg71
g2900
sg64
(lp2907
g57
(g66
g59
NtRp2908
(dp2909
g62
(dp2910
g70
I4
ssg71
Nsg64
(lp2911
sbasbasbasbag57
(g73
g59
NtRp2912
(dp2913
g62
(dp2914
sg71
g2593
sg64
(lp2915
g57
(g78
g59
NtRp2916
(dp2917
g62
(dp2918
g82
g83
ssg71
g2912
sg64
(lp2919
S'flash'
p2920
asbag57
(g78
g59
NtRp2921
(dp2922
g62
(dp2923
g89
g90
ssg71
g2912
sg64
(lp2924
S':'
asbag57
(g78
g59
NtRp2925
(dp2926
g62
(dp2927
sg71
g2912
sg64
(lp2928
g57
(g58
g59
NtRp2929
(dp2930
g62
(dp2931
g70
I5
ssg71
g2925
sg64
(lp2932
S''
asbasbasbag57
(g73
g59
NtRp2933
(dp2934
g62
(dp2935
sg71
g2593
sg64
(lp2936
g57
(g78
g59
NtRp2937
(dp2938
g62
(dp2939
g82
g83
ssg71
g2933
sg64
(lp2940
S'generic_patterns'
p2941
asbag57
(g78
g59
NtRp2942
(dp2943
g62
(dp2944
g89
g90
ssg71
g2933
sg64
(lp2945
S':'
asbag57
(g78
g59
NtRp2946
(dp2947
g62
(dp2948
sg71
g2933
sg64
(lp2949
g57
(g58
g59
NtRp2950
(dp2951
g62
(dp2952
g70
I5
ssg71
g2946
sg64
(lp2953
g57
(g66
g59
NtRp2954
(dp2955
g62
(dp2956
g70
I4
ssg71
Nsg64
(lp2957
sbasbasbasbag57
(g73
g59
NtRp2958
(dp2959
g62
(dp2960
sg71
g2593
sg64
(lp2961
g57
(g78
g59
NtRp2962
(dp2963
g62
(dp2964
g82
g83
ssg71
g2958
sg64
(lp2965
S'headers'
p2966
asbag57
(g78
g59
NtRp2967
(dp2968
g62
(dp2969
g89
g90
ssg71
g2958
sg64
(lp2970
S':'
asbag57
(g78
g59
NtRp2971
(dp2972
g62
(dp2973
sg71
g2958
sg64
(lp2974
g57
(g58
g59
NtRp2975
(dp2976
g62
(dp2977
g70
I5
ssg71
g2971
sg64
(lp2978
g57
(g66
g59
NtRp2979
(dp2980
g62
(dp2981
g70
I4
ssg71
Nsg64
(lp2982
g57
(g73
g59
NtRp2983
(dp2984
g62
(dp2985
sg71
g2979
sg64
(lp2986
g57
(g78
g59
NtRp2987
(dp2988
g62
(dp2989
g82
g83
ssg71
g2983
sg64
(lp2990
S'X-Powered-By'
p2991
asbag57
(g78
g59
NtRp2992
(dp2993
g62
(dp2994
g89
g90
ssg71
g2983
sg64
(lp2995
S':'
asbag57
(g78
g59
NtRp2996
(dp2997
g62
(dp2998
sg71
g2983
sg64
(lp2999
g57
(g58
g59
NtRp3000
(dp3001
g62
(dp3002
g70
I4
ssg71
g2996
sg64
(lp3003
S'web2py'
p3004
asbasbasbasbasbasbasbag57
(g73
g59
NtRp3005
(dp3006
g62
(dp3007
sg71
g2593
sg64
(lp3008
g57
(g78
g59
NtRp3009
(dp3010
g62
(dp3011
g82
g83
ssg71
g3005
sg64
(lp3012
S'menu'
p3013
asbag57
(g78
g59
NtRp3014
(dp3015
g62
(dp3016
g89
g90
ssg71
g3005
sg64
(lp3017
S':'
asbag57
(g78
g59
NtRp3018
(dp3019
g62
(dp3020
sg71
g3005
sg64
(lp3021
g57
(g58
g59
NtRp3022
(dp3023
g62
(dp3024
g70
I5
ssg71
g3018
sg64
(lp3025
g57
(g66
g59
NtRp3026
(dp3027
g62
(dp3028
g70
I4
ssg71
Nsg64
(lp3029
sbasbasbasbag57
(g73
g59
NtRp3030
(dp3031
g62
(dp3032
sg71
g2593
sg64
(lp3033
g57
(g78
g59
NtRp3034
(dp3035
g62
(dp3036
g82
g83
ssg71
g3030
sg64
(lp3037
S'meta'
p3038
asbag57
(g78
g59
NtRp3039
(dp3040
g62
(dp3041
g89
g90
ssg71
g3030
sg64
(lp3042
S':'
asbag57
(g78
g59
NtRp3043
(dp3044
g62
(dp3045
sg71
g3030
sg64
(lp3046
g57
(g58
g59
NtRp3047
(dp3048
g62
(dp3049
g70
I5
ssg71
g3043
sg64
(lp3050
g57
(g66
g59
NtRp3051
(dp3052
g62
(dp3053
g70
I4
ssg71
Nsg64
(lp3054
sbasbasbasbag57
(g73
g59
NtRp3055
(dp3056
g62
(dp3057
sg71
g2593
sg64
(lp3058
g57
(g78
g59
NtRp3059
(dp3060
g62
(dp3061
g82
g83
ssg71
g3055
sg64
(lp3062
S'models_to_run'
p3063
asbag57
(g78
g59
NtRp3064
(dp3065
g62
(dp3066
g89
g90
ssg71
g3055
sg64
(lp3067
S':'
asbag57
(g78
g59
NtRp3068
(dp3069
g62
(dp3070
sg71
g3055
sg64
(lp3071
g57
(g58
g59
NtRp3072
(dp3073
g62
(dp3074
g70
I5
ssg71
g3068
sg64
(lp3075
g57
(g66
g59
NtRp3076
(dp3077
g62
(dp3078
g70
I4
ssg71
Nsg64
(lp3079
g57
(g73
g59
NtRp3080
(dp3081
g62
(dp3082
sg71
g3076
sg64
(lp3083
g57
(g78
g59
NtRp3084
(dp3085
g62
(dp3086
sg71
g3080
sg64
(lp3087
g57
(g58
g59
NtRp3088
(dp3089
g62
(dp3090
g70
I4
ssg71
g3084
sg64
(lp3091
S'^\\w+\\.py$'
p3092
asbasbasbag57
(g73
g59
NtRp3093
(dp3094
g62
(dp3095
sg71
g3076
sg64
(lp3096
g57
(g78
g59
NtRp3097
(dp3098
g62
(dp3099
sg71
g3093
sg64
(lp3100
g57
(g58
g59
NtRp3101
(dp3102
g62
(dp3103
g70
I4
ssg71
g3097
sg64
(lp3104
S'^initial/\\w+\\.py$'
p3105
asbasbasbag57
(g73
g59
NtRp3106
(dp3107
g62
(dp3108
sg71
g3076
sg64
(lp3109
g57
(g78
g59
NtRp3110
(dp3111
g62
(dp3112
sg71
g3106
sg64
(lp3113
g57
(g58
g59
NtRp3114
(dp3115
g62
(dp3116
g70
I4
ssg71
g3110
sg64
(lp3117
S'^initial/principal/\\w+\\.py$'
p3118
asbasbasbasbasbasbasbag57
(g73
g59
NtRp3119
(dp3120
g62
(dp3121
sg71
g2593
sg64
(lp3122
g57
(g78
g59
NtRp3123
(dp3124
g62
(dp3125
g82
g83
ssg71
g3119
sg64
(lp3126
S'postprocessing'
p3127
asbag57
(g78
g59
NtRp3128
(dp3129
g62
(dp3130
g89
g90
ssg71
g3119
sg64
(lp3131
S':'
asbag57
(g78
g59
NtRp3132
(dp3133
g62
(dp3134
sg71
g3119
sg64
(lp3135
g57
(g58
g59
NtRp3136
(dp3137
g62
(dp3138
g70
I5
ssg71
g3132
sg64
(lp3139
g57
(g66
g59
NtRp3140
(dp3141
g62
(dp3142
g70
I4
ssg71
Nsg64
(lp3143
sbasbasbasbag57
(g73
g59
NtRp3144
(dp3145
g62
(dp3146
sg71
g2593
sg64
(lp3147
g57
(g78
g59
NtRp3148
(dp3149
g62
(dp3150
g82
g83
ssg71
g3144
sg64
(lp3151
S'session_cookie_expires'
p3152
asbag57
(g78
g59
NtRp3153
(dp3154
g62
(dp3155
g89
g90
ssg71
g3144
sg64
(lp3156
S':'
asbag57
(g78
g59
NtRp3157
(dp3158
g62
(dp3159
sg71
g3144
sg64
(lp3160
g57
(g58
g59
NtRp3161
(dp3162
g62
(dp3163
g70
I5
ssg71
g3157
sg64
(lp3164
S'None'
p3165
asbasbasbag57
(g73
g59
NtRp3166
(dp3167
g62
(dp3168
sg71
g2593
sg64
(lp3169
g57
(g78
g59
NtRp3170
(dp3171
g62
(dp3172
g82
g83
ssg71
g3166
sg64
(lp3173
S'session_data_name'
p3174
asbag57
(g78
g59
NtRp3175
(dp3176
g62
(dp3177
g89
g90
ssg71
g3166
sg64
(lp3178
S':'
asbag57
(g78
g59
NtRp3179
(dp3180
g62
(dp3181
sg71
g3166
sg64
(lp3182
g57
(g58
g59
NtRp3183
(dp3184
g62
(dp3185
g70
I5
ssg71
g3179
sg64
(lp3186
S'session_data_projeto'
p3187
asbasbasbag57
(g73
g59
NtRp3188
(dp3189
g62
(dp3190
sg71
g2593
sg64
(lp3191
g57
(g78
g59
NtRp3192
(dp3193
g62
(dp3194
g82
g83
ssg71
g3188
sg64
(lp3195
S'session_filename'
p3196
asbag57
(g78
g59
NtRp3197
(dp3198
g62
(dp3199
g89
g90
ssg71
g3188
sg64
(lp3200
S':'
asbag57
(g78
g59
NtRp3201
(dp3202
g62
(dp3203
sg71
g3188
sg64
(lp3204
g57
(g58
g59
NtRp3205
(dp3206
g62
(dp3207
g70
I5
ssg71
g3201
sg64
(lp3208
S'/home/fernando/Documentos/web2py/applications/projeto/sessions/127.0.0.1-a6841b56-072a-4738-b0b3-1b0cb2180225'
p3209
asbasbasbag57
(g73
g59
NtRp3210
(dp3211
g62
(dp3212
sg71
g2593
sg64
(lp3213
g57
(g78
g59
NtRp3214
(dp3215
g62
(dp3216
g82
g83
ssg71
g3210
sg64
(lp3217
S'session_id'
p3218
asbag57
(g78
g59
NtRp3219
(dp3220
g62
(dp3221
g89
g90
ssg71
g3210
sg64
(lp3222
S':'
asbag57
(g78
g59
NtRp3223
(dp3224
g62
(dp3225
sg71
g3210
sg64
(lp3226
g57
(g58
g59
NtRp3227
(dp3228
g62
(dp3229
g70
I5
ssg71
g3223
sg64
(lp3230
g2663
asbasbasbag57
(g73
g59
NtRp3231
(dp3232
g62
(dp3233
sg71
g2593
sg64
(lp3234
g57
(g78
g59
NtRp3235
(dp3236
g62
(dp3237
g82
g83
ssg71
g3231
sg64
(lp3238
S'session_id_name'
p3239
asbag57
(g78
g59
NtRp3240
(dp3241
g62
(dp3242
g89
g90
ssg71
g3231
sg64
(lp3243
S':'
asbag57
(g78
g59
NtRp3244
(dp3245
g62
(dp3246
sg71
g3231
sg64
(lp3247
g57
(g58
g59
NtRp3248
(dp3249
g62
(dp3250
g70
I5
ssg71
g3244
sg64
(lp3251
g2650
asbasbasbag57
(g73
g59
NtRp3252
(dp3253
g62
(dp3254
sg71
g2593
sg64
(lp3255
g57
(g78
g59
NtRp3256
(dp3257
g62
(dp3258
g82
g83
ssg71
g3252
sg64
(lp3259
S'session_new'
p3260
asbag57
(g78
g59
NtRp3261
(dp3262
g62
(dp3263
g89
g90
ssg71
g3252
sg64
(lp3264
S':'
asbag57
(g78
g59
NtRp3265
(dp3266
g62
(dp3267
sg71
g3252
sg64
(lp3268
g57
(g58
g59
NtRp3269
(dp3270
g62
(dp3271
g70
I5
ssg71
g3265
sg64
(lp3272
g1112
asbasbasbag57
(g73
g59
NtRp3273
(dp3274
g62
(dp3275
sg71
g2593
sg64
(lp3276
g57
(g78
g59
NtRp3277
(dp3278
g62
(dp3279
g82
g83
ssg71
g3273
sg64
(lp3280
S'session_storage_type'
p3281
asbag57
(g78
g59
NtRp3282
(dp3283
g62
(dp3284
g89
g90
ssg71
g3273
sg64
(lp3285
S':'
asbag57
(g78
g59
NtRp3286
(dp3287
g62
(dp3288
sg71
g3273
sg64
(lp3289
g57
(g58
g59
NtRp3290
(dp3291
g62
(dp3292
g70
I5
ssg71
g3286
sg64
(lp3293
g2506
asbasbasbag57
(g73
g59
NtRp3294
(dp3295
g62
(dp3296
sg71
g2593
sg64
(lp3297
g57
(g78
g59
NtRp3298
(dp3299
g62
(dp3300
g82
g83
ssg71
g3294
sg64
(lp3301
S'status'
p3302
asbag57
(g78
g59
NtRp3303
(dp3304
g62
(dp3305
g89
g90
ssg71
g3294
sg64
(lp3306
S':'
asbag57
(g78
g59
NtRp3307
(dp3308
g62
(dp3309
sg71
g3294
sg64
(lp3310
g57
(g58
g59
NtRp3311
(dp3312
g62
(dp3313
g70
I5
ssg71
g3307
sg64
(lp3314
S'200'
p3315
asbasbasbag57
(g73
g59
NtRp3316
(dp3317
g62
(dp3318
sg71
g2593
sg64
(lp3319
g57
(g78
g59
NtRp3320
(dp3321
g62
(dp3322
g82
g83
ssg71
g3316
sg64
(lp3323
S'view'
p3324
asbag57
(g78
g59
NtRp3325
(dp3326
g62
(dp3327
g89
g90
ssg71
g3316
sg64
(lp3328
S':'
asbag57
(g78
g59
NtRp3329
(dp3330
g62
(dp3331
sg71
g3316
sg64
(lp3332
g57
(g58
g59
NtRp3333
(dp3334
g62
(dp3335
g70
I5
ssg71
g3329
sg64
(lp3336
S'initial/principal.html'
p3337
asbasbasbasbasbsS'locals'
p3338
(dp3339
S'migrate'
p3340
g1112
sS'do_connect'
p3341
g1112
sS'decode_credentials'
p3342
g100
sS'attempts'
p3343
S'5'
sS'driver_args'
p3344
S'None'
p3345
sS'self'
p3346
S'<DAL uri="mysql://******:senha@localhost/adm">'
p3347
sS'auto_import'
p3348
g100
sS'migrate_enabled'
p3349
g1112
sS'check_reserved'
p3350
S"['all']"
p3351
sS'bigint_id'
p3352
g100
sS'kwargs'
p3353
S'{\'adapter_args\': {}, \'credential_decoder\': <function <lambda>>, \'db\': <DAL uri="mysql://******:senha@localhost/adm">, \'db_codec\': \'UTF-8\', \'do_connect\': True, \'driver_args\': {\'charset\': \'utf8\', \'db\': \'adm\', \'host\': \'localhost\', \'passwd\': \'senha\', \'port\': 3306, \'user\': \'root\'}, \'folder\': None, \'pool_size\': 10, \'uri\': \'mysql://root:senha@localhost/adm\'}'
p3354
sg1235
S'None'
p3355
sS'tb'
p3356
S'\'Traceback (most recent call last):\\n  File "/home... user \\\'root\\\'@\\\'localhost\\\' (using password: YES)")\\n\''
p3357
sS'uris'
p3358
S"['mysql://root:senha@localhost/adm']"
p3359
sS'lazy_tables'
p3360
g100
sS'db_codec'
p3361
S"'UTF-8'"
p3362
sS'adapter_args'
p3363
S'None'
p3364
sS'fake_migrate'
p3365
g100
sS'connected'
p3366
g100
sS'credential_decoder'
p3367
S'<function <lambda>>'
p3368
sS'fake_migrate_all'
p3369
g100
sS'db_uid'
p3370
S'None'
p3371
sS'k'
S'4'
sS'uri'
p3372
S"'mysql://root:senha@localhost/adm'"
p3373
sS'pool_size'
p3374
S'10'
p3375
sS'error'
p3376
S"''"
p3377
sS'debug'
p3378
g100
sssS'traceback'
p3379
S'Traceback (most recent call last):\n  File "/home/fernando/Documentos/web2py/gluon/restricted.py", line 212, in restricted\n    exec ccode in environment\n  File "/home/fernando/Documentos/web2py/applications/projeto/models/config.py", line 17, in <module>\n    db = DAL(**config.db)\n  File "/home/fernando/Documentos/web2py/gluon/dal.py", line 6873, in __init__\n    raise RuntimeError("Failure to connect, tried %d times:\\n%s" % (attempts, tb))\nRuntimeError: Failure to connect, tried 5 times:\nTraceback (most recent call last):\n  File "/home/fernando/Documentos/web2py/gluon/dal.py", line 6853, in __init__\n    self._adapter = ADAPTERS[self._dbname](**kwargs)\n  File "/home/fernando/Documentos/web2py/gluon/dal.py", line 2402, in __init__\n    if do_connect: self.reconnect()\n  File "/home/fernando/Documentos/web2py/gluon/dal.py", line 597, in reconnect\n    self.connection = f()\n  File "/home/fernando/Documentos/web2py/gluon/dal.py", line 2400, in connector\n    return self.driver.connect(**driver_args)\n  File "/usr/lib/python2.7/dist-packages/MySQLdb/__init__.py", line 81, in Connect\n    return Connection(*args, **kwargs)\n  File "/usr/lib/python2.7/dist-packages/MySQLdb/connections.py", line 187, in __init__\n    super(Connection, self).__init__(*args, **kwargs2)\nOperationalError: (1045, "Access denied for user \'root\'@\'localhost\' (using password: YES)")\n\n'
p3380
s.