(dp1
S'output'
p2
S"<type 'exceptions.SyntaxError'> invalid syntax (initial.py, line 35)"
p3
sS'layer'
p4
S'/var/www/agenda/applications/projeto/controllers/initial.py'
p5
sS'code'
p6
S'# coding=UTF-8\n\ndef principal():\n\tresponse.title="principal"\n\tprint session.aut\n\n\tif session.aut != \'0\':\n\t\tdb.args=db.agenda.id.readable=False\n\t\t#db.args=db.agenda.ramal.readable=False\n\t\tgrid = SQLFORM.grid(db.agenda, user_signature=False, \n\t\tsearchable=True, csv=False, \n\t\tpaginate=50, details=False, editable=False, \n\t\tignore_rw = True, maxtextlength=36, create=False,\n\t\tlinks=[lambda row: A(\'Discar\', \n    \t\t      _class=\'btn\', \n    \t\t      _title=\'Discar\', \n    \t\t      _href=URL("initial", "/ligacao", \n    \t\t      vars=dict(n=row.telefone))),\n\t\t\t\tlambda row: A(\'Editar\', \n    \t\t      _class=\'btn\', \n    \t\t      _title=\'Editar\', \n    \t\t      _href=URL("initial", "/edit", \n    \t\t      vars=dict(f=row.id)))] \n    \t)\n\t\treturn response.render("initial/show_grid.html", grid=grid)\n\telse:\n\t\tprint \'ramal %s nao esta logado\' %(session.aut)\n\t\tsession.flash = "Fa\xc3\xa7a o login"\n\t\tredirect(URL("initial", "/log_in"))\n\n\ndef agenda():\n\tresponse.title="Global"\n\n\tquery = ((db.agenda.particular == \'F\') & (orderby=db.agenda.empresa))\n\t#print query\n\n\tfields = (db.agenda.id, db.agenda.empresa, db.agenda.telefone, \n\t\t\t\tdb.agenda.contato, db.agenda.particular, db.agenda.ramal)\n\t#headers = {\'hosts.id\':   \'ID\',\n\t#           \'hosts.servicos\': \'Servicos\'}\n\tlinks=[lambda row: A(\'Discar\', \n   \t\t\t      _class=\'btn\', \n   \t\t\t      _title=\'Discar\', \n   \t\t    \t  _href=URL("initial", "/ligacao", \n   \t\t      \tvars=dict(n=row.telefone, f=\'agenda\'))),\n\t\t\t\tlambda row: A(\'Editar\', \n   \t\t      \t_class=\'btn\', \n   \t\t      \t_title=\'Editar\', \n   \t\t      \t_href=URL("initial", "/edit", \n   \t\t      \tvars=dict(f=row.id)))] \n   \n\tgrid = SQLFORM.grid(query=query, fields=fields, csv=False,\n\t\t\t\t\tdetails=False, searchable=True, deletable=True, editable=False, \n\t\t\t\t\tcreate=False, links=links, user_signature=False)\n\n\treturn response.render("initial/show_grid.html", grid=grid)\n\n\ndef agenda_particular():\n\tresponse.title="Particular"\n\n\tquery = ((db.agenda.ramal == session.ramal) & (db.agenda.particular == \'V\'))\n\t#print query\n\n\tfields = (db.agenda.id, db.agenda.empresa, db.agenda.telefone, \n\t\t\t\tdb.agenda.contato, db.agenda.particular, db.agenda.ramal)\n\t#headers = {\'hosts.id\':   \'ID\',\n\t#           \'hosts.servicos\': \'Servicos\'}\n\tlinks=[lambda row: A(\'Discar\', \n   \t\t\t      _class=\'btn\', \n   \t\t\t      _title=\'Discar\', \n   \t\t    \t  _href=URL("initial", "/ligacao", \n   \t\t      \tvars=dict(n=row.telefone, f=\'agenda_particular\'))),\n\t\t\t\tlambda row: A(\'Editar\', \n   \t\t      \t_class=\'btn\', \n   \t\t      \t_title=\'Editar\', \n   \t\t      \t_href=URL("initial", "/edit", \n   \t\t      \tvars=dict(f=row.id)))] \n   \n\tgrid = SQLFORM.grid(query=query, fields=fields, csv=False,\n\t\t\t\t\tdetails=False, searchable=True, deletable=True, editable=False, \n\t\t\t\t\tcreate=False, links=links, user_signature=False)\n\n\treturn response.render("initial/show_grid.html", grid=grid)\n\n\ndef ligacao():\n\ttelefone = request.vars[\'n\']\n\tfuncao = request.vars[\'f\']\n\tprint funcao\n\tprint telefone\n\n\tf = open(\'/tmp/pytext\',\'w\')\n\tf.write(session.ramal_fis)\n\tf = open(\'/tmp/pytext\',\'a\')\n\tf.write(\'\\n%s\' %(telefone))\n\tf.close()\n\n\tsession.flash = "Liga\xc3\xa7\xc3\xa3o do ramal %s para n\xc3\xbamero %s" %(str(session.ramal), telefone)\n\tredirect(URL("initial", "/%s" %(funcao)))\n\n\ndef redireciona():\n\tif session.aut != \'0\':\n\t\tfuncao = request.vars[\'f\']\n\t\tredirect(URL("initial", "/%s" %(funcao)))\n\telse:\n\t\tprint \'ramal %s nao esta logado (redireciona)\' %(session.aut)\n\t\tsession.flash = "Fa\xc3\xa7a o login"\n\t\tredirect(URL("initial", "/log_in"))\n\n\ndef addition():\n\n    form = SQLFORM(db.agenda, submit_button=\'Adicionar\', \n    \t\tfields = [\'empresa\', \'telefone\', \'contato\', \'dep\', \'particular\', \'ramal\'], \n\t\t\tlabels = {\'empresa\':\'Empresa\', \'telefone\':\'Telefone\', \n\t\t\t\t\t\t\'contato\':\'Contato\', \'dep\':\'Departamento\', \n\t\t\t\t\t\t\'particular\':\'Particular\', \'ramal\':\'Ramal\'},)\n    form.vars.ramal = session.ramal\n\n    response.title="Contato"\n\n    if form.process().accepted:\n    \t#evento = request.vars\n    \t#confno = form.vars.id\n    \t#email(evento, confno)\n    \tresponse.flash = \'Inserido com sucesso\'\t\t\n    elif form.errors:\n    \tresponse.flash = \'Ops, algo n\xc3\xa3o est\xc3\xa1 correto\'\n    else:\n    \tresponse.flash = \'Insira os dados do novo host\'\n    return response.render("initial/show_form2.html", form=form)\n\n\ndef edit():\n    form = SQLFORM(db.agenda, request.vars[\'f\'], submit_button=\'Editar\')\n\n    if form.process().accepted:\n       response.flash = \'Editado com sucesso\'\n    elif form.errors:\n       response.flash = \'Ops, algo n\xc3\xa3o est\xc3\xa1 correto\'\n    else:\n       response.flash = \'Edite os dados do host\'\n\n    return response.render("initial/show_form2.html", form=form)\n\n\ndef log_in():\n\t#adicionar\n    form = SQLFORM.factory(\n    \t\tField("ramal", requires = IS_NOT_EMPTY(error_message=\n\t\t\t\t\t\tT("valor n\xc3\xa3o pode ser nulo"))),\n    \t\tField("senha", "password"),\n    \t\tformstyle="divs",\n    \t\t)\n\n    response.title="login"\n    if form.process().accepted:\n    \tramal_dig = form.vars.ramal\n    \tsenha_dig = form.vars.senha\n    \tprint \'ramal digitado:%s  senha digitada:%s\' %(ramal_dig, senha_dig) \n    \tteste = db.executesql("SELECT v.ramal_virtual, v.nome, f.username, f.secret FROM ramal_virtual v LEFT JOIN ramal f ON v.username_ramalfisico = f.username WHERE v.ramal_virtual = %s;" %(ramal_dig))\n    \tprint \'busca sql: %s\' %str(teste)\n\n    \tif teste == ():\n    \t\tprint "ramal incorreto"\n    \t\tresponse.flash = \'Ramal incorreto\'\n    \telse:\n    \t\tusuario=teste[0][1]\n    \t\tsenha=teste[0][3]\n\n    \t\tprint \'usuario senha\'\n    \t\tprint session.ramal, usuario, session.ramal_fis, senha\n    \t   \t#if ramal_dig == ramal:\n    \t\t#\tprint "ramal ok"\n    \t\tif senha_dig == senha:\n    \t\t\tprint "senha ok"\n    \t\t\tsession.ramal=teste[0][0]\n    \t\t\tsession.ramal_fis=teste[0][2]\n    \t\t\tsession.aut=session.ramal\n\n    \t\t\tprint\'login efetuado %s (log_in)\' %(session.ramal)\n    \t\t\tsession.flash = \'Bem Vindo %s\' %(usuario)\n    \t\t\tredirect(URL("initial", "/agenda"))\n    \t\telse:\n    \t\t\tprint \'senha incorreta\'\n    \t\t\tresponse.flash = \'Senha incorreta\'\t\n    return response.render("initial/show_form2.html", form=form)\n\n\ndef log_out():\n\tsession.aut=\'0\'\n\tsession.ramal=\'0\'\n\tsession.ramal_fis=\'0\'\n\tprint session.aut\n\tprint "logout (log_out)"\n\tredirect(URL("initial", "/log_in"))\n\n\n\n\n\n\n\n\n\n\ndef email(evento, confno):\n\n\tmembros = evento.membros_user\n    \tfor a in membros:        \n   \t\t\tprint \'membro:\',a\n   \t\t\tteste = db.executesql(\'SELECT nome, email, pin FROM usuario WHERE id = %s;\' %str(a))\n   \t\t\tprint  \'select:\',teste[0][0], teste[0][1], teste[0][2]\n   \t\t\tnome = teste[0][0] #est\xc3\xa1 dando problema no envio\n   \t\t\temail = str(teste[0][1])\n   \t\t\tpin = str(teste[0][2])\n   \t\t\tprint type(email)\n   \t\t\tprint evento.starttime, evento.endtime, confno\n   \t\t\tmail.send(\n\t\t\tto="fndiaz02@gmail.com",#variavel email\n\t\t\tsubject="Confer\xc3\xaancia",\n\t\t\tmessage="<html>A confer\xc3\xaancia %s acaba de ser criada e voc\xc3\xaa \xc3\xa9 um membro, seguem os dados:<br>Hor\xc3\xa1rio de In\xc3\xadcio: %s<br>Hor\xc3\xa1rio de T\xc3\xa9rmino: %s<br>Pin: %s%s</html>" % (nome, confno, evento.starttime, evento.endtime, confno, pin)\n\t\t\t)\n\n   \tadmin = evento.admin_user\n   \tfor a in admin:\n   \t\tprint \'admin:\',a\n   \t\tteste = db.executesql(\'SELECT nome, email FROM usuario WHERE id = %s;\' %str(a))\n   \t\tprint \'select:\',teste[0][0], teste[0][1]\n   \t\tprint evento.starttime, evento.endtime, confno\n\n\n\t#if auth.has_membership(\'voip\'):\n\t#\tmail.send(\n\t#\t\tto="fndiaz02@gmail.com",\n\t#\t\tsubject="host adicionado",\n\t#\t\tmessage="<html>Um novo host foi adicionado pelo usu\xc3\xa1rio %s <br>nome: %s <br>vpn: %s<br><br>\xc3\x89 preciso fazer a instala\xc3\xa7\xc3\xa3o do client zabbix e bacula</html>" % (auth.user.first_name, host.nome, host.ip_chegada,)\n\t#\t\t)\n\t#elif auth.has_membership(\'internet\'):\n\t#\tmail.send(\n\t#\t\tto="fernando@ad2.com.br",\n\t#\t\tsubject="host adicionado",\n\t#\t\tmessage="<html>Um novo host foi adicionado pelo usu\xc3\xa1rio %s <br>nome: %s <br>vpn: %s<br><br>\xc3\x89 preciso fazer a instala\xc3\xa7\xc3\xa3o do client zabbix e bacula</html>" % (auth.user.first_name, host.nome, host.ip_chegada,)\n\t#\t\t)\n\n\n@auth.requires_login()\ndef cliente_host():\n\tfiltro = request.vars[\'f\']\n\tqueryset = db(db.cliente.id == filtro)\n\trows = queryset.select()\n\tcliente = rows[0]\n\tresponse.title = cliente.nome\n\tprint cliente\n\n\tnome_ant1 = request.vars[\'n1\']\n\tfuncao_ant1 = request.vars[\'p1\']\n\tnome_atual = cliente.nome\n\n\tquery = ((db.hosts.id_cliente == filtro) & (db.distro.id == db.hosts.id_distro))\n\tlinks = [dict(header=\'\',body=lambda row: A( IMG(_src=URL("static", "images", args=(row.distro.img)) ))), \n\t lambda row: A(\'Detalhes\', \n    \t\t      _class=\'btn\', \n    \t\t      _title=\'Detalhes\', \n    \t\t      _href=URL("initial", "/detalhes_nav", \n    \t\t      vars=dict(f=row.hosts.id, c=filtro, n=cliente.nome, \n    \t\t      \t\t\tn1=\'Clientes\', p1=\'show_cliente\', p=\'cliente_host\'))),\n\t lambda row: A(\'Editar\', \n    \t\t      _class=\'btn\', \n    \t\t      _title=\'Editar\', \n    \t\t      _href=URL("initial", "/edit_host", \n    \t\t      vars=dict(f=row.hosts.id, c=filtro, n=cliente.nome, \n    \t\t      \t\tn1=\'Clientes\', p1=\'show_cliente\', p=\'cliente_host\')))]\n\tdb.hosts.id.readable=False\n\tdb.distro.img.readable=False\n\t\n\tfields = (db.hosts.id, db.hosts.id_servidor, db.hosts.id_distro, db.distro.img, \n\t\t\t  db.hosts.ip_chegada, db.hosts.porta_ssh, db.hosts.gateway)\n\theaders = {\'hosts.id\':   \'ID\',\n\t\t\t   \'hosts.id_cliente\': \'Cliente\',\n               \'hosts.id_servidor\': \'Servidor\',\n               \'hosts.id_distro\': \'Distro\',\n               \'hosts.nome\': \'Nome\',\n\t           \'hosts.servicos\': \'Servicos\'}\n\tgrid = SQLFORM.grid(query=query, fields=fields, headers=headers, csv=False,\n\t\t\t\t\t\tdetails=False, searchable=False, maxtextlength=23, links=links, \n\t\t\t\t\t\tlinks_placement=\'left\', editable=False, create=False)\n\n\treturn response.render("initial/show_grid2.html", grid=grid, nome_ant1=nome_ant1, \n\t\t\t\t\t\tfuncao_ant1=funcao_ant1, nome_atual=nome_atual)\n\n@auth.requires_login()\ndef servidor_host():\n\tfiltro = request.vars[\'f\']\n\tqueryset = db(db.servidor.id == filtro)\n\trows = queryset.select()\n\tservidor = rows[0]\n\tresponse.title = servidor.nome\n\n\tnome_ant1 = request.vars[\'n1\']\n\tfuncao_ant1 = request.vars[\'p1\']\n\tnome_atual = servidor.nome\t\n\n\tdb.distro.img.readable=False\n\tdb.hosts.id.readable=False\n\tquery = ((db.hosts.id_servidor == filtro) & (db.distro.id == db.hosts.id_distro))\n\n\tlinks = [dict(header=\'\',body=lambda row: A( IMG(_src=URL("static", "images", args=(row.distro.img)) ))), \n\t lambda row: A(\'Detalhes\', \n    \t\t      _class=\'btn\', \n    \t\t      _title=\'Detalhes\', \n    \t\t      _href=URL("initial", "/detalhes_nav", \n    \t\t      vars=dict(f=row.hosts.id, c=filtro, n=servidor.nome, \n    \t\t      \t\tn1=\'Servidores\', p1=\'show_servidor\', p=\'servidor_host\'))),\n\t lambda row: A(\'Editar\', \n    \t\t      _class=\'btn\', \n    \t\t      _title=\'Editar\', \n    \t\t      _href=URL("initial", "/edit_host", \n    \t\t      vars=dict(f=row.hosts.id, c=filtro, n=servidor.nome, \n    \t\t      \t\tn1=\'Servidores\', p1=\'show_servidor\', p=\'servidor_host\')))]\n\n\tfields = (db.hosts.id, db.hosts.id_cliente, db.hosts.id_distro, db.distro.img, \n\t\t\t\tdb.hosts.ip_chegada, db.hosts.porta_ssh, db.hosts.gateway)\n\theaders = {\'hosts.id\':   \'ID\',\n\t\t\t   \'hosts.id_cliente\': \'Cliente\',\n               \'hosts.id_servidor\': \'Servidor\',\n               \'hosts.id_distro\': \'Distro\',\n               \'hosts.nome\': \'Nome\',\n\t           \'hosts.servicos\': \'Servicos\'}\n\tgrid = SQLFORM.grid(query=query, fields=fields, headers=headers, csv=False,\n\t\t\t\t\t\tdetails=False, searchable=False, maxtextlength=23, links=links, \n\t\t\t\t\t\tlinks_placement=\'left\', editable=False, create=False)\n\n\treturn response.render("initial/show_grid2.html", grid=grid, nome_ant1=nome_ant1, \n\t\t\t\t\t\tfuncao_ant1=funcao_ant1, nome_atual=nome_atual)\n\n@auth.requires_login()\ndef distro_host():\n\tfiltro = request.vars[\'f\']\n\tqueryset = db(db.distro.id == filtro)\n\trows = queryset.select()\n\tdistro = rows[0]\n\tresponse.title = distro.nome\n\n\tnome_ant1 = request.vars[\'n1\']\n\tfuncao_ant1 = request.vars[\'p1\']\n\tnome_atual = distro.nome\t\n\t\n\tdb.hosts.id.readable=False\n\tdb.distro.img.readable=False\n\tquery = ((db.hosts.id_distro == filtro) & (db.distro.id == db.hosts.id_distro))\n\tlinks = [dict(header=\'\',body=lambda row: A( IMG(_src=URL("static", "images", args=(row.distro.img)) ))), \n\t lambda row: A(\'Detalhes\', \n    \t\t      _class=\'btn\', \n    \t\t      _title=\'Detalhes\', \n    \t\t      _href=URL("initial", "/detalhes_nav", \n    \t\t      vars=dict(f=row.hosts.id, c=filtro, n=distro.nome, \n    \t\t      \t\tn1=\'Distros\', p1=\'show_distro\', p=\'distro_host\'))),\n\t lambda row: A(\'Editar\', \n    \t\t      _class=\'btn\', \n    \t\t      _title=\'Editar\', \n    \t\t      _href=URL("initial", "/edit_host", \n    \t\t      vars=dict(f=row.hosts.id, c=filtro, n=distro.nome, \n    \t\t      \t\tn1=\'Distros\', p1=\'show_distro\', p=\'distro_host\')))]\n\n\tfields = (db.hosts.id, db.hosts.id_cliente, db.hosts.id_servidor, db.distro.img, \n\t\t\t  db.hosts.ip_chegada, db.hosts.porta_ssh, db.hosts.gateway)\n\theaders = {\'hosts.id\':   \'ID\',\n\t\t\t\t\'hosts.id_cliente\': \'Cliente\',\n               \'hosts.id_servidor\': \'Servidor\',\n               \'hosts.id_distro\': \'Distro\',\n               \'hosts.nome\': \'Nome\',\n\t           \'hosts.servicos\': \'Servicos\'}\n\tgrid = SQLFORM.grid(query=query, fields=fields, headers=headers, csv=False,\n\t\t\t\t\t\tdetails=False, searchable=False, maxtextlength=23, links=links, \n\t\t\t\t\t\tlinks_placement=\'left\', editable=False, create=False)\n\n\treturn response.render("initial/show_grid2.html", grid=grid, nome_ant1=nome_ant1, \n\t\t\t\t\t\tfuncao_ant1=funcao_ant1, nome_atual=nome_atual)\n\ndef detalhes_nav():\n\t#detalhes\n\tfiltro = request.vars[\'f\'] #id_host\n\tid_cliente = request.vars[\'c\'] #id_cliente\n\tnome_ant = request.vars[\'n\'] #nome (asterisk ou agronelli ou debian)\n\tnome_ant1 = request.vars[\'n1\'] #nome (servidores ou clientes ou distros)\n\tfuncao_ant = request.vars[\'p\'] #funcao(host_servidores)\n\tfuncao_ant1 = request.vars[\'p1\'] #funcao(show_servidores)\n\t\n\n\tquery = ((db.hosts.id == filtro) & (db.hosts.id_cliente == db.cliente.id)\n\t \t    & (db.hosts.id_servidor == db.servidor.id) \n\t \t    & (db.hosts.id_distro == db.distro.id)) \n\tdetalhes = db.hosts(query)\n\t\n\t\n\treturn response.render("initial/detalhes_host.html", detalhes=detalhes, \n\t\t\t\tid_cliente=id_cliente, funcao_ant=funcao_ant, funcao_ant1=funcao_ant1, \n\t\t\t\tnome_ant=nome_ant, nome_ant1=nome_ant1, filtro=filtro)\n\n\ndef user():\n\t#if request.args(0) == \'register\':\n    #    \tdb.auth_user.bio.writable = db.auth_user.bio.readable = False\n\treturn response.render("initial/user.html", user=auth())\n\ndef register():\n\treturn auth.register()\n\ndef login():\n        return auth.login()\n\ndef account():\n    return dict(register=auth.register(),\n                login=auth.login())\n\t\ndef download():\n\treturn response.download(request, db)\n\n\n\n\t\n\n\n\n\nresponse._vars=response._caller(principal)\n'
p7
sS'snapshot'
p8
(dp9
S'exception'
p10
(dp11
S'__getslice__'
p12
S"<method-wrapper '__getslice__' of exceptions.SyntaxError object>"
p13
sS'text'
p14
S'"\\tquery = ((db.agenda.particular == \'F\') & (orderby=db.agenda.empresa))\\n"'
p15
sS'__str__'
p16
S"<method-wrapper '__str__' of exceptions.SyntaxError object>"
p17
sS'__reduce__'
p18
S'<built-in method __reduce__ of exceptions.SyntaxError object>'
p19
sS'__dict__'
p20
S'{}'
p21
sS'__sizeof__'
p22
S'<built-in method __sizeof__ of exceptions.SyntaxError object>'
p23
sS'__init__'
p24
S"<method-wrapper '__init__' of exceptions.SyntaxError object>"
p25
sS'__setattr__'
p26
S"<method-wrapper '__setattr__' of exceptions.SyntaxError object>"
p27
sS'__reduce_ex__'
p28
S'<built-in method __reduce_ex__ of exceptions.SyntaxError object>'
p29
sS'__new__'
p30
S'<built-in method __new__ of type object>'
p31
sS'__format__'
p32
S'<built-in method __format__ of exceptions.SyntaxError object>'
p33
sS'__class__'
p34
S"<type 'exceptions.SyntaxError'>"
p35
sS'filename'
p36
S"'/var/www/agenda/applications/projeto/controllers/initial.py'"
p37
sS'lineno'
p38
S'35'
p39
sS'msg'
p40
S"'invalid syntax'"
p41
sS'__doc__'
p42
S"'Invalid syntax.'"
p43
sS'__getitem__'
p44
S"<method-wrapper '__getitem__' of exceptions.SyntaxError object>"
p45
sS'__setstate__'
p46
S'<built-in method __setstate__ of exceptions.SyntaxError object>'
p47
sS'__getattribute__'
p48
S"<method-wrapper '__getattribute__' of exceptions.SyntaxError object>"
p49
sS'print_file_and_line'
p50
S'None'
p51
sS'args'
p52
S'(\'invalid syntax\', (\'/var/www/agenda/applications/projeto/controllers/initial.py\', 35, 51, "\\tquery = ((db.agenda.particular == \'F\') & (orderby=db.agenda.empresa))\\n"))'
p53
sS'__subclasshook__'
p54
S'<built-in method __subclasshook__ of type object>'
p55
sS'offset'
p56
S'51'
p57
sS'__unicode__'
p58
S'<built-in method __unicode__ of exceptions.SyntaxError object>'
p59
sS'__delattr__'
p60
S"<method-wrapper '__delattr__' of exceptions.SyntaxError object>"
p61
sS'__repr__'
p62
S"<method-wrapper '__repr__' of exceptions.SyntaxError object>"
p63
sS'__hash__'
p64
S"<method-wrapper '__hash__' of exceptions.SyntaxError object>"
p65
ssS'evalue'
p66
S'invalid syntax (initial.py, line 35)'
p67
sS'request'
p68
ccopy_reg
_reconstructor
p69
(cgluon.html
BEAUTIFY
p70
c__builtin__
object
p71
NtRp72
(dp73
S'attributes'
p74
(dp75
sS'components'
p76
(lp77
g69
(cgluon.html
TABLE
p78
g71
NtRp79
(dp80
g74
(dp81
S'level'
p82
I5
ssS'parent'
p83
Nsg76
(lp84
g69
(cgluon.html
TR
p85
g71
NtRp86
(dp87
g74
(dp88
sg83
g79
sg76
(lp89
g69
(cgluon.html
TD
p90
g71
NtRp91
(dp92
g74
(dp93
S'_style'
p94
S'font-weight:bold;vertical-align:top'
p95
ssg83
g86
sg76
(lp96
S'ajax'
p97
asbag69
(g90
g71
NtRp98
(dp99
g74
(dp100
S'_valign'
p101
S'top'
p102
ssg83
g86
sg76
(lp103
S':'
asbag69
(g90
g71
NtRp104
(dp105
g74
(dp106
sg83
g86
sg76
(lp107
g69
(g70
g71
NtRp108
(dp109
g74
(dp110
g82
I5
ssg83
g104
sg76
(lp111
S'False'
p112
asbasbasbag69
(g85
g71
NtRp113
(dp114
g74
(dp115
sg83
g79
sg76
(lp116
g69
(g90
g71
NtRp117
(dp118
g74
(dp119
g94
g95
ssg83
g113
sg76
(lp120
S'application'
p121
asbag69
(g90
g71
NtRp122
(dp123
g74
(dp124
g101
g102
ssg83
g113
sg76
(lp125
S':'
asbag69
(g90
g71
NtRp126
(dp127
g74
(dp128
sg83
g113
sg76
(lp129
g69
(g70
g71
NtRp130
(dp131
g74
(dp132
g82
I5
ssg83
g126
sg76
(lp133
S'projeto'
p134
asbasbasbag69
(g85
g71
NtRp135
(dp136
g74
(dp137
sg83
g79
sg76
(lp138
g69
(g90
g71
NtRp139
(dp140
g74
(dp141
g94
g95
ssg83
g135
sg76
(lp142
g52
asbag69
(g90
g71
NtRp143
(dp144
g74
(dp145
g101
g102
ssg83
g135
sg76
(lp146
S':'
asbag69
(g90
g71
NtRp147
(dp148
g74
(dp149
sg83
g135
sg76
(lp150
g69
(g70
g71
NtRp151
(dp152
g74
(dp153
g82
I5
ssg83
g147
sg76
(lp154
g69
(g78
g71
NtRp155
(dp156
g74
(dp157
g82
I4
ssg83
Nsg76
(lp158
sbasbasbasbag69
(g85
g71
NtRp159
(dp160
g74
(dp161
sg83
g79
sg76
(lp162
g69
(g90
g71
NtRp163
(dp164
g74
(dp165
g94
g95
ssg83
g159
sg76
(lp166
S'body'
p167
asbag69
(g90
g71
NtRp168
(dp169
g74
(dp170
g101
g102
ssg83
g159
sg76
(lp171
S':'
asbag69
(g90
g71
NtRp172
(dp173
g74
(dp174
sg83
g159
sg76
(lp175
g69
(g70
g71
NtRp176
(dp177
g74
(dp178
g82
I5
ssg83
g172
sg76
(lp179
S'<cStringIO.StringO object at 0x7f69ac16f730>'
p180
asbasbasbag69
(g85
g71
NtRp181
(dp182
g74
(dp183
sg83
g79
sg76
(lp184
g69
(g90
g71
NtRp185
(dp186
g74
(dp187
g94
g95
ssg83
g181
sg76
(lp188
S'cid'
p189
asbag69
(g90
g71
NtRp190
(dp191
g74
(dp192
g101
g102
ssg83
g181
sg76
(lp193
S':'
asbag69
(g90
g71
NtRp194
(dp195
g74
(dp196
sg83
g181
sg76
(lp197
g69
(g70
g71
NtRp198
(dp199
g74
(dp200
g82
I5
ssg83
g194
sg76
(lp201
S'None'
p202
asbasbasbag69
(g85
g71
NtRp203
(dp204
g74
(dp205
sg83
g79
sg76
(lp206
g69
(g90
g71
NtRp207
(dp208
g74
(dp209
g94
g95
ssg83
g203
sg76
(lp210
S'client'
p211
asbag69
(g90
g71
NtRp212
(dp213
g74
(dp214
g101
g102
ssg83
g203
sg76
(lp215
S':'
asbag69
(g90
g71
NtRp216
(dp217
g74
(dp218
sg83
g203
sg76
(lp219
g69
(g70
g71
NtRp220
(dp221
g74
(dp222
g82
I5
ssg83
g216
sg76
(lp223
S'127.0.0.1'
p224
asbasbasbag69
(g85
g71
NtRp225
(dp226
g74
(dp227
sg83
g79
sg76
(lp228
g69
(g90
g71
NtRp229
(dp230
g74
(dp231
g94
g95
ssg83
g225
sg76
(lp232
S'controller'
p233
asbag69
(g90
g71
NtRp234
(dp235
g74
(dp236
g101
g102
ssg83
g225
sg76
(lp237
S':'
asbag69
(g90
g71
NtRp238
(dp239
g74
(dp240
sg83
g225
sg76
(lp241
g69
(g70
g71
NtRp242
(dp243
g74
(dp244
g82
I5
ssg83
g238
sg76
(lp245
S'initial'
p246
asbasbasbag69
(g85
g71
NtRp247
(dp248
g74
(dp249
sg83
g79
sg76
(lp250
g69
(g90
g71
NtRp251
(dp252
g74
(dp253
g94
g95
ssg83
g247
sg76
(lp254
S'cookies'
p255
asbag69
(g90
g71
NtRp256
(dp257
g74
(dp258
g101
g102
ssg83
g247
sg76
(lp259
S':'
asbag69
(g90
g71
NtRp260
(dp261
g74
(dp262
sg83
g247
sg76
(lp263
g69
(g70
g71
NtRp264
(dp265
g74
(dp266
g82
I5
ssg83
g260
sg76
(lp267
g69
(g78
g71
NtRp268
(dp269
g74
(dp270
g82
I4
ssg83
Nsg76
(lp271
g69
(g85
g71
NtRp272
(dp273
g74
(dp274
sg83
g268
sg76
(lp275
g69
(g90
g71
NtRp276
(dp277
g74
(dp278
g94
g95
ssg83
g272
sg76
(lp279
S'session_id_admin'
p280
asbag69
(g90
g71
NtRp281
(dp282
g74
(dp283
g101
g102
ssg83
g272
sg76
(lp284
S':'
asbag69
(g90
g71
NtRp285
(dp286
g74
(dp287
sg83
g272
sg76
(lp288
g69
(g70
g71
NtRp289
(dp290
g74
(dp291
g82
I4
ssg83
g285
sg76
(lp292
S'127.0.0.1-75e49fb3-5060-4b86-9e53-01beb7d67242'
p293
ag69
(g78
g71
NtRp294
(dp295
g74
(dp296
g82
I3
ssg83
Nsg76
(lp297
g69
(g85
g71
NtRp298
(dp299
g74
(dp300
sg83
g294
sg76
(lp301
g69
(g90
g71
NtRp302
(dp303
g74
(dp304
g94
g95
ssg83
g298
sg76
(lp305
S'comment'
p306
asbag69
(g90
g71
NtRp307
(dp308
g74
(dp309
g101
g102
ssg83
g298
sg76
(lp310
S':'
asbag69
(g90
g71
NtRp311
(dp312
g74
(dp313
sg83
g298
sg76
(lp314
g69
(g70
g71
NtRp315
(dp316
g74
(dp317
g82
I3
ssg83
g311
sg76
(lp318
S''
asbasbasbag69
(g85
g71
NtRp319
(dp320
g74
(dp321
sg83
g294
sg76
(lp322
g69
(g90
g71
NtRp323
(dp324
g74
(dp325
g94
g95
ssg83
g319
sg76
(lp326
S'domain'
p327
asbag69
(g90
g71
NtRp328
(dp329
g74
(dp330
g101
g102
ssg83
g319
sg76
(lp331
S':'
asbag69
(g90
g71
NtRp332
(dp333
g74
(dp334
sg83
g319
sg76
(lp335
g69
(g70
g71
NtRp336
(dp337
g74
(dp338
g82
I3
ssg83
g332
sg76
(lp339
S''
asbasbasbag69
(g85
g71
NtRp340
(dp341
g74
(dp342
sg83
g294
sg76
(lp343
g69
(g90
g71
NtRp344
(dp345
g74
(dp346
g94
g95
ssg83
g340
sg76
(lp347
S'expires'
p348
asbag69
(g90
g71
NtRp349
(dp350
g74
(dp351
g101
g102
ssg83
g340
sg76
(lp352
S':'
asbag69
(g90
g71
NtRp353
(dp354
g74
(dp355
sg83
g340
sg76
(lp356
g69
(g70
g71
NtRp357
(dp358
g74
(dp359
g82
I3
ssg83
g353
sg76
(lp360
S''
asbasbasbag69
(g85
g71
NtRp361
(dp362
g74
(dp363
sg83
g294
sg76
(lp364
g69
(g90
g71
NtRp365
(dp366
g74
(dp367
g94
g95
ssg83
g361
sg76
(lp368
S'httponly'
p369
asbag69
(g90
g71
NtRp370
(dp371
g74
(dp372
g101
g102
ssg83
g361
sg76
(lp373
S':'
asbag69
(g90
g71
NtRp374
(dp375
g74
(dp376
sg83
g361
sg76
(lp377
g69
(g70
g71
NtRp378
(dp379
g74
(dp380
g82
I3
ssg83
g374
sg76
(lp381
S''
asbasbasbag69
(g85
g71
NtRp382
(dp383
g74
(dp384
sg83
g294
sg76
(lp385
g69
(g90
g71
NtRp386
(dp387
g74
(dp388
g94
g95
ssg83
g382
sg76
(lp389
S'max-age'
p390
asbag69
(g90
g71
NtRp391
(dp392
g74
(dp393
g101
g102
ssg83
g382
sg76
(lp394
S':'
asbag69
(g90
g71
NtRp395
(dp396
g74
(dp397
sg83
g382
sg76
(lp398
g69
(g70
g71
NtRp399
(dp400
g74
(dp401
g82
I3
ssg83
g395
sg76
(lp402
S''
asbasbasbag69
(g85
g71
NtRp403
(dp404
g74
(dp405
sg83
g294
sg76
(lp406
g69
(g90
g71
NtRp407
(dp408
g74
(dp409
g94
g95
ssg83
g403
sg76
(lp410
S'path'
p411
asbag69
(g90
g71
NtRp412
(dp413
g74
(dp414
g101
g102
ssg83
g403
sg76
(lp415
S':'
asbag69
(g90
g71
NtRp416
(dp417
g74
(dp418
sg83
g403
sg76
(lp419
g69
(g70
g71
NtRp420
(dp421
g74
(dp422
g82
I3
ssg83
g416
sg76
(lp423
S''
asbasbasbag69
(g85
g71
NtRp424
(dp425
g74
(dp426
sg83
g294
sg76
(lp427
g69
(g90
g71
NtRp428
(dp429
g74
(dp430
g94
g95
ssg83
g424
sg76
(lp431
S'secure'
p432
asbag69
(g90
g71
NtRp433
(dp434
g74
(dp435
g101
g102
ssg83
g424
sg76
(lp436
S':'
asbag69
(g90
g71
NtRp437
(dp438
g74
(dp439
sg83
g424
sg76
(lp440
g69
(g70
g71
NtRp441
(dp442
g74
(dp443
g82
I3
ssg83
g437
sg76
(lp444
S''
asbasbasbag69
(g85
g71
NtRp445
(dp446
g74
(dp447
sg83
g294
sg76
(lp448
g69
(g90
g71
NtRp449
(dp450
g74
(dp451
g94
g95
ssg83
g445
sg76
(lp452
S'version'
p453
asbag69
(g90
g71
NtRp454
(dp455
g74
(dp456
g101
g102
ssg83
g445
sg76
(lp457
S':'
asbag69
(g90
g71
NtRp458
(dp459
g74
(dp460
sg83
g445
sg76
(lp461
g69
(g70
g71
NtRp462
(dp463
g74
(dp464
g82
I3
ssg83
g458
sg76
(lp465
S''
asbasbasbasbasbasbasbag69
(g85
g71
NtRp466
(dp467
g74
(dp468
sg83
g268
sg76
(lp469
g69
(g90
g71
NtRp470
(dp471
g74
(dp472
g94
g95
ssg83
g466
sg76
(lp473
S'session_id_projeto'
p474
asbag69
(g90
g71
NtRp475
(dp476
g74
(dp477
g101
g102
ssg83
g466
sg76
(lp478
S':'
asbag69
(g90
g71
NtRp479
(dp480
g74
(dp481
sg83
g466
sg76
(lp482
g69
(g70
g71
NtRp483
(dp484
g74
(dp485
g82
I4
ssg83
g479
sg76
(lp486
S'127.0.0.1-19a72540-34b2-4372-bde3-03c8ed7bedb0'
p487
ag69
(g78
g71
NtRp488
(dp489
g74
(dp490
g82
I3
ssg83
Nsg76
(lp491
g69
(g85
g71
NtRp492
(dp493
g74
(dp494
sg83
g488
sg76
(lp495
g69
(g90
g71
NtRp496
(dp497
g74
(dp498
g94
g95
ssg83
g492
sg76
(lp499
g306
asbag69
(g90
g71
NtRp500
(dp501
g74
(dp502
g101
g102
ssg83
g492
sg76
(lp503
S':'
asbag69
(g90
g71
NtRp504
(dp505
g74
(dp506
sg83
g492
sg76
(lp507
g69
(g70
g71
NtRp508
(dp509
g74
(dp510
g82
I3
ssg83
g504
sg76
(lp511
S''
asbasbasbag69
(g85
g71
NtRp512
(dp513
g74
(dp514
sg83
g488
sg76
(lp515
g69
(g90
g71
NtRp516
(dp517
g74
(dp518
g94
g95
ssg83
g512
sg76
(lp519
g327
asbag69
(g90
g71
NtRp520
(dp521
g74
(dp522
g101
g102
ssg83
g512
sg76
(lp523
S':'
asbag69
(g90
g71
NtRp524
(dp525
g74
(dp526
sg83
g512
sg76
(lp527
g69
(g70
g71
NtRp528
(dp529
g74
(dp530
g82
I3
ssg83
g524
sg76
(lp531
S''
asbasbasbag69
(g85
g71
NtRp532
(dp533
g74
(dp534
sg83
g488
sg76
(lp535
g69
(g90
g71
NtRp536
(dp537
g74
(dp538
g94
g95
ssg83
g532
sg76
(lp539
g348
asbag69
(g90
g71
NtRp540
(dp541
g74
(dp542
g101
g102
ssg83
g532
sg76
(lp543
S':'
asbag69
(g90
g71
NtRp544
(dp545
g74
(dp546
sg83
g532
sg76
(lp547
g69
(g70
g71
NtRp548
(dp549
g74
(dp550
g82
I3
ssg83
g544
sg76
(lp551
S''
asbasbasbag69
(g85
g71
NtRp552
(dp553
g74
(dp554
sg83
g488
sg76
(lp555
g69
(g90
g71
NtRp556
(dp557
g74
(dp558
g94
g95
ssg83
g552
sg76
(lp559
g369
asbag69
(g90
g71
NtRp560
(dp561
g74
(dp562
g101
g102
ssg83
g552
sg76
(lp563
S':'
asbag69
(g90
g71
NtRp564
(dp565
g74
(dp566
sg83
g552
sg76
(lp567
g69
(g70
g71
NtRp568
(dp569
g74
(dp570
g82
I3
ssg83
g564
sg76
(lp571
S''
asbasbasbag69
(g85
g71
NtRp572
(dp573
g74
(dp574
sg83
g488
sg76
(lp575
g69
(g90
g71
NtRp576
(dp577
g74
(dp578
g94
g95
ssg83
g572
sg76
(lp579
g390
asbag69
(g90
g71
NtRp580
(dp581
g74
(dp582
g101
g102
ssg83
g572
sg76
(lp583
S':'
asbag69
(g90
g71
NtRp584
(dp585
g74
(dp586
sg83
g572
sg76
(lp587
g69
(g70
g71
NtRp588
(dp589
g74
(dp590
g82
I3
ssg83
g584
sg76
(lp591
S''
asbasbasbag69
(g85
g71
NtRp592
(dp593
g74
(dp594
sg83
g488
sg76
(lp595
g69
(g90
g71
NtRp596
(dp597
g74
(dp598
g94
g95
ssg83
g592
sg76
(lp599
g411
asbag69
(g90
g71
NtRp600
(dp601
g74
(dp602
g101
g102
ssg83
g592
sg76
(lp603
S':'
asbag69
(g90
g71
NtRp604
(dp605
g74
(dp606
sg83
g592
sg76
(lp607
g69
(g70
g71
NtRp608
(dp609
g74
(dp610
g82
I3
ssg83
g604
sg76
(lp611
S''
asbasbasbag69
(g85
g71
NtRp612
(dp613
g74
(dp614
sg83
g488
sg76
(lp615
g69
(g90
g71
NtRp616
(dp617
g74
(dp618
g94
g95
ssg83
g612
sg76
(lp619
g432
asbag69
(g90
g71
NtRp620
(dp621
g74
(dp622
g101
g102
ssg83
g612
sg76
(lp623
S':'
asbag69
(g90
g71
NtRp624
(dp625
g74
(dp626
sg83
g612
sg76
(lp627
g69
(g70
g71
NtRp628
(dp629
g74
(dp630
g82
I3
ssg83
g624
sg76
(lp631
S''
asbasbasbag69
(g85
g71
NtRp632
(dp633
g74
(dp634
sg83
g488
sg76
(lp635
g69
(g90
g71
NtRp636
(dp637
g74
(dp638
g94
g95
ssg83
g632
sg76
(lp639
g453
asbag69
(g90
g71
NtRp640
(dp641
g74
(dp642
g101
g102
ssg83
g632
sg76
(lp643
S':'
asbag69
(g90
g71
NtRp644
(dp645
g74
(dp646
sg83
g632
sg76
(lp647
g69
(g70
g71
NtRp648
(dp649
g74
(dp650
g82
I3
ssg83
g644
sg76
(lp651
S''
asbasbasbasbasbasbasbasbasbasbasbag69
(g85
g71
NtRp652
(dp653
g74
(dp654
sg83
g79
sg76
(lp655
g69
(g90
g71
NtRp656
(dp657
g74
(dp658
g94
g95
ssg83
g652
sg76
(lp659
S'env'
p660
asbag69
(g90
g71
NtRp661
(dp662
g74
(dp663
g101
g102
ssg83
g652
sg76
(lp664
S':'
asbag69
(g90
g71
NtRp665
(dp666
g74
(dp667
sg83
g652
sg76
(lp668
g69
(g70
g71
NtRp669
(dp670
g74
(dp671
g82
I5
ssg83
g665
sg76
(lp672
g69
(g78
g71
NtRp673
(dp674
g74
(dp675
g82
I4
ssg83
Nsg76
(lp676
g69
(g85
g71
NtRp677
(dp678
g74
(dp679
sg83
g673
sg76
(lp680
g69
(g90
g71
NtRp681
(dp682
g74
(dp683
g94
g95
ssg83
g677
sg76
(lp684
S'app_folders'
p685
asbag69
(g90
g71
NtRp686
(dp687
g74
(dp688
g101
g102
ssg83
g677
sg76
(lp689
S':'
asbag69
(g90
g71
NtRp690
(dp691
g74
(dp692
sg83
g677
sg76
(lp693
g69
(g70
g71
NtRp694
(dp695
g74
(dp696
g82
I4
ssg83
g690
sg76
(lp697
S"set(['/var/www/agenda/applications/admin/', '/var/www/agenda/applications/projeto/'])"
p698
asbasbasbag69
(g85
g71
NtRp699
(dp700
g74
(dp701
sg83
g673
sg76
(lp702
g69
(g90
g71
NtRp703
(dp704
g74
(dp705
g94
g95
ssg83
g699
sg76
(lp706
S'applications_parent'
p707
asbag69
(g90
g71
NtRp708
(dp709
g74
(dp710
g101
g102
ssg83
g699
sg76
(lp711
S':'
asbag69
(g90
g71
NtRp712
(dp713
g74
(dp714
sg83
g699
sg76
(lp715
g69
(g70
g71
NtRp716
(dp717
g74
(dp718
g82
I4
ssg83
g712
sg76
(lp719
S'/var/www/agenda'
p720
asbasbasbag69
(g85
g71
NtRp721
(dp722
g74
(dp723
sg83
g673
sg76
(lp724
g69
(g90
g71
NtRp725
(dp726
g74
(dp727
g94
g95
ssg83
g721
sg76
(lp728
S'cmd_args'
p729
asbag69
(g90
g71
NtRp730
(dp731
g74
(dp732
g101
g102
ssg83
g721
sg76
(lp733
S':'
asbag69
(g90
g71
NtRp734
(dp735
g74
(dp736
sg83
g721
sg76
(lp737
g69
(g70
g71
NtRp738
(dp739
g74
(dp740
g82
I4
ssg83
g734
sg76
(lp741
g69
(g78
g71
NtRp742
(dp743
g74
(dp744
g82
I3
ssg83
Nsg76
(lp745
sbasbasbasbag69
(g85
g71
NtRp746
(dp747
g74
(dp748
sg83
g673
sg76
(lp749
g69
(g90
g71
NtRp750
(dp751
g74
(dp752
g94
g95
ssg83
g746
sg76
(lp753
S'cmd_options'
p754
asbag69
(g90
g71
NtRp755
(dp756
g74
(dp757
g101
g102
ssg83
g746
sg76
(lp758
S':'
asbag69
(g90
g71
NtRp759
(dp760
g74
(dp761
sg83
g746
sg76
(lp762
g69
(g70
g71
NtRp763
(dp764
g74
(dp765
g82
I4
ssg83
g759
sg76
(lp766
S"<Values at 0x3221170: {'verbose': False, 'ip': '127.0.0.1', 'with_scheduler': False, 'ips': [], 'shutdown_timeout': 5, 'taskbar': False, 'port': 8000, 'maxthreads': None, 'softcron': False, 'server_name': 'fernando-workstation', 'bpython': False, 'nogui': False, 'pid_filename': 'httpserver.pid', 'extcron': False, 'runcron': False, 'run_system_tests': False, 'test': None, 'folder': '/var/www/agenda', 'config': '', 'minthreads': None, 'winservice': '', 'shell': None, 'run': '', 'log_filename': 'httpserver.log', 'debuglevel': 30, 'args': [''], 'socket_timeout': 5, 'ssl_ca_certificate': None, 'scheduler': None, 'profiler_filename': None, 'ssl_private_key': '', 'scheduler_groups': None, 'password': '123456', 'request_queue_size': 5, 'ssl_certificate': '', 'cronjob': False, 'numthreads': None, 'quiet': False, 'interfaces': None, 'import_models': False, 'timeout': 10, 'plain': False, 'nobanner': False}>"
p767
asbasbasbag69
(g85
g71
NtRp768
(dp769
g74
(dp770
sg83
g673
sg76
(lp771
g69
(g90
g71
NtRp772
(dp773
g74
(dp774
g94
g95
ssg83
g768
sg76
(lp775
S'db_sessions'
p776
asbag69
(g90
g71
NtRp777
(dp778
g74
(dp779
g101
g102
ssg83
g768
sg76
(lp780
S':'
asbag69
(g90
g71
NtRp781
(dp782
g74
(dp783
sg83
g768
sg76
(lp784
g69
(g70
g71
NtRp785
(dp786
g74
(dp787
g82
I4
ssg83
g781
sg76
(lp788
S'set([])'
p789
asbasbasbag69
(g85
g71
NtRp790
(dp791
g74
(dp792
sg83
g673
sg76
(lp793
g69
(g90
g71
NtRp794
(dp795
g74
(dp796
g94
g95
ssg83
g790
sg76
(lp797
S'debugging'
p798
asbag69
(g90
g71
NtRp799
(dp800
g74
(dp801
g101
g102
ssg83
g790
sg76
(lp802
S':'
asbag69
(g90
g71
NtRp803
(dp804
g74
(dp805
sg83
g790
sg76
(lp806
g69
(g70
g71
NtRp807
(dp808
g74
(dp809
g82
I4
ssg83
g803
sg76
(lp810
g112
asbasbasbag69
(g85
g71
NtRp811
(dp812
g74
(dp813
sg83
g673
sg76
(lp814
g69
(g90
g71
NtRp815
(dp816
g74
(dp817
g94
g95
ssg83
g811
sg76
(lp818
S'gluon_parent'
p819
asbag69
(g90
g71
NtRp820
(dp821
g74
(dp822
g101
g102
ssg83
g811
sg76
(lp823
S':'
asbag69
(g90
g71
NtRp824
(dp825
g74
(dp826
sg83
g811
sg76
(lp827
g69
(g70
g71
NtRp828
(dp829
g74
(dp830
g82
I4
ssg83
g824
sg76
(lp831
S'/var/www/agenda'
p832
asbasbasbag69
(g85
g71
NtRp833
(dp834
g74
(dp835
sg83
g673
sg76
(lp836
g69
(g90
g71
NtRp837
(dp838
g74
(dp839
g94
g95
ssg83
g833
sg76
(lp840
S'http_accept'
p841
asbag69
(g90
g71
NtRp842
(dp843
g74
(dp844
g101
g102
ssg83
g833
sg76
(lp845
S':'
asbag69
(g90
g71
NtRp846
(dp847
g74
(dp848
sg83
g833
sg76
(lp849
g69
(g70
g71
NtRp850
(dp851
g74
(dp852
g82
I4
ssg83
g846
sg76
(lp853
S'text/html,application/xhtml+xml,application/xml;q=0.9,*/*;q=0.8'
p854
asbasbasbag69
(g85
g71
NtRp855
(dp856
g74
(dp857
sg83
g673
sg76
(lp858
g69
(g90
g71
NtRp859
(dp860
g74
(dp861
g94
g95
ssg83
g855
sg76
(lp862
S'http_accept_charset'
p863
asbag69
(g90
g71
NtRp864
(dp865
g74
(dp866
g101
g102
ssg83
g855
sg76
(lp867
S':'
asbag69
(g90
g71
NtRp868
(dp869
g74
(dp870
sg83
g855
sg76
(lp871
g69
(g70
g71
NtRp872
(dp873
g74
(dp874
g82
I4
ssg83
g868
sg76
(lp875
S'ISO-8859-1,utf-8;q=0.7,*;q=0.3'
p876
asbasbasbag69
(g85
g71
NtRp877
(dp878
g74
(dp879
sg83
g673
sg76
(lp880
g69
(g90
g71
NtRp881
(dp882
g74
(dp883
g94
g95
ssg83
g877
sg76
(lp884
S'http_accept_encoding'
p885
asbag69
(g90
g71
NtRp886
(dp887
g74
(dp888
g101
g102
ssg83
g877
sg76
(lp889
S':'
asbag69
(g90
g71
NtRp890
(dp891
g74
(dp892
sg83
g877
sg76
(lp893
g69
(g70
g71
NtRp894
(dp895
g74
(dp896
g82
I4
ssg83
g890
sg76
(lp897
S'gzip,deflate,sdch'
p898
asbasbasbag69
(g85
g71
NtRp899
(dp900
g74
(dp901
sg83
g673
sg76
(lp902
g69
(g90
g71
NtRp903
(dp904
g74
(dp905
g94
g95
ssg83
g899
sg76
(lp906
S'http_accept_language'
p907
asbag69
(g90
g71
NtRp908
(dp909
g74
(dp910
g101
g102
ssg83
g899
sg76
(lp911
S':'
asbag69
(g90
g71
NtRp912
(dp913
g74
(dp914
sg83
g899
sg76
(lp915
g69
(g70
g71
NtRp916
(dp917
g74
(dp918
g82
I4
ssg83
g912
sg76
(lp919
S'pt-BR,pt;q=0.8,en-US;q=0.6,en;q=0.4'
p920
asbasbasbag69
(g85
g71
NtRp921
(dp922
g74
(dp923
sg83
g673
sg76
(lp924
g69
(g90
g71
NtRp925
(dp926
g74
(dp927
g94
g95
ssg83
g921
sg76
(lp928
S'http_connection'
p929
asbag69
(g90
g71
NtRp930
(dp931
g74
(dp932
g101
g102
ssg83
g921
sg76
(lp933
S':'
asbag69
(g90
g71
NtRp934
(dp935
g74
(dp936
sg83
g921
sg76
(lp937
g69
(g70
g71
NtRp938
(dp939
g74
(dp940
g82
I4
ssg83
g934
sg76
(lp941
S'keep-alive'
p942
asbasbasbag69
(g85
g71
NtRp943
(dp944
g74
(dp945
sg83
g673
sg76
(lp946
g69
(g90
g71
NtRp947
(dp948
g74
(dp949
g94
g95
ssg83
g943
sg76
(lp950
S'http_cookie'
p951
asbag69
(g90
g71
NtRp952
(dp953
g74
(dp954
g101
g102
ssg83
g943
sg76
(lp955
S':'
asbag69
(g90
g71
NtRp956
(dp957
g74
(dp958
sg83
g943
sg76
(lp959
g69
(g70
g71
NtRp960
(dp961
g74
(dp962
g82
I4
ssg83
g956
sg76
(lp963
S'session_id_admin=127.0.0.1-75e49fb3-5060-4b86-9e53-01beb7d67242; session_id_projeto=127.0.0.1-19a72540-34b2-4372-bde3-03c8ed7bedb0'
p964
asbasbasbag69
(g85
g71
NtRp965
(dp966
g74
(dp967
sg83
g673
sg76
(lp968
g69
(g90
g71
NtRp969
(dp970
g74
(dp971
g94
g95
ssg83
g965
sg76
(lp972
S'http_host'
p973
asbag69
(g90
g71
NtRp974
(dp975
g74
(dp976
g101
g102
ssg83
g965
sg76
(lp977
S':'
asbag69
(g90
g71
NtRp978
(dp979
g74
(dp980
sg83
g965
sg76
(lp981
g69
(g70
g71
NtRp982
(dp983
g74
(dp984
g82
I4
ssg83
g978
sg76
(lp985
S'127.0.0.1:8000'
p986
asbasbasbag69
(g85
g71
NtRp987
(dp988
g74
(dp989
sg83
g673
sg76
(lp990
g69
(g90
g71
NtRp991
(dp992
g74
(dp993
g94
g95
ssg83
g987
sg76
(lp994
S'http_user_agent'
p995
asbag69
(g90
g71
NtRp996
(dp997
g74
(dp998
g101
g102
ssg83
g987
sg76
(lp999
S':'
asbag69
(g90
g71
NtRp1000
(dp1001
g74
(dp1002
sg83
g987
sg76
(lp1003
g69
(g70
g71
NtRp1004
(dp1005
g74
(dp1006
g82
I4
ssg83
g1000
sg76
(lp1007
S'Mozilla/5.0 (X11; Linux x86_64) AppleWebKit/537.4 (KHTML, like Gecko) Ubuntu/12.10 Chromium/22.0.1229.94 Chrome/22.0.1229.94 Safari/537.4'
p1008
asbasbasbag69
(g85
g71
NtRp1009
(dp1010
g74
(dp1011
sg83
g673
sg76
(lp1012
g69
(g90
g71
NtRp1013
(dp1014
g74
(dp1015
g94
g95
ssg83
g1009
sg76
(lp1016
S'is_jython'
p1017
asbag69
(g90
g71
NtRp1018
(dp1019
g74
(dp1020
g101
g102
ssg83
g1009
sg76
(lp1021
S':'
asbag69
(g90
g71
NtRp1022
(dp1023
g74
(dp1024
sg83
g1009
sg76
(lp1025
g69
(g70
g71
NtRp1026
(dp1027
g74
(dp1028
g82
I4
ssg83
g1022
sg76
(lp1029
g112
asbasbasbag69
(g85
g71
NtRp1030
(dp1031
g74
(dp1032
sg83
g673
sg76
(lp1033
g69
(g90
g71
NtRp1034
(dp1035
g74
(dp1036
g94
g95
ssg83
g1030
sg76
(lp1037
S'is_pypy'
p1038
asbag69
(g90
g71
NtRp1039
(dp1040
g74
(dp1041
g101
g102
ssg83
g1030
sg76
(lp1042
S':'
asbag69
(g90
g71
NtRp1043
(dp1044
g74
(dp1045
sg83
g1030
sg76
(lp1046
g69
(g70
g71
NtRp1047
(dp1048
g74
(dp1049
g82
I4
ssg83
g1043
sg76
(lp1050
g112
asbasbasbag69
(g85
g71
NtRp1051
(dp1052
g74
(dp1053
sg83
g673
sg76
(lp1054
g69
(g90
g71
NtRp1055
(dp1056
g74
(dp1057
g94
g95
ssg83
g1051
sg76
(lp1058
S'local_hosts'
p1059
asbag69
(g90
g71
NtRp1060
(dp1061
g74
(dp1062
g101
g102
ssg83
g1051
sg76
(lp1063
S':'
asbag69
(g90
g71
NtRp1064
(dp1065
g74
(dp1066
sg83
g1051
sg76
(lp1067
g69
(g70
g71
NtRp1068
(dp1069
g74
(dp1070
g82
I4
ssg83
g1064
sg76
(lp1071
g69
(g78
g71
NtRp1072
(dp1073
g74
(dp1074
g82
I3
ssg83
Nsg76
(lp1075
g69
(g85
g71
NtRp1076
(dp1077
g74
(dp1078
sg83
g1072
sg76
(lp1079
g69
(g90
g71
NtRp1080
(dp1081
g74
(dp1082
sg83
g1076
sg76
(lp1083
g69
(g70
g71
NtRp1084
(dp1085
g74
(dp1086
g82
I3
ssg83
g1080
sg76
(lp1087
S'::1'
p1088
asbasbasbag69
(g85
g71
NtRp1089
(dp1090
g74
(dp1091
sg83
g1072
sg76
(lp1092
g69
(g90
g71
NtRp1093
(dp1094
g74
(dp1095
sg83
g1089
sg76
(lp1096
g69
(g70
g71
NtRp1097
(dp1098
g74
(dp1099
g82
I3
ssg83
g1093
sg76
(lp1100
S'::ffff:127.0.0.1'
p1101
asbasbasbag69
(g85
g71
NtRp1102
(dp1103
g74
(dp1104
sg83
g1072
sg76
(lp1105
g69
(g90
g71
NtRp1106
(dp1107
g74
(dp1108
sg83
g1102
sg76
(lp1109
g69
(g70
g71
NtRp1110
(dp1111
g74
(dp1112
g82
I3
ssg83
g1106
sg76
(lp1113
S'127.0.0.1'
p1114
asbasbasbag69
(g85
g71
NtRp1115
(dp1116
g74
(dp1117
sg83
g1072
sg76
(lp1118
g69
(g90
g71
NtRp1119
(dp1120
g74
(dp1121
sg83
g1115
sg76
(lp1122
g69
(g70
g71
NtRp1123
(dp1124
g74
(dp1125
g82
I3
ssg83
g1119
sg76
(lp1126
S'fernando-workstation'
p1127
asbasbasbasbasbasbasbag69
(g85
g71
NtRp1128
(dp1129
g74
(dp1130
sg83
g673
sg76
(lp1131
g69
(g90
g71
NtRp1132
(dp1133
g74
(dp1134
g94
g95
ssg83
g1128
sg76
(lp1135
S'path_info'
p1136
asbag69
(g90
g71
NtRp1137
(dp1138
g74
(dp1139
g101
g102
ssg83
g1128
sg76
(lp1140
S':'
asbag69
(g90
g71
NtRp1141
(dp1142
g74
(dp1143
sg83
g1128
sg76
(lp1144
g69
(g70
g71
NtRp1145
(dp1146
g74
(dp1147
g82
I4
ssg83
g1141
sg76
(lp1148
S'/'
asbasbasbag69
(g85
g71
NtRp1149
(dp1150
g74
(dp1151
sg83
g673
sg76
(lp1152
g69
(g90
g71
NtRp1153
(dp1154
g74
(dp1155
g94
g95
ssg83
g1149
sg76
(lp1156
S'query_string'
p1157
asbag69
(g90
g71
NtRp1158
(dp1159
g74
(dp1160
g101
g102
ssg83
g1149
sg76
(lp1161
S':'
asbag69
(g90
g71
NtRp1162
(dp1163
g74
(dp1164
sg83
g1149
sg76
(lp1165
g69
(g70
g71
NtRp1166
(dp1167
g74
(dp1168
g82
I4
ssg83
g1162
sg76
(lp1169
S''
asbasbasbag69
(g85
g71
NtRp1170
(dp1171
g74
(dp1172
sg83
g673
sg76
(lp1173
g69
(g90
g71
NtRp1174
(dp1175
g74
(dp1176
g94
g95
ssg83
g1170
sg76
(lp1177
S'remote_addr'
p1178
asbag69
(g90
g71
NtRp1179
(dp1180
g74
(dp1181
g101
g102
ssg83
g1170
sg76
(lp1182
S':'
asbag69
(g90
g71
NtRp1183
(dp1184
g74
(dp1185
sg83
g1170
sg76
(lp1186
g69
(g70
g71
NtRp1187
(dp1188
g74
(dp1189
g82
I4
ssg83
g1183
sg76
(lp1190
g224
asbasbasbag69
(g85
g71
NtRp1191
(dp1192
g74
(dp1193
sg83
g673
sg76
(lp1194
g69
(g90
g71
NtRp1195
(dp1196
g74
(dp1197
g94
g95
ssg83
g1191
sg76
(lp1198
S'remote_port'
p1199
asbag69
(g90
g71
NtRp1200
(dp1201
g74
(dp1202
g101
g102
ssg83
g1191
sg76
(lp1203
S':'
asbag69
(g90
g71
NtRp1204
(dp1205
g74
(dp1206
sg83
g1191
sg76
(lp1207
g69
(g70
g71
NtRp1208
(dp1209
g74
(dp1210
g82
I4
ssg83
g1204
sg76
(lp1211
S'42085'
p1212
asbasbasbag69
(g85
g71
NtRp1213
(dp1214
g74
(dp1215
sg83
g673
sg76
(lp1216
g69
(g90
g71
NtRp1217
(dp1218
g74
(dp1219
g94
g95
ssg83
g1213
sg76
(lp1220
S'request_method'
p1221
asbag69
(g90
g71
NtRp1222
(dp1223
g74
(dp1224
g101
g102
ssg83
g1213
sg76
(lp1225
S':'
asbag69
(g90
g71
NtRp1226
(dp1227
g74
(dp1228
sg83
g1213
sg76
(lp1229
g69
(g70
g71
NtRp1230
(dp1231
g74
(dp1232
g82
I4
ssg83
g1226
sg76
(lp1233
S'GET'
p1234
asbasbasbag69
(g85
g71
NtRp1235
(dp1236
g74
(dp1237
sg83
g673
sg76
(lp1238
g69
(g90
g71
NtRp1239
(dp1240
g74
(dp1241
g94
g95
ssg83
g1235
sg76
(lp1242
S'request_uri'
p1243
asbag69
(g90
g71
NtRp1244
(dp1245
g74
(dp1246
g101
g102
ssg83
g1235
sg76
(lp1247
S':'
asbag69
(g90
g71
NtRp1248
(dp1249
g74
(dp1250
sg83
g1235
sg76
(lp1251
g69
(g70
g71
NtRp1252
(dp1253
g74
(dp1254
g82
I4
ssg83
g1248
sg76
(lp1255
S'/projeto/initial/principal'
p1256
asbasbasbag69
(g85
g71
NtRp1257
(dp1258
g74
(dp1259
sg83
g673
sg76
(lp1260
g69
(g90
g71
NtRp1261
(dp1262
g74
(dp1263
g94
g95
ssg83
g1257
sg76
(lp1264
S'script_name'
p1265
asbag69
(g90
g71
NtRp1266
(dp1267
g74
(dp1268
g101
g102
ssg83
g1257
sg76
(lp1269
S':'
asbag69
(g90
g71
NtRp1270
(dp1271
g74
(dp1272
sg83
g1257
sg76
(lp1273
g69
(g70
g71
NtRp1274
(dp1275
g74
(dp1276
g82
I4
ssg83
g1270
sg76
(lp1277
S''
asbasbasbag69
(g85
g71
NtRp1278
(dp1279
g74
(dp1280
sg83
g673
sg76
(lp1281
g69
(g90
g71
NtRp1282
(dp1283
g74
(dp1284
g94
g95
ssg83
g1278
sg76
(lp1285
S'server_name'
p1286
asbag69
(g90
g71
NtRp1287
(dp1288
g74
(dp1289
g101
g102
ssg83
g1278
sg76
(lp1290
S':'
asbag69
(g90
g71
NtRp1291
(dp1292
g74
(dp1293
sg83
g1278
sg76
(lp1294
g69
(g70
g71
NtRp1295
(dp1296
g74
(dp1297
g82
I4
ssg83
g1291
sg76
(lp1298
S'fernando-workstation'
p1299
asbasbasbag69
(g85
g71
NtRp1300
(dp1301
g74
(dp1302
sg83
g673
sg76
(lp1303
g69
(g90
g71
NtRp1304
(dp1305
g74
(dp1306
g94
g95
ssg83
g1300
sg76
(lp1307
S'server_port'
p1308
asbag69
(g90
g71
NtRp1309
(dp1310
g74
(dp1311
g101
g102
ssg83
g1300
sg76
(lp1312
S':'
asbag69
(g90
g71
NtRp1313
(dp1314
g74
(dp1315
sg83
g1300
sg76
(lp1316
g69
(g70
g71
NtRp1317
(dp1318
g74
(dp1319
g82
I4
ssg83
g1313
sg76
(lp1320
S'8000'
p1321
asbasbasbag69
(g85
g71
NtRp1322
(dp1323
g74
(dp1324
sg83
g673
sg76
(lp1325
g69
(g90
g71
NtRp1326
(dp1327
g74
(dp1328
g94
g95
ssg83
g1322
sg76
(lp1329
S'server_protocol'
p1330
asbag69
(g90
g71
NtRp1331
(dp1332
g74
(dp1333
g101
g102
ssg83
g1322
sg76
(lp1334
S':'
asbag69
(g90
g71
NtRp1335
(dp1336
g74
(dp1337
sg83
g1322
sg76
(lp1338
g69
(g70
g71
NtRp1339
(dp1340
g74
(dp1341
g82
I4
ssg83
g1335
sg76
(lp1342
S'HTTP/1.1'
p1343
asbasbasbag69
(g85
g71
NtRp1344
(dp1345
g74
(dp1346
sg83
g673
sg76
(lp1347
g69
(g90
g71
NtRp1348
(dp1349
g74
(dp1350
g94
g95
ssg83
g1344
sg76
(lp1351
S'server_software'
p1352
asbag69
(g90
g71
NtRp1353
(dp1354
g74
(dp1355
g101
g102
ssg83
g1344
sg76
(lp1356
S':'
asbag69
(g90
g71
NtRp1357
(dp1358
g74
(dp1359
sg83
g1344
sg76
(lp1360
g69
(g70
g71
NtRp1361
(dp1362
g74
(dp1363
g82
I4
ssg83
g1357
sg76
(lp1364
S'Rocket 1.2.6'
p1365
asbasbasbag69
(g85
g71
NtRp1366
(dp1367
g74
(dp1368
sg83
g673
sg76
(lp1369
g69
(g90
g71
NtRp1370
(dp1371
g74
(dp1372
g94
g95
ssg83
g1366
sg76
(lp1373
S'web2py_original_uri'
p1374
asbag69
(g90
g71
NtRp1375
(dp1376
g74
(dp1377
g101
g102
ssg83
g1366
sg76
(lp1378
S':'
asbag69
(g90
g71
NtRp1379
(dp1380
g74
(dp1381
sg83
g1366
sg76
(lp1382
g69
(g70
g71
NtRp1383
(dp1384
g74
(dp1385
g82
I4
ssg83
g1379
sg76
(lp1386
S'/'
asbasbasbag69
(g85
g71
NtRp1387
(dp1388
g74
(dp1389
sg83
g673
sg76
(lp1390
g69
(g90
g71
NtRp1391
(dp1392
g74
(dp1393
g94
g95
ssg83
g1387
sg76
(lp1394
S'web2py_path'
p1395
asbag69
(g90
g71
NtRp1396
(dp1397
g74
(dp1398
g101
g102
ssg83
g1387
sg76
(lp1399
S':'
asbag69
(g90
g71
NtRp1400
(dp1401
g74
(dp1402
sg83
g1387
sg76
(lp1403
g69
(g70
g71
NtRp1404
(dp1405
g74
(dp1406
g82
I4
ssg83
g1400
sg76
(lp1407
g720
asbasbasbag69
(g85
g71
NtRp1408
(dp1409
g74
(dp1410
sg83
g673
sg76
(lp1411
g69
(g90
g71
NtRp1412
(dp1413
g74
(dp1414
g94
g95
ssg83
g1408
sg76
(lp1415
S'web2py_version'
p1416
asbag69
(g90
g71
NtRp1417
(dp1418
g74
(dp1419
g101
g102
ssg83
g1408
sg76
(lp1420
S':'
asbag69
(g90
g71
NtRp1421
(dp1422
g74
(dp1423
sg83
g1408
sg76
(lp1424
g69
(g70
g71
NtRp1425
(dp1426
g74
(dp1427
g82
I4
ssg83
g1421
sg76
(lp1428
g69
(g78
g71
NtRp1429
(dp1430
g74
(dp1431
g82
I3
ssg83
Nsg76
(lp1432
g69
(g85
g71
NtRp1433
(dp1434
g74
(dp1435
sg83
g1429
sg76
(lp1436
g69
(g90
g71
NtRp1437
(dp1438
g74
(dp1439
sg83
g1433
sg76
(lp1440
g69
(g70
g71
NtRp1441
(dp1442
g74
(dp1443
g82
I3
ssg83
g1437
sg76
(lp1444
S'2'
asbasbasbag69
(g85
g71
NtRp1445
(dp1446
g74
(dp1447
sg83
g1429
sg76
(lp1448
g69
(g90
g71
NtRp1449
(dp1450
g74
(dp1451
sg83
g1445
sg76
(lp1452
g69
(g70
g71
NtRp1453
(dp1454
g74
(dp1455
g82
I3
ssg83
g1449
sg76
(lp1456
S'3'
asbasbasbag69
(g85
g71
NtRp1457
(dp1458
g74
(dp1459
sg83
g1429
sg76
(lp1460
g69
(g90
g71
NtRp1461
(dp1462
g74
(dp1463
sg83
g1457
sg76
(lp1464
g69
(g70
g71
NtRp1465
(dp1466
g74
(dp1467
g82
I3
ssg83
g1461
sg76
(lp1468
S'2'
asbasbasbag69
(g85
g71
NtRp1469
(dp1470
g74
(dp1471
sg83
g1429
sg76
(lp1472
g69
(g90
g71
NtRp1473
(dp1474
g74
(dp1475
sg83
g1469
sg76
(lp1476
g69
(g70
g71
NtRp1477
(dp1478
g74
(dp1479
g82
I3
ssg83
g1473
sg76
(lp1480
S'datetime.datetime(2012, 12, 17, 15, 3, 30)'
p1481
asbasbasbag69
(g85
g71
NtRp1482
(dp1483
g74
(dp1484
sg83
g1429
sg76
(lp1485
g69
(g90
g71
NtRp1486
(dp1487
g74
(dp1488
sg83
g1482
sg76
(lp1489
g69
(g70
g71
NtRp1490
(dp1491
g74
(dp1492
g82
I3
ssg83
g1486
sg76
(lp1493
S'stable'
p1494
asbasbasbasbasbasbasbag69
(g85
g71
NtRp1495
(dp1496
g74
(dp1497
sg83
g673
sg76
(lp1498
g69
(g90
g71
NtRp1499
(dp1500
g74
(dp1501
g94
g95
ssg83
g1495
sg76
(lp1502
S'wsgi_errors'
p1503
asbag69
(g90
g71
NtRp1504
(dp1505
g74
(dp1506
g101
g102
ssg83
g1495
sg76
(lp1507
S':'
asbag69
(g90
g71
NtRp1508
(dp1509
g74
(dp1510
sg83
g1495
sg76
(lp1511
g69
(g70
g71
NtRp1512
(dp1513
g74
(dp1514
g82
I4
ssg83
g1508
sg76
(lp1515
S"<open file '<stderr>', mode 'w' at 0x7f69cf0da270>"
p1516
asbasbasbag69
(g85
g71
NtRp1517
(dp1518
g74
(dp1519
sg83
g673
sg76
(lp1520
g69
(g90
g71
NtRp1521
(dp1522
g74
(dp1523
g94
g95
ssg83
g1517
sg76
(lp1524
S'wsgi_file_wrapper'
p1525
asbag69
(g90
g71
NtRp1526
(dp1527
g74
(dp1528
g101
g102
ssg83
g1517
sg76
(lp1529
S':'
asbag69
(g90
g71
NtRp1530
(dp1531
g74
(dp1532
sg83
g1517
sg76
(lp1533
g69
(g70
g71
NtRp1534
(dp1535
g74
(dp1536
g82
I4
ssg83
g1530
sg76
(lp1537
S'<class wsgiref.util.FileWrapper at 0x31a84c8>'
p1538
asbasbasbag69
(g85
g71
NtRp1539
(dp1540
g74
(dp1541
sg83
g673
sg76
(lp1542
g69
(g90
g71
NtRp1543
(dp1544
g74
(dp1545
g94
g95
ssg83
g1539
sg76
(lp1546
S'wsgi_input'
p1547
asbag69
(g90
g71
NtRp1548
(dp1549
g74
(dp1550
g101
g102
ssg83
g1539
sg76
(lp1551
S':'
asbag69
(g90
g71
NtRp1552
(dp1553
g74
(dp1554
sg83
g1539
sg76
(lp1555
g69
(g70
g71
NtRp1556
(dp1557
g74
(dp1558
g82
I4
ssg83
g1552
sg76
(lp1559
S'<socket._fileobject object at 0x7f69ac4aeed0>'
p1560
asbasbasbag69
(g85
g71
NtRp1561
(dp1562
g74
(dp1563
sg83
g673
sg76
(lp1564
g69
(g90
g71
NtRp1565
(dp1566
g74
(dp1567
g94
g95
ssg83
g1561
sg76
(lp1568
S'wsgi_multiprocess'
p1569
asbag69
(g90
g71
NtRp1570
(dp1571
g74
(dp1572
g101
g102
ssg83
g1561
sg76
(lp1573
S':'
asbag69
(g90
g71
NtRp1574
(dp1575
g74
(dp1576
sg83
g1561
sg76
(lp1577
g69
(g70
g71
NtRp1578
(dp1579
g74
(dp1580
g82
I4
ssg83
g1574
sg76
(lp1581
g112
asbasbasbag69
(g85
g71
NtRp1582
(dp1583
g74
(dp1584
sg83
g673
sg76
(lp1585
g69
(g90
g71
NtRp1586
(dp1587
g74
(dp1588
g94
g95
ssg83
g1582
sg76
(lp1589
S'wsgi_multithread'
p1590
asbag69
(g90
g71
NtRp1591
(dp1592
g74
(dp1593
g101
g102
ssg83
g1582
sg76
(lp1594
S':'
asbag69
(g90
g71
NtRp1595
(dp1596
g74
(dp1597
sg83
g1582
sg76
(lp1598
g69
(g70
g71
NtRp1599
(dp1600
g74
(dp1601
g82
I4
ssg83
g1595
sg76
(lp1602
S'True'
p1603
asbasbasbag69
(g85
g71
NtRp1604
(dp1605
g74
(dp1606
sg83
g673
sg76
(lp1607
g69
(g90
g71
NtRp1608
(dp1609
g74
(dp1610
g94
g95
ssg83
g1604
sg76
(lp1611
S'wsgi_run_once'
p1612
asbag69
(g90
g71
NtRp1613
(dp1614
g74
(dp1615
g101
g102
ssg83
g1604
sg76
(lp1616
S':'
asbag69
(g90
g71
NtRp1617
(dp1618
g74
(dp1619
sg83
g1604
sg76
(lp1620
g69
(g70
g71
NtRp1621
(dp1622
g74
(dp1623
g82
I4
ssg83
g1617
sg76
(lp1624
g112
asbasbasbag69
(g85
g71
NtRp1625
(dp1626
g74
(dp1627
sg83
g673
sg76
(lp1628
g69
(g90
g71
NtRp1629
(dp1630
g74
(dp1631
g94
g95
ssg83
g1625
sg76
(lp1632
S'wsgi_url_scheme'
p1633
asbag69
(g90
g71
NtRp1634
(dp1635
g74
(dp1636
g101
g102
ssg83
g1625
sg76
(lp1637
S':'
asbag69
(g90
g71
NtRp1638
(dp1639
g74
(dp1640
sg83
g1625
sg76
(lp1641
g69
(g70
g71
NtRp1642
(dp1643
g74
(dp1644
g82
I4
ssg83
g1638
sg76
(lp1645
S'http'
p1646
asbasbasbag69
(g85
g71
NtRp1647
(dp1648
g74
(dp1649
sg83
g673
sg76
(lp1650
g69
(g90
g71
NtRp1651
(dp1652
g74
(dp1653
g94
g95
ssg83
g1647
sg76
(lp1654
S'wsgi_version'
p1655
asbag69
(g90
g71
NtRp1656
(dp1657
g74
(dp1658
g101
g102
ssg83
g1647
sg76
(lp1659
S':'
asbag69
(g90
g71
NtRp1660
(dp1661
g74
(dp1662
sg83
g1647
sg76
(lp1663
g69
(g70
g71
NtRp1664
(dp1665
g74
(dp1666
g82
I4
ssg83
g1660
sg76
(lp1667
g69
(g78
g71
NtRp1668
(dp1669
g74
(dp1670
g82
I3
ssg83
Nsg76
(lp1671
g69
(g85
g71
NtRp1672
(dp1673
g74
(dp1674
sg83
g1668
sg76
(lp1675
g69
(g90
g71
NtRp1676
(dp1677
g74
(dp1678
sg83
g1672
sg76
(lp1679
g69
(g70
g71
NtRp1680
(dp1681
g74
(dp1682
g82
I3
ssg83
g1676
sg76
(lp1683
S'1'
asbasbasbag69
(g85
g71
NtRp1684
(dp1685
g74
(dp1686
sg83
g1668
sg76
(lp1687
g69
(g90
g71
NtRp1688
(dp1689
g74
(dp1690
sg83
g1684
sg76
(lp1691
g69
(g70
g71
NtRp1692
(dp1693
g74
(dp1694
g82
I3
ssg83
g1688
sg76
(lp1695
S'0'
asbasbasbasbasbasbasbasbasbasbasbag69
(g85
g71
NtRp1696
(dp1697
g74
(dp1698
sg83
g79
sg76
(lp1699
g69
(g90
g71
NtRp1700
(dp1701
g74
(dp1702
g94
g95
ssg83
g1696
sg76
(lp1703
S'extension'
p1704
asbag69
(g90
g71
NtRp1705
(dp1706
g74
(dp1707
g101
g102
ssg83
g1696
sg76
(lp1708
S':'
asbag69
(g90
g71
NtRp1709
(dp1710
g74
(dp1711
sg83
g1696
sg76
(lp1712
g69
(g70
g71
NtRp1713
(dp1714
g74
(dp1715
g82
I5
ssg83
g1709
sg76
(lp1716
S'html'
p1717
asbasbasbag69
(g85
g71
NtRp1718
(dp1719
g74
(dp1720
sg83
g79
sg76
(lp1721
g69
(g90
g71
NtRp1722
(dp1723
g74
(dp1724
g94
g95
ssg83
g1718
sg76
(lp1725
S'folder'
p1726
asbag69
(g90
g71
NtRp1727
(dp1728
g74
(dp1729
g101
g102
ssg83
g1718
sg76
(lp1730
S':'
asbag69
(g90
g71
NtRp1731
(dp1732
g74
(dp1733
sg83
g1718
sg76
(lp1734
g69
(g70
g71
NtRp1735
(dp1736
g74
(dp1737
g82
I5
ssg83
g1731
sg76
(lp1738
S'/var/www/agenda/applications/projeto/'
p1739
asbasbasbag69
(g85
g71
NtRp1740
(dp1741
g74
(dp1742
sg83
g79
sg76
(lp1743
g69
(g90
g71
NtRp1744
(dp1745
g74
(dp1746
g94
g95
ssg83
g1740
sg76
(lp1747
S'function'
p1748
asbag69
(g90
g71
NtRp1749
(dp1750
g74
(dp1751
g101
g102
ssg83
g1740
sg76
(lp1752
S':'
asbag69
(g90
g71
NtRp1753
(dp1754
g74
(dp1755
sg83
g1740
sg76
(lp1756
g69
(g70
g71
NtRp1757
(dp1758
g74
(dp1759
g82
I5
ssg83
g1753
sg76
(lp1760
S'principal'
p1761
asbasbasbag69
(g85
g71
NtRp1762
(dp1763
g74
(dp1764
sg83
g79
sg76
(lp1765
g69
(g90
g71
NtRp1766
(dp1767
g74
(dp1768
g94
g95
ssg83
g1762
sg76
(lp1769
S'get_vars'
p1770
asbag69
(g90
g71
NtRp1771
(dp1772
g74
(dp1773
g101
g102
ssg83
g1762
sg76
(lp1774
S':'
asbag69
(g90
g71
NtRp1775
(dp1776
g74
(dp1777
sg83
g1762
sg76
(lp1778
g69
(g70
g71
NtRp1779
(dp1780
g74
(dp1781
g82
I5
ssg83
g1775
sg76
(lp1782
g69
(g78
g71
NtRp1783
(dp1784
g74
(dp1785
g82
I4
ssg83
Nsg76
(lp1786
sbasbasbasbag69
(g85
g71
NtRp1787
(dp1788
g74
(dp1789
sg83
g79
sg76
(lp1790
g69
(g90
g71
NtRp1791
(dp1792
g74
(dp1793
g94
g95
ssg83
g1787
sg76
(lp1794
S'global_settings'
p1795
asbag69
(g90
g71
NtRp1796
(dp1797
g74
(dp1798
g101
g102
ssg83
g1787
sg76
(lp1799
S':'
asbag69
(g90
g71
NtRp1800
(dp1801
g74
(dp1802
sg83
g1787
sg76
(lp1803
g69
(g70
g71
NtRp1804
(dp1805
g74
(dp1806
g82
I5
ssg83
g1800
sg76
(lp1807
g69
(g78
g71
NtRp1808
(dp1809
g74
(dp1810
g82
I4
ssg83
Nsg76
(lp1811
g69
(g85
g71
NtRp1812
(dp1813
g74
(dp1814
sg83
g1808
sg76
(lp1815
g69
(g90
g71
NtRp1816
(dp1817
g74
(dp1818
g94
g95
ssg83
g1812
sg76
(lp1819
g685
asbag69
(g90
g71
NtRp1820
(dp1821
g74
(dp1822
g101
g102
ssg83
g1812
sg76
(lp1823
S':'
asbag69
(g90
g71
NtRp1824
(dp1825
g74
(dp1826
sg83
g1812
sg76
(lp1827
g69
(g70
g71
NtRp1828
(dp1829
g74
(dp1830
g82
I4
ssg83
g1824
sg76
(lp1831
S"set(['/var/www/agenda/applications/admin/', '/var/www/agenda/applications/projeto/'])"
p1832
asbasbasbag69
(g85
g71
NtRp1833
(dp1834
g74
(dp1835
sg83
g1808
sg76
(lp1836
g69
(g90
g71
NtRp1837
(dp1838
g74
(dp1839
g94
g95
ssg83
g1833
sg76
(lp1840
g707
asbag69
(g90
g71
NtRp1841
(dp1842
g74
(dp1843
g101
g102
ssg83
g1833
sg76
(lp1844
S':'
asbag69
(g90
g71
NtRp1845
(dp1846
g74
(dp1847
sg83
g1833
sg76
(lp1848
g69
(g70
g71
NtRp1849
(dp1850
g74
(dp1851
g82
I4
ssg83
g1845
sg76
(lp1852
g720
asbasbasbag69
(g85
g71
NtRp1853
(dp1854
g74
(dp1855
sg83
g1808
sg76
(lp1856
g69
(g90
g71
NtRp1857
(dp1858
g74
(dp1859
g94
g95
ssg83
g1853
sg76
(lp1860
g729
asbag69
(g90
g71
NtRp1861
(dp1862
g74
(dp1863
g101
g102
ssg83
g1853
sg76
(lp1864
S':'
asbag69
(g90
g71
NtRp1865
(dp1866
g74
(dp1867
sg83
g1853
sg76
(lp1868
g69
(g70
g71
NtRp1869
(dp1870
g74
(dp1871
g82
I4
ssg83
g1865
sg76
(lp1872
g69
(g78
g71
NtRp1873
(dp1874
g74
(dp1875
g82
I3
ssg83
Nsg76
(lp1876
sbasbasbasbag69
(g85
g71
NtRp1877
(dp1878
g74
(dp1879
sg83
g1808
sg76
(lp1880
g69
(g90
g71
NtRp1881
(dp1882
g74
(dp1883
g94
g95
ssg83
g1877
sg76
(lp1884
g754
asbag69
(g90
g71
NtRp1885
(dp1886
g74
(dp1887
g101
g102
ssg83
g1877
sg76
(lp1888
S':'
asbag69
(g90
g71
NtRp1889
(dp1890
g74
(dp1891
sg83
g1877
sg76
(lp1892
g69
(g70
g71
NtRp1893
(dp1894
g74
(dp1895
g82
I4
ssg83
g1889
sg76
(lp1896
S"<Values at 0x3221170: {'verbose': False, 'ip': '127.0.0.1', 'with_scheduler': False, 'ips': [], 'shutdown_timeout': 5, 'taskbar': False, 'port': 8000, 'maxthreads': None, 'softcron': False, 'server_name': 'fernando-workstation', 'bpython': False, 'nogui': False, 'pid_filename': 'httpserver.pid', 'extcron': False, 'runcron': False, 'run_system_tests': False, 'test': None, 'folder': '/var/www/agenda', 'config': '', 'minthreads': None, 'winservice': '', 'shell': None, 'run': '', 'log_filename': 'httpserver.log', 'debuglevel': 30, 'args': [''], 'socket_timeout': 5, 'ssl_ca_certificate': None, 'scheduler': None, 'profiler_filename': None, 'ssl_private_key': '', 'scheduler_groups': None, 'password': '123456', 'request_queue_size': 5, 'ssl_certificate': '', 'cronjob': False, 'numthreads': None, 'quiet': False, 'interfaces': None, 'import_models': False, 'timeout': 10, 'plain': False, 'nobanner': False}>"
p1897
asbasbasbag69
(g85
g71
NtRp1898
(dp1899
g74
(dp1900
sg83
g1808
sg76
(lp1901
g69
(g90
g71
NtRp1902
(dp1903
g74
(dp1904
g94
g95
ssg83
g1898
sg76
(lp1905
g776
asbag69
(g90
g71
NtRp1906
(dp1907
g74
(dp1908
g101
g102
ssg83
g1898
sg76
(lp1909
S':'
asbag69
(g90
g71
NtRp1910
(dp1911
g74
(dp1912
sg83
g1898
sg76
(lp1913
g69
(g70
g71
NtRp1914
(dp1915
g74
(dp1916
g82
I4
ssg83
g1910
sg76
(lp1917
S'set([])'
p1918
asbasbasbag69
(g85
g71
NtRp1919
(dp1920
g74
(dp1921
sg83
g1808
sg76
(lp1922
g69
(g90
g71
NtRp1923
(dp1924
g74
(dp1925
g94
g95
ssg83
g1919
sg76
(lp1926
g798
asbag69
(g90
g71
NtRp1927
(dp1928
g74
(dp1929
g101
g102
ssg83
g1919
sg76
(lp1930
S':'
asbag69
(g90
g71
NtRp1931
(dp1932
g74
(dp1933
sg83
g1919
sg76
(lp1934
g69
(g70
g71
NtRp1935
(dp1936
g74
(dp1937
g82
I4
ssg83
g1931
sg76
(lp1938
g112
asbasbasbag69
(g85
g71
NtRp1939
(dp1940
g74
(dp1941
sg83
g1808
sg76
(lp1942
g69
(g90
g71
NtRp1943
(dp1944
g74
(dp1945
g94
g95
ssg83
g1939
sg76
(lp1946
g819
asbag69
(g90
g71
NtRp1947
(dp1948
g74
(dp1949
g101
g102
ssg83
g1939
sg76
(lp1950
S':'
asbag69
(g90
g71
NtRp1951
(dp1952
g74
(dp1953
sg83
g1939
sg76
(lp1954
g69
(g70
g71
NtRp1955
(dp1956
g74
(dp1957
g82
I4
ssg83
g1951
sg76
(lp1958
g832
asbasbasbag69
(g85
g71
NtRp1959
(dp1960
g74
(dp1961
sg83
g1808
sg76
(lp1962
g69
(g90
g71
NtRp1963
(dp1964
g74
(dp1965
g94
g95
ssg83
g1959
sg76
(lp1966
g1017
asbag69
(g90
g71
NtRp1967
(dp1968
g74
(dp1969
g101
g102
ssg83
g1959
sg76
(lp1970
S':'
asbag69
(g90
g71
NtRp1971
(dp1972
g74
(dp1973
sg83
g1959
sg76
(lp1974
g69
(g70
g71
NtRp1975
(dp1976
g74
(dp1977
g82
I4
ssg83
g1971
sg76
(lp1978
g112
asbasbasbag69
(g85
g71
NtRp1979
(dp1980
g74
(dp1981
sg83
g1808
sg76
(lp1982
g69
(g90
g71
NtRp1983
(dp1984
g74
(dp1985
g94
g95
ssg83
g1979
sg76
(lp1986
g1038
asbag69
(g90
g71
NtRp1987
(dp1988
g74
(dp1989
g101
g102
ssg83
g1979
sg76
(lp1990
S':'
asbag69
(g90
g71
NtRp1991
(dp1992
g74
(dp1993
sg83
g1979
sg76
(lp1994
g69
(g70
g71
NtRp1995
(dp1996
g74
(dp1997
g82
I4
ssg83
g1991
sg76
(lp1998
g112
asbasbasbag69
(g85
g71
NtRp1999
(dp2000
g74
(dp2001
sg83
g1808
sg76
(lp2002
g69
(g90
g71
NtRp2003
(dp2004
g74
(dp2005
g94
g95
ssg83
g1999
sg76
(lp2006
g1059
asbag69
(g90
g71
NtRp2007
(dp2008
g74
(dp2009
g101
g102
ssg83
g1999
sg76
(lp2010
S':'
asbag69
(g90
g71
NtRp2011
(dp2012
g74
(dp2013
sg83
g1999
sg76
(lp2014
g69
(g70
g71
NtRp2015
(dp2016
g74
(dp2017
g82
I4
ssg83
g2011
sg76
(lp2018
g69
(g78
g71
NtRp2019
(dp2020
g74
(dp2021
g82
I3
ssg83
Nsg76
(lp2022
g69
(g85
g71
NtRp2023
(dp2024
g74
(dp2025
sg83
g2019
sg76
(lp2026
g69
(g90
g71
NtRp2027
(dp2028
g74
(dp2029
sg83
g2023
sg76
(lp2030
g69
(g70
g71
NtRp2031
(dp2032
g74
(dp2033
g82
I3
ssg83
g2027
sg76
(lp2034
g1088
asbasbasbag69
(g85
g71
NtRp2035
(dp2036
g74
(dp2037
sg83
g2019
sg76
(lp2038
g69
(g90
g71
NtRp2039
(dp2040
g74
(dp2041
sg83
g2035
sg76
(lp2042
g69
(g70
g71
NtRp2043
(dp2044
g74
(dp2045
g82
I3
ssg83
g2039
sg76
(lp2046
g1101
asbasbasbag69
(g85
g71
NtRp2047
(dp2048
g74
(dp2049
sg83
g2019
sg76
(lp2050
g69
(g90
g71
NtRp2051
(dp2052
g74
(dp2053
sg83
g2047
sg76
(lp2054
g69
(g70
g71
NtRp2055
(dp2056
g74
(dp2057
g82
I3
ssg83
g2051
sg76
(lp2058
g1114
asbasbasbag69
(g85
g71
NtRp2059
(dp2060
g74
(dp2061
sg83
g2019
sg76
(lp2062
g69
(g90
g71
NtRp2063
(dp2064
g74
(dp2065
sg83
g2059
sg76
(lp2066
g69
(g70
g71
NtRp2067
(dp2068
g74
(dp2069
g82
I3
ssg83
g2063
sg76
(lp2070
g1127
asbasbasbasbasbasbasbag69
(g85
g71
NtRp2071
(dp2072
g74
(dp2073
sg83
g1808
sg76
(lp2074
g69
(g90
g71
NtRp2075
(dp2076
g74
(dp2077
g94
g95
ssg83
g2071
sg76
(lp2078
g1416
asbag69
(g90
g71
NtRp2079
(dp2080
g74
(dp2081
g101
g102
ssg83
g2071
sg76
(lp2082
S':'
asbag69
(g90
g71
NtRp2083
(dp2084
g74
(dp2085
sg83
g2071
sg76
(lp2086
g69
(g70
g71
NtRp2087
(dp2088
g74
(dp2089
g82
I4
ssg83
g2083
sg76
(lp2090
g69
(g78
g71
NtRp2091
(dp2092
g74
(dp2093
g82
I3
ssg83
Nsg76
(lp2094
g69
(g85
g71
NtRp2095
(dp2096
g74
(dp2097
sg83
g2091
sg76
(lp2098
g69
(g90
g71
NtRp2099
(dp2100
g74
(dp2101
sg83
g2095
sg76
(lp2102
g69
(g70
g71
NtRp2103
(dp2104
g74
(dp2105
g82
I3
ssg83
g2099
sg76
(lp2106
S'2'
asbasbasbag69
(g85
g71
NtRp2107
(dp2108
g74
(dp2109
sg83
g2091
sg76
(lp2110
g69
(g90
g71
NtRp2111
(dp2112
g74
(dp2113
sg83
g2107
sg76
(lp2114
g69
(g70
g71
NtRp2115
(dp2116
g74
(dp2117
g82
I3
ssg83
g2111
sg76
(lp2118
S'3'
asbasbasbag69
(g85
g71
NtRp2119
(dp2120
g74
(dp2121
sg83
g2091
sg76
(lp2122
g69
(g90
g71
NtRp2123
(dp2124
g74
(dp2125
sg83
g2119
sg76
(lp2126
g69
(g70
g71
NtRp2127
(dp2128
g74
(dp2129
g82
I3
ssg83
g2123
sg76
(lp2130
S'2'
asbasbasbag69
(g85
g71
NtRp2131
(dp2132
g74
(dp2133
sg83
g2091
sg76
(lp2134
g69
(g90
g71
NtRp2135
(dp2136
g74
(dp2137
sg83
g2131
sg76
(lp2138
g69
(g70
g71
NtRp2139
(dp2140
g74
(dp2141
g82
I3
ssg83
g2135
sg76
(lp2142
S'datetime.datetime(2012, 12, 17, 15, 3, 30)'
p2143
asbasbasbag69
(g85
g71
NtRp2144
(dp2145
g74
(dp2146
sg83
g2091
sg76
(lp2147
g69
(g90
g71
NtRp2148
(dp2149
g74
(dp2150
sg83
g2144
sg76
(lp2151
g69
(g70
g71
NtRp2152
(dp2153
g74
(dp2154
g82
I3
ssg83
g2148
sg76
(lp2155
g1494
asbasbasbasbasbasbasbasbasbasbasbag69
(g85
g71
NtRp2156
(dp2157
g74
(dp2158
sg83
g79
sg76
(lp2159
g69
(g90
g71
NtRp2160
(dp2161
g74
(dp2162
g94
g95
ssg83
g2156
sg76
(lp2163
S'is_https'
p2164
asbag69
(g90
g71
NtRp2165
(dp2166
g74
(dp2167
g101
g102
ssg83
g2156
sg76
(lp2168
S':'
asbag69
(g90
g71
NtRp2169
(dp2170
g74
(dp2171
sg83
g2156
sg76
(lp2172
g69
(g70
g71
NtRp2173
(dp2174
g74
(dp2175
g82
I5
ssg83
g2169
sg76
(lp2176
g112
asbasbasbag69
(g85
g71
NtRp2177
(dp2178
g74
(dp2179
sg83
g79
sg76
(lp2180
g69
(g90
g71
NtRp2181
(dp2182
g74
(dp2183
g94
g95
ssg83
g2177
sg76
(lp2184
S'is_local'
p2185
asbag69
(g90
g71
NtRp2186
(dp2187
g74
(dp2188
g101
g102
ssg83
g2177
sg76
(lp2189
S':'
asbag69
(g90
g71
NtRp2190
(dp2191
g74
(dp2192
sg83
g2177
sg76
(lp2193
g69
(g70
g71
NtRp2194
(dp2195
g74
(dp2196
g82
I5
ssg83
g2190
sg76
(lp2197
g1603
asbasbasbag69
(g85
g71
NtRp2198
(dp2199
g74
(dp2200
sg83
g79
sg76
(lp2201
g69
(g90
g71
NtRp2202
(dp2203
g74
(dp2204
g94
g95
ssg83
g2198
sg76
(lp2205
S'is_restful'
p2206
asbag69
(g90
g71
NtRp2207
(dp2208
g74
(dp2209
g101
g102
ssg83
g2198
sg76
(lp2210
S':'
asbag69
(g90
g71
NtRp2211
(dp2212
g74
(dp2213
sg83
g2198
sg76
(lp2214
g69
(g70
g71
NtRp2215
(dp2216
g74
(dp2217
g82
I5
ssg83
g2211
sg76
(lp2218
g112
asbasbasbag69
(g85
g71
NtRp2219
(dp2220
g74
(dp2221
sg83
g79
sg76
(lp2222
g69
(g90
g71
NtRp2223
(dp2224
g74
(dp2225
g94
g95
ssg83
g2219
sg76
(lp2226
S'now'
p2227
asbag69
(g90
g71
NtRp2228
(dp2229
g74
(dp2230
g101
g102
ssg83
g2219
sg76
(lp2231
S':'
asbag69
(g90
g71
NtRp2232
(dp2233
g74
(dp2234
sg83
g2219
sg76
(lp2235
g69
(g70
g71
NtRp2236
(dp2237
g74
(dp2238
g82
I5
ssg83
g2232
sg76
(lp2239
S'datetime.datetime(2013, 5, 8, 13, 13, 40, 126204)'
p2240
asbasbasbag69
(g85
g71
NtRp2241
(dp2242
g74
(dp2243
sg83
g79
sg76
(lp2244
g69
(g90
g71
NtRp2245
(dp2246
g74
(dp2247
g94
g95
ssg83
g2241
sg76
(lp2248
S'post_vars'
p2249
asbag69
(g90
g71
NtRp2250
(dp2251
g74
(dp2252
g101
g102
ssg83
g2241
sg76
(lp2253
S':'
asbag69
(g90
g71
NtRp2254
(dp2255
g74
(dp2256
sg83
g2241
sg76
(lp2257
g69
(g70
g71
NtRp2258
(dp2259
g74
(dp2260
g82
I5
ssg83
g2254
sg76
(lp2261
g69
(g78
g71
NtRp2262
(dp2263
g74
(dp2264
g82
I4
ssg83
Nsg76
(lp2265
sbasbasbasbag69
(g85
g71
NtRp2266
(dp2267
g74
(dp2268
sg83
g79
sg76
(lp2269
g69
(g90
g71
NtRp2270
(dp2271
g74
(dp2272
g94
g95
ssg83
g2266
sg76
(lp2273
S'url'
p2274
asbag69
(g90
g71
NtRp2275
(dp2276
g74
(dp2277
g101
g102
ssg83
g2266
sg76
(lp2278
S':'
asbag69
(g90
g71
NtRp2279
(dp2280
g74
(dp2281
sg83
g2266
sg76
(lp2282
g69
(g70
g71
NtRp2283
(dp2284
g74
(dp2285
g82
I5
ssg83
g2279
sg76
(lp2286
S'/'
asbasbasbag69
(g85
g71
NtRp2287
(dp2288
g74
(dp2289
sg83
g79
sg76
(lp2290
g69
(g90
g71
NtRp2291
(dp2292
g74
(dp2293
g94
g95
ssg83
g2287
sg76
(lp2294
S'utcnow'
p2295
asbag69
(g90
g71
NtRp2296
(dp2297
g74
(dp2298
g101
g102
ssg83
g2287
sg76
(lp2299
S':'
asbag69
(g90
g71
NtRp2300
(dp2301
g74
(dp2302
sg83
g2287
sg76
(lp2303
g69
(g70
g71
NtRp2304
(dp2305
g74
(dp2306
g82
I5
ssg83
g2300
sg76
(lp2307
S'datetime.datetime(2013, 5, 8, 16, 13, 40, 126261)'
p2308
asbasbasbag69
(g85
g71
NtRp2309
(dp2310
g74
(dp2311
sg83
g79
sg76
(lp2312
g69
(g90
g71
NtRp2313
(dp2314
g74
(dp2315
g94
g95
ssg83
g2309
sg76
(lp2316
S'uuid'
p2317
asbag69
(g90
g71
NtRp2318
(dp2319
g74
(dp2320
g101
g102
ssg83
g2309
sg76
(lp2321
S':'
asbag69
(g90
g71
NtRp2322
(dp2323
g74
(dp2324
sg83
g2309
sg76
(lp2325
g69
(g70
g71
NtRp2326
(dp2327
g74
(dp2328
g82
I5
ssg83
g2322
sg76
(lp2329
S'projeto/127.0.0.1.2013-05-08.13-13-40.fd11828b-3095-4baf-bb4f-78727b1a0098'
p2330
asbasbasbag69
(g85
g71
NtRp2331
(dp2332
g74
(dp2333
sg83
g79
sg76
(lp2334
g69
(g90
g71
NtRp2335
(dp2336
g74
(dp2337
g94
g95
ssg83
g2331
sg76
(lp2338
S'vars'
p2339
asbag69
(g90
g71
NtRp2340
(dp2341
g74
(dp2342
g101
g102
ssg83
g2331
sg76
(lp2343
S':'
asbag69
(g90
g71
NtRp2344
(dp2345
g74
(dp2346
sg83
g2331
sg76
(lp2347
g69
(g70
g71
NtRp2348
(dp2349
g74
(dp2350
g82
I5
ssg83
g2344
sg76
(lp2351
g69
(g78
g71
NtRp2352
(dp2353
g74
(dp2354
g82
I4
ssg83
Nsg76
(lp2355
sbasbasbasbag69
(g85
g71
NtRp2356
(dp2357
g74
(dp2358
sg83
g79
sg76
(lp2359
g69
(g90
g71
NtRp2360
(dp2361
g74
(dp2362
g94
g95
ssg83
g2356
sg76
(lp2363
S'wsgi'
p2364
asbag69
(g90
g71
NtRp2365
(dp2366
g74
(dp2367
g101
g102
ssg83
g2356
sg76
(lp2368
S':'
asbag69
(g90
g71
NtRp2369
(dp2370
g74
(dp2371
sg83
g2356
sg76
(lp2372
g69
(g70
g71
NtRp2373
(dp2374
g74
(dp2375
g82
I5
ssg83
g2369
sg76
(lp2376
g69
(g78
g71
NtRp2377
(dp2378
g74
(dp2379
g82
I4
ssg83
Nsg76
(lp2380
g69
(g85
g71
NtRp2381
(dp2382
g74
(dp2383
sg83
g2377
sg76
(lp2384
g69
(g90
g71
NtRp2385
(dp2386
g74
(dp2387
g94
g95
ssg83
g2381
sg76
(lp2388
S'environ'
p2389
asbag69
(g90
g71
NtRp2390
(dp2391
g74
(dp2392
g101
g102
ssg83
g2381
sg76
(lp2393
S':'
asbag69
(g90
g71
NtRp2394
(dp2395
g74
(dp2396
sg83
g2381
sg76
(lp2397
g69
(g70
g71
NtRp2398
(dp2399
g74
(dp2400
g82
I4
ssg83
g2394
sg76
(lp2401
g69
(g78
g71
NtRp2402
(dp2403
g74
(dp2404
g82
I3
ssg83
Nsg76
(lp2405
g69
(g85
g71
NtRp2406
(dp2407
g74
(dp2408
sg83
g2402
sg76
(lp2409
g69
(g90
g71
NtRp2410
(dp2411
g74
(dp2412
g94
g95
ssg83
g2406
sg76
(lp2413
S'HTTP_ACCEPT'
p2414
asbag69
(g90
g71
NtRp2415
(dp2416
g74
(dp2417
g101
g102
ssg83
g2406
sg76
(lp2418
S':'
asbag69
(g90
g71
NtRp2419
(dp2420
g74
(dp2421
sg83
g2406
sg76
(lp2422
g69
(g70
g71
NtRp2423
(dp2424
g74
(dp2425
g82
I3
ssg83
g2419
sg76
(lp2426
g854
asbasbasbag69
(g85
g71
NtRp2427
(dp2428
g74
(dp2429
sg83
g2402
sg76
(lp2430
g69
(g90
g71
NtRp2431
(dp2432
g74
(dp2433
g94
g95
ssg83
g2427
sg76
(lp2434
S'HTTP_ACCEPT_CHARSET'
p2435
asbag69
(g90
g71
NtRp2436
(dp2437
g74
(dp2438
g101
g102
ssg83
g2427
sg76
(lp2439
S':'
asbag69
(g90
g71
NtRp2440
(dp2441
g74
(dp2442
sg83
g2427
sg76
(lp2443
g69
(g70
g71
NtRp2444
(dp2445
g74
(dp2446
g82
I3
ssg83
g2440
sg76
(lp2447
g876
asbasbasbag69
(g85
g71
NtRp2448
(dp2449
g74
(dp2450
sg83
g2402
sg76
(lp2451
g69
(g90
g71
NtRp2452
(dp2453
g74
(dp2454
g94
g95
ssg83
g2448
sg76
(lp2455
S'HTTP_ACCEPT_ENCODING'
p2456
asbag69
(g90
g71
NtRp2457
(dp2458
g74
(dp2459
g101
g102
ssg83
g2448
sg76
(lp2460
S':'
asbag69
(g90
g71
NtRp2461
(dp2462
g74
(dp2463
sg83
g2448
sg76
(lp2464
g69
(g70
g71
NtRp2465
(dp2466
g74
(dp2467
g82
I3
ssg83
g2461
sg76
(lp2468
g898
asbasbasbag69
(g85
g71
NtRp2469
(dp2470
g74
(dp2471
sg83
g2402
sg76
(lp2472
g69
(g90
g71
NtRp2473
(dp2474
g74
(dp2475
g94
g95
ssg83
g2469
sg76
(lp2476
S'HTTP_ACCEPT_LANGUAGE'
p2477
asbag69
(g90
g71
NtRp2478
(dp2479
g74
(dp2480
g101
g102
ssg83
g2469
sg76
(lp2481
S':'
asbag69
(g90
g71
NtRp2482
(dp2483
g74
(dp2484
sg83
g2469
sg76
(lp2485
g69
(g70
g71
NtRp2486
(dp2487
g74
(dp2488
g82
I3
ssg83
g2482
sg76
(lp2489
g920
asbasbasbag69
(g85
g71
NtRp2490
(dp2491
g74
(dp2492
sg83
g2402
sg76
(lp2493
g69
(g90
g71
NtRp2494
(dp2495
g74
(dp2496
g94
g95
ssg83
g2490
sg76
(lp2497
S'HTTP_CONNECTION'
p2498
asbag69
(g90
g71
NtRp2499
(dp2500
g74
(dp2501
g101
g102
ssg83
g2490
sg76
(lp2502
S':'
asbag69
(g90
g71
NtRp2503
(dp2504
g74
(dp2505
sg83
g2490
sg76
(lp2506
g69
(g70
g71
NtRp2507
(dp2508
g74
(dp2509
g82
I3
ssg83
g2503
sg76
(lp2510
g942
asbasbasbag69
(g85
g71
NtRp2511
(dp2512
g74
(dp2513
sg83
g2402
sg76
(lp2514
g69
(g90
g71
NtRp2515
(dp2516
g74
(dp2517
g94
g95
ssg83
g2511
sg76
(lp2518
S'HTTP_COOKIE'
p2519
asbag69
(g90
g71
NtRp2520
(dp2521
g74
(dp2522
g101
g102
ssg83
g2511
sg76
(lp2523
S':'
asbag69
(g90
g71
NtRp2524
(dp2525
g74
(dp2526
sg83
g2511
sg76
(lp2527
g69
(g70
g71
NtRp2528
(dp2529
g74
(dp2530
g82
I3
ssg83
g2524
sg76
(lp2531
g964
asbasbasbag69
(g85
g71
NtRp2532
(dp2533
g74
(dp2534
sg83
g2402
sg76
(lp2535
g69
(g90
g71
NtRp2536
(dp2537
g74
(dp2538
g94
g95
ssg83
g2532
sg76
(lp2539
S'HTTP_HOST'
p2540
asbag69
(g90
g71
NtRp2541
(dp2542
g74
(dp2543
g101
g102
ssg83
g2532
sg76
(lp2544
S':'
asbag69
(g90
g71
NtRp2545
(dp2546
g74
(dp2547
sg83
g2532
sg76
(lp2548
g69
(g70
g71
NtRp2549
(dp2550
g74
(dp2551
g82
I3
ssg83
g2545
sg76
(lp2552
g986
asbasbasbag69
(g85
g71
NtRp2553
(dp2554
g74
(dp2555
sg83
g2402
sg76
(lp2556
g69
(g90
g71
NtRp2557
(dp2558
g74
(dp2559
g94
g95
ssg83
g2553
sg76
(lp2560
S'HTTP_USER_AGENT'
p2561
asbag69
(g90
g71
NtRp2562
(dp2563
g74
(dp2564
g101
g102
ssg83
g2553
sg76
(lp2565
S':'
asbag69
(g90
g71
NtRp2566
(dp2567
g74
(dp2568
sg83
g2553
sg76
(lp2569
g69
(g70
g71
NtRp2570
(dp2571
g74
(dp2572
g82
I3
ssg83
g2566
sg76
(lp2573
g1008
asbasbasbag69
(g85
g71
NtRp2574
(dp2575
g74
(dp2576
sg83
g2402
sg76
(lp2577
g69
(g90
g71
NtRp2578
(dp2579
g74
(dp2580
g94
g95
ssg83
g2574
sg76
(lp2581
S'PATH_INFO'
p2582
asbag69
(g90
g71
NtRp2583
(dp2584
g74
(dp2585
g101
g102
ssg83
g2574
sg76
(lp2586
S':'
asbag69
(g90
g71
NtRp2587
(dp2588
g74
(dp2589
sg83
g2574
sg76
(lp2590
g69
(g70
g71
NtRp2591
(dp2592
g74
(dp2593
g82
I3
ssg83
g2587
sg76
(lp2594
S'/'
asbasbasbag69
(g85
g71
NtRp2595
(dp2596
g74
(dp2597
sg83
g2402
sg76
(lp2598
g69
(g90
g71
NtRp2599
(dp2600
g74
(dp2601
g94
g95
ssg83
g2595
sg76
(lp2602
S'QUERY_STRING'
p2603
asbag69
(g90
g71
NtRp2604
(dp2605
g74
(dp2606
g101
g102
ssg83
g2595
sg76
(lp2607
S':'
asbag69
(g90
g71
NtRp2608
(dp2609
g74
(dp2610
sg83
g2595
sg76
(lp2611
g69
(g70
g71
NtRp2612
(dp2613
g74
(dp2614
g82
I3
ssg83
g2608
sg76
(lp2615
S''
asbasbasbag69
(g85
g71
NtRp2616
(dp2617
g74
(dp2618
sg83
g2402
sg76
(lp2619
g69
(g90
g71
NtRp2620
(dp2621
g74
(dp2622
g94
g95
ssg83
g2616
sg76
(lp2623
S'REMOTE_ADDR'
p2624
asbag69
(g90
g71
NtRp2625
(dp2626
g74
(dp2627
g101
g102
ssg83
g2616
sg76
(lp2628
S':'
asbag69
(g90
g71
NtRp2629
(dp2630
g74
(dp2631
sg83
g2616
sg76
(lp2632
g69
(g70
g71
NtRp2633
(dp2634
g74
(dp2635
g82
I3
ssg83
g2629
sg76
(lp2636
g224
asbasbasbag69
(g85
g71
NtRp2637
(dp2638
g74
(dp2639
sg83
g2402
sg76
(lp2640
g69
(g90
g71
NtRp2641
(dp2642
g74
(dp2643
g94
g95
ssg83
g2637
sg76
(lp2644
S'REMOTE_PORT'
p2645
asbag69
(g90
g71
NtRp2646
(dp2647
g74
(dp2648
g101
g102
ssg83
g2637
sg76
(lp2649
S':'
asbag69
(g90
g71
NtRp2650
(dp2651
g74
(dp2652
sg83
g2637
sg76
(lp2653
g69
(g70
g71
NtRp2654
(dp2655
g74
(dp2656
g82
I3
ssg83
g2650
sg76
(lp2657
g1212
asbasbasbag69
(g85
g71
NtRp2658
(dp2659
g74
(dp2660
sg83
g2402
sg76
(lp2661
g69
(g90
g71
NtRp2662
(dp2663
g74
(dp2664
g94
g95
ssg83
g2658
sg76
(lp2665
S'REQUEST_METHOD'
p2666
asbag69
(g90
g71
NtRp2667
(dp2668
g74
(dp2669
g101
g102
ssg83
g2658
sg76
(lp2670
S':'
asbag69
(g90
g71
NtRp2671
(dp2672
g74
(dp2673
sg83
g2658
sg76
(lp2674
g69
(g70
g71
NtRp2675
(dp2676
g74
(dp2677
g82
I3
ssg83
g2671
sg76
(lp2678
g1234
asbasbasbag69
(g85
g71
NtRp2679
(dp2680
g74
(dp2681
sg83
g2402
sg76
(lp2682
g69
(g90
g71
NtRp2683
(dp2684
g74
(dp2685
g94
g95
ssg83
g2679
sg76
(lp2686
S'REQUEST_URI'
p2687
asbag69
(g90
g71
NtRp2688
(dp2689
g74
(dp2690
g101
g102
ssg83
g2679
sg76
(lp2691
S':'
asbag69
(g90
g71
NtRp2692
(dp2693
g74
(dp2694
sg83
g2679
sg76
(lp2695
g69
(g70
g71
NtRp2696
(dp2697
g74
(dp2698
g82
I3
ssg83
g2692
sg76
(lp2699
g1256
asbasbasbag69
(g85
g71
NtRp2700
(dp2701
g74
(dp2702
sg83
g2402
sg76
(lp2703
g69
(g90
g71
NtRp2704
(dp2705
g74
(dp2706
g94
g95
ssg83
g2700
sg76
(lp2707
S'SCRIPT_NAME'
p2708
asbag69
(g90
g71
NtRp2709
(dp2710
g74
(dp2711
g101
g102
ssg83
g2700
sg76
(lp2712
S':'
asbag69
(g90
g71
NtRp2713
(dp2714
g74
(dp2715
sg83
g2700
sg76
(lp2716
g69
(g70
g71
NtRp2717
(dp2718
g74
(dp2719
g82
I3
ssg83
g2713
sg76
(lp2720
S''
asbasbasbag69
(g85
g71
NtRp2721
(dp2722
g74
(dp2723
sg83
g2402
sg76
(lp2724
g69
(g90
g71
NtRp2725
(dp2726
g74
(dp2727
g94
g95
ssg83
g2721
sg76
(lp2728
S'SERVER_NAME'
p2729
asbag69
(g90
g71
NtRp2730
(dp2731
g74
(dp2732
g101
g102
ssg83
g2721
sg76
(lp2733
S':'
asbag69
(g90
g71
NtRp2734
(dp2735
g74
(dp2736
sg83
g2721
sg76
(lp2737
g69
(g70
g71
NtRp2738
(dp2739
g74
(dp2740
g82
I3
ssg83
g2734
sg76
(lp2741
g1299
asbasbasbag69
(g85
g71
NtRp2742
(dp2743
g74
(dp2744
sg83
g2402
sg76
(lp2745
g69
(g90
g71
NtRp2746
(dp2747
g74
(dp2748
g94
g95
ssg83
g2742
sg76
(lp2749
S'SERVER_PORT'
p2750
asbag69
(g90
g71
NtRp2751
(dp2752
g74
(dp2753
g101
g102
ssg83
g2742
sg76
(lp2754
S':'
asbag69
(g90
g71
NtRp2755
(dp2756
g74
(dp2757
sg83
g2742
sg76
(lp2758
g69
(g70
g71
NtRp2759
(dp2760
g74
(dp2761
g82
I3
ssg83
g2755
sg76
(lp2762
g1321
asbasbasbag69
(g85
g71
NtRp2763
(dp2764
g74
(dp2765
sg83
g2402
sg76
(lp2766
g69
(g90
g71
NtRp2767
(dp2768
g74
(dp2769
g94
g95
ssg83
g2763
sg76
(lp2770
S'SERVER_PROTOCOL'
p2771
asbag69
(g90
g71
NtRp2772
(dp2773
g74
(dp2774
g101
g102
ssg83
g2763
sg76
(lp2775
S':'
asbag69
(g90
g71
NtRp2776
(dp2777
g74
(dp2778
sg83
g2763
sg76
(lp2779
g69
(g70
g71
NtRp2780
(dp2781
g74
(dp2782
g82
I3
ssg83
g2776
sg76
(lp2783
g1343
asbasbasbag69
(g85
g71
NtRp2784
(dp2785
g74
(dp2786
sg83
g2402
sg76
(lp2787
g69
(g90
g71
NtRp2788
(dp2789
g74
(dp2790
g94
g95
ssg83
g2784
sg76
(lp2791
S'SERVER_SOFTWARE'
p2792
asbag69
(g90
g71
NtRp2793
(dp2794
g74
(dp2795
g101
g102
ssg83
g2784
sg76
(lp2796
S':'
asbag69
(g90
g71
NtRp2797
(dp2798
g74
(dp2799
sg83
g2784
sg76
(lp2800
g69
(g70
g71
NtRp2801
(dp2802
g74
(dp2803
g82
I3
ssg83
g2797
sg76
(lp2804
g1365
asbasbasbag69
(g85
g71
NtRp2805
(dp2806
g74
(dp2807
sg83
g2402
sg76
(lp2808
g69
(g90
g71
NtRp2809
(dp2810
g74
(dp2811
g94
g95
ssg83
g2805
sg76
(lp2812
S'WEB2PY_ORIGINAL_URI'
p2813
asbag69
(g90
g71
NtRp2814
(dp2815
g74
(dp2816
g101
g102
ssg83
g2805
sg76
(lp2817
S':'
asbag69
(g90
g71
NtRp2818
(dp2819
g74
(dp2820
sg83
g2805
sg76
(lp2821
g69
(g70
g71
NtRp2822
(dp2823
g74
(dp2824
g82
I3
ssg83
g2818
sg76
(lp2825
S'/'
asbasbasbag69
(g85
g71
NtRp2826
(dp2827
g74
(dp2828
sg83
g2402
sg76
(lp2829
g69
(g90
g71
NtRp2830
(dp2831
g74
(dp2832
g94
g95
ssg83
g2826
sg76
(lp2833
S'wsgi.errors'
p2834
asbag69
(g90
g71
NtRp2835
(dp2836
g74
(dp2837
g101
g102
ssg83
g2826
sg76
(lp2838
S':'
asbag69
(g90
g71
NtRp2839
(dp2840
g74
(dp2841
sg83
g2826
sg76
(lp2842
g69
(g70
g71
NtRp2843
(dp2844
g74
(dp2845
g82
I3
ssg83
g2839
sg76
(lp2846
S"<open file '<stderr>', mode 'w' at 0x7f69cf0da270>"
p2847
asbasbasbag69
(g85
g71
NtRp2848
(dp2849
g74
(dp2850
sg83
g2402
sg76
(lp2851
g69
(g90
g71
NtRp2852
(dp2853
g74
(dp2854
g94
g95
ssg83
g2848
sg76
(lp2855
S'wsgi.file_wrapper'
p2856
asbag69
(g90
g71
NtRp2857
(dp2858
g74
(dp2859
g101
g102
ssg83
g2848
sg76
(lp2860
S':'
asbag69
(g90
g71
NtRp2861
(dp2862
g74
(dp2863
sg83
g2848
sg76
(lp2864
g69
(g70
g71
NtRp2865
(dp2866
g74
(dp2867
g82
I3
ssg83
g2861
sg76
(lp2868
S'<class wsgiref.util.FileWrapper at 0x31a84c8>'
p2869
asbasbasbag69
(g85
g71
NtRp2870
(dp2871
g74
(dp2872
sg83
g2402
sg76
(lp2873
g69
(g90
g71
NtRp2874
(dp2875
g74
(dp2876
g94
g95
ssg83
g2870
sg76
(lp2877
S'wsgi.input'
p2878
asbag69
(g90
g71
NtRp2879
(dp2880
g74
(dp2881
g101
g102
ssg83
g2870
sg76
(lp2882
S':'
asbag69
(g90
g71
NtRp2883
(dp2884
g74
(dp2885
sg83
g2870
sg76
(lp2886
g69
(g70
g71
NtRp2887
(dp2888
g74
(dp2889
g82
I3
ssg83
g2883
sg76
(lp2890
S'<cStringIO.StringO object at 0x7f69ac16f730>'
p2891
asbasbasbag69
(g85
g71
NtRp2892
(dp2893
g74
(dp2894
sg83
g2402
sg76
(lp2895
g69
(g90
g71
NtRp2896
(dp2897
g74
(dp2898
g94
g95
ssg83
g2892
sg76
(lp2899
S'wsgi.multiprocess'
p2900
asbag69
(g90
g71
NtRp2901
(dp2902
g74
(dp2903
g101
g102
ssg83
g2892
sg76
(lp2904
S':'
asbag69
(g90
g71
NtRp2905
(dp2906
g74
(dp2907
sg83
g2892
sg76
(lp2908
g69
(g70
g71
NtRp2909
(dp2910
g74
(dp2911
g82
I3
ssg83
g2905
sg76
(lp2912
g112
asbasbasbag69
(g85
g71
NtRp2913
(dp2914
g74
(dp2915
sg83
g2402
sg76
(lp2916
g69
(g90
g71
NtRp2917
(dp2918
g74
(dp2919
g94
g95
ssg83
g2913
sg76
(lp2920
S'wsgi.multithread'
p2921
asbag69
(g90
g71
NtRp2922
(dp2923
g74
(dp2924
g101
g102
ssg83
g2913
sg76
(lp2925
S':'
asbag69
(g90
g71
NtRp2926
(dp2927
g74
(dp2928
sg83
g2913
sg76
(lp2929
g69
(g70
g71
NtRp2930
(dp2931
g74
(dp2932
g82
I3
ssg83
g2926
sg76
(lp2933
g1603
asbasbasbag69
(g85
g71
NtRp2934
(dp2935
g74
(dp2936
sg83
g2402
sg76
(lp2937
g69
(g90
g71
NtRp2938
(dp2939
g74
(dp2940
g94
g95
ssg83
g2934
sg76
(lp2941
S'wsgi.run_once'
p2942
asbag69
(g90
g71
NtRp2943
(dp2944
g74
(dp2945
g101
g102
ssg83
g2934
sg76
(lp2946
S':'
asbag69
(g90
g71
NtRp2947
(dp2948
g74
(dp2949
sg83
g2934
sg76
(lp2950
g69
(g70
g71
NtRp2951
(dp2952
g74
(dp2953
g82
I3
ssg83
g2947
sg76
(lp2954
g112
asbasbasbag69
(g85
g71
NtRp2955
(dp2956
g74
(dp2957
sg83
g2402
sg76
(lp2958
g69
(g90
g71
NtRp2959
(dp2960
g74
(dp2961
g94
g95
ssg83
g2955
sg76
(lp2962
S'wsgi.url_scheme'
p2963
asbag69
(g90
g71
NtRp2964
(dp2965
g74
(dp2966
g101
g102
ssg83
g2955
sg76
(lp2967
S':'
asbag69
(g90
g71
NtRp2968
(dp2969
g74
(dp2970
sg83
g2955
sg76
(lp2971
g69
(g70
g71
NtRp2972
(dp2973
g74
(dp2974
g82
I3
ssg83
g2968
sg76
(lp2975
g1646
asbasbasbag69
(g85
g71
NtRp2976
(dp2977
g74
(dp2978
sg83
g2402
sg76
(lp2979
g69
(g90
g71
NtRp2980
(dp2981
g74
(dp2982
g94
g95
ssg83
g2976
sg76
(lp2983
S'wsgi.version'
p2984
asbag69
(g90
g71
NtRp2985
(dp2986
g74
(dp2987
g101
g102
ssg83
g2976
sg76
(lp2988
S':'
asbag69
(g90
g71
NtRp2989
(dp2990
g74
(dp2991
sg83
g2976
sg76
(lp2992
g69
(g70
g71
NtRp2993
(dp2994
g74
(dp2995
g82
I3
ssg83
g2989
sg76
(lp2996
S'1'
asbasbasbasbasbasbasbasbasbasbasbasbasbsS'frames'
p2997
(lp2998
(dp2999
S'file'
p3000
S'/var/www/agenda/gluon/restricted.py'
p3001
sS'dump'
p3002
(dp3003
S'code'
p3004
S"'# coding=UTF-8\\n\\ndef principal():\\n\\tresponse.title...\\t\\n\\n\\n\\n\\nresponse._vars=response._caller(principal)\\n'"
p3005
sS'layer'
p3006
S"'/var/www/agenda/applications/projeto/controllers/initial.py'"
p3007
sS'global compile2'
p3008
S'<function compile2>'
p3009
sS'ccode'
p3010
S'undefined'
p3011
ssS'lnum'
p3012
I211
sS'lines'
p3013
(dp3014
I206
S"    environment['__name__'] = '__restricted__'"
p3015
sI207
S'    try:'
p3016
sI208
S'        if isinstance(code, types.CodeType):'
p3017
sI209
S'            ccode = code'
p3018
sI210
S'        else:'
p3019
sI211
S'            ccode = compile2(code, layer)'
p3020
sI212
S'        exec ccode in environment'
p3021
sI213
S'    except HTTP:'
p3022
sI214
S'        raise'
p3023
sI215
S'    except RestrictedError:'
p3024
ssS'call'
p3025
S"(code='# coding=UTF-8\\n\\ndef principal():\\n\\tresponse.title...\\t\\n\\n\\n\\n\\nresponse._vars=response._caller(principal)\\n', environment={'A': <class 'gluon.html.A'>, 'Auth': <class 'gluon.tools.Auth'>, 'B': <class 'gluon.html.B'>, 'BEAUTIFY': <class 'gluon.html.BEAUTIFY'>, 'BODY': <class 'gluon.html.BODY'>, 'BR': <class 'gluon.html.BR'>, 'BUTTON': <class 'gluon.html.BUTTON'>, 'CAT': <class 'gluon.html.CAT'>, 'CENTER': <class 'gluon.html.CENTER'>, 'CLEANUP': <class 'gluon.validators.CLEANUP'>, ...}, layer='/var/www/agenda/applications/projeto/controllers/initial.py')"
p3026
sS'func'
p3027
S'restricted'
p3028
sa(dp3029
g3000
S'/var/www/agenda/gluon/restricted.py'
p3030
sg3002
(dp3031
S'builtincompile'
p3032
S'<built-in function compile>'
p3033
sS'code'
p3034
S"'# coding=UTF-8\\n\\ndef principal():\\n\\tresponse.title...\\t\\n\\n\\n\\n\\nresponse._vars=response._caller(principal)\\n'"
p3035
sS'code.rstrip'
p3036
S'<built-in method rstrip of str object>'
p3037
sS').replace'
p3038
g3011
sS'layer'
p3039
S"'/var/www/agenda/applications/projeto/controllers/initial.py'"
p3040
ssg3012
I194
sg3013
(dp3041
I192
S"    The +'\\n' is necessary else compile fails when code ends in a comment."
p3042
sI193
S'    """'
p3043
sI194
S"    return compile(code.rstrip().replace('\\r\\n', '\\n') + '\\n', layer, 'exec')"
p3044
sI195
S''
sI196
S''
sI197
S"def restricted(code, environment=None, layer='Unknown'):"
p3045
sI198
S'    """'
p3046
sI189
S''
sI190
S'def compile2(code, layer):'
p3047
sI191
S'    """'
p3048
ssg3025
S"(code='# coding=UTF-8\\n\\ndef principal():\\n\\tresponse.title...\\t\\n\\n\\n\\n\\nresponse._vars=response._caller(principal)\\n', layer='/var/www/agenda/applications/projeto/controllers/initial.py')"
p3049
sg3027
S'compile2'
p3050
sasS'pyver'
p3051
S'Python 2.7.3: /usr/bin/python'
p3052
sS'session'
p3053
g69
(g70
g71
NtRp3054
(dp3055
g74
(dp3056
sg76
(lp3057
g69
(g78
g71
NtRp3058
(dp3059
g74
(dp3060
g82
I5
ssg83
Nsg76
(lp3061
g69
(g85
g71
NtRp3062
(dp3063
g74
(dp3064
sg83
g3058
sg76
(lp3065
g69
(g90
g71
NtRp3066
(dp3067
g74
(dp3068
g94
g95
ssg83
g3062
sg76
(lp3069
S'aut'
p3070
asbag69
(g90
g71
NtRp3071
(dp3072
g74
(dp3073
g101
g102
ssg83
g3062
sg76
(lp3074
S':'
asbag69
(g90
g71
NtRp3075
(dp3076
g74
(dp3077
sg83
g3062
sg76
(lp3078
g69
(g70
g71
NtRp3079
(dp3080
g74
(dp3081
g82
I5
ssg83
g3075
sg76
(lp3082
S'3701'
p3083
asbasbasbag69
(g85
g71
NtRp3084
(dp3085
g74
(dp3086
sg83
g3058
sg76
(lp3087
g69
(g90
g71
NtRp3088
(dp3089
g74
(dp3090
g94
g95
ssg83
g3084
sg76
(lp3091
S'flash'
p3092
asbag69
(g90
g71
NtRp3093
(dp3094
g74
(dp3095
g101
g102
ssg83
g3084
sg76
(lp3096
S':'
asbag69
(g90
g71
NtRp3097
(dp3098
g74
(dp3099
sg83
g3084
sg76
(lp3100
g69
(g70
g71
NtRp3101
(dp3102
g74
(dp3103
g82
I5
ssg83
g3097
sg76
(lp3104
S'None'
p3105
asbasbasbag69
(g85
g71
NtRp3106
(dp3107
g74
(dp3108
sg83
g3058
sg76
(lp3109
g69
(g90
g71
NtRp3110
(dp3111
g74
(dp3112
g94
g95
ssg83
g3106
sg76
(lp3113
S'ramal'
p3114
asbag69
(g90
g71
NtRp3115
(dp3116
g74
(dp3117
g101
g102
ssg83
g3106
sg76
(lp3118
S':'
asbag69
(g90
g71
NtRp3119
(dp3120
g74
(dp3121
sg83
g3106
sg76
(lp3122
g69
(g70
g71
NtRp3123
(dp3124
g74
(dp3125
g82
I5
ssg83
g3119
sg76
(lp3126
S'3701'
p3127
asbasbasbag69
(g85
g71
NtRp3128
(dp3129
g74
(dp3130
sg83
g3058
sg76
(lp3131
g69
(g90
g71
NtRp3132
(dp3133
g74
(dp3134
g94
g95
ssg83
g3128
sg76
(lp3135
S'ramal_fis'
p3136
asbag69
(g90
g71
NtRp3137
(dp3138
g74
(dp3139
g101
g102
ssg83
g3128
sg76
(lp3140
S':'
asbag69
(g90
g71
NtRp3141
(dp3142
g74
(dp3143
sg83
g3128
sg76
(lp3144
g69
(g70
g71
NtRp3145
(dp3146
g74
(dp3147
g82
I5
ssg83
g3141
sg76
(lp3148
S'S1013'
p3149
asbasbasbasbasbsS'etype'
p3150
S"<type 'exceptions.SyntaxError'>"
p3151
sS'date'
p3152
S'Wed May  8 13:13:40 2013'
p3153
sS'response'
p3154
g69
(g70
g71
NtRp3155
(dp3156
g74
(dp3157
sg76
(lp3158
g69
(g78
g71
NtRp3159
(dp3160
g74
(dp3161
g82
I5
ssg83
Nsg76
(lp3162
g69
(g85
g71
NtRp3163
(dp3164
g74
(dp3165
sg83
g3159
sg76
(lp3166
g69
(g90
g71
NtRp3167
(dp3168
g74
(dp3169
g94
g95
ssg83
g3163
sg76
(lp3170
g167
asbag69
(g90
g71
NtRp3171
(dp3172
g74
(dp3173
g101
g102
ssg83
g3163
sg76
(lp3174
S':'
asbag69
(g90
g71
NtRp3175
(dp3176
g74
(dp3177
sg83
g3163
sg76
(lp3178
g69
(g70
g71
NtRp3179
(dp3180
g74
(dp3181
g82
I5
ssg83
g3175
sg76
(lp3182
S'<cStringIO.StringO object at 0x7f69ac16fe30>'
p3183
asbasbasbag69
(g85
g71
NtRp3184
(dp3185
g74
(dp3186
sg83
g3159
sg76
(lp3187
g69
(g90
g71
NtRp3188
(dp3189
g74
(dp3190
g94
g95
ssg83
g3184
sg76
(lp3191
g255
asbag69
(g90
g71
NtRp3192
(dp3193
g74
(dp3194
g101
g102
ssg83
g3184
sg76
(lp3195
S':'
asbag69
(g90
g71
NtRp3196
(dp3197
g74
(dp3198
sg83
g3184
sg76
(lp3199
g69
(g70
g71
NtRp3200
(dp3201
g74
(dp3202
g82
I5
ssg83
g3196
sg76
(lp3203
g69
(g78
g71
NtRp3204
(dp3205
g74
(dp3206
g82
I4
ssg83
Nsg76
(lp3207
g69
(g85
g71
NtRp3208
(dp3209
g74
(dp3210
sg83
g3204
sg76
(lp3211
g69
(g90
g71
NtRp3212
(dp3213
g74
(dp3214
g94
g95
ssg83
g3208
sg76
(lp3215
S'session_id_projeto'
p3216
asbag69
(g90
g71
NtRp3217
(dp3218
g74
(dp3219
g101
g102
ssg83
g3208
sg76
(lp3220
S':'
asbag69
(g90
g71
NtRp3221
(dp3222
g74
(dp3223
sg83
g3208
sg76
(lp3224
g69
(g70
g71
NtRp3225
(dp3226
g74
(dp3227
g82
I4
ssg83
g3221
sg76
(lp3228
g487
ag69
(g78
g71
NtRp3229
(dp3230
g74
(dp3231
g82
I3
ssg83
Nsg76
(lp3232
g69
(g85
g71
NtRp3233
(dp3234
g74
(dp3235
sg83
g3229
sg76
(lp3236
g69
(g90
g71
NtRp3237
(dp3238
g74
(dp3239
g94
g95
ssg83
g3233
sg76
(lp3240
g306
asbag69
(g90
g71
NtRp3241
(dp3242
g74
(dp3243
g101
g102
ssg83
g3233
sg76
(lp3244
S':'
asbag69
(g90
g71
NtRp3245
(dp3246
g74
(dp3247
sg83
g3233
sg76
(lp3248
g69
(g70
g71
NtRp3249
(dp3250
g74
(dp3251
g82
I3
ssg83
g3245
sg76
(lp3252
S''
asbasbasbag69
(g85
g71
NtRp3253
(dp3254
g74
(dp3255
sg83
g3229
sg76
(lp3256
g69
(g90
g71
NtRp3257
(dp3258
g74
(dp3259
g94
g95
ssg83
g3253
sg76
(lp3260
g327
asbag69
(g90
g71
NtRp3261
(dp3262
g74
(dp3263
g101
g102
ssg83
g3253
sg76
(lp3264
S':'
asbag69
(g90
g71
NtRp3265
(dp3266
g74
(dp3267
sg83
g3253
sg76
(lp3268
g69
(g70
g71
NtRp3269
(dp3270
g74
(dp3271
g82
I3
ssg83
g3265
sg76
(lp3272
S''
asbasbasbag69
(g85
g71
NtRp3273
(dp3274
g74
(dp3275
sg83
g3229
sg76
(lp3276
g69
(g90
g71
NtRp3277
(dp3278
g74
(dp3279
g94
g95
ssg83
g3273
sg76
(lp3280
g348
asbag69
(g90
g71
NtRp3281
(dp3282
g74
(dp3283
g101
g102
ssg83
g3273
sg76
(lp3284
S':'
asbag69
(g90
g71
NtRp3285
(dp3286
g74
(dp3287
sg83
g3273
sg76
(lp3288
g69
(g70
g71
NtRp3289
(dp3290
g74
(dp3291
g82
I3
ssg83
g3285
sg76
(lp3292
S''
asbasbasbag69
(g85
g71
NtRp3293
(dp3294
g74
(dp3295
sg83
g3229
sg76
(lp3296
g69
(g90
g71
NtRp3297
(dp3298
g74
(dp3299
g94
g95
ssg83
g3293
sg76
(lp3300
g369
asbag69
(g90
g71
NtRp3301
(dp3302
g74
(dp3303
g101
g102
ssg83
g3293
sg76
(lp3304
S':'
asbag69
(g90
g71
NtRp3305
(dp3306
g74
(dp3307
sg83
g3293
sg76
(lp3308
g69
(g70
g71
NtRp3309
(dp3310
g74
(dp3311
g82
I3
ssg83
g3305
sg76
(lp3312
S''
asbasbasbag69
(g85
g71
NtRp3313
(dp3314
g74
(dp3315
sg83
g3229
sg76
(lp3316
g69
(g90
g71
NtRp3317
(dp3318
g74
(dp3319
g94
g95
ssg83
g3313
sg76
(lp3320
g390
asbag69
(g90
g71
NtRp3321
(dp3322
g74
(dp3323
g101
g102
ssg83
g3313
sg76
(lp3324
S':'
asbag69
(g90
g71
NtRp3325
(dp3326
g74
(dp3327
sg83
g3313
sg76
(lp3328
g69
(g70
g71
NtRp3329
(dp3330
g74
(dp3331
g82
I3
ssg83
g3325
sg76
(lp3332
S''
asbasbasbag69
(g85
g71
NtRp3333
(dp3334
g74
(dp3335
sg83
g3229
sg76
(lp3336
g69
(g90
g71
NtRp3337
(dp3338
g74
(dp3339
g94
g95
ssg83
g3333
sg76
(lp3340
g411
asbag69
(g90
g71
NtRp3341
(dp3342
g74
(dp3343
g101
g102
ssg83
g3333
sg76
(lp3344
S':'
asbag69
(g90
g71
NtRp3345
(dp3346
g74
(dp3347
sg83
g3333
sg76
(lp3348
g69
(g70
g71
NtRp3349
(dp3350
g74
(dp3351
g82
I3
ssg83
g3345
sg76
(lp3352
S'/'
asbasbasbag69
(g85
g71
NtRp3353
(dp3354
g74
(dp3355
sg83
g3229
sg76
(lp3356
g69
(g90
g71
NtRp3357
(dp3358
g74
(dp3359
g94
g95
ssg83
g3353
sg76
(lp3360
g432
asbag69
(g90
g71
NtRp3361
(dp3362
g74
(dp3363
g101
g102
ssg83
g3353
sg76
(lp3364
S':'
asbag69
(g90
g71
NtRp3365
(dp3366
g74
(dp3367
sg83
g3353
sg76
(lp3368
g69
(g70
g71
NtRp3369
(dp3370
g74
(dp3371
g82
I3
ssg83
g3365
sg76
(lp3372
S''
asbasbasbag69
(g85
g71
NtRp3373
(dp3374
g74
(dp3375
sg83
g3229
sg76
(lp3376
g69
(g90
g71
NtRp3377
(dp3378
g74
(dp3379
g94
g95
ssg83
g3373
sg76
(lp3380
g453
asbag69
(g90
g71
NtRp3381
(dp3382
g74
(dp3383
g101
g102
ssg83
g3373
sg76
(lp3384
S':'
asbag69
(g90
g71
NtRp3385
(dp3386
g74
(dp3387
sg83
g3373
sg76
(lp3388
g69
(g70
g71
NtRp3389
(dp3390
g74
(dp3391
g82
I3
ssg83
g3385
sg76
(lp3392
S''
asbasbasbasbasbasbasbasbasbasbasbag69
(g85
g71
NtRp3393
(dp3394
g74
(dp3395
sg83
g3159
sg76
(lp3396
g69
(g90
g71
NtRp3397
(dp3398
g74
(dp3399
g94
g95
ssg83
g3393
sg76
(lp3400
S'delimiters'
p3401
asbag69
(g90
g71
NtRp3402
(dp3403
g74
(dp3404
g101
g102
ssg83
g3393
sg76
(lp3405
S':'
asbag69
(g90
g71
NtRp3406
(dp3407
g74
(dp3408
sg83
g3393
sg76
(lp3409
g69
(g70
g71
NtRp3410
(dp3411
g74
(dp3412
g82
I5
ssg83
g3406
sg76
(lp3413
g69
(g78
g71
NtRp3414
(dp3415
g74
(dp3416
g82
I4
ssg83
Nsg76
(lp3417
g69
(g85
g71
NtRp3418
(dp3419
g74
(dp3420
sg83
g3414
sg76
(lp3421
g69
(g90
g71
NtRp3422
(dp3423
g74
(dp3424
sg83
g3418
sg76
(lp3425
g69
(g70
g71
NtRp3426
(dp3427
g74
(dp3428
g82
I4
ssg83
g3422
sg76
(lp3429
S'{{'
p3430
asbasbasbag69
(g85
g71
NtRp3431
(dp3432
g74
(dp3433
sg83
g3414
sg76
(lp3434
g69
(g90
g71
NtRp3435
(dp3436
g74
(dp3437
sg83
g3431
sg76
(lp3438
g69
(g70
g71
NtRp3439
(dp3440
g74
(dp3441
g82
I4
ssg83
g3435
sg76
(lp3442
S'}}'
p3443
asbasbasbasbasbasbasbag69
(g85
g71
NtRp3444
(dp3445
g74
(dp3446
sg83
g3159
sg76
(lp3447
g69
(g90
g71
NtRp3448
(dp3449
g74
(dp3450
g94
g95
ssg83
g3444
sg76
(lp3451
S'files'
p3452
asbag69
(g90
g71
NtRp3453
(dp3454
g74
(dp3455
g101
g102
ssg83
g3444
sg76
(lp3456
S':'
asbag69
(g90
g71
NtRp3457
(dp3458
g74
(dp3459
sg83
g3444
sg76
(lp3460
g69
(g70
g71
NtRp3461
(dp3462
g74
(dp3463
g82
I5
ssg83
g3457
sg76
(lp3464
g69
(g78
g71
NtRp3465
(dp3466
g74
(dp3467
g82
I4
ssg83
Nsg76
(lp3468
sbasbasbasbag69
(g85
g71
NtRp3469
(dp3470
g74
(dp3471
sg83
g3159
sg76
(lp3472
g69
(g90
g71
NtRp3473
(dp3474
g74
(dp3475
g94
g95
ssg83
g3469
sg76
(lp3476
S'flash'
p3477
asbag69
(g90
g71
NtRp3478
(dp3479
g74
(dp3480
g101
g102
ssg83
g3469
sg76
(lp3481
S':'
asbag69
(g90
g71
NtRp3482
(dp3483
g74
(dp3484
sg83
g3469
sg76
(lp3485
g69
(g70
g71
NtRp3486
(dp3487
g74
(dp3488
g82
I5
ssg83
g3482
sg76
(lp3489
S''
asbasbasbag69
(g85
g71
NtRp3490
(dp3491
g74
(dp3492
sg83
g3159
sg76
(lp3493
g69
(g90
g71
NtRp3494
(dp3495
g74
(dp3496
g94
g95
ssg83
g3490
sg76
(lp3497
S'generic_patterns'
p3498
asbag69
(g90
g71
NtRp3499
(dp3500
g74
(dp3501
g101
g102
ssg83
g3490
sg76
(lp3502
S':'
asbag69
(g90
g71
NtRp3503
(dp3504
g74
(dp3505
sg83
g3490
sg76
(lp3506
g69
(g70
g71
NtRp3507
(dp3508
g74
(dp3509
g82
I5
ssg83
g3503
sg76
(lp3510
g69
(g78
g71
NtRp3511
(dp3512
g74
(dp3513
g82
I4
ssg83
Nsg76
(lp3514
g69
(g85
g71
NtRp3515
(dp3516
g74
(dp3517
sg83
g3511
sg76
(lp3518
g69
(g90
g71
NtRp3519
(dp3520
g74
(dp3521
sg83
g3515
sg76
(lp3522
g69
(g70
g71
NtRp3523
(dp3524
g74
(dp3525
g82
I4
ssg83
g3519
sg76
(lp3526
S'*'
asbasbasbasbasbasbasbag69
(g85
g71
NtRp3527
(dp3528
g74
(dp3529
sg83
g3159
sg76
(lp3530
g69
(g90
g71
NtRp3531
(dp3532
g74
(dp3533
g94
g95
ssg83
g3527
sg76
(lp3534
S'google_analytics_id'
p3535
asbag69
(g90
g71
NtRp3536
(dp3537
g74
(dp3538
g101
g102
ssg83
g3527
sg76
(lp3539
S':'
asbag69
(g90
g71
NtRp3540
(dp3541
g74
(dp3542
sg83
g3527
sg76
(lp3543
g69
(g70
g71
NtRp3544
(dp3545
g74
(dp3546
g82
I5
ssg83
g3540
sg76
(lp3547
S'None'
p3548
asbasbasbag69
(g85
g71
NtRp3549
(dp3550
g74
(dp3551
sg83
g3159
sg76
(lp3552
g69
(g90
g71
NtRp3553
(dp3554
g74
(dp3555
g94
g95
ssg83
g3549
sg76
(lp3556
S'headers'
p3557
asbag69
(g90
g71
NtRp3558
(dp3559
g74
(dp3560
g101
g102
ssg83
g3549
sg76
(lp3561
S':'
asbag69
(g90
g71
NtRp3562
(dp3563
g74
(dp3564
sg83
g3549
sg76
(lp3565
g69
(g70
g71
NtRp3566
(dp3567
g74
(dp3568
g82
I5
ssg83
g3562
sg76
(lp3569
g69
(g78
g71
NtRp3570
(dp3571
g74
(dp3572
g82
I4
ssg83
Nsg76
(lp3573
g69
(g85
g71
NtRp3574
(dp3575
g74
(dp3576
sg83
g3570
sg76
(lp3577
g69
(g90
g71
NtRp3578
(dp3579
g74
(dp3580
g94
g95
ssg83
g3574
sg76
(lp3581
S'X-Powered-By'
p3582
asbag69
(g90
g71
NtRp3583
(dp3584
g74
(dp3585
g101
g102
ssg83
g3574
sg76
(lp3586
S':'
asbag69
(g90
g71
NtRp3587
(dp3588
g74
(dp3589
sg83
g3574
sg76
(lp3590
g69
(g70
g71
NtRp3591
(dp3592
g74
(dp3593
g82
I4
ssg83
g3587
sg76
(lp3594
S'web2py'
p3595
asbasbasbasbasbasbasbag69
(g85
g71
NtRp3596
(dp3597
g74
(dp3598
sg83
g3159
sg76
(lp3599
g69
(g90
g71
NtRp3600
(dp3601
g74
(dp3602
g94
g95
ssg83
g3596
sg76
(lp3603
S'logo'
p3604
asbag69
(g90
g71
NtRp3605
(dp3606
g74
(dp3607
g101
g102
ssg83
g3596
sg76
(lp3608
S':'
asbag69
(g90
g71
NtRp3609
(dp3610
g74
(dp3611
sg83
g3596
sg76
(lp3612
g69
(g70
g71
NtRp3613
(dp3614
g74
(dp3615
g82
I5
ssg83
g3609
sg76
(lp3616
g69
(cgluon.html
A
p3617
g71
NtRp3618
(dp3619
g74
(dp3620
S'_class'
p3621
S'brand'
p3622
sS'_href'
p3623
g1761
ssg83
Nsg76
(lp3624
g69
(cgluon.html
B
p3625
g71
NtRp3626
(dp3627
g74
(dp3628
sg83
g3618
sg76
(lp3629
S''
ag69
(cgluon.html
SPAN
p3630
g71
NtRp3631
(dp3632
g74
(dp3633
sg83
g3626
sg76
(lp3634
S'Agenda'
p3635
asbaS''
asbacgluon.html
XML_unpickle
p3636
(S's\r\x00\x00\x00&trade;&nbsp;'
tRp3637
asbasbasbasbag69
(g85
g71
NtRp3638
(dp3639
g74
(dp3640
sg83
g3159
sg76
(lp3641
g69
(g90
g71
NtRp3642
(dp3643
g74
(dp3644
g94
g95
ssg83
g3638
sg76
(lp3645
S'menu'
p3646
asbag69
(g90
g71
NtRp3647
(dp3648
g74
(dp3649
g101
g102
ssg83
g3638
sg76
(lp3650
S':'
asbag69
(g90
g71
NtRp3651
(dp3652
g74
(dp3653
sg83
g3638
sg76
(lp3654
g69
(g70
g71
NtRp3655
(dp3656
g74
(dp3657
g82
I5
ssg83
g3651
sg76
(lp3658
g69
(g78
g71
NtRp3659
(dp3660
g74
(dp3661
g82
I4
ssg83
Nsg76
(lp3662
g69
(g85
g71
NtRp3663
(dp3664
g74
(dp3665
sg83
g3659
sg76
(lp3666
g69
(g90
g71
NtRp3667
(dp3668
g74
(dp3669
sg83
g3663
sg76
(lp3670
g69
(g70
g71
NtRp3671
(dp3672
g74
(dp3673
g82
I4
ssg83
g3667
sg76
(lp3674
g69
(g78
g71
NtRp3675
(dp3676
g74
(dp3677
g82
I3
ssg83
Nsg76
(lp3678
g69
(g85
g71
NtRp3679
(dp3680
g74
(dp3681
sg83
g3675
sg76
(lp3682
g69
(g90
g71
NtRp3683
(dp3684
g74
(dp3685
sg83
g3679
sg76
(lp3686
g69
(g70
g71
NtRp3687
(dp3688
g74
(dp3689
g82
I3
ssg83
g3683
sg76
(lp3690
cgluon.languages
lazyT_unpickle
p3691
(S't\x06\x00\x00\x00Global'
tRp3692
asbasbasbag69
(g85
g71
NtRp3693
(dp3694
g74
(dp3695
sg83
g3675
sg76
(lp3696
g69
(g90
g71
NtRp3697
(dp3698
g74
(dp3699
sg83
g3693
sg76
(lp3700
g69
(g70
g71
NtRp3701
(dp3702
g74
(dp3703
g82
I3
ssg83
g3697
sg76
(lp3704
g112
asbasbasbag69
(g85
g71
NtRp3705
(dp3706
g74
(dp3707
sg83
g3675
sg76
(lp3708
g69
(g90
g71
NtRp3709
(dp3710
g74
(dp3711
sg83
g3705
sg76
(lp3712
g69
(g70
g71
NtRp3713
(dp3714
g74
(dp3715
g82
I3
ssg83
g3709
sg76
(lp3716
S'/redireciona?f=agenda'
p3717
asbasbasbag69
(g85
g71
NtRp3718
(dp3719
g74
(dp3720
sg83
g3675
sg76
(lp3721
g69
(g90
g71
NtRp3722
(dp3723
g74
(dp3724
sg83
g3718
sg76
(lp3725
g69
(g70
g71
NtRp3726
(dp3727
g74
(dp3728
g82
I3
ssg83
g3722
sg76
(lp3729
g69
(g78
g71
NtRp3730
(dp3731
g74
(dp3732
g82
I2
ssg83
Nsg76
(lp3733
sbasbasbasbasbasbasbasbag69
(g85
g71
NtRp3734
(dp3735
g74
(dp3736
sg83
g3659
sg76
(lp3737
g69
(g90
g71
NtRp3738
(dp3739
g74
(dp3740
sg83
g3734
sg76
(lp3741
g69
(g70
g71
NtRp3742
(dp3743
g74
(dp3744
g82
I4
ssg83
g3738
sg76
(lp3745
g69
(g78
g71
NtRp3746
(dp3747
g74
(dp3748
g82
I3
ssg83
Nsg76
(lp3749
g69
(g85
g71
NtRp3750
(dp3751
g74
(dp3752
sg83
g3746
sg76
(lp3753
g69
(g90
g71
NtRp3754
(dp3755
g74
(dp3756
sg83
g3750
sg76
(lp3757
g69
(g70
g71
NtRp3758
(dp3759
g74
(dp3760
g82
I3
ssg83
g3754
sg76
(lp3761
g3691
(S't\n\x00\x00\x00Particular'
tRp3762
asbasbasbag69
(g85
g71
NtRp3763
(dp3764
g74
(dp3765
sg83
g3746
sg76
(lp3766
g69
(g90
g71
NtRp3767
(dp3768
g74
(dp3769
sg83
g3763
sg76
(lp3770
g69
(g70
g71
NtRp3771
(dp3772
g74
(dp3773
g82
I3
ssg83
g3767
sg76
(lp3774
g112
asbasbasbag69
(g85
g71
NtRp3775
(dp3776
g74
(dp3777
sg83
g3746
sg76
(lp3778
g69
(g90
g71
NtRp3779
(dp3780
g74
(dp3781
sg83
g3775
sg76
(lp3782
g69
(g70
g71
NtRp3783
(dp3784
g74
(dp3785
g82
I3
ssg83
g3779
sg76
(lp3786
S'/redireciona?f=agenda_particular'
p3787
asbasbasbag69
(g85
g71
NtRp3788
(dp3789
g74
(dp3790
sg83
g3746
sg76
(lp3791
g69
(g90
g71
NtRp3792
(dp3793
g74
(dp3794
sg83
g3788
sg76
(lp3795
g69
(g70
g71
NtRp3796
(dp3797
g74
(dp3798
g82
I3
ssg83
g3792
sg76
(lp3799
g69
(g78
g71
NtRp3800
(dp3801
g74
(dp3802
g82
I2
ssg83
Nsg76
(lp3803
sbasbasbasbasbasbasbasbag69
(g85
g71
NtRp3804
(dp3805
g74
(dp3806
sg83
g3659
sg76
(lp3807
g69
(g90
g71
NtRp3808
(dp3809
g74
(dp3810
sg83
g3804
sg76
(lp3811
g69
(g70
g71
NtRp3812
(dp3813
g74
(dp3814
g82
I4
ssg83
g3808
sg76
(lp3815
g69
(g78
g71
NtRp3816
(dp3817
g74
(dp3818
g82
I3
ssg83
Nsg76
(lp3819
g69
(g85
g71
NtRp3820
(dp3821
g74
(dp3822
sg83
g3816
sg76
(lp3823
g69
(g90
g71
NtRp3824
(dp3825
g74
(dp3826
sg83
g3820
sg76
(lp3827
g69
(g70
g71
NtRp3828
(dp3829
g74
(dp3830
g82
I3
ssg83
g3824
sg76
(lp3831
g3691
(S's\x08\x00\x00\x00+contato'
tRp3832
asbasbasbag69
(g85
g71
NtRp3833
(dp3834
g74
(dp3835
sg83
g3816
sg76
(lp3836
g69
(g90
g71
NtRp3837
(dp3838
g74
(dp3839
sg83
g3833
sg76
(lp3840
g69
(g70
g71
NtRp3841
(dp3842
g74
(dp3843
g82
I3
ssg83
g3837
sg76
(lp3844
g112
asbasbasbag69
(g85
g71
NtRp3845
(dp3846
g74
(dp3847
sg83
g3816
sg76
(lp3848
g69
(g90
g71
NtRp3849
(dp3850
g74
(dp3851
sg83
g3845
sg76
(lp3852
g69
(g70
g71
NtRp3853
(dp3854
g74
(dp3855
g82
I3
ssg83
g3849
sg76
(lp3856
S'/redireciona?f=addition'
p3857
asbasbasbag69
(g85
g71
NtRp3858
(dp3859
g74
(dp3860
sg83
g3816
sg76
(lp3861
g69
(g90
g71
NtRp3862
(dp3863
g74
(dp3864
sg83
g3858
sg76
(lp3865
g69
(g70
g71
NtRp3866
(dp3867
g74
(dp3868
g82
I3
ssg83
g3862
sg76
(lp3869
g69
(g78
g71
NtRp3870
(dp3871
g74
(dp3872
g82
I2
ssg83
Nsg76
(lp3873
sbasbasbasbasbasbasbasbasbasbasbasbag69
(g85
g71
NtRp3874
(dp3875
g74
(dp3876
sg83
g3159
sg76
(lp3877
g69
(g90
g71
NtRp3878
(dp3879
g74
(dp3880
g94
g95
ssg83
g3874
sg76
(lp3881
S'menu2'
p3882
asbag69
(g90
g71
NtRp3883
(dp3884
g74
(dp3885
g101
g102
ssg83
g3874
sg76
(lp3886
S':'
asbag69
(g90
g71
NtRp3887
(dp3888
g74
(dp3889
sg83
g3874
sg76
(lp3890
g69
(g70
g71
NtRp3891
(dp3892
g74
(dp3893
g82
I5
ssg83
g3887
sg76
(lp3894
g69
(g78
g71
NtRp3895
(dp3896
g74
(dp3897
g82
I4
ssg83
Nsg76
(lp3898
g69
(g85
g71
NtRp3899
(dp3900
g74
(dp3901
sg83
g3895
sg76
(lp3902
g69
(g90
g71
NtRp3903
(dp3904
g74
(dp3905
sg83
g3899
sg76
(lp3906
g69
(g70
g71
NtRp3907
(dp3908
g74
(dp3909
g82
I4
ssg83
g3903
sg76
(lp3910
g69
(g78
g71
NtRp3911
(dp3912
g74
(dp3913
g82
I3
ssg83
Nsg76
(lp3914
g69
(g85
g71
NtRp3915
(dp3916
g74
(dp3917
sg83
g3911
sg76
(lp3918
g69
(g90
g71
NtRp3919
(dp3920
g74
(dp3921
sg83
g3915
sg76
(lp3922
g69
(g70
g71
NtRp3923
(dp3924
g74
(dp3925
g82
I3
ssg83
g3919
sg76
(lp3926
g69
(g3630
g71
NtRp3927
(dp3928
g74
(dp3929
g3621
S'dropdown-toggle'
p3930
ssg83
Nsg76
(lp3931
S'Admin'
p3932
asbasbasbasbag69
(g85
g71
NtRp3933
(dp3934
g74
(dp3935
sg83
g3911
sg76
(lp3936
g69
(g90
g71
NtRp3937
(dp3938
g74
(dp3939
sg83
g3933
sg76
(lp3940
g69
(g70
g71
NtRp3941
(dp3942
g74
(dp3943
g82
I3
ssg83
g3937
sg76
(lp3944
g112
asbasbasbag69
(g85
g71
NtRp3945
(dp3946
g74
(dp3947
sg83
g3911
sg76
(lp3948
g69
(g90
g71
NtRp3949
(dp3950
g74
(dp3951
sg83
g3945
sg76
(lp3952
g69
(g70
g71
NtRp3953
(dp3954
g74
(dp3955
g82
I3
ssg83
g3949
sg76
(lp3956
S'#'
asbasbasbag69
(g85
g71
NtRp3957
(dp3958
g74
(dp3959
sg83
g3911
sg76
(lp3960
g69
(g90
g71
NtRp3961
(dp3962
g74
(dp3963
sg83
g3957
sg76
(lp3964
g69
(g70
g71
NtRp3965
(dp3966
g74
(dp3967
g82
I3
ssg83
g3961
sg76
(lp3968
g69
(g78
g71
NtRp3969
(dp3970
g74
(dp3971
g82
I2
ssg83
Nsg76
(lp3972
g69
(g85
g71
NtRp3973
(dp3974
g74
(dp3975
sg83
g3969
sg76
(lp3976
g69
(g90
g71
NtRp3977
(dp3978
g74
(dp3979
sg83
g3973
sg76
(lp3980
g69
(g70
g71
NtRp3981
(dp3982
g74
(dp3983
g82
I2
ssg83
g3977
sg76
(lp3984
g69
(g78
g71
NtRp3985
(dp3986
g74
(dp3987
g82
I1
ssg83
Nsg76
(lp3988
g69
(g85
g71
NtRp3989
(dp3990
g74
(dp3991
sg83
g3985
sg76
(lp3992
g69
(g90
g71
NtRp3993
(dp3994
g74
(dp3995
sg83
g3989
sg76
(lp3996
g69
(g70
g71
NtRp3997
(dp3998
g74
(dp3999
g82
I1
ssg83
g3993
sg76
(lp4000
g3691
(S's\t\x00\x00\x00Usu\xc3\xa1rios'
tRp4001
asbasbasbag69
(g85
g71
NtRp4002
(dp4003
g74
(dp4004
sg83
g3985
sg76
(lp4005
g69
(g90
g71
NtRp4006
(dp4007
g74
(dp4008
sg83
g4002
sg76
(lp4009
g69
(g70
g71
NtRp4010
(dp4011
g74
(dp4012
g82
I1
ssg83
g4006
sg76
(lp4013
I00
asbasbasbag69
(g85
g71
NtRp4014
(dp4015
g74
(dp4016
sg83
g3985
sg76
(lp4017
g69
(g90
g71
NtRp4018
(dp4019
g74
(dp4020
sg83
g4014
sg76
(lp4021
g69
(g70
g71
NtRp4022
(dp4023
g74
(dp4024
g82
I1
ssg83
g4018
sg76
(lp4025
S'/manager/users'
p4026
asbasbasbasbasbasbasbag69
(g85
g71
NtRp4027
(dp4028
g74
(dp4029
sg83
g3969
sg76
(lp4030
g69
(g90
g71
NtRp4031
(dp4032
g74
(dp4033
sg83
g4027
sg76
(lp4034
g69
(g70
g71
NtRp4035
(dp4036
g74
(dp4037
g82
I2
ssg83
g4031
sg76
(lp4038
g69
(g78
g71
NtRp4039
(dp4040
g74
(dp4041
g82
I1
ssg83
Nsg76
(lp4042
g69
(g85
g71
NtRp4043
(dp4044
g74
(dp4045
sg83
g4039
sg76
(lp4046
g69
(g90
g71
NtRp4047
(dp4048
g74
(dp4049
sg83
g4043
sg76
(lp4050
g69
(g70
g71
NtRp4051
(dp4052
g74
(dp4053
g82
I1
ssg83
g4047
sg76
(lp4054
g3691
(S't\x06\x00\x00\x00Grupos'
tRp4055
asbasbasbag69
(g85
g71
NtRp4056
(dp4057
g74
(dp4058
sg83
g4039
sg76
(lp4059
g69
(g90
g71
NtRp4060
(dp4061
g74
(dp4062
sg83
g4056
sg76
(lp4063
g69
(g70
g71
NtRp4064
(dp4065
g74
(dp4066
g82
I1
ssg83
g4060
sg76
(lp4067
I00
asbasbasbag69
(g85
g71
NtRp4068
(dp4069
g74
(dp4070
sg83
g4039
sg76
(lp4071
g69
(g90
g71
NtRp4072
(dp4073
g74
(dp4074
sg83
g4068
sg76
(lp4075
g69
(g70
g71
NtRp4076
(dp4077
g74
(dp4078
g82
I1
ssg83
g4072
sg76
(lp4079
S'/manager/groups'
p4080
asbasbasbasbasbasbasbag69
(g85
g71
NtRp4081
(dp4082
g74
(dp4083
sg83
g3969
sg76
(lp4084
g69
(g90
g71
NtRp4085
(dp4086
g74
(dp4087
sg83
g4081
sg76
(lp4088
g69
(g70
g71
NtRp4089
(dp4090
g74
(dp4091
g82
I2
ssg83
g4085
sg76
(lp4092
g69
(g78
g71
NtRp4093
(dp4094
g74
(dp4095
g82
I1
ssg83
Nsg76
(lp4096
g69
(g85
g71
NtRp4097
(dp4098
g74
(dp4099
sg83
g4093
sg76
(lp4100
g69
(g90
g71
NtRp4101
(dp4102
g74
(dp4103
sg83
g4097
sg76
(lp4104
g69
(g70
g71
NtRp4105
(dp4106
g74
(dp4107
g82
I1
ssg83
g4101
sg76
(lp4108
g3691
(S't\x07\x00\x00\x00Membros'
tRp4109
asbasbasbag69
(g85
g71
NtRp4110
(dp4111
g74
(dp4112
sg83
g4093
sg76
(lp4113
g69
(g90
g71
NtRp4114
(dp4115
g74
(dp4116
sg83
g4110
sg76
(lp4117
g69
(g70
g71
NtRp4118
(dp4119
g74
(dp4120
g82
I1
ssg83
g4114
sg76
(lp4121
I00
asbasbasbag69
(g85
g71
NtRp4122
(dp4123
g74
(dp4124
sg83
g4093
sg76
(lp4125
g69
(g90
g71
NtRp4126
(dp4127
g74
(dp4128
sg83
g4122
sg76
(lp4129
g69
(g70
g71
NtRp4130
(dp4131
g74
(dp4132
g82
I1
ssg83
g4126
sg76
(lp4133
S'/manager/membership'
p4134
asbasbasbasbasbasbasbasbasbasbasbasbasbasbasbag69
(g85
g71
NtRp4135
(dp4136
g74
(dp4137
sg83
g3895
sg76
(lp4138
g69
(g90
g71
NtRp4139
(dp4140
g74
(dp4141
sg83
g4135
sg76
(lp4142
g69
(g70
g71
NtRp4143
(dp4144
g74
(dp4145
g82
I4
ssg83
g4139
sg76
(lp4146
g69
(g78
g71
NtRp4147
(dp4148
g74
(dp4149
g82
I3
ssg83
Nsg76
(lp4150
g69
(g85
g71
NtRp4151
(dp4152
g74
(dp4153
sg83
g4147
sg76
(lp4154
g69
(g90
g71
NtRp4155
(dp4156
g74
(dp4157
sg83
g4151
sg76
(lp4158
g69
(g70
g71
NtRp4159
(dp4160
g74
(dp4161
g82
I3
ssg83
g4155
sg76
(lp4162
g69
(g3630
g71
NtRp4163
(dp4164
g74
(dp4165
g3621
g3930
ssg83
Nsg76
(lp4166
S'Login'
p4167
asbasbasbasbag69
(g85
g71
NtRp4168
(dp4169
g74
(dp4170
sg83
g4147
sg76
(lp4171
g69
(g90
g71
NtRp4172
(dp4173
g74
(dp4174
sg83
g4168
sg76
(lp4175
g69
(g70
g71
NtRp4176
(dp4177
g74
(dp4178
g82
I3
ssg83
g4172
sg76
(lp4179
g112
asbasbasbag69
(g85
g71
NtRp4180
(dp4181
g74
(dp4182
sg83
g4147
sg76
(lp4183
g69
(g90
g71
NtRp4184
(dp4185
g74
(dp4186
sg83
g4180
sg76
(lp4187
g69
(g70
g71
NtRp4188
(dp4189
g74
(dp4190
g82
I3
ssg83
g4184
sg76
(lp4191
S'#'
asbasbasbag69
(g85
g71
NtRp4192
(dp4193
g74
(dp4194
sg83
g4147
sg76
(lp4195
g69
(g90
g71
NtRp4196
(dp4197
g74
(dp4198
sg83
g4192
sg76
(lp4199
g69
(g70
g71
NtRp4200
(dp4201
g74
(dp4202
g82
I3
ssg83
g4196
sg76
(lp4203
g69
(g78
g71
NtRp4204
(dp4205
g74
(dp4206
g82
I2
ssg83
Nsg76
(lp4207
g69
(g85
g71
NtRp4208
(dp4209
g74
(dp4210
sg83
g4204
sg76
(lp4211
g69
(g90
g71
NtRp4212
(dp4213
g74
(dp4214
sg83
g4208
sg76
(lp4215
g69
(g70
g71
NtRp4216
(dp4217
g74
(dp4218
g82
I2
ssg83
g4212
sg76
(lp4219
g69
(g78
g71
NtRp4220
(dp4221
g74
(dp4222
g82
I1
ssg83
Nsg76
(lp4223
g69
(g85
g71
NtRp4224
(dp4225
g74
(dp4226
sg83
g4220
sg76
(lp4227
g69
(g90
g71
NtRp4228
(dp4229
g74
(dp4230
sg83
g4224
sg76
(lp4231
g69
(g70
g71
NtRp4232
(dp4233
g74
(dp4234
g82
I1
ssg83
g4228
sg76
(lp4235
g3691
(S't\x06\x00\x00\x00Logout'
tRp4236
asbasbasbag69
(g85
g71
NtRp4237
(dp4238
g74
(dp4239
sg83
g4220
sg76
(lp4240
g69
(g90
g71
NtRp4241
(dp4242
g74
(dp4243
sg83
g4237
sg76
(lp4244
g69
(g70
g71
NtRp4245
(dp4246
g74
(dp4247
g82
I1
ssg83
g4241
sg76
(lp4248
I00
asbasbasbag69
(g85
g71
NtRp4249
(dp4250
g74
(dp4251
sg83
g4220
sg76
(lp4252
g69
(g90
g71
NtRp4253
(dp4254
g74
(dp4255
sg83
g4249
sg76
(lp4256
g69
(g70
g71
NtRp4257
(dp4258
g74
(dp4259
g82
I1
ssg83
g4253
sg76
(lp4260
S'/log_out'
p4261
asbasbasbasbasbasbasbasbasbasbasbasbasbasbasbasbasbasbasbag69
(g85
g71
NtRp4262
(dp4263
g74
(dp4264
sg83
g3159
sg76
(lp4265
g69
(g90
g71
NtRp4266
(dp4267
g74
(dp4268
g94
g95
ssg83
g4262
sg76
(lp4269
S'meta'
p4270
asbag69
(g90
g71
NtRp4271
(dp4272
g74
(dp4273
g101
g102
ssg83
g4262
sg76
(lp4274
S':'
asbag69
(g90
g71
NtRp4275
(dp4276
g74
(dp4277
sg83
g4262
sg76
(lp4278
g69
(g70
g71
NtRp4279
(dp4280
g74
(dp4281
g82
I5
ssg83
g4275
sg76
(lp4282
g69
(g78
g71
NtRp4283
(dp4284
g74
(dp4285
g82
I4
ssg83
Nsg76
(lp4286
g69
(g85
g71
NtRp4287
(dp4288
g74
(dp4289
sg83
g4283
sg76
(lp4290
g69
(g90
g71
NtRp4291
(dp4292
g74
(dp4293
g94
g95
ssg83
g4287
sg76
(lp4294
S'author'
p4295
asbag69
(g90
g71
NtRp4296
(dp4297
g74
(dp4298
g101
g102
ssg83
g4287
sg76
(lp4299
S':'
asbag69
(g90
g71
NtRp4300
(dp4301
g74
(dp4302
sg83
g4287
sg76
(lp4303
g69
(g70
g71
NtRp4304
(dp4305
g74
(dp4306
g82
I4
ssg83
g4300
sg76
(lp4307
S'Your Name <you@example.com>'
p4308
asbasbasbag69
(g85
g71
NtRp4309
(dp4310
g74
(dp4311
sg83
g4283
sg76
(lp4312
g69
(g90
g71
NtRp4313
(dp4314
g74
(dp4315
g94
g95
ssg83
g4309
sg76
(lp4316
S'description'
p4317
asbag69
(g90
g71
NtRp4318
(dp4319
g74
(dp4320
g101
g102
ssg83
g4309
sg76
(lp4321
S':'
asbag69
(g90
g71
NtRp4322
(dp4323
g74
(dp4324
sg83
g4309
sg76
(lp4325
g69
(g70
g71
NtRp4326
(dp4327
g74
(dp4328
g82
I4
ssg83
g4322
sg76
(lp4329
S'a cool new app'
p4330
asbasbasbag69
(g85
g71
NtRp4331
(dp4332
g74
(dp4333
sg83
g4283
sg76
(lp4334
g69
(g90
g71
NtRp4335
(dp4336
g74
(dp4337
g94
g95
ssg83
g4331
sg76
(lp4338
S'generator'
p4339
asbag69
(g90
g71
NtRp4340
(dp4341
g74
(dp4342
g101
g102
ssg83
g4331
sg76
(lp4343
S':'
asbag69
(g90
g71
NtRp4344
(dp4345
g74
(dp4346
sg83
g4331
sg76
(lp4347
g69
(g70
g71
NtRp4348
(dp4349
g74
(dp4350
g82
I4
ssg83
g4344
sg76
(lp4351
S'Web2py Web Framework'
p4352
asbasbasbag69
(g85
g71
NtRp4353
(dp4354
g74
(dp4355
sg83
g4283
sg76
(lp4356
g69
(g90
g71
NtRp4357
(dp4358
g74
(dp4359
g94
g95
ssg83
g4353
sg76
(lp4360
S'keywords'
p4361
asbag69
(g90
g71
NtRp4362
(dp4363
g74
(dp4364
g101
g102
ssg83
g4353
sg76
(lp4365
S':'
asbag69
(g90
g71
NtRp4366
(dp4367
g74
(dp4368
sg83
g4353
sg76
(lp4369
g69
(g70
g71
NtRp4370
(dp4371
g74
(dp4372
g82
I4
ssg83
g4366
sg76
(lp4373
S'web2py, python, framework'
p4374
asbasbasbasbasbasbasbag69
(g85
g71
NtRp4375
(dp4376
g74
(dp4377
sg83
g3159
sg76
(lp4378
g69
(g90
g71
NtRp4379
(dp4380
g74
(dp4381
g94
g95
ssg83
g4375
sg76
(lp4382
S'models_to_run'
p4383
asbag69
(g90
g71
NtRp4384
(dp4385
g74
(dp4386
g101
g102
ssg83
g4375
sg76
(lp4387
S':'
asbag69
(g90
g71
NtRp4388
(dp4389
g74
(dp4390
sg83
g4375
sg76
(lp4391
g69
(g70
g71
NtRp4392
(dp4393
g74
(dp4394
g82
I5
ssg83
g4388
sg76
(lp4395
g69
(g78
g71
NtRp4396
(dp4397
g74
(dp4398
g82
I4
ssg83
Nsg76
(lp4399
g69
(g85
g71
NtRp4400
(dp4401
g74
(dp4402
sg83
g4396
sg76
(lp4403
g69
(g90
g71
NtRp4404
(dp4405
g74
(dp4406
sg83
g4400
sg76
(lp4407
g69
(g70
g71
NtRp4408
(dp4409
g74
(dp4410
g82
I4
ssg83
g4404
sg76
(lp4411
S'^\\w+\\.py$'
p4412
asbasbasbag69
(g85
g71
NtRp4413
(dp4414
g74
(dp4415
sg83
g4396
sg76
(lp4416
g69
(g90
g71
NtRp4417
(dp4418
g74
(dp4419
sg83
g4413
sg76
(lp4420
g69
(g70
g71
NtRp4421
(dp4422
g74
(dp4423
g82
I4
ssg83
g4417
sg76
(lp4424
S'^initial/\\w+\\.py$'
p4425
asbasbasbag69
(g85
g71
NtRp4426
(dp4427
g74
(dp4428
sg83
g4396
sg76
(lp4429
g69
(g90
g71
NtRp4430
(dp4431
g74
(dp4432
sg83
g4426
sg76
(lp4433
g69
(g70
g71
NtRp4434
(dp4435
g74
(dp4436
g82
I4
ssg83
g4430
sg76
(lp4437
S'^initial/principal/\\w+\\.py$'
p4438
asbasbasbasbasbasbasbag69
(g85
g71
NtRp4439
(dp4440
g74
(dp4441
sg83
g3159
sg76
(lp4442
g69
(g90
g71
NtRp4443
(dp4444
g74
(dp4445
g94
g95
ssg83
g4439
sg76
(lp4446
S'postprocessing'
p4447
asbag69
(g90
g71
NtRp4448
(dp4449
g74
(dp4450
g101
g102
ssg83
g4439
sg76
(lp4451
S':'
asbag69
(g90
g71
NtRp4452
(dp4453
g74
(dp4454
sg83
g4439
sg76
(lp4455
g69
(g70
g71
NtRp4456
(dp4457
g74
(dp4458
g82
I5
ssg83
g4452
sg76
(lp4459
g69
(g78
g71
NtRp4460
(dp4461
g74
(dp4462
g82
I4
ssg83
Nsg76
(lp4463
sbasbasbasbag69
(g85
g71
NtRp4464
(dp4465
g74
(dp4466
sg83
g3159
sg76
(lp4467
g69
(g90
g71
NtRp4468
(dp4469
g74
(dp4470
g94
g95
ssg83
g4464
sg76
(lp4471
S'session_cookie_expires'
p4472
asbag69
(g90
g71
NtRp4473
(dp4474
g74
(dp4475
g101
g102
ssg83
g4464
sg76
(lp4476
S':'
asbag69
(g90
g71
NtRp4477
(dp4478
g74
(dp4479
sg83
g4464
sg76
(lp4480
g69
(g70
g71
NtRp4481
(dp4482
g74
(dp4483
g82
I5
ssg83
g4477
sg76
(lp4484
S'None'
p4485
asbasbasbag69
(g85
g71
NtRp4486
(dp4487
g74
(dp4488
sg83
g3159
sg76
(lp4489
g69
(g90
g71
NtRp4490
(dp4491
g74
(dp4492
g94
g95
ssg83
g4486
sg76
(lp4493
S'session_data_name'
p4494
asbag69
(g90
g71
NtRp4495
(dp4496
g74
(dp4497
g101
g102
ssg83
g4486
sg76
(lp4498
S':'
asbag69
(g90
g71
NtRp4499
(dp4500
g74
(dp4501
sg83
g4486
sg76
(lp4502
g69
(g70
g71
NtRp4503
(dp4504
g74
(dp4505
g82
I5
ssg83
g4499
sg76
(lp4506
S'session_data_projeto'
p4507
asbasbasbag69
(g85
g71
NtRp4508
(dp4509
g74
(dp4510
sg83
g3159
sg76
(lp4511
g69
(g90
g71
NtRp4512
(dp4513
g74
(dp4514
g94
g95
ssg83
g4508
sg76
(lp4515
S'session_file'
p4516
asbag69
(g90
g71
NtRp4517
(dp4518
g74
(dp4519
g101
g102
ssg83
g4508
sg76
(lp4520
S':'
asbag69
(g90
g71
NtRp4521
(dp4522
g74
(dp4523
sg83
g4508
sg76
(lp4524
g69
(g70
g71
NtRp4525
(dp4526
g74
(dp4527
g82
I5
ssg83
g4521
sg76
(lp4528
S"<open file '/var/www/agenda/applications/projeto/sessions/127.0.0.1-19a72540-34b2-4372-bde3-03c8ed7bedb0', mode 'rb+' at 0x7f69a482a660>"
p4529
asbasbasbag69
(g85
g71
NtRp4530
(dp4531
g74
(dp4532
sg83
g3159
sg76
(lp4533
g69
(g90
g71
NtRp4534
(dp4535
g74
(dp4536
g94
g95
ssg83
g4530
sg76
(lp4537
S'session_filename'
p4538
asbag69
(g90
g71
NtRp4539
(dp4540
g74
(dp4541
g101
g102
ssg83
g4530
sg76
(lp4542
S':'
asbag69
(g90
g71
NtRp4543
(dp4544
g74
(dp4545
sg83
g4530
sg76
(lp4546
g69
(g70
g71
NtRp4547
(dp4548
g74
(dp4549
g82
I5
ssg83
g4543
sg76
(lp4550
S'/var/www/agenda/applications/projeto/sessions/127.0.0.1-19a72540-34b2-4372-bde3-03c8ed7bedb0'
p4551
asbasbasbag69
(g85
g71
NtRp4552
(dp4553
g74
(dp4554
sg83
g3159
sg76
(lp4555
g69
(g90
g71
NtRp4556
(dp4557
g74
(dp4558
g94
g95
ssg83
g4552
sg76
(lp4559
S'session_id'
p4560
asbag69
(g90
g71
NtRp4561
(dp4562
g74
(dp4563
g101
g102
ssg83
g4552
sg76
(lp4564
S':'
asbag69
(g90
g71
NtRp4565
(dp4566
g74
(dp4567
sg83
g4552
sg76
(lp4568
g69
(g70
g71
NtRp4569
(dp4570
g74
(dp4571
g82
I5
ssg83
g4565
sg76
(lp4572
g487
asbasbasbag69
(g85
g71
NtRp4573
(dp4574
g74
(dp4575
sg83
g3159
sg76
(lp4576
g69
(g90
g71
NtRp4577
(dp4578
g74
(dp4579
g94
g95
ssg83
g4573
sg76
(lp4580
S'session_id_name'
p4581
asbag69
(g90
g71
NtRp4582
(dp4583
g74
(dp4584
g101
g102
ssg83
g4573
sg76
(lp4585
S':'
asbag69
(g90
g71
NtRp4586
(dp4587
g74
(dp4588
sg83
g4573
sg76
(lp4589
g69
(g70
g71
NtRp4590
(dp4591
g74
(dp4592
g82
I5
ssg83
g4586
sg76
(lp4593
g3216
asbasbasbag69
(g85
g71
NtRp4594
(dp4595
g74
(dp4596
sg83
g3159
sg76
(lp4597
g69
(g90
g71
NtRp4598
(dp4599
g74
(dp4600
g94
g95
ssg83
g4594
sg76
(lp4601
S'session_locked'
p4602
asbag69
(g90
g71
NtRp4603
(dp4604
g74
(dp4605
g101
g102
ssg83
g4594
sg76
(lp4606
S':'
asbag69
(g90
g71
NtRp4607
(dp4608
g74
(dp4609
sg83
g4594
sg76
(lp4610
g69
(g70
g71
NtRp4611
(dp4612
g74
(dp4613
g82
I5
ssg83
g4607
sg76
(lp4614
g1603
asbasbasbag69
(g85
g71
NtRp4615
(dp4616
g74
(dp4617
sg83
g3159
sg76
(lp4618
g69
(g90
g71
NtRp4619
(dp4620
g74
(dp4621
g94
g95
ssg83
g4615
sg76
(lp4622
S'session_new'
p4623
asbag69
(g90
g71
NtRp4624
(dp4625
g74
(dp4626
g101
g102
ssg83
g4615
sg76
(lp4627
S':'
asbag69
(g90
g71
NtRp4628
(dp4629
g74
(dp4630
sg83
g4615
sg76
(lp4631
g69
(g70
g71
NtRp4632
(dp4633
g74
(dp4634
g82
I5
ssg83
g4628
sg76
(lp4635
g112
asbasbasbag69
(g85
g71
NtRp4636
(dp4637
g74
(dp4638
sg83
g3159
sg76
(lp4639
g69
(g90
g71
NtRp4640
(dp4641
g74
(dp4642
g94
g95
ssg83
g4636
sg76
(lp4643
S'session_storage_type'
p4644
asbag69
(g90
g71
NtRp4645
(dp4646
g74
(dp4647
g101
g102
ssg83
g4636
sg76
(lp4648
S':'
asbag69
(g90
g71
NtRp4649
(dp4650
g74
(dp4651
sg83
g4636
sg76
(lp4652
g69
(g70
g71
NtRp4653
(dp4654
g74
(dp4655
g82
I5
ssg83
g4649
sg76
(lp4656
g3000
asbasbasbag69
(g85
g71
NtRp4657
(dp4658
g74
(dp4659
sg83
g3159
sg76
(lp4660
g69
(g90
g71
NtRp4661
(dp4662
g74
(dp4663
g94
g95
ssg83
g4657
sg76
(lp4664
S'status'
p4665
asbag69
(g90
g71
NtRp4666
(dp4667
g74
(dp4668
g101
g102
ssg83
g4657
sg76
(lp4669
S':'
asbag69
(g90
g71
NtRp4670
(dp4671
g74
(dp4672
sg83
g4657
sg76
(lp4673
g69
(g70
g71
NtRp4674
(dp4675
g74
(dp4676
g82
I5
ssg83
g4670
sg76
(lp4677
S'200'
p4678
asbasbasbag69
(g85
g71
NtRp4679
(dp4680
g74
(dp4681
sg83
g3159
sg76
(lp4682
g69
(g90
g71
NtRp4683
(dp4684
g74
(dp4685
g94
g95
ssg83
g4679
sg76
(lp4686
S'subtitle'
p4687
asbag69
(g90
g71
NtRp4688
(dp4689
g74
(dp4690
g101
g102
ssg83
g4679
sg76
(lp4691
S':'
asbag69
(g90
g71
NtRp4692
(dp4693
g74
(dp4694
sg83
g4679
sg76
(lp4695
g69
(g70
g71
NtRp4696
(dp4697
g74
(dp4698
g82
I5
ssg83
g4692
sg76
(lp4699
g3691
(S's\r\x00\x00\x00customize me!'
tRp4700
asbasbasbag69
(g85
g71
NtRp4701
(dp4702
g74
(dp4703
sg83
g3159
sg76
(lp4704
g69
(g90
g71
NtRp4705
(dp4706
g74
(dp4707
g94
g95
ssg83
g4701
sg76
(lp4708
S'title'
p4709
asbag69
(g90
g71
NtRp4710
(dp4711
g74
(dp4712
g101
g102
ssg83
g4701
sg76
(lp4713
S':'
asbag69
(g90
g71
NtRp4714
(dp4715
g74
(dp4716
sg83
g4701
sg76
(lp4717
g69
(g70
g71
NtRp4718
(dp4719
g74
(dp4720
g82
I5
ssg83
g4714
sg76
(lp4721
S'Projeto'
p4722
asbasbasbag69
(g85
g71
NtRp4723
(dp4724
g74
(dp4725
sg83
g3159
sg76
(lp4726
g69
(g90
g71
NtRp4727
(dp4728
g74
(dp4729
g94
g95
ssg83
g4723
sg76
(lp4730
S'view'
p4731
asbag69
(g90
g71
NtRp4732
(dp4733
g74
(dp4734
g101
g102
ssg83
g4723
sg76
(lp4735
S':'
asbag69
(g90
g71
NtRp4736
(dp4737
g74
(dp4738
sg83
g4723
sg76
(lp4739
g69
(g70
g71
NtRp4740
(dp4741
g74
(dp4742
g82
I5
ssg83
g4736
sg76
(lp4743
S'initial/principal.html'
p4744
asbasbasbasbasbsS'locals'
p4745
(dp4746
g4
S"'/var/www/agenda/applications/projeto/controllers/initial.py'"
p4747
sg6
S"'# coding=UTF-8\\n\\ndef principal():\\n\\tresponse.title...\\t\\n\\n\\n\\n\\nresponse._vars=response._caller(principal)\\n'"
p4748
sssS'traceback'
p4749
S'Traceback (most recent call last):\n  File "/var/www/agenda/gluon/restricted.py", line 211, in restricted\n    ccode = compile2(code, layer)\n  File "/var/www/agenda/gluon/restricted.py", line 194, in compile2\n    return compile(code.rstrip().replace(\'\\r\\n\', \'\\n\') + \'\\n\', layer, \'exec\')\n  File "/var/www/agenda/applications/projeto/controllers/initial.py", line 35\n    query = ((db.agenda.particular == \'F\') & (orderby=db.agenda.empresa))\n                                                     ^\nSyntaxError: invalid syntax\n'
p4750
s.