(dp1
S'output'
p2
S"<type 'exceptions.SyntaxError'> invalid syntax (initial.py, line 131)"
p3
sS'layer'
p4
S'/var/www/gravacao/applications/projeto/controllers/initial.py'
p5
sS'code'
p6
S'# coding=UTF-8\nimport datetime, os, commands\n\ndef principal():\n\tresponse.title = \'Backup\'\n\n\tform = SQLFORM.factory(\n    \t\tField(\'mes\', requires=IS_IN_SET([\'01\', \'02\', \'03\', \'04\', \'05\', \'06\', \'07\', \'08\', \'09\', \'10\', \'11\', \'12\'])),\n    \t\tField("ano", requires=IS_IN_SET(session.form_ano)),\n    \t\tformstyle="divs",\n    \t\t)\n\ttabela=[]\n\n\tif form.process().accepted:\n\t\tano = form.vars.ano\n\t\tmes = form.vars.mes\n\t\tsession.ano = ano\n\t\tsession.mes = mes\n\t\tlista_pastas = commands.getoutput("ls /var/spool/asterisk/monitor | grep %s%s" %(ano, mes))\n\t\tprint \'lista_pastas :%s:\' %(lista_pastas)\n\t\tif not lista_pastas:  ##checa se existem gravacoes\n\t\t\tprint \'vazio\'\n\t\t\tsession.flash = \'Busca n\xc3\xa3o encontrada\'\n\t\t\tredirect(URL("initial", "/principal"))\n\t\telse: ##checa se existem gravacoes\n\t\t\tresponse.flash = \'Grava\xc3\xa7\xc3\xb5es encontradas\'\t\n\t\t\tf = open(\'pastas_grav\',\'w\')\n\t\t\tf.write(lista_pastas)\n\t\t\tf = open(\'pastas_grav\', \'r\')\n\t\t\tpastas = f.readlines()\n\t\t\tprint pastas\n\t\t\tsession.pastas = pastas\n\n\t\t\tcommands.getoutput("rm -r -f /var/spool/asterisk/monitor/temp_grava")\n\t\t\tcommands.getoutput("mkdir /var/spool/asterisk/monitor/temp_grava")\n\t\t\tfor pasta in pastas:\n\t\t\t\tpasta=pasta.split(\'\\n\')[0]\n\t\t\t\tprint \'copiando pasta :%s:\' %(pasta)\n\t\t\t\tsaida_cp = os.system("cp -r /var/spool/asterisk/monitor/%s /var/spool/asterisk/monitor/temp_grava" %(pasta))\n\t\t\t\tprint \'saida cp:%s\' %(saida_cp)\n\n\t\t\tarq = commands.getoutput("find /var/spool/asterisk/monitor/temp_grava/ -type f | wc -l")\n\t\t\ttabela = [mes, ano, arq]\n\t\t\tprint tabela\n\n\treturn response.render("initial/show_form2.html", form=form, tabela=tabela)\n\n\ndef gera_pdf():\n\tresponse.title = \'Backup\'\n\topc = request.vars[\'opc\']\n\tdata = "\'%"+session.ano+\'-\'+session.mes+"%\'"\n\tprint data\n\n\tcdr = db.executesql("SELECT calldate, origem, src, dst, duration, disposition, userfield, uniqueid  from cdr WHERE calldate like %s;" %(data))\n\n    # define header and footers:\n\thead = THEAD(TR(TH("Data",_width="20%"), \n                    TH("O",_width="12%"),\n                    TH("Src",_width="14%"),\n                    TH("Dst",_width="14%"),\n                    TH("D",_width="10%"),\n                    TH("S",_width="12%"),\n                    TH("U",_width="18%"), \n                    _bgcolor="#A0A0A0"))\n\tfoot = TFOOT(TR(TH("Data",_width="20%"), \n                    TH("O",_width="12%"),\n                    TH("Src",_width="14%"),\n                    TH("Dst",_width="14%"),\n                    TH("D",_width="10%"),\n                    TH("S",_width="12%"),\n                    TH("U",_width="18%"),\n                    _bgcolor="#E0E0E0"))\n    \n    # create several rows:\n\trows = []\n\ti=0\n\tfor row in cdr:\n\t\tcol = i % 2 and "#F0F0F0" or "#FFFFFF"\n\t\tcol2="#000000"\n\t\ti=i+1\n\t\t#print i\n\t\trows.append(TR(TD(row[0]),\n                       TD(row[1]),\n                       TD(row[2]),\n                       TD(row[3]),\n                       TD(row[4]),\n                       TD(row[5]),\n                       TD(row[7]),\n                       _bgcolor=col))  \n\n    # make the table object\n\tbody = TBODY(*rows)\n\t#print body\n\ttable = TABLE(*[head,foot, body], \n                  _border="5", _align="center", _width="100%")\n\n\tfrom gluon.contrib.pyfpdf import FPDF, HTMLMixin\n\n\t# define our FPDF class (move to modules if it is reused  frequently)\n\tclass MyFPDF(FPDF, HTMLMixin):\n\t\tdef header(self):\n\t\t\tself.set_font(\'Arial\',\'B\',15)\n\t\t\tself.cell(0,10, response.title ,1,0,\'C\')\n\t\t\tself.ln(20)\n\t\t\t\n               \n\t\tdef footer(self):\n\t\t\tself.set_y(-15)\n\t\t\tself.set_font(\'Arial\',\'I\',8)\n\t\t\ttxt = \'Pag. %s de %s\' % (self.page_no(), self.alias_nb_pages())\n\t\t\tself.cell(0,10,txt,0,0,\'C\')\n                    \n\tpdf=MyFPDF()\n\t# first page:\n\tpdf.add_page()\n\tpdf.write_html(str(XML(table, sanitize=False)))\n\t#response.headers[\'Content-Type\']=\'application/agenda/principal\'\n\tpdf.output(name=\'pdf/relatorio.pdf\', dest=\'F\')\n\tprint \'relatorio pdf gerado\'\n\tcommands.getoutput("cp pdf/relatorio.pdf /var/spool/asterisk/monitor/temp_grava")\n\tprint session.pastas\n\treturn response.render("initial/show_form.html", opc=opc)\n\n\ndef gera_zip():\n\topc = \'dfq\'\n\tcommands.getoutput("rm -f /var/www/gravacao/applications/projeto/static/grava_down/grava.zip")\n\tos.system("zip -r /var/www/gravacao/applications/projeto/static/grava_down/grava.zip /var/spool/asterisk/monitor/temp_grava")\n\t\n\tpastas = \'%s-%s\' %(session.mes session.ano)\n\tnow = str(datetime.datetime.now())\n\tnow=now.split(\'.\')[0]\n\tteste = db.executesql("INSERT INTO backup_lg (datetime, acao, pastas) VALUES(\'%s\', \'gerou backup\', \'%s\');" %(now, ))\n\treturn response.render("initial/show_form.html", opc=opc)\n\ndef remover():\n\t#commands.getoutput("rm -f /var/www/gravacao/applications/projeto/static/grava_down/grava.zip")\n\tfor pasta in session.pastas:\n\t\tpasta=pasta.split(\'\\n\')[0]\n\t\tcommands.getoutput("rm -r -f /var/spool/asterisk/monitor/%s" %(pasta))\n\t\tprint \'removido :%s:\' %(pasta)\n\t\tsession.flash = \'grava\xc3\xa7\xc3\xb5es removidas com sucesso\'\n\t\tredirect(URL("initial", "/principal"))\n\t\n\n\n\n\n\n\n\ndef user():\n\t#if request.args(0) == \'register\':\n    #    \tdb.auth_user.bio.writable = db.auth_user.bio.readable = False\n\treturn response.render("initial/user.html", user=auth())\n\ndef register():\n\treturn auth.register()\n\ndef login():\n        return auth.login()\n\ndef account():\n    return dict(register=auth.register(),\n                login=auth.login())\n\t\ndef download():\n\treturn response.download(request, db)\n\n\n\n\t\n\n\n\n\nresponse._vars=response._caller(principal)\n'
p7
sS'snapshot'
p8
(dp9
S'exception'
p10
(dp11
S'__getslice__'
p12
S"<method-wrapper '__getslice__' of exceptions.SyntaxError object>"
p13
sS'text'
p14
S'"\\tpastas = \'%s-%s\' %(session.mes session.ano)\\n"'
p15
sS'__str__'
p16
S"<method-wrapper '__str__' of exceptions.SyntaxError object>"
p17
sS'__reduce__'
p18
S'<built-in method __reduce__ of exceptions.SyntaxError object>'
p19
sS'__dict__'
p20
S'{}'
p21
sS'__sizeof__'
p22
S'<built-in method __sizeof__ of exceptions.SyntaxError object>'
p23
sS'__init__'
p24
S"<method-wrapper '__init__' of exceptions.SyntaxError object>"
p25
sS'__setattr__'
p26
S"<method-wrapper '__setattr__' of exceptions.SyntaxError object>"
p27
sS'__reduce_ex__'
p28
S'<built-in method __reduce_ex__ of exceptions.SyntaxError object>'
p29
sS'__new__'
p30
S'<built-in method __new__ of type object>'
p31
sS'__format__'
p32
S'<built-in method __format__ of exceptions.SyntaxError object>'
p33
sS'__class__'
p34
S"<type 'exceptions.SyntaxError'>"
p35
sS'filename'
p36
S"'/var/www/gravacao/applications/projeto/controllers/initial.py'"
p37
sS'lineno'
p38
S'131'
p39
sS'msg'
p40
S"'invalid syntax'"
p41
sS'__doc__'
p42
S"'Invalid syntax.'"
p43
sS'__getitem__'
p44
S"<method-wrapper '__getitem__' of exceptions.SyntaxError object>"
p45
sS'__setstate__'
p46
S'<built-in method __setstate__ of exceptions.SyntaxError object>'
p47
sS'__getattribute__'
p48
S"<method-wrapper '__getattribute__' of exceptions.SyntaxError object>"
p49
sS'print_file_and_line'
p50
S'None'
p51
sS'args'
p52
S'(\'invalid syntax\', (\'/var/www/gravacao/applications/projeto/controllers/initial.py\', 131, 39, "\\tpastas = \'%s-%s\' %(session.mes session.ano)\\n"))'
p53
sS'__subclasshook__'
p54
S'<built-in method __subclasshook__ of type object>'
p55
sS'offset'
p56
S'39'
p57
sS'__unicode__'
p58
S'<built-in method __unicode__ of exceptions.SyntaxError object>'
p59
sS'__delattr__'
p60
S"<method-wrapper '__delattr__' of exceptions.SyntaxError object>"
p61
sS'__repr__'
p62
S"<method-wrapper '__repr__' of exceptions.SyntaxError object>"
p63
sS'__hash__'
p64
S"<method-wrapper '__hash__' of exceptions.SyntaxError object>"
p65
ssS'evalue'
p66
S'invalid syntax (initial.py, line 131)'
p67
sS'request'
p68
ccopy_reg
_reconstructor
p69
(cgluon.html
BEAUTIFY
p70
c__builtin__
object
p71
NtRp72
(dp73
S'attributes'
p74
(dp75
sS'components'
p76
(lp77
g69
(cgluon.html
TABLE
p78
g71
NtRp79
(dp80
g74
(dp81
S'level'
p82
I5
ssS'parent'
p83
Nsg76
(lp84
g69
(cgluon.html
TR
p85
g71
NtRp86
(dp87
g74
(dp88
sg83
g79
sg76
(lp89
g69
(cgluon.html
TD
p90
g71
NtRp91
(dp92
g74
(dp93
S'_style'
p94
S'font-weight:bold;vertical-align:top'
p95
ssg83
g86
sg76
(lp96
S'ajax'
p97
asbag69
(g90
g71
NtRp98
(dp99
g74
(dp100
S'_valign'
p101
S'top'
p102
ssg83
g86
sg76
(lp103
S':'
asbag69
(g90
g71
NtRp104
(dp105
g74
(dp106
sg83
g86
sg76
(lp107
g69
(g70
g71
NtRp108
(dp109
g74
(dp110
g82
I5
ssg83
g104
sg76
(lp111
S'False'
p112
asbasbasbag69
(g85
g71
NtRp113
(dp114
g74
(dp115
sg83
g79
sg76
(lp116
g69
(g90
g71
NtRp117
(dp118
g74
(dp119
g94
g95
ssg83
g113
sg76
(lp120
S'application'
p121
asbag69
(g90
g71
NtRp122
(dp123
g74
(dp124
g101
g102
ssg83
g113
sg76
(lp125
S':'
asbag69
(g90
g71
NtRp126
(dp127
g74
(dp128
sg83
g113
sg76
(lp129
g69
(g70
g71
NtRp130
(dp131
g74
(dp132
g82
I5
ssg83
g126
sg76
(lp133
S'projeto'
p134
asbasbasbag69
(g85
g71
NtRp135
(dp136
g74
(dp137
sg83
g79
sg76
(lp138
g69
(g90
g71
NtRp139
(dp140
g74
(dp141
g94
g95
ssg83
g135
sg76
(lp142
g52
asbag69
(g90
g71
NtRp143
(dp144
g74
(dp145
g101
g102
ssg83
g135
sg76
(lp146
S':'
asbag69
(g90
g71
NtRp147
(dp148
g74
(dp149
sg83
g135
sg76
(lp150
g69
(g70
g71
NtRp151
(dp152
g74
(dp153
g82
I5
ssg83
g147
sg76
(lp154
g69
(g78
g71
NtRp155
(dp156
g74
(dp157
g82
I4
ssg83
Nsg76
(lp158
sbasbasbasbag69
(g85
g71
NtRp159
(dp160
g74
(dp161
sg83
g79
sg76
(lp162
g69
(g90
g71
NtRp163
(dp164
g74
(dp165
g94
g95
ssg83
g159
sg76
(lp166
S'body'
p167
asbag69
(g90
g71
NtRp168
(dp169
g74
(dp170
g101
g102
ssg83
g159
sg76
(lp171
S':'
asbag69
(g90
g71
NtRp172
(dp173
g74
(dp174
sg83
g159
sg76
(lp175
g69
(g70
g71
NtRp176
(dp177
g74
(dp178
g82
I5
ssg83
g172
sg76
(lp179
S'<cStringIO.StringO object at 0x7ff518249618>'
p180
asbasbasbag69
(g85
g71
NtRp181
(dp182
g74
(dp183
sg83
g79
sg76
(lp184
g69
(g90
g71
NtRp185
(dp186
g74
(dp187
g94
g95
ssg83
g181
sg76
(lp188
S'cid'
p189
asbag69
(g90
g71
NtRp190
(dp191
g74
(dp192
g101
g102
ssg83
g181
sg76
(lp193
S':'
asbag69
(g90
g71
NtRp194
(dp195
g74
(dp196
sg83
g181
sg76
(lp197
g69
(g70
g71
NtRp198
(dp199
g74
(dp200
g82
I5
ssg83
g194
sg76
(lp201
S'None'
p202
asbasbasbag69
(g85
g71
NtRp203
(dp204
g74
(dp205
sg83
g79
sg76
(lp206
g69
(g90
g71
NtRp207
(dp208
g74
(dp209
g94
g95
ssg83
g203
sg76
(lp210
S'client'
p211
asbag69
(g90
g71
NtRp212
(dp213
g74
(dp214
g101
g102
ssg83
g203
sg76
(lp215
S':'
asbag69
(g90
g71
NtRp216
(dp217
g74
(dp218
sg83
g203
sg76
(lp219
g69
(g70
g71
NtRp220
(dp221
g74
(dp222
g82
I5
ssg83
g216
sg76
(lp223
S'127.0.0.1'
p224
asbasbasbag69
(g85
g71
NtRp225
(dp226
g74
(dp227
sg83
g79
sg76
(lp228
g69
(g90
g71
NtRp229
(dp230
g74
(dp231
g94
g95
ssg83
g225
sg76
(lp232
S'controller'
p233
asbag69
(g90
g71
NtRp234
(dp235
g74
(dp236
g101
g102
ssg83
g225
sg76
(lp237
S':'
asbag69
(g90
g71
NtRp238
(dp239
g74
(dp240
sg83
g225
sg76
(lp241
g69
(g70
g71
NtRp242
(dp243
g74
(dp244
g82
I5
ssg83
g238
sg76
(lp245
S'initial'
p246
asbasbasbag69
(g85
g71
NtRp247
(dp248
g74
(dp249
sg83
g79
sg76
(lp250
g69
(g90
g71
NtRp251
(dp252
g74
(dp253
g94
g95
ssg83
g247
sg76
(lp254
S'cookies'
p255
asbag69
(g90
g71
NtRp256
(dp257
g74
(dp258
g101
g102
ssg83
g247
sg76
(lp259
S':'
asbag69
(g90
g71
NtRp260
(dp261
g74
(dp262
sg83
g247
sg76
(lp263
g69
(g70
g71
NtRp264
(dp265
g74
(dp266
g82
I5
ssg83
g260
sg76
(lp267
g69
(g78
g71
NtRp268
(dp269
g74
(dp270
g82
I4
ssg83
Nsg76
(lp271
g69
(g85
g71
NtRp272
(dp273
g74
(dp274
sg83
g268
sg76
(lp275
g69
(g90
g71
NtRp276
(dp277
g74
(dp278
g94
g95
ssg83
g272
sg76
(lp279
S'session_id_admin'
p280
asbag69
(g90
g71
NtRp281
(dp282
g74
(dp283
g101
g102
ssg83
g272
sg76
(lp284
S':'
asbag69
(g90
g71
NtRp285
(dp286
g74
(dp287
sg83
g272
sg76
(lp288
g69
(g70
g71
NtRp289
(dp290
g74
(dp291
g82
I4
ssg83
g285
sg76
(lp292
S'127.0.0.1-7a3d5f6b-b222-43aa-99a2-fabcca4ae98b'
p293
ag69
(g78
g71
NtRp294
(dp295
g74
(dp296
g82
I3
ssg83
Nsg76
(lp297
g69
(g85
g71
NtRp298
(dp299
g74
(dp300
sg83
g294
sg76
(lp301
g69
(g90
g71
NtRp302
(dp303
g74
(dp304
g94
g95
ssg83
g298
sg76
(lp305
S'comment'
p306
asbag69
(g90
g71
NtRp307
(dp308
g74
(dp309
g101
g102
ssg83
g298
sg76
(lp310
S':'
asbag69
(g90
g71
NtRp311
(dp312
g74
(dp313
sg83
g298
sg76
(lp314
g69
(g70
g71
NtRp315
(dp316
g74
(dp317
g82
I3
ssg83
g311
sg76
(lp318
S''
asbasbasbag69
(g85
g71
NtRp319
(dp320
g74
(dp321
sg83
g294
sg76
(lp322
g69
(g90
g71
NtRp323
(dp324
g74
(dp325
g94
g95
ssg83
g319
sg76
(lp326
S'domain'
p327
asbag69
(g90
g71
NtRp328
(dp329
g74
(dp330
g101
g102
ssg83
g319
sg76
(lp331
S':'
asbag69
(g90
g71
NtRp332
(dp333
g74
(dp334
sg83
g319
sg76
(lp335
g69
(g70
g71
NtRp336
(dp337
g74
(dp338
g82
I3
ssg83
g332
sg76
(lp339
S''
asbasbasbag69
(g85
g71
NtRp340
(dp341
g74
(dp342
sg83
g294
sg76
(lp343
g69
(g90
g71
NtRp344
(dp345
g74
(dp346
g94
g95
ssg83
g340
sg76
(lp347
S'expires'
p348
asbag69
(g90
g71
NtRp349
(dp350
g74
(dp351
g101
g102
ssg83
g340
sg76
(lp352
S':'
asbag69
(g90
g71
NtRp353
(dp354
g74
(dp355
sg83
g340
sg76
(lp356
g69
(g70
g71
NtRp357
(dp358
g74
(dp359
g82
I3
ssg83
g353
sg76
(lp360
S''
asbasbasbag69
(g85
g71
NtRp361
(dp362
g74
(dp363
sg83
g294
sg76
(lp364
g69
(g90
g71
NtRp365
(dp366
g74
(dp367
g94
g95
ssg83
g361
sg76
(lp368
S'httponly'
p369
asbag69
(g90
g71
NtRp370
(dp371
g74
(dp372
g101
g102
ssg83
g361
sg76
(lp373
S':'
asbag69
(g90
g71
NtRp374
(dp375
g74
(dp376
sg83
g361
sg76
(lp377
g69
(g70
g71
NtRp378
(dp379
g74
(dp380
g82
I3
ssg83
g374
sg76
(lp381
S''
asbasbasbag69
(g85
g71
NtRp382
(dp383
g74
(dp384
sg83
g294
sg76
(lp385
g69
(g90
g71
NtRp386
(dp387
g74
(dp388
g94
g95
ssg83
g382
sg76
(lp389
S'max-age'
p390
asbag69
(g90
g71
NtRp391
(dp392
g74
(dp393
g101
g102
ssg83
g382
sg76
(lp394
S':'
asbag69
(g90
g71
NtRp395
(dp396
g74
(dp397
sg83
g382
sg76
(lp398
g69
(g70
g71
NtRp399
(dp400
g74
(dp401
g82
I3
ssg83
g395
sg76
(lp402
S''
asbasbasbag69
(g85
g71
NtRp403
(dp404
g74
(dp405
sg83
g294
sg76
(lp406
g69
(g90
g71
NtRp407
(dp408
g74
(dp409
g94
g95
ssg83
g403
sg76
(lp410
S'path'
p411
asbag69
(g90
g71
NtRp412
(dp413
g74
(dp414
g101
g102
ssg83
g403
sg76
(lp415
S':'
asbag69
(g90
g71
NtRp416
(dp417
g74
(dp418
sg83
g403
sg76
(lp419
g69
(g70
g71
NtRp420
(dp421
g74
(dp422
g82
I3
ssg83
g416
sg76
(lp423
S''
asbasbasbag69
(g85
g71
NtRp424
(dp425
g74
(dp426
sg83
g294
sg76
(lp427
g69
(g90
g71
NtRp428
(dp429
g74
(dp430
g94
g95
ssg83
g424
sg76
(lp431
S'secure'
p432
asbag69
(g90
g71
NtRp433
(dp434
g74
(dp435
g101
g102
ssg83
g424
sg76
(lp436
S':'
asbag69
(g90
g71
NtRp437
(dp438
g74
(dp439
sg83
g424
sg76
(lp440
g69
(g70
g71
NtRp441
(dp442
g74
(dp443
g82
I3
ssg83
g437
sg76
(lp444
S''
asbasbasbag69
(g85
g71
NtRp445
(dp446
g74
(dp447
sg83
g294
sg76
(lp448
g69
(g90
g71
NtRp449
(dp450
g74
(dp451
g94
g95
ssg83
g445
sg76
(lp452
S'version'
p453
asbag69
(g90
g71
NtRp454
(dp455
g74
(dp456
g101
g102
ssg83
g445
sg76
(lp457
S':'
asbag69
(g90
g71
NtRp458
(dp459
g74
(dp460
sg83
g445
sg76
(lp461
g69
(g70
g71
NtRp462
(dp463
g74
(dp464
g82
I3
ssg83
g458
sg76
(lp465
S''
asbasbasbasbasbasbasbag69
(g85
g71
NtRp466
(dp467
g74
(dp468
sg83
g268
sg76
(lp469
g69
(g90
g71
NtRp470
(dp471
g74
(dp472
g94
g95
ssg83
g466
sg76
(lp473
S'session_id_projeto'
p474
asbag69
(g90
g71
NtRp475
(dp476
g74
(dp477
g101
g102
ssg83
g466
sg76
(lp478
S':'
asbag69
(g90
g71
NtRp479
(dp480
g74
(dp481
sg83
g466
sg76
(lp482
g69
(g70
g71
NtRp483
(dp484
g74
(dp485
g82
I4
ssg83
g479
sg76
(lp486
S'127.0.0.1-72e57111-a1b0-44ec-91df-e9830eb15f29'
p487
ag69
(g78
g71
NtRp488
(dp489
g74
(dp490
g82
I3
ssg83
Nsg76
(lp491
g69
(g85
g71
NtRp492
(dp493
g74
(dp494
sg83
g488
sg76
(lp495
g69
(g90
g71
NtRp496
(dp497
g74
(dp498
g94
g95
ssg83
g492
sg76
(lp499
g306
asbag69
(g90
g71
NtRp500
(dp501
g74
(dp502
g101
g102
ssg83
g492
sg76
(lp503
S':'
asbag69
(g90
g71
NtRp504
(dp505
g74
(dp506
sg83
g492
sg76
(lp507
g69
(g70
g71
NtRp508
(dp509
g74
(dp510
g82
I3
ssg83
g504
sg76
(lp511
S''
asbasbasbag69
(g85
g71
NtRp512
(dp513
g74
(dp514
sg83
g488
sg76
(lp515
g69
(g90
g71
NtRp516
(dp517
g74
(dp518
g94
g95
ssg83
g512
sg76
(lp519
g327
asbag69
(g90
g71
NtRp520
(dp521
g74
(dp522
g101
g102
ssg83
g512
sg76
(lp523
S':'
asbag69
(g90
g71
NtRp524
(dp525
g74
(dp526
sg83
g512
sg76
(lp527
g69
(g70
g71
NtRp528
(dp529
g74
(dp530
g82
I3
ssg83
g524
sg76
(lp531
S''
asbasbasbag69
(g85
g71
NtRp532
(dp533
g74
(dp534
sg83
g488
sg76
(lp535
g69
(g90
g71
NtRp536
(dp537
g74
(dp538
g94
g95
ssg83
g532
sg76
(lp539
g348
asbag69
(g90
g71
NtRp540
(dp541
g74
(dp542
g101
g102
ssg83
g532
sg76
(lp543
S':'
asbag69
(g90
g71
NtRp544
(dp545
g74
(dp546
sg83
g532
sg76
(lp547
g69
(g70
g71
NtRp548
(dp549
g74
(dp550
g82
I3
ssg83
g544
sg76
(lp551
S''
asbasbasbag69
(g85
g71
NtRp552
(dp553
g74
(dp554
sg83
g488
sg76
(lp555
g69
(g90
g71
NtRp556
(dp557
g74
(dp558
g94
g95
ssg83
g552
sg76
(lp559
g369
asbag69
(g90
g71
NtRp560
(dp561
g74
(dp562
g101
g102
ssg83
g552
sg76
(lp563
S':'
asbag69
(g90
g71
NtRp564
(dp565
g74
(dp566
sg83
g552
sg76
(lp567
g69
(g70
g71
NtRp568
(dp569
g74
(dp570
g82
I3
ssg83
g564
sg76
(lp571
S''
asbasbasbag69
(g85
g71
NtRp572
(dp573
g74
(dp574
sg83
g488
sg76
(lp575
g69
(g90
g71
NtRp576
(dp577
g74
(dp578
g94
g95
ssg83
g572
sg76
(lp579
g390
asbag69
(g90
g71
NtRp580
(dp581
g74
(dp582
g101
g102
ssg83
g572
sg76
(lp583
S':'
asbag69
(g90
g71
NtRp584
(dp585
g74
(dp586
sg83
g572
sg76
(lp587
g69
(g70
g71
NtRp588
(dp589
g74
(dp590
g82
I3
ssg83
g584
sg76
(lp591
S''
asbasbasbag69
(g85
g71
NtRp592
(dp593
g74
(dp594
sg83
g488
sg76
(lp595
g69
(g90
g71
NtRp596
(dp597
g74
(dp598
g94
g95
ssg83
g592
sg76
(lp599
g411
asbag69
(g90
g71
NtRp600
(dp601
g74
(dp602
g101
g102
ssg83
g592
sg76
(lp603
S':'
asbag69
(g90
g71
NtRp604
(dp605
g74
(dp606
sg83
g592
sg76
(lp607
g69
(g70
g71
NtRp608
(dp609
g74
(dp610
g82
I3
ssg83
g604
sg76
(lp611
S''
asbasbasbag69
(g85
g71
NtRp612
(dp613
g74
(dp614
sg83
g488
sg76
(lp615
g69
(g90
g71
NtRp616
(dp617
g74
(dp618
g94
g95
ssg83
g612
sg76
(lp619
g432
asbag69
(g90
g71
NtRp620
(dp621
g74
(dp622
g101
g102
ssg83
g612
sg76
(lp623
S':'
asbag69
(g90
g71
NtRp624
(dp625
g74
(dp626
sg83
g612
sg76
(lp627
g69
(g70
g71
NtRp628
(dp629
g74
(dp630
g82
I3
ssg83
g624
sg76
(lp631
S''
asbasbasbag69
(g85
g71
NtRp632
(dp633
g74
(dp634
sg83
g488
sg76
(lp635
g69
(g90
g71
NtRp636
(dp637
g74
(dp638
g94
g95
ssg83
g632
sg76
(lp639
g453
asbag69
(g90
g71
NtRp640
(dp641
g74
(dp642
g101
g102
ssg83
g632
sg76
(lp643
S':'
asbag69
(g90
g71
NtRp644
(dp645
g74
(dp646
sg83
g632
sg76
(lp647
g69
(g70
g71
NtRp648
(dp649
g74
(dp650
g82
I3
ssg83
g644
sg76
(lp651
S''
asbasbasbasbasbasbasbasbasbasbasbag69
(g85
g71
NtRp652
(dp653
g74
(dp654
sg83
g79
sg76
(lp655
g69
(g90
g71
NtRp656
(dp657
g74
(dp658
g94
g95
ssg83
g652
sg76
(lp659
S'env'
p660
asbag69
(g90
g71
NtRp661
(dp662
g74
(dp663
g101
g102
ssg83
g652
sg76
(lp664
S':'
asbag69
(g90
g71
NtRp665
(dp666
g74
(dp667
sg83
g652
sg76
(lp668
g69
(g70
g71
NtRp669
(dp670
g74
(dp671
g82
I5
ssg83
g665
sg76
(lp672
g69
(g78
g71
NtRp673
(dp674
g74
(dp675
g82
I4
ssg83
Nsg76
(lp676
g69
(g85
g71
NtRp677
(dp678
g74
(dp679
sg83
g673
sg76
(lp680
g69
(g90
g71
NtRp681
(dp682
g74
(dp683
g94
g95
ssg83
g677
sg76
(lp684
S'app_folders'
p685
asbag69
(g90
g71
NtRp686
(dp687
g74
(dp688
g101
g102
ssg83
g677
sg76
(lp689
S':'
asbag69
(g90
g71
NtRp690
(dp691
g74
(dp692
sg83
g677
sg76
(lp693
g69
(g70
g71
NtRp694
(dp695
g74
(dp696
g82
I4
ssg83
g690
sg76
(lp697
S"set(['/var/www/gravacao/applications/projeto/'])"
p698
asbasbasbag69
(g85
g71
NtRp699
(dp700
g74
(dp701
sg83
g673
sg76
(lp702
g69
(g90
g71
NtRp703
(dp704
g74
(dp705
g94
g95
ssg83
g699
sg76
(lp706
S'applications_parent'
p707
asbag69
(g90
g71
NtRp708
(dp709
g74
(dp710
g101
g102
ssg83
g699
sg76
(lp711
S':'
asbag69
(g90
g71
NtRp712
(dp713
g74
(dp714
sg83
g699
sg76
(lp715
g69
(g70
g71
NtRp716
(dp717
g74
(dp718
g82
I4
ssg83
g712
sg76
(lp719
S'/var/www/gravacao'
p720
asbasbasbag69
(g85
g71
NtRp721
(dp722
g74
(dp723
sg83
g673
sg76
(lp724
g69
(g90
g71
NtRp725
(dp726
g74
(dp727
g94
g95
ssg83
g721
sg76
(lp728
S'cmd_args'
p729
asbag69
(g90
g71
NtRp730
(dp731
g74
(dp732
g101
g102
ssg83
g721
sg76
(lp733
S':'
asbag69
(g90
g71
NtRp734
(dp735
g74
(dp736
sg83
g721
sg76
(lp737
g69
(g70
g71
NtRp738
(dp739
g74
(dp740
g82
I4
ssg83
g734
sg76
(lp741
g69
(g78
g71
NtRp742
(dp743
g74
(dp744
g82
I3
ssg83
Nsg76
(lp745
sbasbasbasbag69
(g85
g71
NtRp746
(dp747
g74
(dp748
sg83
g673
sg76
(lp749
g69
(g90
g71
NtRp750
(dp751
g74
(dp752
g94
g95
ssg83
g746
sg76
(lp753
S'cmd_options'
p754
asbag69
(g90
g71
NtRp755
(dp756
g74
(dp757
g101
g102
ssg83
g746
sg76
(lp758
S':'
asbag69
(g90
g71
NtRp759
(dp760
g74
(dp761
sg83
g746
sg76
(lp762
g69
(g70
g71
NtRp763
(dp764
g74
(dp765
g82
I4
ssg83
g759
sg76
(lp766
S"<Values at 0x335b2d8: {'verbose': False, 'ip': '127.0.0.1', 'with_scheduler': False, 'ips': [], 'shutdown_timeout': 5, 'taskbar': False, 'port': 8000, 'maxthreads': None, 'softcron': False, 'server_name': 'fernando-workstation', 'bpython': False, 'nogui': False, 'pid_filename': 'httpserver.pid', 'extcron': False, 'runcron': False, 'run_system_tests': False, 'test': None, 'folder': '/var/www/gravacao', 'config': '', 'minthreads': None, 'winservice': '', 'shell': None, 'run': '', 'log_filename': 'httpserver.log', 'debuglevel': 30, 'args': [''], 'socket_timeout': 5, 'ssl_ca_certificate': None, 'scheduler': None, 'profiler_filename': None, 'ssl_private_key': '', 'scheduler_groups': None, 'password': '123456', 'request_queue_size': 5, 'ssl_certificate': '', 'cronjob': False, 'numthreads': None, 'quiet': False, 'interfaces': None, 'import_models': False, 'timeout': 10, 'plain': False, 'nobanner': False}>"
p767
asbasbasbag69
(g85
g71
NtRp768
(dp769
g74
(dp770
sg83
g673
sg76
(lp771
g69
(g90
g71
NtRp772
(dp773
g74
(dp774
g94
g95
ssg83
g768
sg76
(lp775
S'db_sessions'
p776
asbag69
(g90
g71
NtRp777
(dp778
g74
(dp779
g101
g102
ssg83
g768
sg76
(lp780
S':'
asbag69
(g90
g71
NtRp781
(dp782
g74
(dp783
sg83
g768
sg76
(lp784
g69
(g70
g71
NtRp785
(dp786
g74
(dp787
g82
I4
ssg83
g781
sg76
(lp788
S'set([])'
p789
asbasbasbag69
(g85
g71
NtRp790
(dp791
g74
(dp792
sg83
g673
sg76
(lp793
g69
(g90
g71
NtRp794
(dp795
g74
(dp796
g94
g95
ssg83
g790
sg76
(lp797
S'debugging'
p798
asbag69
(g90
g71
NtRp799
(dp800
g74
(dp801
g101
g102
ssg83
g790
sg76
(lp802
S':'
asbag69
(g90
g71
NtRp803
(dp804
g74
(dp805
sg83
g790
sg76
(lp806
g69
(g70
g71
NtRp807
(dp808
g74
(dp809
g82
I4
ssg83
g803
sg76
(lp810
g112
asbasbasbag69
(g85
g71
NtRp811
(dp812
g74
(dp813
sg83
g673
sg76
(lp814
g69
(g90
g71
NtRp815
(dp816
g74
(dp817
g94
g95
ssg83
g811
sg76
(lp818
S'gluon_parent'
p819
asbag69
(g90
g71
NtRp820
(dp821
g74
(dp822
g101
g102
ssg83
g811
sg76
(lp823
S':'
asbag69
(g90
g71
NtRp824
(dp825
g74
(dp826
sg83
g811
sg76
(lp827
g69
(g70
g71
NtRp828
(dp829
g74
(dp830
g82
I4
ssg83
g824
sg76
(lp831
S'/var/www/gravacao'
p832
asbasbasbag69
(g85
g71
NtRp833
(dp834
g74
(dp835
sg83
g673
sg76
(lp836
g69
(g90
g71
NtRp837
(dp838
g74
(dp839
g94
g95
ssg83
g833
sg76
(lp840
S'http_accept'
p841
asbag69
(g90
g71
NtRp842
(dp843
g74
(dp844
g101
g102
ssg83
g833
sg76
(lp845
S':'
asbag69
(g90
g71
NtRp846
(dp847
g74
(dp848
sg83
g833
sg76
(lp849
g69
(g70
g71
NtRp850
(dp851
g74
(dp852
g82
I4
ssg83
g846
sg76
(lp853
S'text/html,application/xhtml+xml,application/xml;q=0.9,*/*;q=0.8'
p854
asbasbasbag69
(g85
g71
NtRp855
(dp856
g74
(dp857
sg83
g673
sg76
(lp858
g69
(g90
g71
NtRp859
(dp860
g74
(dp861
g94
g95
ssg83
g855
sg76
(lp862
S'http_accept_charset'
p863
asbag69
(g90
g71
NtRp864
(dp865
g74
(dp866
g101
g102
ssg83
g855
sg76
(lp867
S':'
asbag69
(g90
g71
NtRp868
(dp869
g74
(dp870
sg83
g855
sg76
(lp871
g69
(g70
g71
NtRp872
(dp873
g74
(dp874
g82
I4
ssg83
g868
sg76
(lp875
S'ISO-8859-1,utf-8;q=0.7,*;q=0.3'
p876
asbasbasbag69
(g85
g71
NtRp877
(dp878
g74
(dp879
sg83
g673
sg76
(lp880
g69
(g90
g71
NtRp881
(dp882
g74
(dp883
g94
g95
ssg83
g877
sg76
(lp884
S'http_accept_encoding'
p885
asbag69
(g90
g71
NtRp886
(dp887
g74
(dp888
g101
g102
ssg83
g877
sg76
(lp889
S':'
asbag69
(g90
g71
NtRp890
(dp891
g74
(dp892
sg83
g877
sg76
(lp893
g69
(g70
g71
NtRp894
(dp895
g74
(dp896
g82
I4
ssg83
g890
sg76
(lp897
S'gzip,deflate,sdch'
p898
asbasbasbag69
(g85
g71
NtRp899
(dp900
g74
(dp901
sg83
g673
sg76
(lp902
g69
(g90
g71
NtRp903
(dp904
g74
(dp905
g94
g95
ssg83
g899
sg76
(lp906
S'http_accept_language'
p907
asbag69
(g90
g71
NtRp908
(dp909
g74
(dp910
g101
g102
ssg83
g899
sg76
(lp911
S':'
asbag69
(g90
g71
NtRp912
(dp913
g74
(dp914
sg83
g899
sg76
(lp915
g69
(g70
g71
NtRp916
(dp917
g74
(dp918
g82
I4
ssg83
g912
sg76
(lp919
S'pt-BR,pt;q=0.8,en-US;q=0.6,en;q=0.4'
p920
asbasbasbag69
(g85
g71
NtRp921
(dp922
g74
(dp923
sg83
g673
sg76
(lp924
g69
(g90
g71
NtRp925
(dp926
g74
(dp927
g94
g95
ssg83
g921
sg76
(lp928
S'http_connection'
p929
asbag69
(g90
g71
NtRp930
(dp931
g74
(dp932
g101
g102
ssg83
g921
sg76
(lp933
S':'
asbag69
(g90
g71
NtRp934
(dp935
g74
(dp936
sg83
g921
sg76
(lp937
g69
(g70
g71
NtRp938
(dp939
g74
(dp940
g82
I4
ssg83
g934
sg76
(lp941
S'keep-alive'
p942
asbasbasbag69
(g85
g71
NtRp943
(dp944
g74
(dp945
sg83
g673
sg76
(lp946
g69
(g90
g71
NtRp947
(dp948
g74
(dp949
g94
g95
ssg83
g943
sg76
(lp950
S'http_cookie'
p951
asbag69
(g90
g71
NtRp952
(dp953
g74
(dp954
g101
g102
ssg83
g943
sg76
(lp955
S':'
asbag69
(g90
g71
NtRp956
(dp957
g74
(dp958
sg83
g943
sg76
(lp959
g69
(g70
g71
NtRp960
(dp961
g74
(dp962
g82
I4
ssg83
g956
sg76
(lp963
S'session_id_admin=127.0.0.1-7a3d5f6b-b222-43aa-99a2-fabcca4ae98b; session_id_projeto=127.0.0.1-72e57111-a1b0-44ec-91df-e9830eb15f29'
p964
asbasbasbag69
(g85
g71
NtRp965
(dp966
g74
(dp967
sg83
g673
sg76
(lp968
g69
(g90
g71
NtRp969
(dp970
g74
(dp971
g94
g95
ssg83
g965
sg76
(lp972
S'http_host'
p973
asbag69
(g90
g71
NtRp974
(dp975
g74
(dp976
g101
g102
ssg83
g965
sg76
(lp977
S':'
asbag69
(g90
g71
NtRp978
(dp979
g74
(dp980
sg83
g965
sg76
(lp981
g69
(g70
g71
NtRp982
(dp983
g74
(dp984
g82
I4
ssg83
g978
sg76
(lp985
S'127.0.0.1:8000'
p986
asbasbasbag69
(g85
g71
NtRp987
(dp988
g74
(dp989
sg83
g673
sg76
(lp990
g69
(g90
g71
NtRp991
(dp992
g74
(dp993
g94
g95
ssg83
g987
sg76
(lp994
S'http_referer'
p995
asbag69
(g90
g71
NtRp996
(dp997
g74
(dp998
g101
g102
ssg83
g987
sg76
(lp999
S':'
asbag69
(g90
g71
NtRp1000
(dp1001
g74
(dp1002
sg83
g987
sg76
(lp1003
g69
(g70
g71
NtRp1004
(dp1005
g74
(dp1006
g82
I4
ssg83
g1000
sg76
(lp1007
S'http://127.0.0.1:8000/'
p1008
asbasbasbag69
(g85
g71
NtRp1009
(dp1010
g74
(dp1011
sg83
g673
sg76
(lp1012
g69
(g90
g71
NtRp1013
(dp1014
g74
(dp1015
g94
g95
ssg83
g1009
sg76
(lp1016
S'http_user_agent'
p1017
asbag69
(g90
g71
NtRp1018
(dp1019
g74
(dp1020
g101
g102
ssg83
g1009
sg76
(lp1021
S':'
asbag69
(g90
g71
NtRp1022
(dp1023
g74
(dp1024
sg83
g1009
sg76
(lp1025
g69
(g70
g71
NtRp1026
(dp1027
g74
(dp1028
g82
I4
ssg83
g1022
sg76
(lp1029
S'Mozilla/5.0 (X11; Linux x86_64) AppleWebKit/537.4 (KHTML, like Gecko) Ubuntu/12.10 Chromium/22.0.1229.94 Chrome/22.0.1229.94 Safari/537.4'
p1030
asbasbasbag69
(g85
g71
NtRp1031
(dp1032
g74
(dp1033
sg83
g673
sg76
(lp1034
g69
(g90
g71
NtRp1035
(dp1036
g74
(dp1037
g94
g95
ssg83
g1031
sg76
(lp1038
S'is_jython'
p1039
asbag69
(g90
g71
NtRp1040
(dp1041
g74
(dp1042
g101
g102
ssg83
g1031
sg76
(lp1043
S':'
asbag69
(g90
g71
NtRp1044
(dp1045
g74
(dp1046
sg83
g1031
sg76
(lp1047
g69
(g70
g71
NtRp1048
(dp1049
g74
(dp1050
g82
I4
ssg83
g1044
sg76
(lp1051
g112
asbasbasbag69
(g85
g71
NtRp1052
(dp1053
g74
(dp1054
sg83
g673
sg76
(lp1055
g69
(g90
g71
NtRp1056
(dp1057
g74
(dp1058
g94
g95
ssg83
g1052
sg76
(lp1059
S'is_pypy'
p1060
asbag69
(g90
g71
NtRp1061
(dp1062
g74
(dp1063
g101
g102
ssg83
g1052
sg76
(lp1064
S':'
asbag69
(g90
g71
NtRp1065
(dp1066
g74
(dp1067
sg83
g1052
sg76
(lp1068
g69
(g70
g71
NtRp1069
(dp1070
g74
(dp1071
g82
I4
ssg83
g1065
sg76
(lp1072
g112
asbasbasbag69
(g85
g71
NtRp1073
(dp1074
g74
(dp1075
sg83
g673
sg76
(lp1076
g69
(g90
g71
NtRp1077
(dp1078
g74
(dp1079
g94
g95
ssg83
g1073
sg76
(lp1080
S'local_hosts'
p1081
asbag69
(g90
g71
NtRp1082
(dp1083
g74
(dp1084
g101
g102
ssg83
g1073
sg76
(lp1085
S':'
asbag69
(g90
g71
NtRp1086
(dp1087
g74
(dp1088
sg83
g1073
sg76
(lp1089
g69
(g70
g71
NtRp1090
(dp1091
g74
(dp1092
g82
I4
ssg83
g1086
sg76
(lp1093
g69
(g78
g71
NtRp1094
(dp1095
g74
(dp1096
g82
I3
ssg83
Nsg76
(lp1097
g69
(g85
g71
NtRp1098
(dp1099
g74
(dp1100
sg83
g1094
sg76
(lp1101
g69
(g90
g71
NtRp1102
(dp1103
g74
(dp1104
sg83
g1098
sg76
(lp1105
g69
(g70
g71
NtRp1106
(dp1107
g74
(dp1108
g82
I3
ssg83
g1102
sg76
(lp1109
S'::1'
p1110
asbasbasbag69
(g85
g71
NtRp1111
(dp1112
g74
(dp1113
sg83
g1094
sg76
(lp1114
g69
(g90
g71
NtRp1115
(dp1116
g74
(dp1117
sg83
g1111
sg76
(lp1118
g69
(g70
g71
NtRp1119
(dp1120
g74
(dp1121
g82
I3
ssg83
g1115
sg76
(lp1122
S'::ffff:127.0.0.1'
p1123
asbasbasbag69
(g85
g71
NtRp1124
(dp1125
g74
(dp1126
sg83
g1094
sg76
(lp1127
g69
(g90
g71
NtRp1128
(dp1129
g74
(dp1130
sg83
g1124
sg76
(lp1131
g69
(g70
g71
NtRp1132
(dp1133
g74
(dp1134
g82
I3
ssg83
g1128
sg76
(lp1135
S'127.0.0.1'
p1136
asbasbasbag69
(g85
g71
NtRp1137
(dp1138
g74
(dp1139
sg83
g1094
sg76
(lp1140
g69
(g90
g71
NtRp1141
(dp1142
g74
(dp1143
sg83
g1137
sg76
(lp1144
g69
(g70
g71
NtRp1145
(dp1146
g74
(dp1147
g82
I3
ssg83
g1141
sg76
(lp1148
S'fernando-workstation'
p1149
asbasbasbasbasbasbasbag69
(g85
g71
NtRp1150
(dp1151
g74
(dp1152
sg83
g673
sg76
(lp1153
g69
(g90
g71
NtRp1154
(dp1155
g74
(dp1156
g94
g95
ssg83
g1150
sg76
(lp1157
S'path_info'
p1158
asbag69
(g90
g71
NtRp1159
(dp1160
g74
(dp1161
g101
g102
ssg83
g1150
sg76
(lp1162
S':'
asbag69
(g90
g71
NtRp1163
(dp1164
g74
(dp1165
sg83
g1150
sg76
(lp1166
g69
(g70
g71
NtRp1167
(dp1168
g74
(dp1169
g82
I4
ssg83
g1163
sg76
(lp1170
S'/'
asbasbasbag69
(g85
g71
NtRp1171
(dp1172
g74
(dp1173
sg83
g673
sg76
(lp1174
g69
(g90
g71
NtRp1175
(dp1176
g74
(dp1177
g94
g95
ssg83
g1171
sg76
(lp1178
S'query_string'
p1179
asbag69
(g90
g71
NtRp1180
(dp1181
g74
(dp1182
g101
g102
ssg83
g1171
sg76
(lp1183
S':'
asbag69
(g90
g71
NtRp1184
(dp1185
g74
(dp1186
sg83
g1171
sg76
(lp1187
g69
(g70
g71
NtRp1188
(dp1189
g74
(dp1190
g82
I4
ssg83
g1184
sg76
(lp1191
S''
asbasbasbag69
(g85
g71
NtRp1192
(dp1193
g74
(dp1194
sg83
g673
sg76
(lp1195
g69
(g90
g71
NtRp1196
(dp1197
g74
(dp1198
g94
g95
ssg83
g1192
sg76
(lp1199
S'remote_addr'
p1200
asbag69
(g90
g71
NtRp1201
(dp1202
g74
(dp1203
g101
g102
ssg83
g1192
sg76
(lp1204
S':'
asbag69
(g90
g71
NtRp1205
(dp1206
g74
(dp1207
sg83
g1192
sg76
(lp1208
g69
(g70
g71
NtRp1209
(dp1210
g74
(dp1211
g82
I4
ssg83
g1205
sg76
(lp1212
g224
asbasbasbag69
(g85
g71
NtRp1213
(dp1214
g74
(dp1215
sg83
g673
sg76
(lp1216
g69
(g90
g71
NtRp1217
(dp1218
g74
(dp1219
g94
g95
ssg83
g1213
sg76
(lp1220
S'remote_port'
p1221
asbag69
(g90
g71
NtRp1222
(dp1223
g74
(dp1224
g101
g102
ssg83
g1213
sg76
(lp1225
S':'
asbag69
(g90
g71
NtRp1226
(dp1227
g74
(dp1228
sg83
g1213
sg76
(lp1229
g69
(g70
g71
NtRp1230
(dp1231
g74
(dp1232
g82
I4
ssg83
g1226
sg76
(lp1233
S'57707'
p1234
asbasbasbag69
(g85
g71
NtRp1235
(dp1236
g74
(dp1237
sg83
g673
sg76
(lp1238
g69
(g90
g71
NtRp1239
(dp1240
g74
(dp1241
g94
g95
ssg83
g1235
sg76
(lp1242
S'request_method'
p1243
asbag69
(g90
g71
NtRp1244
(dp1245
g74
(dp1246
g101
g102
ssg83
g1235
sg76
(lp1247
S':'
asbag69
(g90
g71
NtRp1248
(dp1249
g74
(dp1250
sg83
g1235
sg76
(lp1251
g69
(g70
g71
NtRp1252
(dp1253
g74
(dp1254
g82
I4
ssg83
g1248
sg76
(lp1255
S'GET'
p1256
asbasbasbag69
(g85
g71
NtRp1257
(dp1258
g74
(dp1259
sg83
g673
sg76
(lp1260
g69
(g90
g71
NtRp1261
(dp1262
g74
(dp1263
g94
g95
ssg83
g1257
sg76
(lp1264
S'request_uri'
p1265
asbag69
(g90
g71
NtRp1266
(dp1267
g74
(dp1268
g101
g102
ssg83
g1257
sg76
(lp1269
S':'
asbag69
(g90
g71
NtRp1270
(dp1271
g74
(dp1272
sg83
g1257
sg76
(lp1273
g69
(g70
g71
NtRp1274
(dp1275
g74
(dp1276
g82
I4
ssg83
g1270
sg76
(lp1277
S'/projeto/initial/principal'
p1278
asbasbasbag69
(g85
g71
NtRp1279
(dp1280
g74
(dp1281
sg83
g673
sg76
(lp1282
g69
(g90
g71
NtRp1283
(dp1284
g74
(dp1285
g94
g95
ssg83
g1279
sg76
(lp1286
S'script_name'
p1287
asbag69
(g90
g71
NtRp1288
(dp1289
g74
(dp1290
g101
g102
ssg83
g1279
sg76
(lp1291
S':'
asbag69
(g90
g71
NtRp1292
(dp1293
g74
(dp1294
sg83
g1279
sg76
(lp1295
g69
(g70
g71
NtRp1296
(dp1297
g74
(dp1298
g82
I4
ssg83
g1292
sg76
(lp1299
S''
asbasbasbag69
(g85
g71
NtRp1300
(dp1301
g74
(dp1302
sg83
g673
sg76
(lp1303
g69
(g90
g71
NtRp1304
(dp1305
g74
(dp1306
g94
g95
ssg83
g1300
sg76
(lp1307
S'server_name'
p1308
asbag69
(g90
g71
NtRp1309
(dp1310
g74
(dp1311
g101
g102
ssg83
g1300
sg76
(lp1312
S':'
asbag69
(g90
g71
NtRp1313
(dp1314
g74
(dp1315
sg83
g1300
sg76
(lp1316
g69
(g70
g71
NtRp1317
(dp1318
g74
(dp1319
g82
I4
ssg83
g1313
sg76
(lp1320
S'fernando-workstation'
p1321
asbasbasbag69
(g85
g71
NtRp1322
(dp1323
g74
(dp1324
sg83
g673
sg76
(lp1325
g69
(g90
g71
NtRp1326
(dp1327
g74
(dp1328
g94
g95
ssg83
g1322
sg76
(lp1329
S'server_port'
p1330
asbag69
(g90
g71
NtRp1331
(dp1332
g74
(dp1333
g101
g102
ssg83
g1322
sg76
(lp1334
S':'
asbag69
(g90
g71
NtRp1335
(dp1336
g74
(dp1337
sg83
g1322
sg76
(lp1338
g69
(g70
g71
NtRp1339
(dp1340
g74
(dp1341
g82
I4
ssg83
g1335
sg76
(lp1342
S'8000'
p1343
asbasbasbag69
(g85
g71
NtRp1344
(dp1345
g74
(dp1346
sg83
g673
sg76
(lp1347
g69
(g90
g71
NtRp1348
(dp1349
g74
(dp1350
g94
g95
ssg83
g1344
sg76
(lp1351
S'server_protocol'
p1352
asbag69
(g90
g71
NtRp1353
(dp1354
g74
(dp1355
g101
g102
ssg83
g1344
sg76
(lp1356
S':'
asbag69
(g90
g71
NtRp1357
(dp1358
g74
(dp1359
sg83
g1344
sg76
(lp1360
g69
(g70
g71
NtRp1361
(dp1362
g74
(dp1363
g82
I4
ssg83
g1357
sg76
(lp1364
S'HTTP/1.1'
p1365
asbasbasbag69
(g85
g71
NtRp1366
(dp1367
g74
(dp1368
sg83
g673
sg76
(lp1369
g69
(g90
g71
NtRp1370
(dp1371
g74
(dp1372
g94
g95
ssg83
g1366
sg76
(lp1373
S'server_software'
p1374
asbag69
(g90
g71
NtRp1375
(dp1376
g74
(dp1377
g101
g102
ssg83
g1366
sg76
(lp1378
S':'
asbag69
(g90
g71
NtRp1379
(dp1380
g74
(dp1381
sg83
g1366
sg76
(lp1382
g69
(g70
g71
NtRp1383
(dp1384
g74
(dp1385
g82
I4
ssg83
g1379
sg76
(lp1386
S'Rocket 1.2.6'
p1387
asbasbasbag69
(g85
g71
NtRp1388
(dp1389
g74
(dp1390
sg83
g673
sg76
(lp1391
g69
(g90
g71
NtRp1392
(dp1393
g74
(dp1394
g94
g95
ssg83
g1388
sg76
(lp1395
S'web2py_original_uri'
p1396
asbag69
(g90
g71
NtRp1397
(dp1398
g74
(dp1399
g101
g102
ssg83
g1388
sg76
(lp1400
S':'
asbag69
(g90
g71
NtRp1401
(dp1402
g74
(dp1403
sg83
g1388
sg76
(lp1404
g69
(g70
g71
NtRp1405
(dp1406
g74
(dp1407
g82
I4
ssg83
g1401
sg76
(lp1408
S'/'
asbasbasbag69
(g85
g71
NtRp1409
(dp1410
g74
(dp1411
sg83
g673
sg76
(lp1412
g69
(g90
g71
NtRp1413
(dp1414
g74
(dp1415
g94
g95
ssg83
g1409
sg76
(lp1416
S'web2py_path'
p1417
asbag69
(g90
g71
NtRp1418
(dp1419
g74
(dp1420
g101
g102
ssg83
g1409
sg76
(lp1421
S':'
asbag69
(g90
g71
NtRp1422
(dp1423
g74
(dp1424
sg83
g1409
sg76
(lp1425
g69
(g70
g71
NtRp1426
(dp1427
g74
(dp1428
g82
I4
ssg83
g1422
sg76
(lp1429
g720
asbasbasbag69
(g85
g71
NtRp1430
(dp1431
g74
(dp1432
sg83
g673
sg76
(lp1433
g69
(g90
g71
NtRp1434
(dp1435
g74
(dp1436
g94
g95
ssg83
g1430
sg76
(lp1437
S'web2py_version'
p1438
asbag69
(g90
g71
NtRp1439
(dp1440
g74
(dp1441
g101
g102
ssg83
g1430
sg76
(lp1442
S':'
asbag69
(g90
g71
NtRp1443
(dp1444
g74
(dp1445
sg83
g1430
sg76
(lp1446
g69
(g70
g71
NtRp1447
(dp1448
g74
(dp1449
g82
I4
ssg83
g1443
sg76
(lp1450
g69
(g78
g71
NtRp1451
(dp1452
g74
(dp1453
g82
I3
ssg83
Nsg76
(lp1454
g69
(g85
g71
NtRp1455
(dp1456
g74
(dp1457
sg83
g1451
sg76
(lp1458
g69
(g90
g71
NtRp1459
(dp1460
g74
(dp1461
sg83
g1455
sg76
(lp1462
g69
(g70
g71
NtRp1463
(dp1464
g74
(dp1465
g82
I3
ssg83
g1459
sg76
(lp1466
S'2'
asbasbasbag69
(g85
g71
NtRp1467
(dp1468
g74
(dp1469
sg83
g1451
sg76
(lp1470
g69
(g90
g71
NtRp1471
(dp1472
g74
(dp1473
sg83
g1467
sg76
(lp1474
g69
(g70
g71
NtRp1475
(dp1476
g74
(dp1477
g82
I3
ssg83
g1471
sg76
(lp1478
S'3'
asbasbasbag69
(g85
g71
NtRp1479
(dp1480
g74
(dp1481
sg83
g1451
sg76
(lp1482
g69
(g90
g71
NtRp1483
(dp1484
g74
(dp1485
sg83
g1479
sg76
(lp1486
g69
(g70
g71
NtRp1487
(dp1488
g74
(dp1489
g82
I3
ssg83
g1483
sg76
(lp1490
S'2'
asbasbasbag69
(g85
g71
NtRp1491
(dp1492
g74
(dp1493
sg83
g1451
sg76
(lp1494
g69
(g90
g71
NtRp1495
(dp1496
g74
(dp1497
sg83
g1491
sg76
(lp1498
g69
(g70
g71
NtRp1499
(dp1500
g74
(dp1501
g82
I3
ssg83
g1495
sg76
(lp1502
S'datetime.datetime(2012, 12, 17, 15, 3, 30)'
p1503
asbasbasbag69
(g85
g71
NtRp1504
(dp1505
g74
(dp1506
sg83
g1451
sg76
(lp1507
g69
(g90
g71
NtRp1508
(dp1509
g74
(dp1510
sg83
g1504
sg76
(lp1511
g69
(g70
g71
NtRp1512
(dp1513
g74
(dp1514
g82
I3
ssg83
g1508
sg76
(lp1515
S'stable'
p1516
asbasbasbasbasbasbasbag69
(g85
g71
NtRp1517
(dp1518
g74
(dp1519
sg83
g673
sg76
(lp1520
g69
(g90
g71
NtRp1521
(dp1522
g74
(dp1523
g94
g95
ssg83
g1517
sg76
(lp1524
S'wsgi_errors'
p1525
asbag69
(g90
g71
NtRp1526
(dp1527
g74
(dp1528
g101
g102
ssg83
g1517
sg76
(lp1529
S':'
asbag69
(g90
g71
NtRp1530
(dp1531
g74
(dp1532
sg83
g1517
sg76
(lp1533
g69
(g70
g71
NtRp1534
(dp1535
g74
(dp1536
g82
I4
ssg83
g1530
sg76
(lp1537
S"<open file '<stderr>', mode 'w' at 0x7ff529d1f270>"
p1538
asbasbasbag69
(g85
g71
NtRp1539
(dp1540
g74
(dp1541
sg83
g673
sg76
(lp1542
g69
(g90
g71
NtRp1543
(dp1544
g74
(dp1545
g94
g95
ssg83
g1539
sg76
(lp1546
S'wsgi_file_wrapper'
p1547
asbag69
(g90
g71
NtRp1548
(dp1549
g74
(dp1550
g101
g102
ssg83
g1539
sg76
(lp1551
S':'
asbag69
(g90
g71
NtRp1552
(dp1553
g74
(dp1554
sg83
g1539
sg76
(lp1555
g69
(g70
g71
NtRp1556
(dp1557
g74
(dp1558
g82
I4
ssg83
g1552
sg76
(lp1559
S'<class wsgiref.util.FileWrapper at 0x32e34c8>'
p1560
asbasbasbag69
(g85
g71
NtRp1561
(dp1562
g74
(dp1563
sg83
g673
sg76
(lp1564
g69
(g90
g71
NtRp1565
(dp1566
g74
(dp1567
g94
g95
ssg83
g1561
sg76
(lp1568
S'wsgi_input'
p1569
asbag69
(g90
g71
NtRp1570
(dp1571
g74
(dp1572
g101
g102
ssg83
g1561
sg76
(lp1573
S':'
asbag69
(g90
g71
NtRp1574
(dp1575
g74
(dp1576
sg83
g1561
sg76
(lp1577
g69
(g70
g71
NtRp1578
(dp1579
g74
(dp1580
g82
I4
ssg83
g1574
sg76
(lp1581
S'<socket._fileobject object at 0x7ff518143ad0>'
p1582
asbasbasbag69
(g85
g71
NtRp1583
(dp1584
g74
(dp1585
sg83
g673
sg76
(lp1586
g69
(g90
g71
NtRp1587
(dp1588
g74
(dp1589
g94
g95
ssg83
g1583
sg76
(lp1590
S'wsgi_multiprocess'
p1591
asbag69
(g90
g71
NtRp1592
(dp1593
g74
(dp1594
g101
g102
ssg83
g1583
sg76
(lp1595
S':'
asbag69
(g90
g71
NtRp1596
(dp1597
g74
(dp1598
sg83
g1583
sg76
(lp1599
g69
(g70
g71
NtRp1600
(dp1601
g74
(dp1602
g82
I4
ssg83
g1596
sg76
(lp1603
g112
asbasbasbag69
(g85
g71
NtRp1604
(dp1605
g74
(dp1606
sg83
g673
sg76
(lp1607
g69
(g90
g71
NtRp1608
(dp1609
g74
(dp1610
g94
g95
ssg83
g1604
sg76
(lp1611
S'wsgi_multithread'
p1612
asbag69
(g90
g71
NtRp1613
(dp1614
g74
(dp1615
g101
g102
ssg83
g1604
sg76
(lp1616
S':'
asbag69
(g90
g71
NtRp1617
(dp1618
g74
(dp1619
sg83
g1604
sg76
(lp1620
g69
(g70
g71
NtRp1621
(dp1622
g74
(dp1623
g82
I4
ssg83
g1617
sg76
(lp1624
S'True'
p1625
asbasbasbag69
(g85
g71
NtRp1626
(dp1627
g74
(dp1628
sg83
g673
sg76
(lp1629
g69
(g90
g71
NtRp1630
(dp1631
g74
(dp1632
g94
g95
ssg83
g1626
sg76
(lp1633
S'wsgi_run_once'
p1634
asbag69
(g90
g71
NtRp1635
(dp1636
g74
(dp1637
g101
g102
ssg83
g1626
sg76
(lp1638
S':'
asbag69
(g90
g71
NtRp1639
(dp1640
g74
(dp1641
sg83
g1626
sg76
(lp1642
g69
(g70
g71
NtRp1643
(dp1644
g74
(dp1645
g82
I4
ssg83
g1639
sg76
(lp1646
g112
asbasbasbag69
(g85
g71
NtRp1647
(dp1648
g74
(dp1649
sg83
g673
sg76
(lp1650
g69
(g90
g71
NtRp1651
(dp1652
g74
(dp1653
g94
g95
ssg83
g1647
sg76
(lp1654
S'wsgi_url_scheme'
p1655
asbag69
(g90
g71
NtRp1656
(dp1657
g74
(dp1658
g101
g102
ssg83
g1647
sg76
(lp1659
S':'
asbag69
(g90
g71
NtRp1660
(dp1661
g74
(dp1662
sg83
g1647
sg76
(lp1663
g69
(g70
g71
NtRp1664
(dp1665
g74
(dp1666
g82
I4
ssg83
g1660
sg76
(lp1667
S'http'
p1668
asbasbasbag69
(g85
g71
NtRp1669
(dp1670
g74
(dp1671
sg83
g673
sg76
(lp1672
g69
(g90
g71
NtRp1673
(dp1674
g74
(dp1675
g94
g95
ssg83
g1669
sg76
(lp1676
S'wsgi_version'
p1677
asbag69
(g90
g71
NtRp1678
(dp1679
g74
(dp1680
g101
g102
ssg83
g1669
sg76
(lp1681
S':'
asbag69
(g90
g71
NtRp1682
(dp1683
g74
(dp1684
sg83
g1669
sg76
(lp1685
g69
(g70
g71
NtRp1686
(dp1687
g74
(dp1688
g82
I4
ssg83
g1682
sg76
(lp1689
g69
(g78
g71
NtRp1690
(dp1691
g74
(dp1692
g82
I3
ssg83
Nsg76
(lp1693
g69
(g85
g71
NtRp1694
(dp1695
g74
(dp1696
sg83
g1690
sg76
(lp1697
g69
(g90
g71
NtRp1698
(dp1699
g74
(dp1700
sg83
g1694
sg76
(lp1701
g69
(g70
g71
NtRp1702
(dp1703
g74
(dp1704
g82
I3
ssg83
g1698
sg76
(lp1705
S'1'
asbasbasbag69
(g85
g71
NtRp1706
(dp1707
g74
(dp1708
sg83
g1690
sg76
(lp1709
g69
(g90
g71
NtRp1710
(dp1711
g74
(dp1712
sg83
g1706
sg76
(lp1713
g69
(g70
g71
NtRp1714
(dp1715
g74
(dp1716
g82
I3
ssg83
g1710
sg76
(lp1717
S'0'
asbasbasbasbasbasbasbasbasbasbasbag69
(g85
g71
NtRp1718
(dp1719
g74
(dp1720
sg83
g79
sg76
(lp1721
g69
(g90
g71
NtRp1722
(dp1723
g74
(dp1724
g94
g95
ssg83
g1718
sg76
(lp1725
S'extension'
p1726
asbag69
(g90
g71
NtRp1727
(dp1728
g74
(dp1729
g101
g102
ssg83
g1718
sg76
(lp1730
S':'
asbag69
(g90
g71
NtRp1731
(dp1732
g74
(dp1733
sg83
g1718
sg76
(lp1734
g69
(g70
g71
NtRp1735
(dp1736
g74
(dp1737
g82
I5
ssg83
g1731
sg76
(lp1738
S'html'
p1739
asbasbasbag69
(g85
g71
NtRp1740
(dp1741
g74
(dp1742
sg83
g79
sg76
(lp1743
g69
(g90
g71
NtRp1744
(dp1745
g74
(dp1746
g94
g95
ssg83
g1740
sg76
(lp1747
S'folder'
p1748
asbag69
(g90
g71
NtRp1749
(dp1750
g74
(dp1751
g101
g102
ssg83
g1740
sg76
(lp1752
S':'
asbag69
(g90
g71
NtRp1753
(dp1754
g74
(dp1755
sg83
g1740
sg76
(lp1756
g69
(g70
g71
NtRp1757
(dp1758
g74
(dp1759
g82
I5
ssg83
g1753
sg76
(lp1760
S'/var/www/gravacao/applications/projeto/'
p1761
asbasbasbag69
(g85
g71
NtRp1762
(dp1763
g74
(dp1764
sg83
g79
sg76
(lp1765
g69
(g90
g71
NtRp1766
(dp1767
g74
(dp1768
g94
g95
ssg83
g1762
sg76
(lp1769
S'function'
p1770
asbag69
(g90
g71
NtRp1771
(dp1772
g74
(dp1773
g101
g102
ssg83
g1762
sg76
(lp1774
S':'
asbag69
(g90
g71
NtRp1775
(dp1776
g74
(dp1777
sg83
g1762
sg76
(lp1778
g69
(g70
g71
NtRp1779
(dp1780
g74
(dp1781
g82
I5
ssg83
g1775
sg76
(lp1782
S'principal'
p1783
asbasbasbag69
(g85
g71
NtRp1784
(dp1785
g74
(dp1786
sg83
g79
sg76
(lp1787
g69
(g90
g71
NtRp1788
(dp1789
g74
(dp1790
g94
g95
ssg83
g1784
sg76
(lp1791
S'get_vars'
p1792
asbag69
(g90
g71
NtRp1793
(dp1794
g74
(dp1795
g101
g102
ssg83
g1784
sg76
(lp1796
S':'
asbag69
(g90
g71
NtRp1797
(dp1798
g74
(dp1799
sg83
g1784
sg76
(lp1800
g69
(g70
g71
NtRp1801
(dp1802
g74
(dp1803
g82
I5
ssg83
g1797
sg76
(lp1804
g69
(g78
g71
NtRp1805
(dp1806
g74
(dp1807
g82
I4
ssg83
Nsg76
(lp1808
sbasbasbasbag69
(g85
g71
NtRp1809
(dp1810
g74
(dp1811
sg83
g79
sg76
(lp1812
g69
(g90
g71
NtRp1813
(dp1814
g74
(dp1815
g94
g95
ssg83
g1809
sg76
(lp1816
S'global_settings'
p1817
asbag69
(g90
g71
NtRp1818
(dp1819
g74
(dp1820
g101
g102
ssg83
g1809
sg76
(lp1821
S':'
asbag69
(g90
g71
NtRp1822
(dp1823
g74
(dp1824
sg83
g1809
sg76
(lp1825
g69
(g70
g71
NtRp1826
(dp1827
g74
(dp1828
g82
I5
ssg83
g1822
sg76
(lp1829
g69
(g78
g71
NtRp1830
(dp1831
g74
(dp1832
g82
I4
ssg83
Nsg76
(lp1833
g69
(g85
g71
NtRp1834
(dp1835
g74
(dp1836
sg83
g1830
sg76
(lp1837
g69
(g90
g71
NtRp1838
(dp1839
g74
(dp1840
g94
g95
ssg83
g1834
sg76
(lp1841
g685
asbag69
(g90
g71
NtRp1842
(dp1843
g74
(dp1844
g101
g102
ssg83
g1834
sg76
(lp1845
S':'
asbag69
(g90
g71
NtRp1846
(dp1847
g74
(dp1848
sg83
g1834
sg76
(lp1849
g69
(g70
g71
NtRp1850
(dp1851
g74
(dp1852
g82
I4
ssg83
g1846
sg76
(lp1853
S"set(['/var/www/gravacao/applications/projeto/'])"
p1854
asbasbasbag69
(g85
g71
NtRp1855
(dp1856
g74
(dp1857
sg83
g1830
sg76
(lp1858
g69
(g90
g71
NtRp1859
(dp1860
g74
(dp1861
g94
g95
ssg83
g1855
sg76
(lp1862
g707
asbag69
(g90
g71
NtRp1863
(dp1864
g74
(dp1865
g101
g102
ssg83
g1855
sg76
(lp1866
S':'
asbag69
(g90
g71
NtRp1867
(dp1868
g74
(dp1869
sg83
g1855
sg76
(lp1870
g69
(g70
g71
NtRp1871
(dp1872
g74
(dp1873
g82
I4
ssg83
g1867
sg76
(lp1874
g720
asbasbasbag69
(g85
g71
NtRp1875
(dp1876
g74
(dp1877
sg83
g1830
sg76
(lp1878
g69
(g90
g71
NtRp1879
(dp1880
g74
(dp1881
g94
g95
ssg83
g1875
sg76
(lp1882
g729
asbag69
(g90
g71
NtRp1883
(dp1884
g74
(dp1885
g101
g102
ssg83
g1875
sg76
(lp1886
S':'
asbag69
(g90
g71
NtRp1887
(dp1888
g74
(dp1889
sg83
g1875
sg76
(lp1890
g69
(g70
g71
NtRp1891
(dp1892
g74
(dp1893
g82
I4
ssg83
g1887
sg76
(lp1894
g69
(g78
g71
NtRp1895
(dp1896
g74
(dp1897
g82
I3
ssg83
Nsg76
(lp1898
sbasbasbasbag69
(g85
g71
NtRp1899
(dp1900
g74
(dp1901
sg83
g1830
sg76
(lp1902
g69
(g90
g71
NtRp1903
(dp1904
g74
(dp1905
g94
g95
ssg83
g1899
sg76
(lp1906
g754
asbag69
(g90
g71
NtRp1907
(dp1908
g74
(dp1909
g101
g102
ssg83
g1899
sg76
(lp1910
S':'
asbag69
(g90
g71
NtRp1911
(dp1912
g74
(dp1913
sg83
g1899
sg76
(lp1914
g69
(g70
g71
NtRp1915
(dp1916
g74
(dp1917
g82
I4
ssg83
g1911
sg76
(lp1918
S"<Values at 0x335b2d8: {'verbose': False, 'ip': '127.0.0.1', 'with_scheduler': False, 'ips': [], 'shutdown_timeout': 5, 'taskbar': False, 'port': 8000, 'maxthreads': None, 'softcron': False, 'server_name': 'fernando-workstation', 'bpython': False, 'nogui': False, 'pid_filename': 'httpserver.pid', 'extcron': False, 'runcron': False, 'run_system_tests': False, 'test': None, 'folder': '/var/www/gravacao', 'config': '', 'minthreads': None, 'winservice': '', 'shell': None, 'run': '', 'log_filename': 'httpserver.log', 'debuglevel': 30, 'args': [''], 'socket_timeout': 5, 'ssl_ca_certificate': None, 'scheduler': None, 'profiler_filename': None, 'ssl_private_key': '', 'scheduler_groups': None, 'password': '123456', 'request_queue_size': 5, 'ssl_certificate': '', 'cronjob': False, 'numthreads': None, 'quiet': False, 'interfaces': None, 'import_models': False, 'timeout': 10, 'plain': False, 'nobanner': False}>"
p1919
asbasbasbag69
(g85
g71
NtRp1920
(dp1921
g74
(dp1922
sg83
g1830
sg76
(lp1923
g69
(g90
g71
NtRp1924
(dp1925
g74
(dp1926
g94
g95
ssg83
g1920
sg76
(lp1927
g776
asbag69
(g90
g71
NtRp1928
(dp1929
g74
(dp1930
g101
g102
ssg83
g1920
sg76
(lp1931
S':'
asbag69
(g90
g71
NtRp1932
(dp1933
g74
(dp1934
sg83
g1920
sg76
(lp1935
g69
(g70
g71
NtRp1936
(dp1937
g74
(dp1938
g82
I4
ssg83
g1932
sg76
(lp1939
S'set([])'
p1940
asbasbasbag69
(g85
g71
NtRp1941
(dp1942
g74
(dp1943
sg83
g1830
sg76
(lp1944
g69
(g90
g71
NtRp1945
(dp1946
g74
(dp1947
g94
g95
ssg83
g1941
sg76
(lp1948
g798
asbag69
(g90
g71
NtRp1949
(dp1950
g74
(dp1951
g101
g102
ssg83
g1941
sg76
(lp1952
S':'
asbag69
(g90
g71
NtRp1953
(dp1954
g74
(dp1955
sg83
g1941
sg76
(lp1956
g69
(g70
g71
NtRp1957
(dp1958
g74
(dp1959
g82
I4
ssg83
g1953
sg76
(lp1960
g112
asbasbasbag69
(g85
g71
NtRp1961
(dp1962
g74
(dp1963
sg83
g1830
sg76
(lp1964
g69
(g90
g71
NtRp1965
(dp1966
g74
(dp1967
g94
g95
ssg83
g1961
sg76
(lp1968
g819
asbag69
(g90
g71
NtRp1969
(dp1970
g74
(dp1971
g101
g102
ssg83
g1961
sg76
(lp1972
S':'
asbag69
(g90
g71
NtRp1973
(dp1974
g74
(dp1975
sg83
g1961
sg76
(lp1976
g69
(g70
g71
NtRp1977
(dp1978
g74
(dp1979
g82
I4
ssg83
g1973
sg76
(lp1980
g832
asbasbasbag69
(g85
g71
NtRp1981
(dp1982
g74
(dp1983
sg83
g1830
sg76
(lp1984
g69
(g90
g71
NtRp1985
(dp1986
g74
(dp1987
g94
g95
ssg83
g1981
sg76
(lp1988
g1039
asbag69
(g90
g71
NtRp1989
(dp1990
g74
(dp1991
g101
g102
ssg83
g1981
sg76
(lp1992
S':'
asbag69
(g90
g71
NtRp1993
(dp1994
g74
(dp1995
sg83
g1981
sg76
(lp1996
g69
(g70
g71
NtRp1997
(dp1998
g74
(dp1999
g82
I4
ssg83
g1993
sg76
(lp2000
g112
asbasbasbag69
(g85
g71
NtRp2001
(dp2002
g74
(dp2003
sg83
g1830
sg76
(lp2004
g69
(g90
g71
NtRp2005
(dp2006
g74
(dp2007
g94
g95
ssg83
g2001
sg76
(lp2008
g1060
asbag69
(g90
g71
NtRp2009
(dp2010
g74
(dp2011
g101
g102
ssg83
g2001
sg76
(lp2012
S':'
asbag69
(g90
g71
NtRp2013
(dp2014
g74
(dp2015
sg83
g2001
sg76
(lp2016
g69
(g70
g71
NtRp2017
(dp2018
g74
(dp2019
g82
I4
ssg83
g2013
sg76
(lp2020
g112
asbasbasbag69
(g85
g71
NtRp2021
(dp2022
g74
(dp2023
sg83
g1830
sg76
(lp2024
g69
(g90
g71
NtRp2025
(dp2026
g74
(dp2027
g94
g95
ssg83
g2021
sg76
(lp2028
g1081
asbag69
(g90
g71
NtRp2029
(dp2030
g74
(dp2031
g101
g102
ssg83
g2021
sg76
(lp2032
S':'
asbag69
(g90
g71
NtRp2033
(dp2034
g74
(dp2035
sg83
g2021
sg76
(lp2036
g69
(g70
g71
NtRp2037
(dp2038
g74
(dp2039
g82
I4
ssg83
g2033
sg76
(lp2040
g69
(g78
g71
NtRp2041
(dp2042
g74
(dp2043
g82
I3
ssg83
Nsg76
(lp2044
g69
(g85
g71
NtRp2045
(dp2046
g74
(dp2047
sg83
g2041
sg76
(lp2048
g69
(g90
g71
NtRp2049
(dp2050
g74
(dp2051
sg83
g2045
sg76
(lp2052
g69
(g70
g71
NtRp2053
(dp2054
g74
(dp2055
g82
I3
ssg83
g2049
sg76
(lp2056
g1110
asbasbasbag69
(g85
g71
NtRp2057
(dp2058
g74
(dp2059
sg83
g2041
sg76
(lp2060
g69
(g90
g71
NtRp2061
(dp2062
g74
(dp2063
sg83
g2057
sg76
(lp2064
g69
(g70
g71
NtRp2065
(dp2066
g74
(dp2067
g82
I3
ssg83
g2061
sg76
(lp2068
g1123
asbasbasbag69
(g85
g71
NtRp2069
(dp2070
g74
(dp2071
sg83
g2041
sg76
(lp2072
g69
(g90
g71
NtRp2073
(dp2074
g74
(dp2075
sg83
g2069
sg76
(lp2076
g69
(g70
g71
NtRp2077
(dp2078
g74
(dp2079
g82
I3
ssg83
g2073
sg76
(lp2080
g1136
asbasbasbag69
(g85
g71
NtRp2081
(dp2082
g74
(dp2083
sg83
g2041
sg76
(lp2084
g69
(g90
g71
NtRp2085
(dp2086
g74
(dp2087
sg83
g2081
sg76
(lp2088
g69
(g70
g71
NtRp2089
(dp2090
g74
(dp2091
g82
I3
ssg83
g2085
sg76
(lp2092
g1149
asbasbasbasbasbasbasbag69
(g85
g71
NtRp2093
(dp2094
g74
(dp2095
sg83
g1830
sg76
(lp2096
g69
(g90
g71
NtRp2097
(dp2098
g74
(dp2099
g94
g95
ssg83
g2093
sg76
(lp2100
g1438
asbag69
(g90
g71
NtRp2101
(dp2102
g74
(dp2103
g101
g102
ssg83
g2093
sg76
(lp2104
S':'
asbag69
(g90
g71
NtRp2105
(dp2106
g74
(dp2107
sg83
g2093
sg76
(lp2108
g69
(g70
g71
NtRp2109
(dp2110
g74
(dp2111
g82
I4
ssg83
g2105
sg76
(lp2112
g69
(g78
g71
NtRp2113
(dp2114
g74
(dp2115
g82
I3
ssg83
Nsg76
(lp2116
g69
(g85
g71
NtRp2117
(dp2118
g74
(dp2119
sg83
g2113
sg76
(lp2120
g69
(g90
g71
NtRp2121
(dp2122
g74
(dp2123
sg83
g2117
sg76
(lp2124
g69
(g70
g71
NtRp2125
(dp2126
g74
(dp2127
g82
I3
ssg83
g2121
sg76
(lp2128
S'2'
asbasbasbag69
(g85
g71
NtRp2129
(dp2130
g74
(dp2131
sg83
g2113
sg76
(lp2132
g69
(g90
g71
NtRp2133
(dp2134
g74
(dp2135
sg83
g2129
sg76
(lp2136
g69
(g70
g71
NtRp2137
(dp2138
g74
(dp2139
g82
I3
ssg83
g2133
sg76
(lp2140
S'3'
asbasbasbag69
(g85
g71
NtRp2141
(dp2142
g74
(dp2143
sg83
g2113
sg76
(lp2144
g69
(g90
g71
NtRp2145
(dp2146
g74
(dp2147
sg83
g2141
sg76
(lp2148
g69
(g70
g71
NtRp2149
(dp2150
g74
(dp2151
g82
I3
ssg83
g2145
sg76
(lp2152
S'2'
asbasbasbag69
(g85
g71
NtRp2153
(dp2154
g74
(dp2155
sg83
g2113
sg76
(lp2156
g69
(g90
g71
NtRp2157
(dp2158
g74
(dp2159
sg83
g2153
sg76
(lp2160
g69
(g70
g71
NtRp2161
(dp2162
g74
(dp2163
g82
I3
ssg83
g2157
sg76
(lp2164
S'datetime.datetime(2012, 12, 17, 15, 3, 30)'
p2165
asbasbasbag69
(g85
g71
NtRp2166
(dp2167
g74
(dp2168
sg83
g2113
sg76
(lp2169
g69
(g90
g71
NtRp2170
(dp2171
g74
(dp2172
sg83
g2166
sg76
(lp2173
g69
(g70
g71
NtRp2174
(dp2175
g74
(dp2176
g82
I3
ssg83
g2170
sg76
(lp2177
g1516
asbasbasbasbasbasbasbasbasbasbasbag69
(g85
g71
NtRp2178
(dp2179
g74
(dp2180
sg83
g79
sg76
(lp2181
g69
(g90
g71
NtRp2182
(dp2183
g74
(dp2184
g94
g95
ssg83
g2178
sg76
(lp2185
S'is_https'
p2186
asbag69
(g90
g71
NtRp2187
(dp2188
g74
(dp2189
g101
g102
ssg83
g2178
sg76
(lp2190
S':'
asbag69
(g90
g71
NtRp2191
(dp2192
g74
(dp2193
sg83
g2178
sg76
(lp2194
g69
(g70
g71
NtRp2195
(dp2196
g74
(dp2197
g82
I5
ssg83
g2191
sg76
(lp2198
g112
asbasbasbag69
(g85
g71
NtRp2199
(dp2200
g74
(dp2201
sg83
g79
sg76
(lp2202
g69
(g90
g71
NtRp2203
(dp2204
g74
(dp2205
g94
g95
ssg83
g2199
sg76
(lp2206
S'is_local'
p2207
asbag69
(g90
g71
NtRp2208
(dp2209
g74
(dp2210
g101
g102
ssg83
g2199
sg76
(lp2211
S':'
asbag69
(g90
g71
NtRp2212
(dp2213
g74
(dp2214
sg83
g2199
sg76
(lp2215
g69
(g70
g71
NtRp2216
(dp2217
g74
(dp2218
g82
I5
ssg83
g2212
sg76
(lp2219
g1625
asbasbasbag69
(g85
g71
NtRp2220
(dp2221
g74
(dp2222
sg83
g79
sg76
(lp2223
g69
(g90
g71
NtRp2224
(dp2225
g74
(dp2226
g94
g95
ssg83
g2220
sg76
(lp2227
S'is_restful'
p2228
asbag69
(g90
g71
NtRp2229
(dp2230
g74
(dp2231
g101
g102
ssg83
g2220
sg76
(lp2232
S':'
asbag69
(g90
g71
NtRp2233
(dp2234
g74
(dp2235
sg83
g2220
sg76
(lp2236
g69
(g70
g71
NtRp2237
(dp2238
g74
(dp2239
g82
I5
ssg83
g2233
sg76
(lp2240
g112
asbasbasbag69
(g85
g71
NtRp2241
(dp2242
g74
(dp2243
sg83
g79
sg76
(lp2244
g69
(g90
g71
NtRp2245
(dp2246
g74
(dp2247
g94
g95
ssg83
g2241
sg76
(lp2248
S'now'
p2249
asbag69
(g90
g71
NtRp2250
(dp2251
g74
(dp2252
g101
g102
ssg83
g2241
sg76
(lp2253
S':'
asbag69
(g90
g71
NtRp2254
(dp2255
g74
(dp2256
sg83
g2241
sg76
(lp2257
g69
(g70
g71
NtRp2258
(dp2259
g74
(dp2260
g82
I5
ssg83
g2254
sg76
(lp2261
S'datetime.datetime(2013, 5, 17, 16, 19, 5, 238674)'
p2262
asbasbasbag69
(g85
g71
NtRp2263
(dp2264
g74
(dp2265
sg83
g79
sg76
(lp2266
g69
(g90
g71
NtRp2267
(dp2268
g74
(dp2269
g94
g95
ssg83
g2263
sg76
(lp2270
S'post_vars'
p2271
asbag69
(g90
g71
NtRp2272
(dp2273
g74
(dp2274
g101
g102
ssg83
g2263
sg76
(lp2275
S':'
asbag69
(g90
g71
NtRp2276
(dp2277
g74
(dp2278
sg83
g2263
sg76
(lp2279
g69
(g70
g71
NtRp2280
(dp2281
g74
(dp2282
g82
I5
ssg83
g2276
sg76
(lp2283
g69
(g78
g71
NtRp2284
(dp2285
g74
(dp2286
g82
I4
ssg83
Nsg76
(lp2287
sbasbasbasbag69
(g85
g71
NtRp2288
(dp2289
g74
(dp2290
sg83
g79
sg76
(lp2291
g69
(g90
g71
NtRp2292
(dp2293
g74
(dp2294
g94
g95
ssg83
g2288
sg76
(lp2295
S'url'
p2296
asbag69
(g90
g71
NtRp2297
(dp2298
g74
(dp2299
g101
g102
ssg83
g2288
sg76
(lp2300
S':'
asbag69
(g90
g71
NtRp2301
(dp2302
g74
(dp2303
sg83
g2288
sg76
(lp2304
g69
(g70
g71
NtRp2305
(dp2306
g74
(dp2307
g82
I5
ssg83
g2301
sg76
(lp2308
S'/'
asbasbasbag69
(g85
g71
NtRp2309
(dp2310
g74
(dp2311
sg83
g79
sg76
(lp2312
g69
(g90
g71
NtRp2313
(dp2314
g74
(dp2315
g94
g95
ssg83
g2309
sg76
(lp2316
S'utcnow'
p2317
asbag69
(g90
g71
NtRp2318
(dp2319
g74
(dp2320
g101
g102
ssg83
g2309
sg76
(lp2321
S':'
asbag69
(g90
g71
NtRp2322
(dp2323
g74
(dp2324
sg83
g2309
sg76
(lp2325
g69
(g70
g71
NtRp2326
(dp2327
g74
(dp2328
g82
I5
ssg83
g2322
sg76
(lp2329
S'datetime.datetime(2013, 5, 17, 19, 19, 5, 238734)'
p2330
asbasbasbag69
(g85
g71
NtRp2331
(dp2332
g74
(dp2333
sg83
g79
sg76
(lp2334
g69
(g90
g71
NtRp2335
(dp2336
g74
(dp2337
g94
g95
ssg83
g2331
sg76
(lp2338
S'uuid'
p2339
asbag69
(g90
g71
NtRp2340
(dp2341
g74
(dp2342
g101
g102
ssg83
g2331
sg76
(lp2343
S':'
asbag69
(g90
g71
NtRp2344
(dp2345
g74
(dp2346
sg83
g2331
sg76
(lp2347
g69
(g70
g71
NtRp2348
(dp2349
g74
(dp2350
g82
I5
ssg83
g2344
sg76
(lp2351
S'projeto/127.0.0.1.2013-05-17.16-19-05.cd3a0679-6c81-408b-9473-c0f003efc4b6'
p2352
asbasbasbag69
(g85
g71
NtRp2353
(dp2354
g74
(dp2355
sg83
g79
sg76
(lp2356
g69
(g90
g71
NtRp2357
(dp2358
g74
(dp2359
g94
g95
ssg83
g2353
sg76
(lp2360
S'vars'
p2361
asbag69
(g90
g71
NtRp2362
(dp2363
g74
(dp2364
g101
g102
ssg83
g2353
sg76
(lp2365
S':'
asbag69
(g90
g71
NtRp2366
(dp2367
g74
(dp2368
sg83
g2353
sg76
(lp2369
g69
(g70
g71
NtRp2370
(dp2371
g74
(dp2372
g82
I5
ssg83
g2366
sg76
(lp2373
g69
(g78
g71
NtRp2374
(dp2375
g74
(dp2376
g82
I4
ssg83
Nsg76
(lp2377
sbasbasbasbag69
(g85
g71
NtRp2378
(dp2379
g74
(dp2380
sg83
g79
sg76
(lp2381
g69
(g90
g71
NtRp2382
(dp2383
g74
(dp2384
g94
g95
ssg83
g2378
sg76
(lp2385
S'wsgi'
p2386
asbag69
(g90
g71
NtRp2387
(dp2388
g74
(dp2389
g101
g102
ssg83
g2378
sg76
(lp2390
S':'
asbag69
(g90
g71
NtRp2391
(dp2392
g74
(dp2393
sg83
g2378
sg76
(lp2394
g69
(g70
g71
NtRp2395
(dp2396
g74
(dp2397
g82
I5
ssg83
g2391
sg76
(lp2398
g69
(g78
g71
NtRp2399
(dp2400
g74
(dp2401
g82
I4
ssg83
Nsg76
(lp2402
g69
(g85
g71
NtRp2403
(dp2404
g74
(dp2405
sg83
g2399
sg76
(lp2406
g69
(g90
g71
NtRp2407
(dp2408
g74
(dp2409
g94
g95
ssg83
g2403
sg76
(lp2410
S'environ'
p2411
asbag69
(g90
g71
NtRp2412
(dp2413
g74
(dp2414
g101
g102
ssg83
g2403
sg76
(lp2415
S':'
asbag69
(g90
g71
NtRp2416
(dp2417
g74
(dp2418
sg83
g2403
sg76
(lp2419
g69
(g70
g71
NtRp2420
(dp2421
g74
(dp2422
g82
I4
ssg83
g2416
sg76
(lp2423
g69
(g78
g71
NtRp2424
(dp2425
g74
(dp2426
g82
I3
ssg83
Nsg76
(lp2427
g69
(g85
g71
NtRp2428
(dp2429
g74
(dp2430
sg83
g2424
sg76
(lp2431
g69
(g90
g71
NtRp2432
(dp2433
g74
(dp2434
g94
g95
ssg83
g2428
sg76
(lp2435
S'HTTP_ACCEPT'
p2436
asbag69
(g90
g71
NtRp2437
(dp2438
g74
(dp2439
g101
g102
ssg83
g2428
sg76
(lp2440
S':'
asbag69
(g90
g71
NtRp2441
(dp2442
g74
(dp2443
sg83
g2428
sg76
(lp2444
g69
(g70
g71
NtRp2445
(dp2446
g74
(dp2447
g82
I3
ssg83
g2441
sg76
(lp2448
g854
asbasbasbag69
(g85
g71
NtRp2449
(dp2450
g74
(dp2451
sg83
g2424
sg76
(lp2452
g69
(g90
g71
NtRp2453
(dp2454
g74
(dp2455
g94
g95
ssg83
g2449
sg76
(lp2456
S'HTTP_ACCEPT_CHARSET'
p2457
asbag69
(g90
g71
NtRp2458
(dp2459
g74
(dp2460
g101
g102
ssg83
g2449
sg76
(lp2461
S':'
asbag69
(g90
g71
NtRp2462
(dp2463
g74
(dp2464
sg83
g2449
sg76
(lp2465
g69
(g70
g71
NtRp2466
(dp2467
g74
(dp2468
g82
I3
ssg83
g2462
sg76
(lp2469
g876
asbasbasbag69
(g85
g71
NtRp2470
(dp2471
g74
(dp2472
sg83
g2424
sg76
(lp2473
g69
(g90
g71
NtRp2474
(dp2475
g74
(dp2476
g94
g95
ssg83
g2470
sg76
(lp2477
S'HTTP_ACCEPT_ENCODING'
p2478
asbag69
(g90
g71
NtRp2479
(dp2480
g74
(dp2481
g101
g102
ssg83
g2470
sg76
(lp2482
S':'
asbag69
(g90
g71
NtRp2483
(dp2484
g74
(dp2485
sg83
g2470
sg76
(lp2486
g69
(g70
g71
NtRp2487
(dp2488
g74
(dp2489
g82
I3
ssg83
g2483
sg76
(lp2490
g898
asbasbasbag69
(g85
g71
NtRp2491
(dp2492
g74
(dp2493
sg83
g2424
sg76
(lp2494
g69
(g90
g71
NtRp2495
(dp2496
g74
(dp2497
g94
g95
ssg83
g2491
sg76
(lp2498
S'HTTP_ACCEPT_LANGUAGE'
p2499
asbag69
(g90
g71
NtRp2500
(dp2501
g74
(dp2502
g101
g102
ssg83
g2491
sg76
(lp2503
S':'
asbag69
(g90
g71
NtRp2504
(dp2505
g74
(dp2506
sg83
g2491
sg76
(lp2507
g69
(g70
g71
NtRp2508
(dp2509
g74
(dp2510
g82
I3
ssg83
g2504
sg76
(lp2511
g920
asbasbasbag69
(g85
g71
NtRp2512
(dp2513
g74
(dp2514
sg83
g2424
sg76
(lp2515
g69
(g90
g71
NtRp2516
(dp2517
g74
(dp2518
g94
g95
ssg83
g2512
sg76
(lp2519
S'HTTP_CONNECTION'
p2520
asbag69
(g90
g71
NtRp2521
(dp2522
g74
(dp2523
g101
g102
ssg83
g2512
sg76
(lp2524
S':'
asbag69
(g90
g71
NtRp2525
(dp2526
g74
(dp2527
sg83
g2512
sg76
(lp2528
g69
(g70
g71
NtRp2529
(dp2530
g74
(dp2531
g82
I3
ssg83
g2525
sg76
(lp2532
g942
asbasbasbag69
(g85
g71
NtRp2533
(dp2534
g74
(dp2535
sg83
g2424
sg76
(lp2536
g69
(g90
g71
NtRp2537
(dp2538
g74
(dp2539
g94
g95
ssg83
g2533
sg76
(lp2540
S'HTTP_COOKIE'
p2541
asbag69
(g90
g71
NtRp2542
(dp2543
g74
(dp2544
g101
g102
ssg83
g2533
sg76
(lp2545
S':'
asbag69
(g90
g71
NtRp2546
(dp2547
g74
(dp2548
sg83
g2533
sg76
(lp2549
g69
(g70
g71
NtRp2550
(dp2551
g74
(dp2552
g82
I3
ssg83
g2546
sg76
(lp2553
g964
asbasbasbag69
(g85
g71
NtRp2554
(dp2555
g74
(dp2556
sg83
g2424
sg76
(lp2557
g69
(g90
g71
NtRp2558
(dp2559
g74
(dp2560
g94
g95
ssg83
g2554
sg76
(lp2561
S'HTTP_HOST'
p2562
asbag69
(g90
g71
NtRp2563
(dp2564
g74
(dp2565
g101
g102
ssg83
g2554
sg76
(lp2566
S':'
asbag69
(g90
g71
NtRp2567
(dp2568
g74
(dp2569
sg83
g2554
sg76
(lp2570
g69
(g70
g71
NtRp2571
(dp2572
g74
(dp2573
g82
I3
ssg83
g2567
sg76
(lp2574
g986
asbasbasbag69
(g85
g71
NtRp2575
(dp2576
g74
(dp2577
sg83
g2424
sg76
(lp2578
g69
(g90
g71
NtRp2579
(dp2580
g74
(dp2581
g94
g95
ssg83
g2575
sg76
(lp2582
S'HTTP_REFERER'
p2583
asbag69
(g90
g71
NtRp2584
(dp2585
g74
(dp2586
g101
g102
ssg83
g2575
sg76
(lp2587
S':'
asbag69
(g90
g71
NtRp2588
(dp2589
g74
(dp2590
sg83
g2575
sg76
(lp2591
g69
(g70
g71
NtRp2592
(dp2593
g74
(dp2594
g82
I3
ssg83
g2588
sg76
(lp2595
g1008
asbasbasbag69
(g85
g71
NtRp2596
(dp2597
g74
(dp2598
sg83
g2424
sg76
(lp2599
g69
(g90
g71
NtRp2600
(dp2601
g74
(dp2602
g94
g95
ssg83
g2596
sg76
(lp2603
S'HTTP_USER_AGENT'
p2604
asbag69
(g90
g71
NtRp2605
(dp2606
g74
(dp2607
g101
g102
ssg83
g2596
sg76
(lp2608
S':'
asbag69
(g90
g71
NtRp2609
(dp2610
g74
(dp2611
sg83
g2596
sg76
(lp2612
g69
(g70
g71
NtRp2613
(dp2614
g74
(dp2615
g82
I3
ssg83
g2609
sg76
(lp2616
g1030
asbasbasbag69
(g85
g71
NtRp2617
(dp2618
g74
(dp2619
sg83
g2424
sg76
(lp2620
g69
(g90
g71
NtRp2621
(dp2622
g74
(dp2623
g94
g95
ssg83
g2617
sg76
(lp2624
S'PATH_INFO'
p2625
asbag69
(g90
g71
NtRp2626
(dp2627
g74
(dp2628
g101
g102
ssg83
g2617
sg76
(lp2629
S':'
asbag69
(g90
g71
NtRp2630
(dp2631
g74
(dp2632
sg83
g2617
sg76
(lp2633
g69
(g70
g71
NtRp2634
(dp2635
g74
(dp2636
g82
I3
ssg83
g2630
sg76
(lp2637
S'/'
asbasbasbag69
(g85
g71
NtRp2638
(dp2639
g74
(dp2640
sg83
g2424
sg76
(lp2641
g69
(g90
g71
NtRp2642
(dp2643
g74
(dp2644
g94
g95
ssg83
g2638
sg76
(lp2645
S'QUERY_STRING'
p2646
asbag69
(g90
g71
NtRp2647
(dp2648
g74
(dp2649
g101
g102
ssg83
g2638
sg76
(lp2650
S':'
asbag69
(g90
g71
NtRp2651
(dp2652
g74
(dp2653
sg83
g2638
sg76
(lp2654
g69
(g70
g71
NtRp2655
(dp2656
g74
(dp2657
g82
I3
ssg83
g2651
sg76
(lp2658
S''
asbasbasbag69
(g85
g71
NtRp2659
(dp2660
g74
(dp2661
sg83
g2424
sg76
(lp2662
g69
(g90
g71
NtRp2663
(dp2664
g74
(dp2665
g94
g95
ssg83
g2659
sg76
(lp2666
S'REMOTE_ADDR'
p2667
asbag69
(g90
g71
NtRp2668
(dp2669
g74
(dp2670
g101
g102
ssg83
g2659
sg76
(lp2671
S':'
asbag69
(g90
g71
NtRp2672
(dp2673
g74
(dp2674
sg83
g2659
sg76
(lp2675
g69
(g70
g71
NtRp2676
(dp2677
g74
(dp2678
g82
I3
ssg83
g2672
sg76
(lp2679
g224
asbasbasbag69
(g85
g71
NtRp2680
(dp2681
g74
(dp2682
sg83
g2424
sg76
(lp2683
g69
(g90
g71
NtRp2684
(dp2685
g74
(dp2686
g94
g95
ssg83
g2680
sg76
(lp2687
S'REMOTE_PORT'
p2688
asbag69
(g90
g71
NtRp2689
(dp2690
g74
(dp2691
g101
g102
ssg83
g2680
sg76
(lp2692
S':'
asbag69
(g90
g71
NtRp2693
(dp2694
g74
(dp2695
sg83
g2680
sg76
(lp2696
g69
(g70
g71
NtRp2697
(dp2698
g74
(dp2699
g82
I3
ssg83
g2693
sg76
(lp2700
g1234
asbasbasbag69
(g85
g71
NtRp2701
(dp2702
g74
(dp2703
sg83
g2424
sg76
(lp2704
g69
(g90
g71
NtRp2705
(dp2706
g74
(dp2707
g94
g95
ssg83
g2701
sg76
(lp2708
S'REQUEST_METHOD'
p2709
asbag69
(g90
g71
NtRp2710
(dp2711
g74
(dp2712
g101
g102
ssg83
g2701
sg76
(lp2713
S':'
asbag69
(g90
g71
NtRp2714
(dp2715
g74
(dp2716
sg83
g2701
sg76
(lp2717
g69
(g70
g71
NtRp2718
(dp2719
g74
(dp2720
g82
I3
ssg83
g2714
sg76
(lp2721
g1256
asbasbasbag69
(g85
g71
NtRp2722
(dp2723
g74
(dp2724
sg83
g2424
sg76
(lp2725
g69
(g90
g71
NtRp2726
(dp2727
g74
(dp2728
g94
g95
ssg83
g2722
sg76
(lp2729
S'REQUEST_URI'
p2730
asbag69
(g90
g71
NtRp2731
(dp2732
g74
(dp2733
g101
g102
ssg83
g2722
sg76
(lp2734
S':'
asbag69
(g90
g71
NtRp2735
(dp2736
g74
(dp2737
sg83
g2722
sg76
(lp2738
g69
(g70
g71
NtRp2739
(dp2740
g74
(dp2741
g82
I3
ssg83
g2735
sg76
(lp2742
g1278
asbasbasbag69
(g85
g71
NtRp2743
(dp2744
g74
(dp2745
sg83
g2424
sg76
(lp2746
g69
(g90
g71
NtRp2747
(dp2748
g74
(dp2749
g94
g95
ssg83
g2743
sg76
(lp2750
S'SCRIPT_NAME'
p2751
asbag69
(g90
g71
NtRp2752
(dp2753
g74
(dp2754
g101
g102
ssg83
g2743
sg76
(lp2755
S':'
asbag69
(g90
g71
NtRp2756
(dp2757
g74
(dp2758
sg83
g2743
sg76
(lp2759
g69
(g70
g71
NtRp2760
(dp2761
g74
(dp2762
g82
I3
ssg83
g2756
sg76
(lp2763
S''
asbasbasbag69
(g85
g71
NtRp2764
(dp2765
g74
(dp2766
sg83
g2424
sg76
(lp2767
g69
(g90
g71
NtRp2768
(dp2769
g74
(dp2770
g94
g95
ssg83
g2764
sg76
(lp2771
S'SERVER_NAME'
p2772
asbag69
(g90
g71
NtRp2773
(dp2774
g74
(dp2775
g101
g102
ssg83
g2764
sg76
(lp2776
S':'
asbag69
(g90
g71
NtRp2777
(dp2778
g74
(dp2779
sg83
g2764
sg76
(lp2780
g69
(g70
g71
NtRp2781
(dp2782
g74
(dp2783
g82
I3
ssg83
g2777
sg76
(lp2784
g1321
asbasbasbag69
(g85
g71
NtRp2785
(dp2786
g74
(dp2787
sg83
g2424
sg76
(lp2788
g69
(g90
g71
NtRp2789
(dp2790
g74
(dp2791
g94
g95
ssg83
g2785
sg76
(lp2792
S'SERVER_PORT'
p2793
asbag69
(g90
g71
NtRp2794
(dp2795
g74
(dp2796
g101
g102
ssg83
g2785
sg76
(lp2797
S':'
asbag69
(g90
g71
NtRp2798
(dp2799
g74
(dp2800
sg83
g2785
sg76
(lp2801
g69
(g70
g71
NtRp2802
(dp2803
g74
(dp2804
g82
I3
ssg83
g2798
sg76
(lp2805
g1343
asbasbasbag69
(g85
g71
NtRp2806
(dp2807
g74
(dp2808
sg83
g2424
sg76
(lp2809
g69
(g90
g71
NtRp2810
(dp2811
g74
(dp2812
g94
g95
ssg83
g2806
sg76
(lp2813
S'SERVER_PROTOCOL'
p2814
asbag69
(g90
g71
NtRp2815
(dp2816
g74
(dp2817
g101
g102
ssg83
g2806
sg76
(lp2818
S':'
asbag69
(g90
g71
NtRp2819
(dp2820
g74
(dp2821
sg83
g2806
sg76
(lp2822
g69
(g70
g71
NtRp2823
(dp2824
g74
(dp2825
g82
I3
ssg83
g2819
sg76
(lp2826
g1365
asbasbasbag69
(g85
g71
NtRp2827
(dp2828
g74
(dp2829
sg83
g2424
sg76
(lp2830
g69
(g90
g71
NtRp2831
(dp2832
g74
(dp2833
g94
g95
ssg83
g2827
sg76
(lp2834
S'SERVER_SOFTWARE'
p2835
asbag69
(g90
g71
NtRp2836
(dp2837
g74
(dp2838
g101
g102
ssg83
g2827
sg76
(lp2839
S':'
asbag69
(g90
g71
NtRp2840
(dp2841
g74
(dp2842
sg83
g2827
sg76
(lp2843
g69
(g70
g71
NtRp2844
(dp2845
g74
(dp2846
g82
I3
ssg83
g2840
sg76
(lp2847
g1387
asbasbasbag69
(g85
g71
NtRp2848
(dp2849
g74
(dp2850
sg83
g2424
sg76
(lp2851
g69
(g90
g71
NtRp2852
(dp2853
g74
(dp2854
g94
g95
ssg83
g2848
sg76
(lp2855
S'WEB2PY_ORIGINAL_URI'
p2856
asbag69
(g90
g71
NtRp2857
(dp2858
g74
(dp2859
g101
g102
ssg83
g2848
sg76
(lp2860
S':'
asbag69
(g90
g71
NtRp2861
(dp2862
g74
(dp2863
sg83
g2848
sg76
(lp2864
g69
(g70
g71
NtRp2865
(dp2866
g74
(dp2867
g82
I3
ssg83
g2861
sg76
(lp2868
S'/'
asbasbasbag69
(g85
g71
NtRp2869
(dp2870
g74
(dp2871
sg83
g2424
sg76
(lp2872
g69
(g90
g71
NtRp2873
(dp2874
g74
(dp2875
g94
g95
ssg83
g2869
sg76
(lp2876
S'wsgi.errors'
p2877
asbag69
(g90
g71
NtRp2878
(dp2879
g74
(dp2880
g101
g102
ssg83
g2869
sg76
(lp2881
S':'
asbag69
(g90
g71
NtRp2882
(dp2883
g74
(dp2884
sg83
g2869
sg76
(lp2885
g69
(g70
g71
NtRp2886
(dp2887
g74
(dp2888
g82
I3
ssg83
g2882
sg76
(lp2889
S"<open file '<stderr>', mode 'w' at 0x7ff529d1f270>"
p2890
asbasbasbag69
(g85
g71
NtRp2891
(dp2892
g74
(dp2893
sg83
g2424
sg76
(lp2894
g69
(g90
g71
NtRp2895
(dp2896
g74
(dp2897
g94
g95
ssg83
g2891
sg76
(lp2898
S'wsgi.file_wrapper'
p2899
asbag69
(g90
g71
NtRp2900
(dp2901
g74
(dp2902
g101
g102
ssg83
g2891
sg76
(lp2903
S':'
asbag69
(g90
g71
NtRp2904
(dp2905
g74
(dp2906
sg83
g2891
sg76
(lp2907
g69
(g70
g71
NtRp2908
(dp2909
g74
(dp2910
g82
I3
ssg83
g2904
sg76
(lp2911
S'<class wsgiref.util.FileWrapper at 0x32e34c8>'
p2912
asbasbasbag69
(g85
g71
NtRp2913
(dp2914
g74
(dp2915
sg83
g2424
sg76
(lp2916
g69
(g90
g71
NtRp2917
(dp2918
g74
(dp2919
g94
g95
ssg83
g2913
sg76
(lp2920
S'wsgi.input'
p2921
asbag69
(g90
g71
NtRp2922
(dp2923
g74
(dp2924
g101
g102
ssg83
g2913
sg76
(lp2925
S':'
asbag69
(g90
g71
NtRp2926
(dp2927
g74
(dp2928
sg83
g2913
sg76
(lp2929
g69
(g70
g71
NtRp2930
(dp2931
g74
(dp2932
g82
I3
ssg83
g2926
sg76
(lp2933
S'<cStringIO.StringO object at 0x7ff518249618>'
p2934
asbasbasbag69
(g85
g71
NtRp2935
(dp2936
g74
(dp2937
sg83
g2424
sg76
(lp2938
g69
(g90
g71
NtRp2939
(dp2940
g74
(dp2941
g94
g95
ssg83
g2935
sg76
(lp2942
S'wsgi.multiprocess'
p2943
asbag69
(g90
g71
NtRp2944
(dp2945
g74
(dp2946
g101
g102
ssg83
g2935
sg76
(lp2947
S':'
asbag69
(g90
g71
NtRp2948
(dp2949
g74
(dp2950
sg83
g2935
sg76
(lp2951
g69
(g70
g71
NtRp2952
(dp2953
g74
(dp2954
g82
I3
ssg83
g2948
sg76
(lp2955
g112
asbasbasbag69
(g85
g71
NtRp2956
(dp2957
g74
(dp2958
sg83
g2424
sg76
(lp2959
g69
(g90
g71
NtRp2960
(dp2961
g74
(dp2962
g94
g95
ssg83
g2956
sg76
(lp2963
S'wsgi.multithread'
p2964
asbag69
(g90
g71
NtRp2965
(dp2966
g74
(dp2967
g101
g102
ssg83
g2956
sg76
(lp2968
S':'
asbag69
(g90
g71
NtRp2969
(dp2970
g74
(dp2971
sg83
g2956
sg76
(lp2972
g69
(g70
g71
NtRp2973
(dp2974
g74
(dp2975
g82
I3
ssg83
g2969
sg76
(lp2976
g1625
asbasbasbag69
(g85
g71
NtRp2977
(dp2978
g74
(dp2979
sg83
g2424
sg76
(lp2980
g69
(g90
g71
NtRp2981
(dp2982
g74
(dp2983
g94
g95
ssg83
g2977
sg76
(lp2984
S'wsgi.run_once'
p2985
asbag69
(g90
g71
NtRp2986
(dp2987
g74
(dp2988
g101
g102
ssg83
g2977
sg76
(lp2989
S':'
asbag69
(g90
g71
NtRp2990
(dp2991
g74
(dp2992
sg83
g2977
sg76
(lp2993
g69
(g70
g71
NtRp2994
(dp2995
g74
(dp2996
g82
I3
ssg83
g2990
sg76
(lp2997
g112
asbasbasbag69
(g85
g71
NtRp2998
(dp2999
g74
(dp3000
sg83
g2424
sg76
(lp3001
g69
(g90
g71
NtRp3002
(dp3003
g74
(dp3004
g94
g95
ssg83
g2998
sg76
(lp3005
S'wsgi.url_scheme'
p3006
asbag69
(g90
g71
NtRp3007
(dp3008
g74
(dp3009
g101
g102
ssg83
g2998
sg76
(lp3010
S':'
asbag69
(g90
g71
NtRp3011
(dp3012
g74
(dp3013
sg83
g2998
sg76
(lp3014
g69
(g70
g71
NtRp3015
(dp3016
g74
(dp3017
g82
I3
ssg83
g3011
sg76
(lp3018
g1668
asbasbasbag69
(g85
g71
NtRp3019
(dp3020
g74
(dp3021
sg83
g2424
sg76
(lp3022
g69
(g90
g71
NtRp3023
(dp3024
g74
(dp3025
g94
g95
ssg83
g3019
sg76
(lp3026
S'wsgi.version'
p3027
asbag69
(g90
g71
NtRp3028
(dp3029
g74
(dp3030
g101
g102
ssg83
g3019
sg76
(lp3031
S':'
asbag69
(g90
g71
NtRp3032
(dp3033
g74
(dp3034
sg83
g3019
sg76
(lp3035
g69
(g70
g71
NtRp3036
(dp3037
g74
(dp3038
g82
I3
ssg83
g3032
sg76
(lp3039
S'1'
asbasbasbasbasbasbasbasbasbasbasbasbasbsS'frames'
p3040
(lp3041
(dp3042
S'file'
p3043
S'/var/www/gravacao/gluon/restricted.py'
p3044
sS'dump'
p3045
(dp3046
S'code'
p3047
S"'# coding=UTF-8\\nimport datetime, os, commands\\n\\nde...\\t\\n\\n\\n\\n\\nresponse._vars=response._caller(principal)\\n'"
p3048
sS'layer'
p3049
S"'/var/www/gravacao/applications/projeto/controllers/initial.py'"
p3050
sS'global compile2'
p3051
S'<function compile2>'
p3052
sS'ccode'
p3053
S'undefined'
p3054
ssS'lnum'
p3055
I211
sS'lines'
p3056
(dp3057
I206
S"    environment['__name__'] = '__restricted__'"
p3058
sI207
S'    try:'
p3059
sI208
S'        if isinstance(code, types.CodeType):'
p3060
sI209
S'            ccode = code'
p3061
sI210
S'        else:'
p3062
sI211
S'            ccode = compile2(code, layer)'
p3063
sI212
S'        exec ccode in environment'
p3064
sI213
S'    except HTTP:'
p3065
sI214
S'        raise'
p3066
sI215
S'    except RestrictedError:'
p3067
ssS'call'
p3068
S"(code='# coding=UTF-8\\nimport datetime, os, commands\\n\\nde...\\t\\n\\n\\n\\n\\nresponse._vars=response._caller(principal)\\n', environment={'A': <class 'gluon.html.A'>, 'Auth': <class 'gluon.tools.Auth'>, 'B': <class 'gluon.html.B'>, 'BEAUTIFY': <class 'gluon.html.BEAUTIFY'>, 'BODY': <class 'gluon.html.BODY'>, 'BR': <class 'gluon.html.BR'>, 'BUTTON': <class 'gluon.html.BUTTON'>, 'CAT': <class 'gluon.html.CAT'>, 'CENTER': <class 'gluon.html.CENTER'>, 'CLEANUP': <class 'gluon.validators.CLEANUP'>, ...}, layer='/var/www/gravacao/applications/projeto/controllers/initial.py')"
p3069
sS'func'
p3070
S'restricted'
p3071
sa(dp3072
g3043
S'/var/www/gravacao/gluon/restricted.py'
p3073
sg3045
(dp3074
S'builtincompile'
p3075
S'<built-in function compile>'
p3076
sS'code'
p3077
S"'# coding=UTF-8\\nimport datetime, os, commands\\n\\nde...\\t\\n\\n\\n\\n\\nresponse._vars=response._caller(principal)\\n'"
p3078
sS'code.rstrip'
p3079
S'<built-in method rstrip of str object>'
p3080
sS').replace'
p3081
g3054
sS'layer'
p3082
S"'/var/www/gravacao/applications/projeto/controllers/initial.py'"
p3083
ssg3055
I194
sg3056
(dp3084
I192
S"    The +'\\n' is necessary else compile fails when code ends in a comment."
p3085
sI193
S'    """'
p3086
sI194
S"    return compile(code.rstrip().replace('\\r\\n', '\\n') + '\\n', layer, 'exec')"
p3087
sI195
S''
sI196
S''
sI197
S"def restricted(code, environment=None, layer='Unknown'):"
p3088
sI198
S'    """'
p3089
sI189
S''
sI190
S'def compile2(code, layer):'
p3090
sI191
S'    """'
p3091
ssg3068
S"(code='# coding=UTF-8\\nimport datetime, os, commands\\n\\nde...\\t\\n\\n\\n\\n\\nresponse._vars=response._caller(principal)\\n', layer='/var/www/gravacao/applications/projeto/controllers/initial.py')"
p3092
sg3070
S'compile2'
p3093
sasS'pyver'
p3094
S'Python 2.7.3: /usr/bin/python'
p3095
sS'session'
p3096
g69
(g70
g71
NtRp3097
(dp3098
g74
(dp3099
sg76
(lp3100
g69
(g78
g71
NtRp3101
(dp3102
g74
(dp3103
g82
I5
ssg83
Nsg76
(lp3104
g69
(g85
g71
NtRp3105
(dp3106
g74
(dp3107
sg83
g3101
sg76
(lp3108
g69
(g90
g71
NtRp3109
(dp3110
g74
(dp3111
g94
g95
ssg83
g3105
sg76
(lp3112
S'ano'
p3113
asbag69
(g90
g71
NtRp3114
(dp3115
g74
(dp3116
g101
g102
ssg83
g3105
sg76
(lp3117
S':'
asbag69
(g90
g71
NtRp3118
(dp3119
g74
(dp3120
sg83
g3105
sg76
(lp3121
g69
(g70
g71
NtRp3122
(dp3123
g74
(dp3124
g82
I5
ssg83
g3118
sg76
(lp3125
S'2013'
p3126
asbasbasbag69
(g85
g71
NtRp3127
(dp3128
g74
(dp3129
sg83
g3101
sg76
(lp3130
g69
(g90
g71
NtRp3131
(dp3132
g74
(dp3133
g94
g95
ssg83
g3127
sg76
(lp3134
S'flash'
p3135
asbag69
(g90
g71
NtRp3136
(dp3137
g74
(dp3138
g101
g102
ssg83
g3127
sg76
(lp3139
S':'
asbag69
(g90
g71
NtRp3140
(dp3141
g74
(dp3142
sg83
g3127
sg76
(lp3143
g69
(g70
g71
NtRp3144
(dp3145
g74
(dp3146
g82
I5
ssg83
g3140
sg76
(lp3147
S'None'
p3148
asbasbasbag69
(g85
g71
NtRp3149
(dp3150
g74
(dp3151
sg83
g3101
sg76
(lp3152
g69
(g90
g71
NtRp3153
(dp3154
g74
(dp3155
g94
g95
ssg83
g3149
sg76
(lp3156
S'form_ano'
p3157
asbag69
(g90
g71
NtRp3158
(dp3159
g74
(dp3160
g101
g102
ssg83
g3149
sg76
(lp3161
S':'
asbag69
(g90
g71
NtRp3162
(dp3163
g74
(dp3164
sg83
g3149
sg76
(lp3165
g69
(g70
g71
NtRp3166
(dp3167
g74
(dp3168
g82
I5
ssg83
g3162
sg76
(lp3169
g69
(g78
g71
NtRp3170
(dp3171
g74
(dp3172
g82
I4
ssg83
Nsg76
(lp3173
g69
(g85
g71
NtRp3174
(dp3175
g74
(dp3176
sg83
g3170
sg76
(lp3177
g69
(g90
g71
NtRp3178
(dp3179
g74
(dp3180
sg83
g3174
sg76
(lp3181
g69
(g70
g71
NtRp3182
(dp3183
g74
(dp3184
g82
I4
ssg83
g3178
sg76
(lp3185
S'2013'
p3186
asbasbasbag69
(g85
g71
NtRp3187
(dp3188
g74
(dp3189
sg83
g3170
sg76
(lp3190
g69
(g90
g71
NtRp3191
(dp3192
g74
(dp3193
sg83
g3187
sg76
(lp3194
g69
(g70
g71
NtRp3195
(dp3196
g74
(dp3197
g82
I4
ssg83
g3191
sg76
(lp3198
S'2012'
p3199
asbasbasbag69
(g85
g71
NtRp3200
(dp3201
g74
(dp3202
sg83
g3170
sg76
(lp3203
g69
(g90
g71
NtRp3204
(dp3205
g74
(dp3206
sg83
g3200
sg76
(lp3207
g69
(g70
g71
NtRp3208
(dp3209
g74
(dp3210
g82
I4
ssg83
g3204
sg76
(lp3211
S'2011'
p3212
asbasbasbag69
(g85
g71
NtRp3213
(dp3214
g74
(dp3215
sg83
g3170
sg76
(lp3216
g69
(g90
g71
NtRp3217
(dp3218
g74
(dp3219
sg83
g3213
sg76
(lp3220
g69
(g70
g71
NtRp3221
(dp3222
g74
(dp3223
g82
I4
ssg83
g3217
sg76
(lp3224
S'2010'
p3225
asbasbasbag69
(g85
g71
NtRp3226
(dp3227
g74
(dp3228
sg83
g3170
sg76
(lp3229
g69
(g90
g71
NtRp3230
(dp3231
g74
(dp3232
sg83
g3226
sg76
(lp3233
g69
(g70
g71
NtRp3234
(dp3235
g74
(dp3236
g82
I4
ssg83
g3230
sg76
(lp3237
S'2009'
p3238
asbasbasbag69
(g85
g71
NtRp3239
(dp3240
g74
(dp3241
sg83
g3170
sg76
(lp3242
g69
(g90
g71
NtRp3243
(dp3244
g74
(dp3245
sg83
g3239
sg76
(lp3246
g69
(g70
g71
NtRp3247
(dp3248
g74
(dp3249
g82
I4
ssg83
g3243
sg76
(lp3250
S'2008'
p3251
asbasbasbag69
(g85
g71
NtRp3252
(dp3253
g74
(dp3254
sg83
g3170
sg76
(lp3255
g69
(g90
g71
NtRp3256
(dp3257
g74
(dp3258
sg83
g3252
sg76
(lp3259
g69
(g70
g71
NtRp3260
(dp3261
g74
(dp3262
g82
I4
ssg83
g3256
sg76
(lp3263
S'2007'
p3264
asbasbasbag69
(g85
g71
NtRp3265
(dp3266
g74
(dp3267
sg83
g3170
sg76
(lp3268
g69
(g90
g71
NtRp3269
(dp3270
g74
(dp3271
sg83
g3265
sg76
(lp3272
g69
(g70
g71
NtRp3273
(dp3274
g74
(dp3275
g82
I4
ssg83
g3269
sg76
(lp3276
S'2006'
p3277
asbasbasbag69
(g85
g71
NtRp3278
(dp3279
g74
(dp3280
sg83
g3170
sg76
(lp3281
g69
(g90
g71
NtRp3282
(dp3283
g74
(dp3284
sg83
g3278
sg76
(lp3285
g69
(g70
g71
NtRp3286
(dp3287
g74
(dp3288
g82
I4
ssg83
g3282
sg76
(lp3289
S'2005'
p3290
asbasbasbag69
(g85
g71
NtRp3291
(dp3292
g74
(dp3293
sg83
g3170
sg76
(lp3294
g69
(g90
g71
NtRp3295
(dp3296
g74
(dp3297
sg83
g3291
sg76
(lp3298
g69
(g70
g71
NtRp3299
(dp3300
g74
(dp3301
g82
I4
ssg83
g3295
sg76
(lp3302
S'2004'
p3303
asbasbasbag69
(g85
g71
NtRp3304
(dp3305
g74
(dp3306
sg83
g3170
sg76
(lp3307
g69
(g90
g71
NtRp3308
(dp3309
g74
(dp3310
sg83
g3304
sg76
(lp3311
g69
(g70
g71
NtRp3312
(dp3313
g74
(dp3314
g82
I4
ssg83
g3308
sg76
(lp3315
S'2003'
p3316
asbasbasbag69
(g85
g71
NtRp3317
(dp3318
g74
(dp3319
sg83
g3170
sg76
(lp3320
g69
(g90
g71
NtRp3321
(dp3322
g74
(dp3323
sg83
g3317
sg76
(lp3324
g69
(g70
g71
NtRp3325
(dp3326
g74
(dp3327
g82
I4
ssg83
g3321
sg76
(lp3328
S'2002'
p3329
asbasbasbasbasbasbasbag69
(g85
g71
NtRp3330
(dp3331
g74
(dp3332
sg83
g3101
sg76
(lp3333
g69
(g90
g71
NtRp3334
(dp3335
g74
(dp3336
g94
g95
ssg83
g3330
sg76
(lp3337
S'mes'
p3338
asbag69
(g90
g71
NtRp3339
(dp3340
g74
(dp3341
g101
g102
ssg83
g3330
sg76
(lp3342
S':'
asbag69
(g90
g71
NtRp3343
(dp3344
g74
(dp3345
sg83
g3330
sg76
(lp3346
g69
(g70
g71
NtRp3347
(dp3348
g74
(dp3349
g82
I5
ssg83
g3343
sg76
(lp3350
S'05'
p3351
asbasbasbag69
(g85
g71
NtRp3352
(dp3353
g74
(dp3354
sg83
g3101
sg76
(lp3355
g69
(g90
g71
NtRp3356
(dp3357
g74
(dp3358
g94
g95
ssg83
g3352
sg76
(lp3359
S'pastas'
p3360
asbag69
(g90
g71
NtRp3361
(dp3362
g74
(dp3363
g101
g102
ssg83
g3352
sg76
(lp3364
S':'
asbag69
(g90
g71
NtRp3365
(dp3366
g74
(dp3367
sg83
g3352
sg76
(lp3368
g69
(g70
g71
NtRp3369
(dp3370
g74
(dp3371
g82
I5
ssg83
g3365
sg76
(lp3372
g69
(g78
g71
NtRp3373
(dp3374
g74
(dp3375
g82
I4
ssg83
Nsg76
(lp3376
g69
(g85
g71
NtRp3377
(dp3378
g74
(dp3379
sg83
g3373
sg76
(lp3380
g69
(g90
g71
NtRp3381
(dp3382
g74
(dp3383
sg83
g3377
sg76
(lp3384
g69
(g70
g71
NtRp3385
(dp3386
g74
(dp3387
g82
I4
ssg83
g3381
sg76
(lp3388
S'20130502\n'
p3389
asbasbasbag69
(g85
g71
NtRp3390
(dp3391
g74
(dp3392
sg83
g3373
sg76
(lp3393
g69
(g90
g71
NtRp3394
(dp3395
g74
(dp3396
sg83
g3390
sg76
(lp3397
g69
(g70
g71
NtRp3398
(dp3399
g74
(dp3400
g82
I4
ssg83
g3394
sg76
(lp3401
S'20130503\n'
p3402
asbasbasbag69
(g85
g71
NtRp3403
(dp3404
g74
(dp3405
sg83
g3373
sg76
(lp3406
g69
(g90
g71
NtRp3407
(dp3408
g74
(dp3409
sg83
g3403
sg76
(lp3410
g69
(g70
g71
NtRp3411
(dp3412
g74
(dp3413
g82
I4
ssg83
g3407
sg76
(lp3414
S'20130506\n'
p3415
asbasbasbag69
(g85
g71
NtRp3416
(dp3417
g74
(dp3418
sg83
g3373
sg76
(lp3419
g69
(g90
g71
NtRp3420
(dp3421
g74
(dp3422
sg83
g3416
sg76
(lp3423
g69
(g70
g71
NtRp3424
(dp3425
g74
(dp3426
g82
I4
ssg83
g3420
sg76
(lp3427
S'20130507\n'
p3428
asbasbasbag69
(g85
g71
NtRp3429
(dp3430
g74
(dp3431
sg83
g3373
sg76
(lp3432
g69
(g90
g71
NtRp3433
(dp3434
g74
(dp3435
sg83
g3429
sg76
(lp3436
g69
(g70
g71
NtRp3437
(dp3438
g74
(dp3439
g82
I4
ssg83
g3433
sg76
(lp3440
S'20130508\n'
p3441
asbasbasbag69
(g85
g71
NtRp3442
(dp3443
g74
(dp3444
sg83
g3373
sg76
(lp3445
g69
(g90
g71
NtRp3446
(dp3447
g74
(dp3448
sg83
g3442
sg76
(lp3449
g69
(g70
g71
NtRp3450
(dp3451
g74
(dp3452
g82
I4
ssg83
g3446
sg76
(lp3453
S'20130509\n'
p3454
asbasbasbag69
(g85
g71
NtRp3455
(dp3456
g74
(dp3457
sg83
g3373
sg76
(lp3458
g69
(g90
g71
NtRp3459
(dp3460
g74
(dp3461
sg83
g3455
sg76
(lp3462
g69
(g70
g71
NtRp3463
(dp3464
g74
(dp3465
g82
I4
ssg83
g3459
sg76
(lp3466
S'20130510\n'
p3467
asbasbasbag69
(g85
g71
NtRp3468
(dp3469
g74
(dp3470
sg83
g3373
sg76
(lp3471
g69
(g90
g71
NtRp3472
(dp3473
g74
(dp3474
sg83
g3468
sg76
(lp3475
g69
(g70
g71
NtRp3476
(dp3477
g74
(dp3478
g82
I4
ssg83
g3472
sg76
(lp3479
S'20130513\n'
p3480
asbasbasbag69
(g85
g71
NtRp3481
(dp3482
g74
(dp3483
sg83
g3373
sg76
(lp3484
g69
(g90
g71
NtRp3485
(dp3486
g74
(dp3487
sg83
g3481
sg76
(lp3488
g69
(g70
g71
NtRp3489
(dp3490
g74
(dp3491
g82
I4
ssg83
g3485
sg76
(lp3492
S'AD2_20130509\n'
p3493
asbasbasbag69
(g85
g71
NtRp3494
(dp3495
g74
(dp3496
sg83
g3373
sg76
(lp3497
g69
(g90
g71
NtRp3498
(dp3499
g74
(dp3500
sg83
g3494
sg76
(lp3501
g69
(g70
g71
NtRp3502
(dp3503
g74
(dp3504
g82
I4
ssg83
g3498
sg76
(lp3505
S'AD2_20130510\n'
p3506
asbasbasbag69
(g85
g71
NtRp3507
(dp3508
g74
(dp3509
sg83
g3373
sg76
(lp3510
g69
(g90
g71
NtRp3511
(dp3512
g74
(dp3513
sg83
g3507
sg76
(lp3514
g69
(g70
g71
NtRp3515
(dp3516
g74
(dp3517
g82
I4
ssg83
g3511
sg76
(lp3518
S'AD2_20130511\n'
p3519
asbasbasbag69
(g85
g71
NtRp3520
(dp3521
g74
(dp3522
sg83
g3373
sg76
(lp3523
g69
(g90
g71
NtRp3524
(dp3525
g74
(dp3526
sg83
g3520
sg76
(lp3527
g69
(g70
g71
NtRp3528
(dp3529
g74
(dp3530
g82
I4
ssg83
g3524
sg76
(lp3531
S'AD2_20130513'
p3532
asbasbasbasbasbasbasbag69
(g85
g71
NtRp3533
(dp3534
g74
(dp3535
sg83
g3101
sg76
(lp3536
g69
(g90
g71
NtRp3537
(dp3538
g74
(dp3539
g94
g95
ssg83
g3533
sg76
(lp3540
S'tecnologia'
p3541
asbag69
(g90
g71
NtRp3542
(dp3543
g74
(dp3544
g101
g102
ssg83
g3533
sg76
(lp3545
S':'
asbag69
(g90
g71
NtRp3546
(dp3547
g74
(dp3548
sg83
g3533
sg76
(lp3549
g69
(g70
g71
NtRp3550
(dp3551
g74
(dp3552
g82
I5
ssg83
g3546
sg76
(lp3553
S'0'
asbasbasbasbasbsS'etype'
p3554
S"<type 'exceptions.SyntaxError'>"
p3555
sS'date'
p3556
S'Fri May 17 16:19:05 2013'
p3557
sS'response'
p3558
g69
(g70
g71
NtRp3559
(dp3560
g74
(dp3561
sg76
(lp3562
g69
(g78
g71
NtRp3563
(dp3564
g74
(dp3565
g82
I5
ssg83
Nsg76
(lp3566
g69
(g85
g71
NtRp3567
(dp3568
g74
(dp3569
sg83
g3563
sg76
(lp3570
g69
(g90
g71
NtRp3571
(dp3572
g74
(dp3573
g94
g95
ssg83
g3567
sg76
(lp3574
g167
asbag69
(g90
g71
NtRp3575
(dp3576
g74
(dp3577
g101
g102
ssg83
g3567
sg76
(lp3578
S':'
asbag69
(g90
g71
NtRp3579
(dp3580
g74
(dp3581
sg83
g3567
sg76
(lp3582
g69
(g70
g71
NtRp3583
(dp3584
g74
(dp3585
g82
I5
ssg83
g3579
sg76
(lp3586
S'<cStringIO.StringO object at 0x7ff518149ed8>'
p3587
asbasbasbag69
(g85
g71
NtRp3588
(dp3589
g74
(dp3590
sg83
g3563
sg76
(lp3591
g69
(g90
g71
NtRp3592
(dp3593
g74
(dp3594
g94
g95
ssg83
g3588
sg76
(lp3595
g255
asbag69
(g90
g71
NtRp3596
(dp3597
g74
(dp3598
g101
g102
ssg83
g3588
sg76
(lp3599
S':'
asbag69
(g90
g71
NtRp3600
(dp3601
g74
(dp3602
sg83
g3588
sg76
(lp3603
g69
(g70
g71
NtRp3604
(dp3605
g74
(dp3606
g82
I5
ssg83
g3600
sg76
(lp3607
g69
(g78
g71
NtRp3608
(dp3609
g74
(dp3610
g82
I4
ssg83
Nsg76
(lp3611
g69
(g85
g71
NtRp3612
(dp3613
g74
(dp3614
sg83
g3608
sg76
(lp3615
g69
(g90
g71
NtRp3616
(dp3617
g74
(dp3618
g94
g95
ssg83
g3612
sg76
(lp3619
S'session_id_projeto'
p3620
asbag69
(g90
g71
NtRp3621
(dp3622
g74
(dp3623
g101
g102
ssg83
g3612
sg76
(lp3624
S':'
asbag69
(g90
g71
NtRp3625
(dp3626
g74
(dp3627
sg83
g3612
sg76
(lp3628
g69
(g70
g71
NtRp3629
(dp3630
g74
(dp3631
g82
I4
ssg83
g3625
sg76
(lp3632
g487
ag69
(g78
g71
NtRp3633
(dp3634
g74
(dp3635
g82
I3
ssg83
Nsg76
(lp3636
g69
(g85
g71
NtRp3637
(dp3638
g74
(dp3639
sg83
g3633
sg76
(lp3640
g69
(g90
g71
NtRp3641
(dp3642
g74
(dp3643
g94
g95
ssg83
g3637
sg76
(lp3644
g306
asbag69
(g90
g71
NtRp3645
(dp3646
g74
(dp3647
g101
g102
ssg83
g3637
sg76
(lp3648
S':'
asbag69
(g90
g71
NtRp3649
(dp3650
g74
(dp3651
sg83
g3637
sg76
(lp3652
g69
(g70
g71
NtRp3653
(dp3654
g74
(dp3655
g82
I3
ssg83
g3649
sg76
(lp3656
S''
asbasbasbag69
(g85
g71
NtRp3657
(dp3658
g74
(dp3659
sg83
g3633
sg76
(lp3660
g69
(g90
g71
NtRp3661
(dp3662
g74
(dp3663
g94
g95
ssg83
g3657
sg76
(lp3664
g327
asbag69
(g90
g71
NtRp3665
(dp3666
g74
(dp3667
g101
g102
ssg83
g3657
sg76
(lp3668
S':'
asbag69
(g90
g71
NtRp3669
(dp3670
g74
(dp3671
sg83
g3657
sg76
(lp3672
g69
(g70
g71
NtRp3673
(dp3674
g74
(dp3675
g82
I3
ssg83
g3669
sg76
(lp3676
S''
asbasbasbag69
(g85
g71
NtRp3677
(dp3678
g74
(dp3679
sg83
g3633
sg76
(lp3680
g69
(g90
g71
NtRp3681
(dp3682
g74
(dp3683
g94
g95
ssg83
g3677
sg76
(lp3684
g348
asbag69
(g90
g71
NtRp3685
(dp3686
g74
(dp3687
g101
g102
ssg83
g3677
sg76
(lp3688
S':'
asbag69
(g90
g71
NtRp3689
(dp3690
g74
(dp3691
sg83
g3677
sg76
(lp3692
g69
(g70
g71
NtRp3693
(dp3694
g74
(dp3695
g82
I3
ssg83
g3689
sg76
(lp3696
S''
asbasbasbag69
(g85
g71
NtRp3697
(dp3698
g74
(dp3699
sg83
g3633
sg76
(lp3700
g69
(g90
g71
NtRp3701
(dp3702
g74
(dp3703
g94
g95
ssg83
g3697
sg76
(lp3704
g369
asbag69
(g90
g71
NtRp3705
(dp3706
g74
(dp3707
g101
g102
ssg83
g3697
sg76
(lp3708
S':'
asbag69
(g90
g71
NtRp3709
(dp3710
g74
(dp3711
sg83
g3697
sg76
(lp3712
g69
(g70
g71
NtRp3713
(dp3714
g74
(dp3715
g82
I3
ssg83
g3709
sg76
(lp3716
S''
asbasbasbag69
(g85
g71
NtRp3717
(dp3718
g74
(dp3719
sg83
g3633
sg76
(lp3720
g69
(g90
g71
NtRp3721
(dp3722
g74
(dp3723
g94
g95
ssg83
g3717
sg76
(lp3724
g390
asbag69
(g90
g71
NtRp3725
(dp3726
g74
(dp3727
g101
g102
ssg83
g3717
sg76
(lp3728
S':'
asbag69
(g90
g71
NtRp3729
(dp3730
g74
(dp3731
sg83
g3717
sg76
(lp3732
g69
(g70
g71
NtRp3733
(dp3734
g74
(dp3735
g82
I3
ssg83
g3729
sg76
(lp3736
S''
asbasbasbag69
(g85
g71
NtRp3737
(dp3738
g74
(dp3739
sg83
g3633
sg76
(lp3740
g69
(g90
g71
NtRp3741
(dp3742
g74
(dp3743
g94
g95
ssg83
g3737
sg76
(lp3744
g411
asbag69
(g90
g71
NtRp3745
(dp3746
g74
(dp3747
g101
g102
ssg83
g3737
sg76
(lp3748
S':'
asbag69
(g90
g71
NtRp3749
(dp3750
g74
(dp3751
sg83
g3737
sg76
(lp3752
g69
(g70
g71
NtRp3753
(dp3754
g74
(dp3755
g82
I3
ssg83
g3749
sg76
(lp3756
S'/'
asbasbasbag69
(g85
g71
NtRp3757
(dp3758
g74
(dp3759
sg83
g3633
sg76
(lp3760
g69
(g90
g71
NtRp3761
(dp3762
g74
(dp3763
g94
g95
ssg83
g3757
sg76
(lp3764
g432
asbag69
(g90
g71
NtRp3765
(dp3766
g74
(dp3767
g101
g102
ssg83
g3757
sg76
(lp3768
S':'
asbag69
(g90
g71
NtRp3769
(dp3770
g74
(dp3771
sg83
g3757
sg76
(lp3772
g69
(g70
g71
NtRp3773
(dp3774
g74
(dp3775
g82
I3
ssg83
g3769
sg76
(lp3776
S''
asbasbasbag69
(g85
g71
NtRp3777
(dp3778
g74
(dp3779
sg83
g3633
sg76
(lp3780
g69
(g90
g71
NtRp3781
(dp3782
g74
(dp3783
g94
g95
ssg83
g3777
sg76
(lp3784
g453
asbag69
(g90
g71
NtRp3785
(dp3786
g74
(dp3787
g101
g102
ssg83
g3777
sg76
(lp3788
S':'
asbag69
(g90
g71
NtRp3789
(dp3790
g74
(dp3791
sg83
g3777
sg76
(lp3792
g69
(g70
g71
NtRp3793
(dp3794
g74
(dp3795
g82
I3
ssg83
g3789
sg76
(lp3796
S''
asbasbasbasbasbasbasbasbasbasbasbag69
(g85
g71
NtRp3797
(dp3798
g74
(dp3799
sg83
g3563
sg76
(lp3800
g69
(g90
g71
NtRp3801
(dp3802
g74
(dp3803
g94
g95
ssg83
g3797
sg76
(lp3804
S'delimiters'
p3805
asbag69
(g90
g71
NtRp3806
(dp3807
g74
(dp3808
g101
g102
ssg83
g3797
sg76
(lp3809
S':'
asbag69
(g90
g71
NtRp3810
(dp3811
g74
(dp3812
sg83
g3797
sg76
(lp3813
g69
(g70
g71
NtRp3814
(dp3815
g74
(dp3816
g82
I5
ssg83
g3810
sg76
(lp3817
g69
(g78
g71
NtRp3818
(dp3819
g74
(dp3820
g82
I4
ssg83
Nsg76
(lp3821
g69
(g85
g71
NtRp3822
(dp3823
g74
(dp3824
sg83
g3818
sg76
(lp3825
g69
(g90
g71
NtRp3826
(dp3827
g74
(dp3828
sg83
g3822
sg76
(lp3829
g69
(g70
g71
NtRp3830
(dp3831
g74
(dp3832
g82
I4
ssg83
g3826
sg76
(lp3833
S'{{'
p3834
asbasbasbag69
(g85
g71
NtRp3835
(dp3836
g74
(dp3837
sg83
g3818
sg76
(lp3838
g69
(g90
g71
NtRp3839
(dp3840
g74
(dp3841
sg83
g3835
sg76
(lp3842
g69
(g70
g71
NtRp3843
(dp3844
g74
(dp3845
g82
I4
ssg83
g3839
sg76
(lp3846
S'}}'
p3847
asbasbasbasbasbasbasbag69
(g85
g71
NtRp3848
(dp3849
g74
(dp3850
sg83
g3563
sg76
(lp3851
g69
(g90
g71
NtRp3852
(dp3853
g74
(dp3854
g94
g95
ssg83
g3848
sg76
(lp3855
S'files'
p3856
asbag69
(g90
g71
NtRp3857
(dp3858
g74
(dp3859
g101
g102
ssg83
g3848
sg76
(lp3860
S':'
asbag69
(g90
g71
NtRp3861
(dp3862
g74
(dp3863
sg83
g3848
sg76
(lp3864
g69
(g70
g71
NtRp3865
(dp3866
g74
(dp3867
g82
I5
ssg83
g3861
sg76
(lp3868
g69
(g78
g71
NtRp3869
(dp3870
g74
(dp3871
g82
I4
ssg83
Nsg76
(lp3872
sbasbasbasbag69
(g85
g71
NtRp3873
(dp3874
g74
(dp3875
sg83
g3563
sg76
(lp3876
g69
(g90
g71
NtRp3877
(dp3878
g74
(dp3879
g94
g95
ssg83
g3873
sg76
(lp3880
S'flash'
p3881
asbag69
(g90
g71
NtRp3882
(dp3883
g74
(dp3884
g101
g102
ssg83
g3873
sg76
(lp3885
S':'
asbag69
(g90
g71
NtRp3886
(dp3887
g74
(dp3888
sg83
g3873
sg76
(lp3889
g69
(g70
g71
NtRp3890
(dp3891
g74
(dp3892
g82
I5
ssg83
g3886
sg76
(lp3893
S''
asbasbasbag69
(g85
g71
NtRp3894
(dp3895
g74
(dp3896
sg83
g3563
sg76
(lp3897
g69
(g90
g71
NtRp3898
(dp3899
g74
(dp3900
g94
g95
ssg83
g3894
sg76
(lp3901
S'generic_patterns'
p3902
asbag69
(g90
g71
NtRp3903
(dp3904
g74
(dp3905
g101
g102
ssg83
g3894
sg76
(lp3906
S':'
asbag69
(g90
g71
NtRp3907
(dp3908
g74
(dp3909
sg83
g3894
sg76
(lp3910
g69
(g70
g71
NtRp3911
(dp3912
g74
(dp3913
g82
I5
ssg83
g3907
sg76
(lp3914
g69
(g78
g71
NtRp3915
(dp3916
g74
(dp3917
g82
I4
ssg83
Nsg76
(lp3918
g69
(g85
g71
NtRp3919
(dp3920
g74
(dp3921
sg83
g3915
sg76
(lp3922
g69
(g90
g71
NtRp3923
(dp3924
g74
(dp3925
sg83
g3919
sg76
(lp3926
g69
(g70
g71
NtRp3927
(dp3928
g74
(dp3929
g82
I4
ssg83
g3923
sg76
(lp3930
S'*'
asbasbasbasbasbasbasbag69
(g85
g71
NtRp3931
(dp3932
g74
(dp3933
sg83
g3563
sg76
(lp3934
g69
(g90
g71
NtRp3935
(dp3936
g74
(dp3937
g94
g95
ssg83
g3931
sg76
(lp3938
S'google_analytics_id'
p3939
asbag69
(g90
g71
NtRp3940
(dp3941
g74
(dp3942
g101
g102
ssg83
g3931
sg76
(lp3943
S':'
asbag69
(g90
g71
NtRp3944
(dp3945
g74
(dp3946
sg83
g3931
sg76
(lp3947
g69
(g70
g71
NtRp3948
(dp3949
g74
(dp3950
g82
I5
ssg83
g3944
sg76
(lp3951
S'None'
p3952
asbasbasbag69
(g85
g71
NtRp3953
(dp3954
g74
(dp3955
sg83
g3563
sg76
(lp3956
g69
(g90
g71
NtRp3957
(dp3958
g74
(dp3959
g94
g95
ssg83
g3953
sg76
(lp3960
S'headers'
p3961
asbag69
(g90
g71
NtRp3962
(dp3963
g74
(dp3964
g101
g102
ssg83
g3953
sg76
(lp3965
S':'
asbag69
(g90
g71
NtRp3966
(dp3967
g74
(dp3968
sg83
g3953
sg76
(lp3969
g69
(g70
g71
NtRp3970
(dp3971
g74
(dp3972
g82
I5
ssg83
g3966
sg76
(lp3973
g69
(g78
g71
NtRp3974
(dp3975
g74
(dp3976
g82
I4
ssg83
Nsg76
(lp3977
g69
(g85
g71
NtRp3978
(dp3979
g74
(dp3980
sg83
g3974
sg76
(lp3981
g69
(g90
g71
NtRp3982
(dp3983
g74
(dp3984
g94
g95
ssg83
g3978
sg76
(lp3985
S'X-Powered-By'
p3986
asbag69
(g90
g71
NtRp3987
(dp3988
g74
(dp3989
g101
g102
ssg83
g3978
sg76
(lp3990
S':'
asbag69
(g90
g71
NtRp3991
(dp3992
g74
(dp3993
sg83
g3978
sg76
(lp3994
g69
(g70
g71
NtRp3995
(dp3996
g74
(dp3997
g82
I4
ssg83
g3991
sg76
(lp3998
S'web2py'
p3999
asbasbasbasbasbasbasbag69
(g85
g71
NtRp4000
(dp4001
g74
(dp4002
sg83
g3563
sg76
(lp4003
g69
(g90
g71
NtRp4004
(dp4005
g74
(dp4006
g94
g95
ssg83
g4000
sg76
(lp4007
S'logo'
p4008
asbag69
(g90
g71
NtRp4009
(dp4010
g74
(dp4011
g101
g102
ssg83
g4000
sg76
(lp4012
S':'
asbag69
(g90
g71
NtRp4013
(dp4014
g74
(dp4015
sg83
g4000
sg76
(lp4016
g69
(g70
g71
NtRp4017
(dp4018
g74
(dp4019
g82
I5
ssg83
g4013
sg76
(lp4020
g69
(cgluon.html
A
p4021
g71
NtRp4022
(dp4023
g74
(dp4024
S'_class'
p4025
S'brand'
p4026
sS'_href'
p4027
S'#'
ssg83
Nsg76
(lp4028
g69
(cgluon.html
B
p4029
g71
NtRp4030
(dp4031
g74
(dp4032
sg83
g4022
sg76
(lp4033
S''
ag69
(cgluon.html
SPAN
p4034
g71
NtRp4035
(dp4036
g74
(dp4037
sg83
g4030
sg76
(lp4038
S'Backup'
p4039
asbaS''
asbacgluon.html
XML_unpickle
p4040
(S's\r\x00\x00\x00&trade;&nbsp;'
tRp4041
asbasbasbasbag69
(g85
g71
NtRp4042
(dp4043
g74
(dp4044
sg83
g3563
sg76
(lp4045
g69
(g90
g71
NtRp4046
(dp4047
g74
(dp4048
g94
g95
ssg83
g4042
sg76
(lp4049
S'menu'
p4050
asbag69
(g90
g71
NtRp4051
(dp4052
g74
(dp4053
g101
g102
ssg83
g4042
sg76
(lp4054
S':'
asbag69
(g90
g71
NtRp4055
(dp4056
g74
(dp4057
sg83
g4042
sg76
(lp4058
g69
(g70
g71
NtRp4059
(dp4060
g74
(dp4061
g82
I5
ssg83
g4055
sg76
(lp4062
g69
(g78
g71
NtRp4063
(dp4064
g74
(dp4065
g82
I4
ssg83
Nsg76
(lp4066
g69
(g85
g71
NtRp4067
(dp4068
g74
(dp4069
sg83
g4063
sg76
(lp4070
g69
(g90
g71
NtRp4071
(dp4072
g74
(dp4073
sg83
g4067
sg76
(lp4074
g69
(g70
g71
NtRp4075
(dp4076
g74
(dp4077
g82
I4
ssg83
g4071
sg76
(lp4078
g69
(g78
g71
NtRp4079
(dp4080
g74
(dp4081
g82
I3
ssg83
Nsg76
(lp4082
g69
(g85
g71
NtRp4083
(dp4084
g74
(dp4085
sg83
g4079
sg76
(lp4086
g69
(g90
g71
NtRp4087
(dp4088
g74
(dp4089
sg83
g4083
sg76
(lp4090
g69
(g70
g71
NtRp4091
(dp4092
g74
(dp4093
g82
I3
ssg83
g4087
sg76
(lp4094
cgluon.languages
lazyT_unpickle
p4095
(S't\t\x00\x00\x00Principal'
tRp4096
asbasbasbag69
(g85
g71
NtRp4097
(dp4098
g74
(dp4099
sg83
g4079
sg76
(lp4100
g69
(g90
g71
NtRp4101
(dp4102
g74
(dp4103
sg83
g4097
sg76
(lp4104
g69
(g70
g71
NtRp4105
(dp4106
g74
(dp4107
g82
I3
ssg83
g4101
sg76
(lp4108
g112
asbasbasbag69
(g85
g71
NtRp4109
(dp4110
g74
(dp4111
sg83
g4079
sg76
(lp4112
g69
(g90
g71
NtRp4113
(dp4114
g74
(dp4115
sg83
g4109
sg76
(lp4116
g69
(g70
g71
NtRp4117
(dp4118
g74
(dp4119
g82
I3
ssg83
g4113
sg76
(lp4120
S'/'
asbasbasbag69
(g85
g71
NtRp4121
(dp4122
g74
(dp4123
sg83
g4079
sg76
(lp4124
g69
(g90
g71
NtRp4125
(dp4126
g74
(dp4127
sg83
g4121
sg76
(lp4128
g69
(g70
g71
NtRp4129
(dp4130
g74
(dp4131
g82
I3
ssg83
g4125
sg76
(lp4132
g69
(g78
g71
NtRp4133
(dp4134
g74
(dp4135
g82
I2
ssg83
Nsg76
(lp4136
sbasbasbasbasbasbasbasbasbasbasbasbag69
(g85
g71
NtRp4137
(dp4138
g74
(dp4139
sg83
g3563
sg76
(lp4140
g69
(g90
g71
NtRp4141
(dp4142
g74
(dp4143
g94
g95
ssg83
g4137
sg76
(lp4144
S'menu2'
p4145
asbag69
(g90
g71
NtRp4146
(dp4147
g74
(dp4148
g101
g102
ssg83
g4137
sg76
(lp4149
S':'
asbag69
(g90
g71
NtRp4150
(dp4151
g74
(dp4152
sg83
g4137
sg76
(lp4153
g69
(g70
g71
NtRp4154
(dp4155
g74
(dp4156
g82
I5
ssg83
g4150
sg76
(lp4157
g69
(g78
g71
NtRp4158
(dp4159
g74
(dp4160
g82
I4
ssg83
Nsg76
(lp4161
g69
(g85
g71
NtRp4162
(dp4163
g74
(dp4164
sg83
g4158
sg76
(lp4165
g69
(g90
g71
NtRp4166
(dp4167
g74
(dp4168
sg83
g4162
sg76
(lp4169
g69
(g70
g71
NtRp4170
(dp4171
g74
(dp4172
g82
I4
ssg83
g4166
sg76
(lp4173
g69
(g78
g71
NtRp4174
(dp4175
g74
(dp4176
g82
I3
ssg83
Nsg76
(lp4177
g69
(g85
g71
NtRp4178
(dp4179
g74
(dp4180
sg83
g4174
sg76
(lp4181
g69
(g90
g71
NtRp4182
(dp4183
g74
(dp4184
sg83
g4178
sg76
(lp4185
g69
(g70
g71
NtRp4186
(dp4187
g74
(dp4188
g82
I3
ssg83
g4182
sg76
(lp4189
g69
(g4034
g71
NtRp4190
(dp4191
g74
(dp4192
g4025
S'dropdown-toggle'
p4193
ssg83
Nsg76
(lp4194
S'Login'
p4195
asbasbasbasbag69
(g85
g71
NtRp4196
(dp4197
g74
(dp4198
sg83
g4174
sg76
(lp4199
g69
(g90
g71
NtRp4200
(dp4201
g74
(dp4202
sg83
g4196
sg76
(lp4203
g69
(g70
g71
NtRp4204
(dp4205
g74
(dp4206
g82
I3
ssg83
g4200
sg76
(lp4207
g112
asbasbasbag69
(g85
g71
NtRp4208
(dp4209
g74
(dp4210
sg83
g4174
sg76
(lp4211
g69
(g90
g71
NtRp4212
(dp4213
g74
(dp4214
sg83
g4208
sg76
(lp4215
g69
(g70
g71
NtRp4216
(dp4217
g74
(dp4218
g82
I3
ssg83
g4212
sg76
(lp4219
S'#'
asbasbasbag69
(g85
g71
NtRp4220
(dp4221
g74
(dp4222
sg83
g4174
sg76
(lp4223
g69
(g90
g71
NtRp4224
(dp4225
g74
(dp4226
sg83
g4220
sg76
(lp4227
g69
(g70
g71
NtRp4228
(dp4229
g74
(dp4230
g82
I3
ssg83
g4224
sg76
(lp4231
g69
(g78
g71
NtRp4232
(dp4233
g74
(dp4234
g82
I2
ssg83
Nsg76
(lp4235
g69
(g85
g71
NtRp4236
(dp4237
g74
(dp4238
sg83
g4232
sg76
(lp4239
g69
(g90
g71
NtRp4240
(dp4241
g74
(dp4242
sg83
g4236
sg76
(lp4243
g69
(g70
g71
NtRp4244
(dp4245
g74
(dp4246
g82
I2
ssg83
g4240
sg76
(lp4247
g69
(g78
g71
NtRp4248
(dp4249
g74
(dp4250
g82
I1
ssg83
Nsg76
(lp4251
g69
(g85
g71
NtRp4252
(dp4253
g74
(dp4254
sg83
g4248
sg76
(lp4255
g69
(g90
g71
NtRp4256
(dp4257
g74
(dp4258
sg83
g4252
sg76
(lp4259
g69
(g70
g71
NtRp4260
(dp4261
g74
(dp4262
g82
I1
ssg83
g4256
sg76
(lp4263
g4095
(S't\x06\x00\x00\x00Logout'
tRp4264
asbasbasbag69
(g85
g71
NtRp4265
(dp4266
g74
(dp4267
sg83
g4248
sg76
(lp4268
g69
(g90
g71
NtRp4269
(dp4270
g74
(dp4271
sg83
g4265
sg76
(lp4272
g69
(g70
g71
NtRp4273
(dp4274
g74
(dp4275
g82
I1
ssg83
g4269
sg76
(lp4276
I00
asbasbasbag69
(g85
g71
NtRp4277
(dp4278
g74
(dp4279
sg83
g4248
sg76
(lp4280
g69
(g90
g71
NtRp4281
(dp4282
g74
(dp4283
sg83
g4277
sg76
(lp4284
g69
(g70
g71
NtRp4285
(dp4286
g74
(dp4287
g82
I1
ssg83
g4281
sg76
(lp4288
S'/log_out'
p4289
asbasbasbasbasbasbasbasbasbasbasbasbasbasbasbasbasbasbasbag69
(g85
g71
NtRp4290
(dp4291
g74
(dp4292
sg83
g3563
sg76
(lp4293
g69
(g90
g71
NtRp4294
(dp4295
g74
(dp4296
g94
g95
ssg83
g4290
sg76
(lp4297
S'meta'
p4298
asbag69
(g90
g71
NtRp4299
(dp4300
g74
(dp4301
g101
g102
ssg83
g4290
sg76
(lp4302
S':'
asbag69
(g90
g71
NtRp4303
(dp4304
g74
(dp4305
sg83
g4290
sg76
(lp4306
g69
(g70
g71
NtRp4307
(dp4308
g74
(dp4309
g82
I5
ssg83
g4303
sg76
(lp4310
g69
(g78
g71
NtRp4311
(dp4312
g74
(dp4313
g82
I4
ssg83
Nsg76
(lp4314
g69
(g85
g71
NtRp4315
(dp4316
g74
(dp4317
sg83
g4311
sg76
(lp4318
g69
(g90
g71
NtRp4319
(dp4320
g74
(dp4321
g94
g95
ssg83
g4315
sg76
(lp4322
S'author'
p4323
asbag69
(g90
g71
NtRp4324
(dp4325
g74
(dp4326
g101
g102
ssg83
g4315
sg76
(lp4327
S':'
asbag69
(g90
g71
NtRp4328
(dp4329
g74
(dp4330
sg83
g4315
sg76
(lp4331
g69
(g70
g71
NtRp4332
(dp4333
g74
(dp4334
g82
I4
ssg83
g4328
sg76
(lp4335
S'Your Name <you@example.com>'
p4336
asbasbasbag69
(g85
g71
NtRp4337
(dp4338
g74
(dp4339
sg83
g4311
sg76
(lp4340
g69
(g90
g71
NtRp4341
(dp4342
g74
(dp4343
g94
g95
ssg83
g4337
sg76
(lp4344
S'description'
p4345
asbag69
(g90
g71
NtRp4346
(dp4347
g74
(dp4348
g101
g102
ssg83
g4337
sg76
(lp4349
S':'
asbag69
(g90
g71
NtRp4350
(dp4351
g74
(dp4352
sg83
g4337
sg76
(lp4353
g69
(g70
g71
NtRp4354
(dp4355
g74
(dp4356
g82
I4
ssg83
g4350
sg76
(lp4357
S'a cool new app'
p4358
asbasbasbag69
(g85
g71
NtRp4359
(dp4360
g74
(dp4361
sg83
g4311
sg76
(lp4362
g69
(g90
g71
NtRp4363
(dp4364
g74
(dp4365
g94
g95
ssg83
g4359
sg76
(lp4366
S'generator'
p4367
asbag69
(g90
g71
NtRp4368
(dp4369
g74
(dp4370
g101
g102
ssg83
g4359
sg76
(lp4371
S':'
asbag69
(g90
g71
NtRp4372
(dp4373
g74
(dp4374
sg83
g4359
sg76
(lp4375
g69
(g70
g71
NtRp4376
(dp4377
g74
(dp4378
g82
I4
ssg83
g4372
sg76
(lp4379
S'Web2py Web Framework'
p4380
asbasbasbag69
(g85
g71
NtRp4381
(dp4382
g74
(dp4383
sg83
g4311
sg76
(lp4384
g69
(g90
g71
NtRp4385
(dp4386
g74
(dp4387
g94
g95
ssg83
g4381
sg76
(lp4388
S'keywords'
p4389
asbag69
(g90
g71
NtRp4390
(dp4391
g74
(dp4392
g101
g102
ssg83
g4381
sg76
(lp4393
S':'
asbag69
(g90
g71
NtRp4394
(dp4395
g74
(dp4396
sg83
g4381
sg76
(lp4397
g69
(g70
g71
NtRp4398
(dp4399
g74
(dp4400
g82
I4
ssg83
g4394
sg76
(lp4401
S'web2py, python, framework'
p4402
asbasbasbasbasbasbasbag69
(g85
g71
NtRp4403
(dp4404
g74
(dp4405
sg83
g3563
sg76
(lp4406
g69
(g90
g71
NtRp4407
(dp4408
g74
(dp4409
g94
g95
ssg83
g4403
sg76
(lp4410
S'models_to_run'
p4411
asbag69
(g90
g71
NtRp4412
(dp4413
g74
(dp4414
g101
g102
ssg83
g4403
sg76
(lp4415
S':'
asbag69
(g90
g71
NtRp4416
(dp4417
g74
(dp4418
sg83
g4403
sg76
(lp4419
g69
(g70
g71
NtRp4420
(dp4421
g74
(dp4422
g82
I5
ssg83
g4416
sg76
(lp4423
g69
(g78
g71
NtRp4424
(dp4425
g74
(dp4426
g82
I4
ssg83
Nsg76
(lp4427
g69
(g85
g71
NtRp4428
(dp4429
g74
(dp4430
sg83
g4424
sg76
(lp4431
g69
(g90
g71
NtRp4432
(dp4433
g74
(dp4434
sg83
g4428
sg76
(lp4435
g69
(g70
g71
NtRp4436
(dp4437
g74
(dp4438
g82
I4
ssg83
g4432
sg76
(lp4439
S'^\\w+\\.py$'
p4440
asbasbasbag69
(g85
g71
NtRp4441
(dp4442
g74
(dp4443
sg83
g4424
sg76
(lp4444
g69
(g90
g71
NtRp4445
(dp4446
g74
(dp4447
sg83
g4441
sg76
(lp4448
g69
(g70
g71
NtRp4449
(dp4450
g74
(dp4451
g82
I4
ssg83
g4445
sg76
(lp4452
S'^initial/\\w+\\.py$'
p4453
asbasbasbag69
(g85
g71
NtRp4454
(dp4455
g74
(dp4456
sg83
g4424
sg76
(lp4457
g69
(g90
g71
NtRp4458
(dp4459
g74
(dp4460
sg83
g4454
sg76
(lp4461
g69
(g70
g71
NtRp4462
(dp4463
g74
(dp4464
g82
I4
ssg83
g4458
sg76
(lp4465
S'^initial/principal/\\w+\\.py$'
p4466
asbasbasbasbasbasbasbag69
(g85
g71
NtRp4467
(dp4468
g74
(dp4469
sg83
g3563
sg76
(lp4470
g69
(g90
g71
NtRp4471
(dp4472
g74
(dp4473
g94
g95
ssg83
g4467
sg76
(lp4474
S'postprocessing'
p4475
asbag69
(g90
g71
NtRp4476
(dp4477
g74
(dp4478
g101
g102
ssg83
g4467
sg76
(lp4479
S':'
asbag69
(g90
g71
NtRp4480
(dp4481
g74
(dp4482
sg83
g4467
sg76
(lp4483
g69
(g70
g71
NtRp4484
(dp4485
g74
(dp4486
g82
I5
ssg83
g4480
sg76
(lp4487
g69
(g78
g71
NtRp4488
(dp4489
g74
(dp4490
g82
I4
ssg83
Nsg76
(lp4491
sbasbasbasbag69
(g85
g71
NtRp4492
(dp4493
g74
(dp4494
sg83
g3563
sg76
(lp4495
g69
(g90
g71
NtRp4496
(dp4497
g74
(dp4498
g94
g95
ssg83
g4492
sg76
(lp4499
S'session_cookie_expires'
p4500
asbag69
(g90
g71
NtRp4501
(dp4502
g74
(dp4503
g101
g102
ssg83
g4492
sg76
(lp4504
S':'
asbag69
(g90
g71
NtRp4505
(dp4506
g74
(dp4507
sg83
g4492
sg76
(lp4508
g69
(g70
g71
NtRp4509
(dp4510
g74
(dp4511
g82
I5
ssg83
g4505
sg76
(lp4512
S'None'
p4513
asbasbasbag69
(g85
g71
NtRp4514
(dp4515
g74
(dp4516
sg83
g3563
sg76
(lp4517
g69
(g90
g71
NtRp4518
(dp4519
g74
(dp4520
g94
g95
ssg83
g4514
sg76
(lp4521
S'session_data_name'
p4522
asbag69
(g90
g71
NtRp4523
(dp4524
g74
(dp4525
g101
g102
ssg83
g4514
sg76
(lp4526
S':'
asbag69
(g90
g71
NtRp4527
(dp4528
g74
(dp4529
sg83
g4514
sg76
(lp4530
g69
(g70
g71
NtRp4531
(dp4532
g74
(dp4533
g82
I5
ssg83
g4527
sg76
(lp4534
S'session_data_projeto'
p4535
asbasbasbag69
(g85
g71
NtRp4536
(dp4537
g74
(dp4538
sg83
g3563
sg76
(lp4539
g69
(g90
g71
NtRp4540
(dp4541
g74
(dp4542
g94
g95
ssg83
g4536
sg76
(lp4543
S'session_file'
p4544
asbag69
(g90
g71
NtRp4545
(dp4546
g74
(dp4547
g101
g102
ssg83
g4536
sg76
(lp4548
S':'
asbag69
(g90
g71
NtRp4549
(dp4550
g74
(dp4551
sg83
g4536
sg76
(lp4552
g69
(g70
g71
NtRp4553
(dp4554
g74
(dp4555
g82
I5
ssg83
g4549
sg76
(lp4556
S"<open file '/var/www/gravacao/applications/projeto/sessions/127.0.0.1-72e57111-a1b0-44ec-91df-e9830eb15f29', mode 'rb+' at 0x31cbe40>"
p4557
asbasbasbag69
(g85
g71
NtRp4558
(dp4559
g74
(dp4560
sg83
g3563
sg76
(lp4561
g69
(g90
g71
NtRp4562
(dp4563
g74
(dp4564
g94
g95
ssg83
g4558
sg76
(lp4565
S'session_filename'
p4566
asbag69
(g90
g71
NtRp4567
(dp4568
g74
(dp4569
g101
g102
ssg83
g4558
sg76
(lp4570
S':'
asbag69
(g90
g71
NtRp4571
(dp4572
g74
(dp4573
sg83
g4558
sg76
(lp4574
g69
(g70
g71
NtRp4575
(dp4576
g74
(dp4577
g82
I5
ssg83
g4571
sg76
(lp4578
S'/var/www/gravacao/applications/projeto/sessions/127.0.0.1-72e57111-a1b0-44ec-91df-e9830eb15f29'
p4579
asbasbasbag69
(g85
g71
NtRp4580
(dp4581
g74
(dp4582
sg83
g3563
sg76
(lp4583
g69
(g90
g71
NtRp4584
(dp4585
g74
(dp4586
g94
g95
ssg83
g4580
sg76
(lp4587
S'session_id'
p4588
asbag69
(g90
g71
NtRp4589
(dp4590
g74
(dp4591
g101
g102
ssg83
g4580
sg76
(lp4592
S':'
asbag69
(g90
g71
NtRp4593
(dp4594
g74
(dp4595
sg83
g4580
sg76
(lp4596
g69
(g70
g71
NtRp4597
(dp4598
g74
(dp4599
g82
I5
ssg83
g4593
sg76
(lp4600
g487
asbasbasbag69
(g85
g71
NtRp4601
(dp4602
g74
(dp4603
sg83
g3563
sg76
(lp4604
g69
(g90
g71
NtRp4605
(dp4606
g74
(dp4607
g94
g95
ssg83
g4601
sg76
(lp4608
S'session_id_name'
p4609
asbag69
(g90
g71
NtRp4610
(dp4611
g74
(dp4612
g101
g102
ssg83
g4601
sg76
(lp4613
S':'
asbag69
(g90
g71
NtRp4614
(dp4615
g74
(dp4616
sg83
g4601
sg76
(lp4617
g69
(g70
g71
NtRp4618
(dp4619
g74
(dp4620
g82
I5
ssg83
g4614
sg76
(lp4621
g3620
asbasbasbag69
(g85
g71
NtRp4622
(dp4623
g74
(dp4624
sg83
g3563
sg76
(lp4625
g69
(g90
g71
NtRp4626
(dp4627
g74
(dp4628
g94
g95
ssg83
g4622
sg76
(lp4629
S'session_locked'
p4630
asbag69
(g90
g71
NtRp4631
(dp4632
g74
(dp4633
g101
g102
ssg83
g4622
sg76
(lp4634
S':'
asbag69
(g90
g71
NtRp4635
(dp4636
g74
(dp4637
sg83
g4622
sg76
(lp4638
g69
(g70
g71
NtRp4639
(dp4640
g74
(dp4641
g82
I5
ssg83
g4635
sg76
(lp4642
g1625
asbasbasbag69
(g85
g71
NtRp4643
(dp4644
g74
(dp4645
sg83
g3563
sg76
(lp4646
g69
(g90
g71
NtRp4647
(dp4648
g74
(dp4649
g94
g95
ssg83
g4643
sg76
(lp4650
S'session_new'
p4651
asbag69
(g90
g71
NtRp4652
(dp4653
g74
(dp4654
g101
g102
ssg83
g4643
sg76
(lp4655
S':'
asbag69
(g90
g71
NtRp4656
(dp4657
g74
(dp4658
sg83
g4643
sg76
(lp4659
g69
(g70
g71
NtRp4660
(dp4661
g74
(dp4662
g82
I5
ssg83
g4656
sg76
(lp4663
g112
asbasbasbag69
(g85
g71
NtRp4664
(dp4665
g74
(dp4666
sg83
g3563
sg76
(lp4667
g69
(g90
g71
NtRp4668
(dp4669
g74
(dp4670
g94
g95
ssg83
g4664
sg76
(lp4671
S'session_storage_type'
p4672
asbag69
(g90
g71
NtRp4673
(dp4674
g74
(dp4675
g101
g102
ssg83
g4664
sg76
(lp4676
S':'
asbag69
(g90
g71
NtRp4677
(dp4678
g74
(dp4679
sg83
g4664
sg76
(lp4680
g69
(g70
g71
NtRp4681
(dp4682
g74
(dp4683
g82
I5
ssg83
g4677
sg76
(lp4684
g3043
asbasbasbag69
(g85
g71
NtRp4685
(dp4686
g74
(dp4687
sg83
g3563
sg76
(lp4688
g69
(g90
g71
NtRp4689
(dp4690
g74
(dp4691
g94
g95
ssg83
g4685
sg76
(lp4692
S'status'
p4693
asbag69
(g90
g71
NtRp4694
(dp4695
g74
(dp4696
g101
g102
ssg83
g4685
sg76
(lp4697
S':'
asbag69
(g90
g71
NtRp4698
(dp4699
g74
(dp4700
sg83
g4685
sg76
(lp4701
g69
(g70
g71
NtRp4702
(dp4703
g74
(dp4704
g82
I5
ssg83
g4698
sg76
(lp4705
S'200'
p4706
asbasbasbag69
(g85
g71
NtRp4707
(dp4708
g74
(dp4709
sg83
g3563
sg76
(lp4710
g69
(g90
g71
NtRp4711
(dp4712
g74
(dp4713
g94
g95
ssg83
g4707
sg76
(lp4714
S'subtitle'
p4715
asbag69
(g90
g71
NtRp4716
(dp4717
g74
(dp4718
g101
g102
ssg83
g4707
sg76
(lp4719
S':'
asbag69
(g90
g71
NtRp4720
(dp4721
g74
(dp4722
sg83
g4707
sg76
(lp4723
g69
(g70
g71
NtRp4724
(dp4725
g74
(dp4726
g82
I5
ssg83
g4720
sg76
(lp4727
g4095
(S's\r\x00\x00\x00customize me!'
tRp4728
asbasbasbag69
(g85
g71
NtRp4729
(dp4730
g74
(dp4731
sg83
g3563
sg76
(lp4732
g69
(g90
g71
NtRp4733
(dp4734
g74
(dp4735
g94
g95
ssg83
g4729
sg76
(lp4736
S'title'
p4737
asbag69
(g90
g71
NtRp4738
(dp4739
g74
(dp4740
g101
g102
ssg83
g4729
sg76
(lp4741
S':'
asbag69
(g90
g71
NtRp4742
(dp4743
g74
(dp4744
sg83
g4729
sg76
(lp4745
g69
(g70
g71
NtRp4746
(dp4747
g74
(dp4748
g82
I5
ssg83
g4742
sg76
(lp4749
S'Projeto'
p4750
asbasbasbag69
(g85
g71
NtRp4751
(dp4752
g74
(dp4753
sg83
g3563
sg76
(lp4754
g69
(g90
g71
NtRp4755
(dp4756
g74
(dp4757
g94
g95
ssg83
g4751
sg76
(lp4758
S'view'
p4759
asbag69
(g90
g71
NtRp4760
(dp4761
g74
(dp4762
g101
g102
ssg83
g4751
sg76
(lp4763
S':'
asbag69
(g90
g71
NtRp4764
(dp4765
g74
(dp4766
sg83
g4751
sg76
(lp4767
g69
(g70
g71
NtRp4768
(dp4769
g74
(dp4770
g82
I5
ssg83
g4764
sg76
(lp4771
S'initial/principal.html'
p4772
asbasbasbasbasbsS'locals'
p4773
(dp4774
g4
S"'/var/www/gravacao/applications/projeto/controllers/initial.py'"
p4775
sg6
S"'# coding=UTF-8\\nimport datetime, os, commands\\n\\nde...\\t\\n\\n\\n\\n\\nresponse._vars=response._caller(principal)\\n'"
p4776
sssS'traceback'
p4777
S'Traceback (most recent call last):\n  File "/var/www/gravacao/gluon/restricted.py", line 211, in restricted\n    ccode = compile2(code, layer)\n  File "/var/www/gravacao/gluon/restricted.py", line 194, in compile2\n    return compile(code.rstrip().replace(\'\\r\\n\', \'\\n\') + \'\\n\', layer, \'exec\')\n  File "/var/www/gravacao/applications/projeto/controllers/initial.py", line 131\n    pastas = \'%s-%s\' %(session.mes session.ano)\n                                         ^\nSyntaxError: invalid syntax\n'
p4778
s.