(dp1
S'output'
p2
S'<class \'gluon.contrib.pg8000.errors.ProgrammingError\'> (\'ERROR\', \'23505\', \'duplicate key value violates unique constraint "usuario_nome_key"\')'
p3
sS'layer'
p4
S'/var/www/conferencia/applications/projeto/controllers/initial.py'
p5
sS'code'
p6
S'# coding: utf-8\n\ndef show_cliente():\n\tresponse.title="Eventos"\n\n\tgrid = SQLFORM.grid(db.meetme, orderby=db.meetme.endtime,\n\t\tuser_signature=False, searchable=True, csv=False, \n\t\tpaginate=50, details=False,  \n\t\tignore_rw = True, maxtextlength=36,\n\t\tlinks=[lambda row: A(\'Editar\', \n    \t\t      _class=\'btn\', \n    \t\t      _title=\'Editar\', \n    \t\t      _href=URL("initial", "/edit_host", \n    \t\t      vars=dict(f=row.confno)))] \n    \t)\n\treturn response.render("initial/show_grid.html", grid=grid)\n\ndef show_servidor():\n\tresponse.title="Eventos"\n\tdata = request.now\n\n\tquery=(db.meetme.endtime > data) \n\tprint query\n\n\tgrid = SQLFORM.grid(query=query, orderby=db.meetme.endtime,\n\t\tuser_signature=False, searchable=True, editable=False,  \n\t\tpaginate=50, details=False, csv=False,\n\t\tignore_rw = True, maxtextlength=36,\n\t\tlinks=[lambda row: A(\'Editar\', \n    \t\t      _class=\'btn\', \n    \t\t      _title=\'Editar\', \n    \t\t      _href=URL("initial", "/edit_host", \n    \t\t      vars=dict(f=row.confno)))] \n    \t)\n\treturn response.render("initial/show_grid.html", grid=grid)\n\ndef edit_host():\n    form = SQLFORM(db.meetme, request.vars[\'f\'], submit_button=\'Editar\')\n\n    if form.process().accepted:\n       response.flash = \'Editado com sucesso\'\n    elif form.errors:\n       response.flash = \'Ops, algo n\xc3\xa3o est\xc3\xa1 correto\'\n    else:\n       response.flash = \'Edite os dados do host\'\n\n    return response.render("initial/show_form2.html", form=form)\n\n\n@auth.requires_login()\ndef show_distro():\n\tresponse.title="Distribui\xc3\xa7\xc3\xb5es"\n\n\tdb.args=Distro.id.readable=False\n\tdb.args=Distro.img.readable=False\n\tgrid = SQLFORM.grid(Distro,\n\t\tuser_signature=True, searchable=True, csv=False,\n\t\tpaginate=50, details=False, ignore_rw = True, \n\t\tmaxtextlength=26, links_placement=\'left\',\n\t\tcreate=auth.has_membership("admin"),\n\t\teditable=auth.has_membership("admin"),\n\t\tdeletable=auth.has_membership("admin"),  \n    \tlinks = [lambda row: A(\'hosts\', \n    \t\t_class=\'btn\', \n    \t\t_title=\'ver servidores\', \n    \t\t_href=URL("initial", "/distro_host", \n    \t\tvars=dict(f=row.id, n1=\'Distros\', p1=\'show_distro\'))), \n    \tdict(header=\'\',body=lambda row: A( IMG(_src=URL("static", "images", args=(row.img) ))))]\n\t\t)\n\treturn response.render("initial/show_grid.html", grid=grid)\n\n\n@auth.requires_login()\ndef cliente_host():\n\tfiltro = request.vars[\'f\']\n\tqueryset = db(db.cliente.id == filtro)\n\trows = queryset.select()\n\tcliente = rows[0]\n\tresponse.title = cliente.nome\n\tprint cliente\n\n\tnome_ant1 = request.vars[\'n1\']\n\tfuncao_ant1 = request.vars[\'p1\']\n\tnome_atual = cliente.nome\n\n\tquery = ((db.hosts.id_cliente == filtro) & (db.distro.id == db.hosts.id_distro))\n\tlinks = [dict(header=\'\',body=lambda row: A( IMG(_src=URL("static", "images", args=(row.distro.img)) ))), \n\t lambda row: A(\'Detalhes\', \n    \t\t      _class=\'btn\', \n    \t\t      _title=\'Detalhes\', \n    \t\t      _href=URL("initial", "/detalhes_nav", \n    \t\t      vars=dict(f=row.hosts.id, c=filtro, n=cliente.nome, \n    \t\t      \t\t\tn1=\'Clientes\', p1=\'show_cliente\', p=\'cliente_host\'))),\n\t lambda row: A(\'Editar\', \n    \t\t      _class=\'btn\', \n    \t\t      _title=\'Editar\', \n    \t\t      _href=URL("initial", "/edit_host", \n    \t\t      vars=dict(f=row.hosts.id, c=filtro, n=cliente.nome, \n    \t\t      \t\tn1=\'Clientes\', p1=\'show_cliente\', p=\'cliente_host\')))]\n\tdb.hosts.id.readable=False\n\tdb.distro.img.readable=False\n\t\n\tfields = (db.hosts.id, db.hosts.id_servidor, db.hosts.id_distro, db.distro.img, \n\t\t\t  db.hosts.ip_chegada, db.hosts.porta_ssh, db.hosts.gateway)\n\theaders = {\'hosts.id\':   \'ID\',\n\t\t\t   \'hosts.id_cliente\': \'Cliente\',\n               \'hosts.id_servidor\': \'Servidor\',\n               \'hosts.id_distro\': \'Distro\',\n               \'hosts.nome\': \'Nome\',\n\t           \'hosts.servicos\': \'Servicos\'}\n\tgrid = SQLFORM.grid(query=query, fields=fields, headers=headers, csv=False,\n\t\t\t\t\t\tdetails=False, searchable=False, maxtextlength=23, links=links, \n\t\t\t\t\t\tlinks_placement=\'left\', editable=False, create=False)\n\n\treturn response.render("initial/show_grid2.html", grid=grid, nome_ant1=nome_ant1, \n\t\t\t\t\t\tfuncao_ant1=funcao_ant1, nome_atual=nome_atual)\n\n@auth.requires_login()\ndef servidor_host():\n\tfiltro = request.vars[\'f\']\n\tqueryset = db(db.servidor.id == filtro)\n\trows = queryset.select()\n\tservidor = rows[0]\n\tresponse.title = servidor.nome\n\n\tnome_ant1 = request.vars[\'n1\']\n\tfuncao_ant1 = request.vars[\'p1\']\n\tnome_atual = servidor.nome\t\n\n\tdb.distro.img.readable=False\n\tdb.hosts.id.readable=False\n\tquery = ((db.hosts.id_servidor == filtro) & (db.distro.id == db.hosts.id_distro))\n\n\tlinks = [dict(header=\'\',body=lambda row: A( IMG(_src=URL("static", "images", args=(row.distro.img)) ))), \n\t lambda row: A(\'Detalhes\', \n    \t\t      _class=\'btn\', \n    \t\t      _title=\'Detalhes\', \n    \t\t      _href=URL("initial", "/detalhes_nav", \n    \t\t      vars=dict(f=row.hosts.id, c=filtro, n=servidor.nome, \n    \t\t      \t\tn1=\'Servidores\', p1=\'show_servidor\', p=\'servidor_host\'))),\n\t lambda row: A(\'Editar\', \n    \t\t      _class=\'btn\', \n    \t\t      _title=\'Editar\', \n    \t\t      _href=URL("initial", "/edit_host", \n    \t\t      vars=dict(f=row.hosts.id, c=filtro, n=servidor.nome, \n    \t\t      \t\tn1=\'Servidores\', p1=\'show_servidor\', p=\'servidor_host\')))]\n\n\tfields = (db.hosts.id, db.hosts.id_cliente, db.hosts.id_distro, db.distro.img, \n\t\t\t\tdb.hosts.ip_chegada, db.hosts.porta_ssh, db.hosts.gateway)\n\theaders = {\'hosts.id\':   \'ID\',\n\t\t\t   \'hosts.id_cliente\': \'Cliente\',\n               \'hosts.id_servidor\': \'Servidor\',\n               \'hosts.id_distro\': \'Distro\',\n               \'hosts.nome\': \'Nome\',\n\t           \'hosts.servicos\': \'Servicos\'}\n\tgrid = SQLFORM.grid(query=query, fields=fields, headers=headers, csv=False,\n\t\t\t\t\t\tdetails=False, searchable=False, maxtextlength=23, links=links, \n\t\t\t\t\t\tlinks_placement=\'left\', editable=False, create=False)\n\n\treturn response.render("initial/show_grid2.html", grid=grid, nome_ant1=nome_ant1, \n\t\t\t\t\t\tfuncao_ant1=funcao_ant1, nome_atual=nome_atual)\n\n@auth.requires_login()\ndef distro_host():\n\tfiltro = request.vars[\'f\']\n\tqueryset = db(db.distro.id == filtro)\n\trows = queryset.select()\n\tdistro = rows[0]\n\tresponse.title = distro.nome\n\n\tnome_ant1 = request.vars[\'n1\']\n\tfuncao_ant1 = request.vars[\'p1\']\n\tnome_atual = distro.nome\t\n\t\n\tdb.hosts.id.readable=False\n\tdb.distro.img.readable=False\n\tquery = ((db.hosts.id_distro == filtro) & (db.distro.id == db.hosts.id_distro))\n\tlinks = [dict(header=\'\',body=lambda row: A( IMG(_src=URL("static", "images", args=(row.distro.img)) ))), \n\t lambda row: A(\'Detalhes\', \n    \t\t      _class=\'btn\', \n    \t\t      _title=\'Detalhes\', \n    \t\t      _href=URL("initial", "/detalhes_nav", \n    \t\t      vars=dict(f=row.hosts.id, c=filtro, n=distro.nome, \n    \t\t      \t\tn1=\'Distros\', p1=\'show_distro\', p=\'distro_host\'))),\n\t lambda row: A(\'Editar\', \n    \t\t      _class=\'btn\', \n    \t\t      _title=\'Editar\', \n    \t\t      _href=URL("initial", "/edit_host", \n    \t\t      vars=dict(f=row.hosts.id, c=filtro, n=distro.nome, \n    \t\t      \t\tn1=\'Distros\', p1=\'show_distro\', p=\'distro_host\')))]\n\n\tfields = (db.hosts.id, db.hosts.id_cliente, db.hosts.id_servidor, db.distro.img, \n\t\t\t  db.hosts.ip_chegada, db.hosts.porta_ssh, db.hosts.gateway)\n\theaders = {\'hosts.id\':   \'ID\',\n\t\t\t\t\'hosts.id_cliente\': \'Cliente\',\n               \'hosts.id_servidor\': \'Servidor\',\n               \'hosts.id_distro\': \'Distro\',\n               \'hosts.nome\': \'Nome\',\n\t           \'hosts.servicos\': \'Servicos\'}\n\tgrid = SQLFORM.grid(query=query, fields=fields, headers=headers, csv=False,\n\t\t\t\t\t\tdetails=False, searchable=False, maxtextlength=23, links=links, \n\t\t\t\t\t\tlinks_placement=\'left\', editable=False, create=False)\n\n\treturn response.render("initial/show_grid2.html", grid=grid, nome_ant1=nome_ant1, \n\t\t\t\t\t\tfuncao_ant1=funcao_ant1, nome_atual=nome_atual)\n\ndef detalhes_nav():\n\t#detalhes\n\tfiltro = request.vars[\'f\'] #id_host\n\tid_cliente = request.vars[\'c\'] #id_cliente\n\tnome_ant = request.vars[\'n\'] #nome (asterisk ou agronelli ou debian)\n\tnome_ant1 = request.vars[\'n1\'] #nome (servidores ou clientes ou distros)\n\tfuncao_ant = request.vars[\'p\'] #funcao(host_servidores)\n\tfuncao_ant1 = request.vars[\'p1\'] #funcao(show_servidores)\n\t\n\n\tquery = ((db.hosts.id == filtro) & (db.hosts.id_cliente == db.cliente.id)\n\t \t    & (db.hosts.id_servidor == db.servidor.id) \n\t \t    & (db.hosts.id_distro == db.distro.id)) \n\tdetalhes = db.hosts(query)\n\t\n\t\n\treturn response.render("initial/detalhes_host.html", detalhes=detalhes, \n\t\t\t\tid_cliente=id_cliente, funcao_ant=funcao_ant, funcao_ant1=funcao_ant1, \n\t\t\t\tnome_ant=nome_ant, nome_ant1=nome_ant1, filtro=filtro)\n\n\n\n@auth.requires_login()\ndef interface():\n\t#adicionar\n    form = SQLFORM(db.hosts, submit_button=\'Adicionar\', \n    \t\t\tfields = [\'id_cliente\', \'id_servidor\', \'id_distro\', \'servicos\',\n\t\t\t\t\'if1\', \'ip1\', \'masc1\', \'obs1\', \'if2\', \'ip2\', \'masc2\', \'obs2\',\n\t\t\t\t\'if3\', \'ip3\', \'masc3\', \'obs3\', \'if4\', \'ip4\', \'masc4\', \'obs4\',\n\t\t\t\t\'nome\', \'ip_chegada\', \'porta_ssh\', \'gateway\', \'rotas\', \'obs_gerais\'], \n\t\t\t\tlabels = {\'id_cliente\':\'Cliente\', \'id_servidor\':\'Servidor\', \'id_distro\':\'Distro\',\n\t\t\t\t\'if1\':\'Interface 1\', \'ip1\':\'IP\', \'masc1\':\'M\xc3\xa1scara\', \'obs1\':\'Obs\',\n\t\t\t\t\'if2\':\'Interface 2\', \'ip2\':\'IP\', \'masc2\':\'M\xc3\xa1scara\', \'obs2\':\'Obs\',\n\t\t\t\t\'if3\':\'Interface 3\', \'ip3\':\'IP\', \'masc3\':\'M\xc3\xa1scara\', \'obs3\':\'Obs\',\n\t\t\t\t\'if4\':\'Interface 4\', \'ip4\':\'IP\', \'masc4\':\'M\xc3\xa1scara\', \'obs4\':\'Obs\'})\n   \n    if form.process().accepted:\n    \thost = request.vars\n    \temail(host)\n    \tresponse.flash = \'Inserido com sucesso\'\t\t\n    elif form.errors:\n       response.flash = \'Ops, algo n\xc3\xa3o est\xc3\xa1 correto\'\n    else:\n       response.flash = \'Insira os dados do novo host\'\n    return response.render("initial/show_form2.html", form=form)\n\ndef about():\n\tfiltro = request.vars[\'f\']\n\tquery = ((db.hosts.id_servidor == filtro) & (db.distro.id == db.hosts.id_distro))\n\tfields = (db.hosts.id, db.hosts.id_cliente, db.hosts.id_distro, db.distro.img, \n\t\t\t\tdb.hosts.ip_chegada, db.hosts.porta_ssh, db.hosts.gateway)\n\theaders = {\'host.id\':   \'ID\',\n               \'host.id_servidor\': \'Servidor\',\n               \'host.id_distro\': \'Distro\',\n               \'host.nome\': \'Nome\',\n\t           \'host.servicos\': \'Servicos\'}\n\tgrid = SQLFORM.grid(query=query, fields=fields, headers=headers, csv=False,\n\t\t\t\t\t\tdetails=False, maxtextlength=23, searchable=True, editable=False, create=False)\n\n\treturn response.render("initial/teste.html", grid=grid,)\n\ndef user():\n\t#if request.args(0) == \'register\':\n    #    \tdb.auth_user.bio.writable = db.auth_user.bio.readable = False\n\treturn response.render("initial/user.html", user=auth())\n\ndef register():\n\treturn auth.register()\n\ndef login():\n        return auth.login()\n\ndef account():\n    return dict(register=auth.register(),\n                login=auth.login())\n\t\ndef download():\n\treturn response.download(request, db)\n\n\ndef principal():\n\tresponse.title="Usu\xc3\xa1rios"\n\n\tgrid = SQLFORM.grid(db.usuario,\n\t\tuser_signature=False, searchable=True, csv=False, \n\t\tpaginate=50, details=False,  \n\t\tignore_rw = True, maxtextlength=36, \n    \t)\n\treturn response.render("initial/show_grid.html", grid=grid)\n\n\t\ndef detalhes_clean():\n\tfiltro = request.vars[\'f\'] #id_host\n\t\t\n\n\tquery = ((db.hosts.id == filtro) & (db.hosts.id_cliente == db.cliente.id)\n\t \t    & (db.hosts.id_servidor == db.servidor.id) \n\t \t    & (db.hosts.id_distro == db.distro.id)) \n\tdetalhes = db.hosts(query)\n\n\t\n\treturn response.render("initial/detalhes_host_clean.html", detalhes=detalhes)\n\ndef email(host):\n\tif auth.has_membership(\'voip\'):\n\t\tmail.send(\n\t\t\tto="fndiaz02@gmail.com",\n\t\t\tsubject="host adicionado",\n\t\t\tmessage="<html>Um novo host foi adicionado pelo usu\xc3\xa1rio %s <br>nome: %s <br>vpn: %s<br><br>\xc3\x89 preciso fazer a instala\xc3\xa7\xc3\xa3o do client zabbix e bacula</html>" % (auth.user.first_name, host.nome, host.ip_chegada,)\n\t\t\t)\n\telif auth.has_membership(\'internet\'):\n\t\tmail.send(\n\t\t\tto="fernando@ad2.com.br",\n\t\t\tsubject="host adicionado",\n\t\t\tmessage="<html>Um novo host foi adicionado pelo usu\xc3\xa1rio %s <br>nome: %s <br>vpn: %s<br><br>\xc3\x89 preciso fazer a instala\xc3\xa7\xc3\xa3o do client zabbix e bacula</html>" % (auth.user.first_name, host.nome, host.ip_chegada,)\n\t\t\t)\n\nresponse._vars=response._caller(principal)\n'
p7
sS'snapshot'
p8
(dp9
S'exception'
p10
(dp11
S'__module__'
p12
S"'gluon.contrib.pg8000.errors'"
p13
sS'__getslice__'
p14
S"<method-wrapper '__getslice__' of ProgrammingError object>"
p15
sS'__str__'
p16
S"<method-wrapper '__str__' of ProgrammingError object>"
p17
sS'__reduce__'
p18
S'<built-in method __reduce__ of ProgrammingError object>'
p19
sS'__dict__'
p20
S'{}'
p21
sS'__sizeof__'
p22
S'<built-in method __sizeof__ of ProgrammingError object>'
p23
sS'__weakref__'
p24
S'None'
p25
sS'__init__'
p26
S"<method-wrapper '__init__' of ProgrammingError object>"
p27
sS'__setattr__'
p28
S"<method-wrapper '__setattr__' of ProgrammingError object>"
p29
sS'__reduce_ex__'
p30
S'<built-in method __reduce_ex__ of ProgrammingError object>'
p31
sS'__new__'
p32
S'<built-in method __new__ of type object>'
p33
sS'__format__'
p34
S'<built-in method __format__ of ProgrammingError object>'
p35
sS'__class__'
p36
S"<class 'gluon.contrib.pg8000.errors.ProgrammingError'>"
p37
sS'__doc__'
p38
S'None'
p39
sS'__getitem__'
p40
S"<method-wrapper '__getitem__' of ProgrammingError object>"
p41
sS'__setstate__'
p42
S'<built-in method __setstate__ of ProgrammingError object>'
p43
sS'__getattribute__'
p44
S"<method-wrapper '__getattribute__' of ProgrammingError object>"
p45
sS'args'
p46
S'(\'ERROR\', \'23505\', \'duplicate key value violates unique constraint "usuario_nome_key"\')'
p47
sS'__subclasshook__'
p48
S'<built-in method __subclasshook__ of type object>'
p49
sS'__unicode__'
p50
S'<built-in method __unicode__ of ProgrammingError object>'
p51
sS'__delattr__'
p52
S"<method-wrapper '__delattr__' of ProgrammingError object>"
p53
sS'__repr__'
p54
S"<method-wrapper '__repr__' of ProgrammingError object>"
p55
sS'__hash__'
p56
S"<method-wrapper '__hash__' of ProgrammingError object>"
p57
ssS'evalue'
p58
S'(\'ERROR\', \'23505\', \'duplicate key value violates unique constraint "usuario_nome_key"\')'
p59
sS'request'
p60
ccopy_reg
_reconstructor
p61
(cgluon.html
BEAUTIFY
p62
c__builtin__
object
p63
NtRp64
(dp65
S'attributes'
p66
(dp67
sS'components'
p68
(lp69
g61
(cgluon.html
TABLE
p70
g63
NtRp71
(dp72
g66
(dp73
S'level'
p74
I5
ssS'parent'
p75
Nsg68
(lp76
g61
(cgluon.html
TR
p77
g63
NtRp78
(dp79
g66
(dp80
sg75
g71
sg68
(lp81
g61
(cgluon.html
TD
p82
g63
NtRp83
(dp84
g66
(dp85
S'_style'
p86
S'font-weight:bold;vertical-align:top'
p87
ssg75
g78
sg68
(lp88
S'ajax'
p89
asbag61
(g82
g63
NtRp90
(dp91
g66
(dp92
S'_valign'
p93
S'top'
p94
ssg75
g78
sg68
(lp95
S':'
asbag61
(g82
g63
NtRp96
(dp97
g66
(dp98
sg75
g78
sg68
(lp99
g61
(g62
g63
NtRp100
(dp101
g66
(dp102
g74
I5
ssg75
g96
sg68
(lp103
S'False'
p104
asbasbasbag61
(g77
g63
NtRp105
(dp106
g66
(dp107
sg75
g71
sg68
(lp108
g61
(g82
g63
NtRp109
(dp110
g66
(dp111
g86
g87
ssg75
g105
sg68
(lp112
S'application'
p113
asbag61
(g82
g63
NtRp114
(dp115
g66
(dp116
g93
g94
ssg75
g105
sg68
(lp117
S':'
asbag61
(g82
g63
NtRp118
(dp119
g66
(dp120
sg75
g105
sg68
(lp121
g61
(g62
g63
NtRp122
(dp123
g66
(dp124
g74
I5
ssg75
g118
sg68
(lp125
S'projeto'
p126
asbasbasbag61
(g77
g63
NtRp127
(dp128
g66
(dp129
sg75
g71
sg68
(lp130
g61
(g82
g63
NtRp131
(dp132
g66
(dp133
g86
g87
ssg75
g127
sg68
(lp134
g46
asbag61
(g82
g63
NtRp135
(dp136
g66
(dp137
g93
g94
ssg75
g127
sg68
(lp138
S':'
asbag61
(g82
g63
NtRp139
(dp140
g66
(dp141
sg75
g127
sg68
(lp142
g61
(g62
g63
NtRp143
(dp144
g66
(dp145
g74
I5
ssg75
g139
sg68
(lp146
g61
(g70
g63
NtRp147
(dp148
g66
(dp149
g74
I4
ssg75
Nsg68
(lp150
g61
(g77
g63
NtRp151
(dp152
g66
(dp153
sg75
g147
sg68
(lp154
g61
(g82
g63
NtRp155
(dp156
g66
(dp157
sg75
g151
sg68
(lp158
g61
(g62
g63
NtRp159
(dp160
g66
(dp161
g74
I4
ssg75
g155
sg68
(lp162
S'new'
p163
asbasbasbag61
(g77
g63
NtRp164
(dp165
g66
(dp166
sg75
g147
sg68
(lp167
g61
(g82
g63
NtRp168
(dp169
g66
(dp170
sg75
g164
sg68
(lp171
g61
(g62
g63
NtRp172
(dp173
g66
(dp174
g74
I4
ssg75
g168
sg68
(lp175
S'usuario'
p176
asbasbasbasbasbasbasbag61
(g77
g63
NtRp177
(dp178
g66
(dp179
sg75
g71
sg68
(lp180
g61
(g82
g63
NtRp181
(dp182
g66
(dp183
g86
g87
ssg75
g177
sg68
(lp184
S'body'
p185
asbag61
(g82
g63
NtRp186
(dp187
g66
(dp188
g93
g94
ssg75
g177
sg68
(lp189
S':'
asbag61
(g82
g63
NtRp190
(dp191
g66
(dp192
sg75
g177
sg68
(lp193
g61
(g62
g63
NtRp194
(dp195
g66
(dp196
g74
I5
ssg75
g190
sg68
(lp197
S"<open file '<fdopen>', mode 'w+b' at 0x7fc5d8b80db0>"
p198
asbasbasbag61
(g77
g63
NtRp199
(dp200
g66
(dp201
sg75
g71
sg68
(lp202
g61
(g82
g63
NtRp203
(dp204
g66
(dp205
g86
g87
ssg75
g199
sg68
(lp206
S'cid'
p207
asbag61
(g82
g63
NtRp208
(dp209
g66
(dp210
g93
g94
ssg75
g199
sg68
(lp211
S':'
asbag61
(g82
g63
NtRp212
(dp213
g66
(dp214
sg75
g199
sg68
(lp215
g61
(g62
g63
NtRp216
(dp217
g66
(dp218
g74
I5
ssg75
g212
sg68
(lp219
S'None'
p220
asbasbasbag61
(g77
g63
NtRp221
(dp222
g66
(dp223
sg75
g71
sg68
(lp224
g61
(g82
g63
NtRp225
(dp226
g66
(dp227
g86
g87
ssg75
g221
sg68
(lp228
S'client'
p229
asbag61
(g82
g63
NtRp230
(dp231
g66
(dp232
g93
g94
ssg75
g221
sg68
(lp233
S':'
asbag61
(g82
g63
NtRp234
(dp235
g66
(dp236
sg75
g221
sg68
(lp237
g61
(g62
g63
NtRp238
(dp239
g66
(dp240
g74
I5
ssg75
g234
sg68
(lp241
S'127.0.0.1'
p242
asbasbasbag61
(g77
g63
NtRp243
(dp244
g66
(dp245
sg75
g71
sg68
(lp246
g61
(g82
g63
NtRp247
(dp248
g66
(dp249
g86
g87
ssg75
g243
sg68
(lp250
S'controller'
p251
asbag61
(g82
g63
NtRp252
(dp253
g66
(dp254
g93
g94
ssg75
g243
sg68
(lp255
S':'
asbag61
(g82
g63
NtRp256
(dp257
g66
(dp258
sg75
g243
sg68
(lp259
g61
(g62
g63
NtRp260
(dp261
g66
(dp262
g74
I5
ssg75
g256
sg68
(lp263
S'initial'
p264
asbasbasbag61
(g77
g63
NtRp265
(dp266
g66
(dp267
sg75
g71
sg68
(lp268
g61
(g82
g63
NtRp269
(dp270
g66
(dp271
g86
g87
ssg75
g265
sg68
(lp272
S'cookies'
p273
asbag61
(g82
g63
NtRp274
(dp275
g66
(dp276
g93
g94
ssg75
g265
sg68
(lp277
S':'
asbag61
(g82
g63
NtRp278
(dp279
g66
(dp280
sg75
g265
sg68
(lp281
g61
(g62
g63
NtRp282
(dp283
g66
(dp284
g74
I5
ssg75
g278
sg68
(lp285
g61
(g70
g63
NtRp286
(dp287
g66
(dp288
g74
I4
ssg75
Nsg68
(lp289
g61
(g77
g63
NtRp290
(dp291
g66
(dp292
sg75
g286
sg68
(lp293
g61
(g82
g63
NtRp294
(dp295
g66
(dp296
g86
g87
ssg75
g290
sg68
(lp297
S'session_id_admin'
p298
asbag61
(g82
g63
NtRp299
(dp300
g66
(dp301
g93
g94
ssg75
g290
sg68
(lp302
S':'
asbag61
(g82
g63
NtRp303
(dp304
g66
(dp305
sg75
g290
sg68
(lp306
g61
(g62
g63
NtRp307
(dp308
g66
(dp309
g74
I4
ssg75
g303
sg68
(lp310
S'127.0.0.1-cfe4c2e7-8d54-4ef8-9acc-85e77aa673da'
p311
ag61
(g70
g63
NtRp312
(dp313
g66
(dp314
g74
I3
ssg75
Nsg68
(lp315
g61
(g77
g63
NtRp316
(dp317
g66
(dp318
sg75
g312
sg68
(lp319
g61
(g82
g63
NtRp320
(dp321
g66
(dp322
g86
g87
ssg75
g316
sg68
(lp323
S'comment'
p324
asbag61
(g82
g63
NtRp325
(dp326
g66
(dp327
g93
g94
ssg75
g316
sg68
(lp328
S':'
asbag61
(g82
g63
NtRp329
(dp330
g66
(dp331
sg75
g316
sg68
(lp332
g61
(g62
g63
NtRp333
(dp334
g66
(dp335
g74
I3
ssg75
g329
sg68
(lp336
S''
asbasbasbag61
(g77
g63
NtRp337
(dp338
g66
(dp339
sg75
g312
sg68
(lp340
g61
(g82
g63
NtRp341
(dp342
g66
(dp343
g86
g87
ssg75
g337
sg68
(lp344
S'domain'
p345
asbag61
(g82
g63
NtRp346
(dp347
g66
(dp348
g93
g94
ssg75
g337
sg68
(lp349
S':'
asbag61
(g82
g63
NtRp350
(dp351
g66
(dp352
sg75
g337
sg68
(lp353
g61
(g62
g63
NtRp354
(dp355
g66
(dp356
g74
I3
ssg75
g350
sg68
(lp357
S''
asbasbasbag61
(g77
g63
NtRp358
(dp359
g66
(dp360
sg75
g312
sg68
(lp361
g61
(g82
g63
NtRp362
(dp363
g66
(dp364
g86
g87
ssg75
g358
sg68
(lp365
S'expires'
p366
asbag61
(g82
g63
NtRp367
(dp368
g66
(dp369
g93
g94
ssg75
g358
sg68
(lp370
S':'
asbag61
(g82
g63
NtRp371
(dp372
g66
(dp373
sg75
g358
sg68
(lp374
g61
(g62
g63
NtRp375
(dp376
g66
(dp377
g74
I3
ssg75
g371
sg68
(lp378
S''
asbasbasbag61
(g77
g63
NtRp379
(dp380
g66
(dp381
sg75
g312
sg68
(lp382
g61
(g82
g63
NtRp383
(dp384
g66
(dp385
g86
g87
ssg75
g379
sg68
(lp386
S'httponly'
p387
asbag61
(g82
g63
NtRp388
(dp389
g66
(dp390
g93
g94
ssg75
g379
sg68
(lp391
S':'
asbag61
(g82
g63
NtRp392
(dp393
g66
(dp394
sg75
g379
sg68
(lp395
g61
(g62
g63
NtRp396
(dp397
g66
(dp398
g74
I3
ssg75
g392
sg68
(lp399
S''
asbasbasbag61
(g77
g63
NtRp400
(dp401
g66
(dp402
sg75
g312
sg68
(lp403
g61
(g82
g63
NtRp404
(dp405
g66
(dp406
g86
g87
ssg75
g400
sg68
(lp407
S'max-age'
p408
asbag61
(g82
g63
NtRp409
(dp410
g66
(dp411
g93
g94
ssg75
g400
sg68
(lp412
S':'
asbag61
(g82
g63
NtRp413
(dp414
g66
(dp415
sg75
g400
sg68
(lp416
g61
(g62
g63
NtRp417
(dp418
g66
(dp419
g74
I3
ssg75
g413
sg68
(lp420
S''
asbasbasbag61
(g77
g63
NtRp421
(dp422
g66
(dp423
sg75
g312
sg68
(lp424
g61
(g82
g63
NtRp425
(dp426
g66
(dp427
g86
g87
ssg75
g421
sg68
(lp428
S'path'
p429
asbag61
(g82
g63
NtRp430
(dp431
g66
(dp432
g93
g94
ssg75
g421
sg68
(lp433
S':'
asbag61
(g82
g63
NtRp434
(dp435
g66
(dp436
sg75
g421
sg68
(lp437
g61
(g62
g63
NtRp438
(dp439
g66
(dp440
g74
I3
ssg75
g434
sg68
(lp441
S''
asbasbasbag61
(g77
g63
NtRp442
(dp443
g66
(dp444
sg75
g312
sg68
(lp445
g61
(g82
g63
NtRp446
(dp447
g66
(dp448
g86
g87
ssg75
g442
sg68
(lp449
S'secure'
p450
asbag61
(g82
g63
NtRp451
(dp452
g66
(dp453
g93
g94
ssg75
g442
sg68
(lp454
S':'
asbag61
(g82
g63
NtRp455
(dp456
g66
(dp457
sg75
g442
sg68
(lp458
g61
(g62
g63
NtRp459
(dp460
g66
(dp461
g74
I3
ssg75
g455
sg68
(lp462
S''
asbasbasbag61
(g77
g63
NtRp463
(dp464
g66
(dp465
sg75
g312
sg68
(lp466
g61
(g82
g63
NtRp467
(dp468
g66
(dp469
g86
g87
ssg75
g463
sg68
(lp470
S'version'
p471
asbag61
(g82
g63
NtRp472
(dp473
g66
(dp474
g93
g94
ssg75
g463
sg68
(lp475
S':'
asbag61
(g82
g63
NtRp476
(dp477
g66
(dp478
sg75
g463
sg68
(lp479
g61
(g62
g63
NtRp480
(dp481
g66
(dp482
g74
I3
ssg75
g476
sg68
(lp483
S''
asbasbasbasbasbasbasbag61
(g77
g63
NtRp484
(dp485
g66
(dp486
sg75
g286
sg68
(lp487
g61
(g82
g63
NtRp488
(dp489
g66
(dp490
g86
g87
ssg75
g484
sg68
(lp491
S'session_id_projeto'
p492
asbag61
(g82
g63
NtRp493
(dp494
g66
(dp495
g93
g94
ssg75
g484
sg68
(lp496
S':'
asbag61
(g82
g63
NtRp497
(dp498
g66
(dp499
sg75
g484
sg68
(lp500
g61
(g62
g63
NtRp501
(dp502
g66
(dp503
g74
I4
ssg75
g497
sg68
(lp504
S'127.0.0.1-32b58d02-0b69-424e-9fa3-773b7f2f336f'
p505
ag61
(g70
g63
NtRp506
(dp507
g66
(dp508
g74
I3
ssg75
Nsg68
(lp509
g61
(g77
g63
NtRp510
(dp511
g66
(dp512
sg75
g506
sg68
(lp513
g61
(g82
g63
NtRp514
(dp515
g66
(dp516
g86
g87
ssg75
g510
sg68
(lp517
g324
asbag61
(g82
g63
NtRp518
(dp519
g66
(dp520
g93
g94
ssg75
g510
sg68
(lp521
S':'
asbag61
(g82
g63
NtRp522
(dp523
g66
(dp524
sg75
g510
sg68
(lp525
g61
(g62
g63
NtRp526
(dp527
g66
(dp528
g74
I3
ssg75
g522
sg68
(lp529
S''
asbasbasbag61
(g77
g63
NtRp530
(dp531
g66
(dp532
sg75
g506
sg68
(lp533
g61
(g82
g63
NtRp534
(dp535
g66
(dp536
g86
g87
ssg75
g530
sg68
(lp537
g345
asbag61
(g82
g63
NtRp538
(dp539
g66
(dp540
g93
g94
ssg75
g530
sg68
(lp541
S':'
asbag61
(g82
g63
NtRp542
(dp543
g66
(dp544
sg75
g530
sg68
(lp545
g61
(g62
g63
NtRp546
(dp547
g66
(dp548
g74
I3
ssg75
g542
sg68
(lp549
S''
asbasbasbag61
(g77
g63
NtRp550
(dp551
g66
(dp552
sg75
g506
sg68
(lp553
g61
(g82
g63
NtRp554
(dp555
g66
(dp556
g86
g87
ssg75
g550
sg68
(lp557
g366
asbag61
(g82
g63
NtRp558
(dp559
g66
(dp560
g93
g94
ssg75
g550
sg68
(lp561
S':'
asbag61
(g82
g63
NtRp562
(dp563
g66
(dp564
sg75
g550
sg68
(lp565
g61
(g62
g63
NtRp566
(dp567
g66
(dp568
g74
I3
ssg75
g562
sg68
(lp569
S''
asbasbasbag61
(g77
g63
NtRp570
(dp571
g66
(dp572
sg75
g506
sg68
(lp573
g61
(g82
g63
NtRp574
(dp575
g66
(dp576
g86
g87
ssg75
g570
sg68
(lp577
g387
asbag61
(g82
g63
NtRp578
(dp579
g66
(dp580
g93
g94
ssg75
g570
sg68
(lp581
S':'
asbag61
(g82
g63
NtRp582
(dp583
g66
(dp584
sg75
g570
sg68
(lp585
g61
(g62
g63
NtRp586
(dp587
g66
(dp588
g74
I3
ssg75
g582
sg68
(lp589
S''
asbasbasbag61
(g77
g63
NtRp590
(dp591
g66
(dp592
sg75
g506
sg68
(lp593
g61
(g82
g63
NtRp594
(dp595
g66
(dp596
g86
g87
ssg75
g590
sg68
(lp597
g408
asbag61
(g82
g63
NtRp598
(dp599
g66
(dp600
g93
g94
ssg75
g590
sg68
(lp601
S':'
asbag61
(g82
g63
NtRp602
(dp603
g66
(dp604
sg75
g590
sg68
(lp605
g61
(g62
g63
NtRp606
(dp607
g66
(dp608
g74
I3
ssg75
g602
sg68
(lp609
S''
asbasbasbag61
(g77
g63
NtRp610
(dp611
g66
(dp612
sg75
g506
sg68
(lp613
g61
(g82
g63
NtRp614
(dp615
g66
(dp616
g86
g87
ssg75
g610
sg68
(lp617
g429
asbag61
(g82
g63
NtRp618
(dp619
g66
(dp620
g93
g94
ssg75
g610
sg68
(lp621
S':'
asbag61
(g82
g63
NtRp622
(dp623
g66
(dp624
sg75
g610
sg68
(lp625
g61
(g62
g63
NtRp626
(dp627
g66
(dp628
g74
I3
ssg75
g622
sg68
(lp629
S''
asbasbasbag61
(g77
g63
NtRp630
(dp631
g66
(dp632
sg75
g506
sg68
(lp633
g61
(g82
g63
NtRp634
(dp635
g66
(dp636
g86
g87
ssg75
g630
sg68
(lp637
g450
asbag61
(g82
g63
NtRp638
(dp639
g66
(dp640
g93
g94
ssg75
g630
sg68
(lp641
S':'
asbag61
(g82
g63
NtRp642
(dp643
g66
(dp644
sg75
g630
sg68
(lp645
g61
(g62
g63
NtRp646
(dp647
g66
(dp648
g74
I3
ssg75
g642
sg68
(lp649
S''
asbasbasbag61
(g77
g63
NtRp650
(dp651
g66
(dp652
sg75
g506
sg68
(lp653
g61
(g82
g63
NtRp654
(dp655
g66
(dp656
g86
g87
ssg75
g650
sg68
(lp657
g471
asbag61
(g82
g63
NtRp658
(dp659
g66
(dp660
g93
g94
ssg75
g650
sg68
(lp661
S':'
asbag61
(g82
g63
NtRp662
(dp663
g66
(dp664
sg75
g650
sg68
(lp665
g61
(g62
g63
NtRp666
(dp667
g66
(dp668
g74
I3
ssg75
g662
sg68
(lp669
S''
asbasbasbasbasbasbasbasbasbasbasbag61
(g77
g63
NtRp670
(dp671
g66
(dp672
sg75
g71
sg68
(lp673
g61
(g82
g63
NtRp674
(dp675
g66
(dp676
g86
g87
ssg75
g670
sg68
(lp677
S'env'
p678
asbag61
(g82
g63
NtRp679
(dp680
g66
(dp681
g93
g94
ssg75
g670
sg68
(lp682
S':'
asbag61
(g82
g63
NtRp683
(dp684
g66
(dp685
sg75
g670
sg68
(lp686
g61
(g62
g63
NtRp687
(dp688
g66
(dp689
g74
I5
ssg75
g683
sg68
(lp690
g61
(g70
g63
NtRp691
(dp692
g66
(dp693
g74
I4
ssg75
Nsg68
(lp694
g61
(g77
g63
NtRp695
(dp696
g66
(dp697
sg75
g691
sg68
(lp698
g61
(g82
g63
NtRp699
(dp700
g66
(dp701
g86
g87
ssg75
g695
sg68
(lp702
S'app_folders'
p703
asbag61
(g82
g63
NtRp704
(dp705
g66
(dp706
g93
g94
ssg75
g695
sg68
(lp707
S':'
asbag61
(g82
g63
NtRp708
(dp709
g66
(dp710
sg75
g695
sg68
(lp711
g61
(g62
g63
NtRp712
(dp713
g66
(dp714
g74
I4
ssg75
g708
sg68
(lp715
S"set(['/var/www/conferencia/applications/admin/', '/var/www/conferencia/applications/projeto/'])"
p716
asbasbasbag61
(g77
g63
NtRp717
(dp718
g66
(dp719
sg75
g691
sg68
(lp720
g61
(g82
g63
NtRp721
(dp722
g66
(dp723
g86
g87
ssg75
g717
sg68
(lp724
S'applications_parent'
p725
asbag61
(g82
g63
NtRp726
(dp727
g66
(dp728
g93
g94
ssg75
g717
sg68
(lp729
S':'
asbag61
(g82
g63
NtRp730
(dp731
g66
(dp732
sg75
g717
sg68
(lp733
g61
(g62
g63
NtRp734
(dp735
g66
(dp736
g74
I4
ssg75
g730
sg68
(lp737
S'/var/www/conferencia'
p738
asbasbasbag61
(g77
g63
NtRp739
(dp740
g66
(dp741
sg75
g691
sg68
(lp742
g61
(g82
g63
NtRp743
(dp744
g66
(dp745
g86
g87
ssg75
g739
sg68
(lp746
S'cmd_args'
p747
asbag61
(g82
g63
NtRp748
(dp749
g66
(dp750
g93
g94
ssg75
g739
sg68
(lp751
S':'
asbag61
(g82
g63
NtRp752
(dp753
g66
(dp754
sg75
g739
sg68
(lp755
g61
(g62
g63
NtRp756
(dp757
g66
(dp758
g74
I4
ssg75
g752
sg68
(lp759
g61
(g70
g63
NtRp760
(dp761
g66
(dp762
g74
I3
ssg75
Nsg68
(lp763
sbasbasbasbag61
(g77
g63
NtRp764
(dp765
g66
(dp766
sg75
g691
sg68
(lp767
g61
(g82
g63
NtRp768
(dp769
g66
(dp770
g86
g87
ssg75
g764
sg68
(lp771
S'cmd_options'
p772
asbag61
(g82
g63
NtRp773
(dp774
g66
(dp775
g93
g94
ssg75
g764
sg68
(lp776
S':'
asbag61
(g82
g63
NtRp777
(dp778
g66
(dp779
sg75
g764
sg68
(lp780
g61
(g62
g63
NtRp781
(dp782
g66
(dp783
g74
I4
ssg75
g777
sg68
(lp784
S"<Values at 0x3027248: {'verbose': False, 'ip': '127.0.0.1', 'with_scheduler': False, 'ips': [], 'shutdown_timeout': 5, 'taskbar': False, 'port': 8000, 'maxthreads': None, 'softcron': False, 'server_name': 'fernando-workstation', 'bpython': False, 'nogui': False, 'pid_filename': 'httpserver.pid', 'extcron': False, 'runcron': False, 'run_system_tests': False, 'test': None, 'folder': '/var/www/conferencia', 'config': '', 'minthreads': None, 'winservice': '', 'shell': None, 'run': '', 'log_filename': 'httpserver.log', 'debuglevel': 30, 'args': [''], 'socket_timeout': 5, 'ssl_ca_certificate': None, 'scheduler': None, 'profiler_filename': None, 'ssl_private_key': '', 'scheduler_groups': None, 'password': '123456', 'request_queue_size': 5, 'ssl_certificate': '', 'cronjob': False, 'numthreads': None, 'quiet': False, 'interfaces': None, 'import_models': False, 'timeout': 10, 'plain': False, 'nobanner': False}>"
p785
asbasbasbag61
(g77
g63
NtRp786
(dp787
g66
(dp788
sg75
g691
sg68
(lp789
g61
(g82
g63
NtRp790
(dp791
g66
(dp792
g86
g87
ssg75
g786
sg68
(lp793
S'content_length'
p794
asbag61
(g82
g63
NtRp795
(dp796
g66
(dp797
g93
g94
ssg75
g786
sg68
(lp798
S':'
asbag61
(g82
g63
NtRp799
(dp800
g66
(dp801
sg75
g786
sg68
(lp802
g61
(g62
g63
NtRp803
(dp804
g66
(dp805
g74
I4
ssg75
g799
sg68
(lp806
S'586'
p807
asbasbasbag61
(g77
g63
NtRp808
(dp809
g66
(dp810
sg75
g691
sg68
(lp811
g61
(g82
g63
NtRp812
(dp813
g66
(dp814
g86
g87
ssg75
g808
sg68
(lp815
S'content_type'
p816
asbag61
(g82
g63
NtRp817
(dp818
g66
(dp819
g93
g94
ssg75
g808
sg68
(lp820
S':'
asbag61
(g82
g63
NtRp821
(dp822
g66
(dp823
sg75
g808
sg68
(lp824
g61
(g62
g63
NtRp825
(dp826
g66
(dp827
g74
I4
ssg75
g821
sg68
(lp828
S'multipart/form-data; boundary=----WebKitFormBoundaryGoEfc16W8zyApSxm'
p829
asbasbasbag61
(g77
g63
NtRp830
(dp831
g66
(dp832
sg75
g691
sg68
(lp833
g61
(g82
g63
NtRp834
(dp835
g66
(dp836
g86
g87
ssg75
g830
sg68
(lp837
S'db_sessions'
p838
asbag61
(g82
g63
NtRp839
(dp840
g66
(dp841
g93
g94
ssg75
g830
sg68
(lp842
S':'
asbag61
(g82
g63
NtRp843
(dp844
g66
(dp845
sg75
g830
sg68
(lp846
g61
(g62
g63
NtRp847
(dp848
g66
(dp849
g74
I4
ssg75
g843
sg68
(lp850
S'set([])'
p851
asbasbasbag61
(g77
g63
NtRp852
(dp853
g66
(dp854
sg75
g691
sg68
(lp855
g61
(g82
g63
NtRp856
(dp857
g66
(dp858
g86
g87
ssg75
g852
sg68
(lp859
S'debugging'
p860
asbag61
(g82
g63
NtRp861
(dp862
g66
(dp863
g93
g94
ssg75
g852
sg68
(lp864
S':'
asbag61
(g82
g63
NtRp865
(dp866
g66
(dp867
sg75
g852
sg68
(lp868
g61
(g62
g63
NtRp869
(dp870
g66
(dp871
g74
I4
ssg75
g865
sg68
(lp872
g104
asbasbasbag61
(g77
g63
NtRp873
(dp874
g66
(dp875
sg75
g691
sg68
(lp876
g61
(g82
g63
NtRp877
(dp878
g66
(dp879
g86
g87
ssg75
g873
sg68
(lp880
S'gluon_parent'
p881
asbag61
(g82
g63
NtRp882
(dp883
g66
(dp884
g93
g94
ssg75
g873
sg68
(lp885
S':'
asbag61
(g82
g63
NtRp886
(dp887
g66
(dp888
sg75
g873
sg68
(lp889
g61
(g62
g63
NtRp890
(dp891
g66
(dp892
g74
I4
ssg75
g886
sg68
(lp893
S'/var/www/conferencia'
p894
asbasbasbag61
(g77
g63
NtRp895
(dp896
g66
(dp897
sg75
g691
sg68
(lp898
g61
(g82
g63
NtRp899
(dp900
g66
(dp901
g86
g87
ssg75
g895
sg68
(lp902
S'http_accept'
p903
asbag61
(g82
g63
NtRp904
(dp905
g66
(dp906
g93
g94
ssg75
g895
sg68
(lp907
S':'
asbag61
(g82
g63
NtRp908
(dp909
g66
(dp910
sg75
g895
sg68
(lp911
g61
(g62
g63
NtRp912
(dp913
g66
(dp914
g74
I4
ssg75
g908
sg68
(lp915
S'text/html,application/xhtml+xml,application/xml;q=0.9,*/*;q=0.8'
p916
asbasbasbag61
(g77
g63
NtRp917
(dp918
g66
(dp919
sg75
g691
sg68
(lp920
g61
(g82
g63
NtRp921
(dp922
g66
(dp923
g86
g87
ssg75
g917
sg68
(lp924
S'http_accept_charset'
p925
asbag61
(g82
g63
NtRp926
(dp927
g66
(dp928
g93
g94
ssg75
g917
sg68
(lp929
S':'
asbag61
(g82
g63
NtRp930
(dp931
g66
(dp932
sg75
g917
sg68
(lp933
g61
(g62
g63
NtRp934
(dp935
g66
(dp936
g74
I4
ssg75
g930
sg68
(lp937
S'ISO-8859-1,utf-8;q=0.7,*;q=0.3'
p938
asbasbasbag61
(g77
g63
NtRp939
(dp940
g66
(dp941
sg75
g691
sg68
(lp942
g61
(g82
g63
NtRp943
(dp944
g66
(dp945
g86
g87
ssg75
g939
sg68
(lp946
S'http_accept_encoding'
p947
asbag61
(g82
g63
NtRp948
(dp949
g66
(dp950
g93
g94
ssg75
g939
sg68
(lp951
S':'
asbag61
(g82
g63
NtRp952
(dp953
g66
(dp954
sg75
g939
sg68
(lp955
g61
(g62
g63
NtRp956
(dp957
g66
(dp958
g74
I4
ssg75
g952
sg68
(lp959
S'gzip,deflate,sdch'
p960
asbasbasbag61
(g77
g63
NtRp961
(dp962
g66
(dp963
sg75
g691
sg68
(lp964
g61
(g82
g63
NtRp965
(dp966
g66
(dp967
g86
g87
ssg75
g961
sg68
(lp968
S'http_accept_language'
p969
asbag61
(g82
g63
NtRp970
(dp971
g66
(dp972
g93
g94
ssg75
g961
sg68
(lp973
S':'
asbag61
(g82
g63
NtRp974
(dp975
g66
(dp976
sg75
g961
sg68
(lp977
g61
(g62
g63
NtRp978
(dp979
g66
(dp980
g74
I4
ssg75
g974
sg68
(lp981
S'pt-BR,pt;q=0.8,en-US;q=0.6,en;q=0.4'
p982
asbasbasbag61
(g77
g63
NtRp983
(dp984
g66
(dp985
sg75
g691
sg68
(lp986
g61
(g82
g63
NtRp987
(dp988
g66
(dp989
g86
g87
ssg75
g983
sg68
(lp990
S'http_cache_control'
p991
asbag61
(g82
g63
NtRp992
(dp993
g66
(dp994
g93
g94
ssg75
g983
sg68
(lp995
S':'
asbag61
(g82
g63
NtRp996
(dp997
g66
(dp998
sg75
g983
sg68
(lp999
g61
(g62
g63
NtRp1000
(dp1001
g66
(dp1002
g74
I4
ssg75
g996
sg68
(lp1003
S'max-age=0'
p1004
asbasbasbag61
(g77
g63
NtRp1005
(dp1006
g66
(dp1007
sg75
g691
sg68
(lp1008
g61
(g82
g63
NtRp1009
(dp1010
g66
(dp1011
g86
g87
ssg75
g1005
sg68
(lp1012
S'http_connection'
p1013
asbag61
(g82
g63
NtRp1014
(dp1015
g66
(dp1016
g93
g94
ssg75
g1005
sg68
(lp1017
S':'
asbag61
(g82
g63
NtRp1018
(dp1019
g66
(dp1020
sg75
g1005
sg68
(lp1021
g61
(g62
g63
NtRp1022
(dp1023
g66
(dp1024
g74
I4
ssg75
g1018
sg68
(lp1025
S'keep-alive'
p1026
asbasbasbag61
(g77
g63
NtRp1027
(dp1028
g66
(dp1029
sg75
g691
sg68
(lp1030
g61
(g82
g63
NtRp1031
(dp1032
g66
(dp1033
g86
g87
ssg75
g1027
sg68
(lp1034
S'http_content_length'
p1035
asbag61
(g82
g63
NtRp1036
(dp1037
g66
(dp1038
g93
g94
ssg75
g1027
sg68
(lp1039
S':'
asbag61
(g82
g63
NtRp1040
(dp1041
g66
(dp1042
sg75
g1027
sg68
(lp1043
g61
(g62
g63
NtRp1044
(dp1045
g66
(dp1046
g74
I4
ssg75
g1040
sg68
(lp1047
g807
asbasbasbag61
(g77
g63
NtRp1048
(dp1049
g66
(dp1050
sg75
g691
sg68
(lp1051
g61
(g82
g63
NtRp1052
(dp1053
g66
(dp1054
g86
g87
ssg75
g1048
sg68
(lp1055
S'http_content_type'
p1056
asbag61
(g82
g63
NtRp1057
(dp1058
g66
(dp1059
g93
g94
ssg75
g1048
sg68
(lp1060
S':'
asbag61
(g82
g63
NtRp1061
(dp1062
g66
(dp1063
sg75
g1048
sg68
(lp1064
g61
(g62
g63
NtRp1065
(dp1066
g66
(dp1067
g74
I4
ssg75
g1061
sg68
(lp1068
g829
asbasbasbag61
(g77
g63
NtRp1069
(dp1070
g66
(dp1071
sg75
g691
sg68
(lp1072
g61
(g82
g63
NtRp1073
(dp1074
g66
(dp1075
g86
g87
ssg75
g1069
sg68
(lp1076
S'http_cookie'
p1077
asbag61
(g82
g63
NtRp1078
(dp1079
g66
(dp1080
g93
g94
ssg75
g1069
sg68
(lp1081
S':'
asbag61
(g82
g63
NtRp1082
(dp1083
g66
(dp1084
sg75
g1069
sg68
(lp1085
g61
(g62
g63
NtRp1086
(dp1087
g66
(dp1088
g74
I4
ssg75
g1082
sg68
(lp1089
S'session_id_admin=127.0.0.1-cfe4c2e7-8d54-4ef8-9acc-85e77aa673da; session_id_projeto=127.0.0.1-32b58d02-0b69-424e-9fa3-773b7f2f336f'
p1090
asbasbasbag61
(g77
g63
NtRp1091
(dp1092
g66
(dp1093
sg75
g691
sg68
(lp1094
g61
(g82
g63
NtRp1095
(dp1096
g66
(dp1097
g86
g87
ssg75
g1091
sg68
(lp1098
S'http_host'
p1099
asbag61
(g82
g63
NtRp1100
(dp1101
g66
(dp1102
g93
g94
ssg75
g1091
sg68
(lp1103
S':'
asbag61
(g82
g63
NtRp1104
(dp1105
g66
(dp1106
sg75
g1091
sg68
(lp1107
g61
(g62
g63
NtRp1108
(dp1109
g66
(dp1110
g74
I4
ssg75
g1104
sg68
(lp1111
S'127.0.0.1:8000'
p1112
asbasbasbag61
(g77
g63
NtRp1113
(dp1114
g66
(dp1115
sg75
g691
sg68
(lp1116
g61
(g82
g63
NtRp1117
(dp1118
g66
(dp1119
g86
g87
ssg75
g1113
sg68
(lp1120
S'http_origin'
p1121
asbag61
(g82
g63
NtRp1122
(dp1123
g66
(dp1124
g93
g94
ssg75
g1113
sg68
(lp1125
S':'
asbag61
(g82
g63
NtRp1126
(dp1127
g66
(dp1128
sg75
g1113
sg68
(lp1129
g61
(g62
g63
NtRp1130
(dp1131
g66
(dp1132
g74
I4
ssg75
g1126
sg68
(lp1133
S'http://127.0.0.1:8000'
p1134
asbasbasbag61
(g77
g63
NtRp1135
(dp1136
g66
(dp1137
sg75
g691
sg68
(lp1138
g61
(g82
g63
NtRp1139
(dp1140
g66
(dp1141
g86
g87
ssg75
g1135
sg68
(lp1142
S'http_referer'
p1143
asbag61
(g82
g63
NtRp1144
(dp1145
g66
(dp1146
g93
g94
ssg75
g1135
sg68
(lp1147
S':'
asbag61
(g82
g63
NtRp1148
(dp1149
g66
(dp1150
sg75
g1135
sg68
(lp1151
g61
(g62
g63
NtRp1152
(dp1153
g66
(dp1154
g74
I4
ssg75
g1148
sg68
(lp1155
S'http://127.0.0.1:8000/new/usuario'
p1156
asbasbasbag61
(g77
g63
NtRp1157
(dp1158
g66
(dp1159
sg75
g691
sg68
(lp1160
g61
(g82
g63
NtRp1161
(dp1162
g66
(dp1163
g86
g87
ssg75
g1157
sg68
(lp1164
S'http_user_agent'
p1165
asbag61
(g82
g63
NtRp1166
(dp1167
g66
(dp1168
g93
g94
ssg75
g1157
sg68
(lp1169
S':'
asbag61
(g82
g63
NtRp1170
(dp1171
g66
(dp1172
sg75
g1157
sg68
(lp1173
g61
(g62
g63
NtRp1174
(dp1175
g66
(dp1176
g74
I4
ssg75
g1170
sg68
(lp1177
S'Mozilla/5.0 (X11; Linux x86_64) AppleWebKit/537.4 (KHTML, like Gecko) Ubuntu/12.10 Chromium/22.0.1229.94 Chrome/22.0.1229.94 Safari/537.4'
p1178
asbasbasbag61
(g77
g63
NtRp1179
(dp1180
g66
(dp1181
sg75
g691
sg68
(lp1182
g61
(g82
g63
NtRp1183
(dp1184
g66
(dp1185
g86
g87
ssg75
g1179
sg68
(lp1186
S'is_jython'
p1187
asbag61
(g82
g63
NtRp1188
(dp1189
g66
(dp1190
g93
g94
ssg75
g1179
sg68
(lp1191
S':'
asbag61
(g82
g63
NtRp1192
(dp1193
g66
(dp1194
sg75
g1179
sg68
(lp1195
g61
(g62
g63
NtRp1196
(dp1197
g66
(dp1198
g74
I4
ssg75
g1192
sg68
(lp1199
g104
asbasbasbag61
(g77
g63
NtRp1200
(dp1201
g66
(dp1202
sg75
g691
sg68
(lp1203
g61
(g82
g63
NtRp1204
(dp1205
g66
(dp1206
g86
g87
ssg75
g1200
sg68
(lp1207
S'is_pypy'
p1208
asbag61
(g82
g63
NtRp1209
(dp1210
g66
(dp1211
g93
g94
ssg75
g1200
sg68
(lp1212
S':'
asbag61
(g82
g63
NtRp1213
(dp1214
g66
(dp1215
sg75
g1200
sg68
(lp1216
g61
(g62
g63
NtRp1217
(dp1218
g66
(dp1219
g74
I4
ssg75
g1213
sg68
(lp1220
g104
asbasbasbag61
(g77
g63
NtRp1221
(dp1222
g66
(dp1223
sg75
g691
sg68
(lp1224
g61
(g82
g63
NtRp1225
(dp1226
g66
(dp1227
g86
g87
ssg75
g1221
sg68
(lp1228
S'local_hosts'
p1229
asbag61
(g82
g63
NtRp1230
(dp1231
g66
(dp1232
g93
g94
ssg75
g1221
sg68
(lp1233
S':'
asbag61
(g82
g63
NtRp1234
(dp1235
g66
(dp1236
sg75
g1221
sg68
(lp1237
g61
(g62
g63
NtRp1238
(dp1239
g66
(dp1240
g74
I4
ssg75
g1234
sg68
(lp1241
g61
(g70
g63
NtRp1242
(dp1243
g66
(dp1244
g74
I3
ssg75
Nsg68
(lp1245
g61
(g77
g63
NtRp1246
(dp1247
g66
(dp1248
sg75
g1242
sg68
(lp1249
g61
(g82
g63
NtRp1250
(dp1251
g66
(dp1252
sg75
g1246
sg68
(lp1253
g61
(g62
g63
NtRp1254
(dp1255
g66
(dp1256
g74
I3
ssg75
g1250
sg68
(lp1257
S'::1'
p1258
asbasbasbag61
(g77
g63
NtRp1259
(dp1260
g66
(dp1261
sg75
g1242
sg68
(lp1262
g61
(g82
g63
NtRp1263
(dp1264
g66
(dp1265
sg75
g1259
sg68
(lp1266
g61
(g62
g63
NtRp1267
(dp1268
g66
(dp1269
g74
I3
ssg75
g1263
sg68
(lp1270
S'::ffff:127.0.0.1'
p1271
asbasbasbag61
(g77
g63
NtRp1272
(dp1273
g66
(dp1274
sg75
g1242
sg68
(lp1275
g61
(g82
g63
NtRp1276
(dp1277
g66
(dp1278
sg75
g1272
sg68
(lp1279
g61
(g62
g63
NtRp1280
(dp1281
g66
(dp1282
g74
I3
ssg75
g1276
sg68
(lp1283
S'127.0.0.1'
p1284
asbasbasbag61
(g77
g63
NtRp1285
(dp1286
g66
(dp1287
sg75
g1242
sg68
(lp1288
g61
(g82
g63
NtRp1289
(dp1290
g66
(dp1291
sg75
g1285
sg68
(lp1292
g61
(g62
g63
NtRp1293
(dp1294
g66
(dp1295
g74
I3
ssg75
g1289
sg68
(lp1296
S'fernando-workstation'
p1297
asbasbasbasbasbasbasbag61
(g77
g63
NtRp1298
(dp1299
g66
(dp1300
sg75
g691
sg68
(lp1301
g61
(g82
g63
NtRp1302
(dp1303
g66
(dp1304
g86
g87
ssg75
g1298
sg68
(lp1305
S'path_info'
p1306
asbag61
(g82
g63
NtRp1307
(dp1308
g66
(dp1309
g93
g94
ssg75
g1298
sg68
(lp1310
S':'
asbag61
(g82
g63
NtRp1311
(dp1312
g66
(dp1313
sg75
g1298
sg68
(lp1314
g61
(g62
g63
NtRp1315
(dp1316
g66
(dp1317
g74
I4
ssg75
g1311
sg68
(lp1318
S'/new/usuario'
p1319
asbasbasbag61
(g77
g63
NtRp1320
(dp1321
g66
(dp1322
sg75
g691
sg68
(lp1323
g61
(g82
g63
NtRp1324
(dp1325
g66
(dp1326
g86
g87
ssg75
g1320
sg68
(lp1327
S'query_string'
p1328
asbag61
(g82
g63
NtRp1329
(dp1330
g66
(dp1331
g93
g94
ssg75
g1320
sg68
(lp1332
S':'
asbag61
(g82
g63
NtRp1333
(dp1334
g66
(dp1335
sg75
g1320
sg68
(lp1336
g61
(g62
g63
NtRp1337
(dp1338
g66
(dp1339
g74
I4
ssg75
g1333
sg68
(lp1340
S''
asbasbasbag61
(g77
g63
NtRp1341
(dp1342
g66
(dp1343
sg75
g691
sg68
(lp1344
g61
(g82
g63
NtRp1345
(dp1346
g66
(dp1347
g86
g87
ssg75
g1341
sg68
(lp1348
S'remote_addr'
p1349
asbag61
(g82
g63
NtRp1350
(dp1351
g66
(dp1352
g93
g94
ssg75
g1341
sg68
(lp1353
S':'
asbag61
(g82
g63
NtRp1354
(dp1355
g66
(dp1356
sg75
g1341
sg68
(lp1357
g61
(g62
g63
NtRp1358
(dp1359
g66
(dp1360
g74
I4
ssg75
g1354
sg68
(lp1361
g242
asbasbasbag61
(g77
g63
NtRp1362
(dp1363
g66
(dp1364
sg75
g691
sg68
(lp1365
g61
(g82
g63
NtRp1366
(dp1367
g66
(dp1368
g86
g87
ssg75
g1362
sg68
(lp1369
S'remote_port'
p1370
asbag61
(g82
g63
NtRp1371
(dp1372
g66
(dp1373
g93
g94
ssg75
g1362
sg68
(lp1374
S':'
asbag61
(g82
g63
NtRp1375
(dp1376
g66
(dp1377
sg75
g1362
sg68
(lp1378
g61
(g62
g63
NtRp1379
(dp1380
g66
(dp1381
g74
I4
ssg75
g1375
sg68
(lp1382
S'41187'
p1383
asbasbasbag61
(g77
g63
NtRp1384
(dp1385
g66
(dp1386
sg75
g691
sg68
(lp1387
g61
(g82
g63
NtRp1388
(dp1389
g66
(dp1390
g86
g87
ssg75
g1384
sg68
(lp1391
S'request_method'
p1392
asbag61
(g82
g63
NtRp1393
(dp1394
g66
(dp1395
g93
g94
ssg75
g1384
sg68
(lp1396
S':'
asbag61
(g82
g63
NtRp1397
(dp1398
g66
(dp1399
sg75
g1384
sg68
(lp1400
g61
(g62
g63
NtRp1401
(dp1402
g66
(dp1403
g74
I4
ssg75
g1397
sg68
(lp1404
S'POST'
p1405
asbasbasbag61
(g77
g63
NtRp1406
(dp1407
g66
(dp1408
sg75
g691
sg68
(lp1409
g61
(g82
g63
NtRp1410
(dp1411
g66
(dp1412
g86
g87
ssg75
g1406
sg68
(lp1413
S'request_uri'
p1414
asbag61
(g82
g63
NtRp1415
(dp1416
g66
(dp1417
g93
g94
ssg75
g1406
sg68
(lp1418
S':'
asbag61
(g82
g63
NtRp1419
(dp1420
g66
(dp1421
sg75
g1406
sg68
(lp1422
g61
(g62
g63
NtRp1423
(dp1424
g66
(dp1425
g74
I4
ssg75
g1419
sg68
(lp1426
S'/projeto/initial/principal/new/usuario'
p1427
asbasbasbag61
(g77
g63
NtRp1428
(dp1429
g66
(dp1430
sg75
g691
sg68
(lp1431
g61
(g82
g63
NtRp1432
(dp1433
g66
(dp1434
g86
g87
ssg75
g1428
sg68
(lp1435
S'script_name'
p1436
asbag61
(g82
g63
NtRp1437
(dp1438
g66
(dp1439
g93
g94
ssg75
g1428
sg68
(lp1440
S':'
asbag61
(g82
g63
NtRp1441
(dp1442
g66
(dp1443
sg75
g1428
sg68
(lp1444
g61
(g62
g63
NtRp1445
(dp1446
g66
(dp1447
g74
I4
ssg75
g1441
sg68
(lp1448
S''
asbasbasbag61
(g77
g63
NtRp1449
(dp1450
g66
(dp1451
sg75
g691
sg68
(lp1452
g61
(g82
g63
NtRp1453
(dp1454
g66
(dp1455
g86
g87
ssg75
g1449
sg68
(lp1456
S'server_name'
p1457
asbag61
(g82
g63
NtRp1458
(dp1459
g66
(dp1460
g93
g94
ssg75
g1449
sg68
(lp1461
S':'
asbag61
(g82
g63
NtRp1462
(dp1463
g66
(dp1464
sg75
g1449
sg68
(lp1465
g61
(g62
g63
NtRp1466
(dp1467
g66
(dp1468
g74
I4
ssg75
g1462
sg68
(lp1469
S'fernando-workstation'
p1470
asbasbasbag61
(g77
g63
NtRp1471
(dp1472
g66
(dp1473
sg75
g691
sg68
(lp1474
g61
(g82
g63
NtRp1475
(dp1476
g66
(dp1477
g86
g87
ssg75
g1471
sg68
(lp1478
S'server_port'
p1479
asbag61
(g82
g63
NtRp1480
(dp1481
g66
(dp1482
g93
g94
ssg75
g1471
sg68
(lp1483
S':'
asbag61
(g82
g63
NtRp1484
(dp1485
g66
(dp1486
sg75
g1471
sg68
(lp1487
g61
(g62
g63
NtRp1488
(dp1489
g66
(dp1490
g74
I4
ssg75
g1484
sg68
(lp1491
S'8000'
p1492
asbasbasbag61
(g77
g63
NtRp1493
(dp1494
g66
(dp1495
sg75
g691
sg68
(lp1496
g61
(g82
g63
NtRp1497
(dp1498
g66
(dp1499
g86
g87
ssg75
g1493
sg68
(lp1500
S'server_protocol'
p1501
asbag61
(g82
g63
NtRp1502
(dp1503
g66
(dp1504
g93
g94
ssg75
g1493
sg68
(lp1505
S':'
asbag61
(g82
g63
NtRp1506
(dp1507
g66
(dp1508
sg75
g1493
sg68
(lp1509
g61
(g62
g63
NtRp1510
(dp1511
g66
(dp1512
g74
I4
ssg75
g1506
sg68
(lp1513
S'HTTP/1.1'
p1514
asbasbasbag61
(g77
g63
NtRp1515
(dp1516
g66
(dp1517
sg75
g691
sg68
(lp1518
g61
(g82
g63
NtRp1519
(dp1520
g66
(dp1521
g86
g87
ssg75
g1515
sg68
(lp1522
S'server_software'
p1523
asbag61
(g82
g63
NtRp1524
(dp1525
g66
(dp1526
g93
g94
ssg75
g1515
sg68
(lp1527
S':'
asbag61
(g82
g63
NtRp1528
(dp1529
g66
(dp1530
sg75
g1515
sg68
(lp1531
g61
(g62
g63
NtRp1532
(dp1533
g66
(dp1534
g74
I4
ssg75
g1528
sg68
(lp1535
S'Rocket 1.2.6'
p1536
asbasbasbag61
(g77
g63
NtRp1537
(dp1538
g66
(dp1539
sg75
g691
sg68
(lp1540
g61
(g82
g63
NtRp1541
(dp1542
g66
(dp1543
g86
g87
ssg75
g1537
sg68
(lp1544
S'web2py_original_uri'
p1545
asbag61
(g82
g63
NtRp1546
(dp1547
g66
(dp1548
g93
g94
ssg75
g1537
sg68
(lp1549
S':'
asbag61
(g82
g63
NtRp1550
(dp1551
g66
(dp1552
sg75
g1537
sg68
(lp1553
g61
(g62
g63
NtRp1554
(dp1555
g66
(dp1556
g74
I4
ssg75
g1550
sg68
(lp1557
g1319
asbasbasbag61
(g77
g63
NtRp1558
(dp1559
g66
(dp1560
sg75
g691
sg68
(lp1561
g61
(g82
g63
NtRp1562
(dp1563
g66
(dp1564
g86
g87
ssg75
g1558
sg68
(lp1565
S'web2py_path'
p1566
asbag61
(g82
g63
NtRp1567
(dp1568
g66
(dp1569
g93
g94
ssg75
g1558
sg68
(lp1570
S':'
asbag61
(g82
g63
NtRp1571
(dp1572
g66
(dp1573
sg75
g1558
sg68
(lp1574
g61
(g62
g63
NtRp1575
(dp1576
g66
(dp1577
g74
I4
ssg75
g1571
sg68
(lp1578
g738
asbasbasbag61
(g77
g63
NtRp1579
(dp1580
g66
(dp1581
sg75
g691
sg68
(lp1582
g61
(g82
g63
NtRp1583
(dp1584
g66
(dp1585
g86
g87
ssg75
g1579
sg68
(lp1586
S'web2py_version'
p1587
asbag61
(g82
g63
NtRp1588
(dp1589
g66
(dp1590
g93
g94
ssg75
g1579
sg68
(lp1591
S':'
asbag61
(g82
g63
NtRp1592
(dp1593
g66
(dp1594
sg75
g1579
sg68
(lp1595
g61
(g62
g63
NtRp1596
(dp1597
g66
(dp1598
g74
I4
ssg75
g1592
sg68
(lp1599
g61
(g70
g63
NtRp1600
(dp1601
g66
(dp1602
g74
I3
ssg75
Nsg68
(lp1603
g61
(g77
g63
NtRp1604
(dp1605
g66
(dp1606
sg75
g1600
sg68
(lp1607
g61
(g82
g63
NtRp1608
(dp1609
g66
(dp1610
sg75
g1604
sg68
(lp1611
g61
(g62
g63
NtRp1612
(dp1613
g66
(dp1614
g74
I3
ssg75
g1608
sg68
(lp1615
S'2'
asbasbasbag61
(g77
g63
NtRp1616
(dp1617
g66
(dp1618
sg75
g1600
sg68
(lp1619
g61
(g82
g63
NtRp1620
(dp1621
g66
(dp1622
sg75
g1616
sg68
(lp1623
g61
(g62
g63
NtRp1624
(dp1625
g66
(dp1626
g74
I3
ssg75
g1620
sg68
(lp1627
S'3'
asbasbasbag61
(g77
g63
NtRp1628
(dp1629
g66
(dp1630
sg75
g1600
sg68
(lp1631
g61
(g82
g63
NtRp1632
(dp1633
g66
(dp1634
sg75
g1628
sg68
(lp1635
g61
(g62
g63
NtRp1636
(dp1637
g66
(dp1638
g74
I3
ssg75
g1632
sg68
(lp1639
S'2'
asbasbasbag61
(g77
g63
NtRp1640
(dp1641
g66
(dp1642
sg75
g1600
sg68
(lp1643
g61
(g82
g63
NtRp1644
(dp1645
g66
(dp1646
sg75
g1640
sg68
(lp1647
g61
(g62
g63
NtRp1648
(dp1649
g66
(dp1650
g74
I3
ssg75
g1644
sg68
(lp1651
S'datetime.datetime(2012, 12, 17, 15, 3, 30)'
p1652
asbasbasbag61
(g77
g63
NtRp1653
(dp1654
g66
(dp1655
sg75
g1600
sg68
(lp1656
g61
(g82
g63
NtRp1657
(dp1658
g66
(dp1659
sg75
g1653
sg68
(lp1660
g61
(g62
g63
NtRp1661
(dp1662
g66
(dp1663
g74
I3
ssg75
g1657
sg68
(lp1664
S'stable'
p1665
asbasbasbasbasbasbasbag61
(g77
g63
NtRp1666
(dp1667
g66
(dp1668
sg75
g691
sg68
(lp1669
g61
(g82
g63
NtRp1670
(dp1671
g66
(dp1672
g86
g87
ssg75
g1666
sg68
(lp1673
S'wsgi_errors'
p1674
asbag61
(g82
g63
NtRp1675
(dp1676
g66
(dp1677
g93
g94
ssg75
g1666
sg68
(lp1678
S':'
asbag61
(g82
g63
NtRp1679
(dp1680
g66
(dp1681
sg75
g1666
sg68
(lp1682
g61
(g62
g63
NtRp1683
(dp1684
g66
(dp1685
g74
I4
ssg75
g1679
sg68
(lp1686
S"<open file '<stderr>', mode 'w' at 0x7fc5ebe43270>"
p1687
asbasbasbag61
(g77
g63
NtRp1688
(dp1689
g66
(dp1690
sg75
g691
sg68
(lp1691
g61
(g82
g63
NtRp1692
(dp1693
g66
(dp1694
g86
g87
ssg75
g1688
sg68
(lp1695
S'wsgi_file_wrapper'
p1696
asbag61
(g82
g63
NtRp1697
(dp1698
g66
(dp1699
g93
g94
ssg75
g1688
sg68
(lp1700
S':'
asbag61
(g82
g63
NtRp1701
(dp1702
g66
(dp1703
sg75
g1688
sg68
(lp1704
g61
(g62
g63
NtRp1705
(dp1706
g66
(dp1707
g74
I4
ssg75
g1701
sg68
(lp1708
S'<class wsgiref.util.FileWrapper at 0x2f9f598>'
p1709
asbasbasbag61
(g77
g63
NtRp1710
(dp1711
g66
(dp1712
sg75
g691
sg68
(lp1713
g61
(g82
g63
NtRp1714
(dp1715
g66
(dp1716
g86
g87
ssg75
g1710
sg68
(lp1717
S'wsgi_input'
p1718
asbag61
(g82
g63
NtRp1719
(dp1720
g66
(dp1721
g93
g94
ssg75
g1710
sg68
(lp1722
S':'
asbag61
(g82
g63
NtRp1723
(dp1724
g66
(dp1725
sg75
g1710
sg68
(lp1726
g61
(g62
g63
NtRp1727
(dp1728
g66
(dp1729
g74
I4
ssg75
g1723
sg68
(lp1730
S'<socket._fileobject object at 0x7fc5d87c0450>'
p1731
asbasbasbag61
(g77
g63
NtRp1732
(dp1733
g66
(dp1734
sg75
g691
sg68
(lp1735
g61
(g82
g63
NtRp1736
(dp1737
g66
(dp1738
g86
g87
ssg75
g1732
sg68
(lp1739
S'wsgi_multiprocess'
p1740
asbag61
(g82
g63
NtRp1741
(dp1742
g66
(dp1743
g93
g94
ssg75
g1732
sg68
(lp1744
S':'
asbag61
(g82
g63
NtRp1745
(dp1746
g66
(dp1747
sg75
g1732
sg68
(lp1748
g61
(g62
g63
NtRp1749
(dp1750
g66
(dp1751
g74
I4
ssg75
g1745
sg68
(lp1752
g104
asbasbasbag61
(g77
g63
NtRp1753
(dp1754
g66
(dp1755
sg75
g691
sg68
(lp1756
g61
(g82
g63
NtRp1757
(dp1758
g66
(dp1759
g86
g87
ssg75
g1753
sg68
(lp1760
S'wsgi_multithread'
p1761
asbag61
(g82
g63
NtRp1762
(dp1763
g66
(dp1764
g93
g94
ssg75
g1753
sg68
(lp1765
S':'
asbag61
(g82
g63
NtRp1766
(dp1767
g66
(dp1768
sg75
g1753
sg68
(lp1769
g61
(g62
g63
NtRp1770
(dp1771
g66
(dp1772
g74
I4
ssg75
g1766
sg68
(lp1773
S'True'
p1774
asbasbasbag61
(g77
g63
NtRp1775
(dp1776
g66
(dp1777
sg75
g691
sg68
(lp1778
g61
(g82
g63
NtRp1779
(dp1780
g66
(dp1781
g86
g87
ssg75
g1775
sg68
(lp1782
S'wsgi_run_once'
p1783
asbag61
(g82
g63
NtRp1784
(dp1785
g66
(dp1786
g93
g94
ssg75
g1775
sg68
(lp1787
S':'
asbag61
(g82
g63
NtRp1788
(dp1789
g66
(dp1790
sg75
g1775
sg68
(lp1791
g61
(g62
g63
NtRp1792
(dp1793
g66
(dp1794
g74
I4
ssg75
g1788
sg68
(lp1795
g104
asbasbasbag61
(g77
g63
NtRp1796
(dp1797
g66
(dp1798
sg75
g691
sg68
(lp1799
g61
(g82
g63
NtRp1800
(dp1801
g66
(dp1802
g86
g87
ssg75
g1796
sg68
(lp1803
S'wsgi_url_scheme'
p1804
asbag61
(g82
g63
NtRp1805
(dp1806
g66
(dp1807
g93
g94
ssg75
g1796
sg68
(lp1808
S':'
asbag61
(g82
g63
NtRp1809
(dp1810
g66
(dp1811
sg75
g1796
sg68
(lp1812
g61
(g62
g63
NtRp1813
(dp1814
g66
(dp1815
g74
I4
ssg75
g1809
sg68
(lp1816
S'http'
p1817
asbasbasbag61
(g77
g63
NtRp1818
(dp1819
g66
(dp1820
sg75
g691
sg68
(lp1821
g61
(g82
g63
NtRp1822
(dp1823
g66
(dp1824
g86
g87
ssg75
g1818
sg68
(lp1825
S'wsgi_version'
p1826
asbag61
(g82
g63
NtRp1827
(dp1828
g66
(dp1829
g93
g94
ssg75
g1818
sg68
(lp1830
S':'
asbag61
(g82
g63
NtRp1831
(dp1832
g66
(dp1833
sg75
g1818
sg68
(lp1834
g61
(g62
g63
NtRp1835
(dp1836
g66
(dp1837
g74
I4
ssg75
g1831
sg68
(lp1838
g61
(g70
g63
NtRp1839
(dp1840
g66
(dp1841
g74
I3
ssg75
Nsg68
(lp1842
g61
(g77
g63
NtRp1843
(dp1844
g66
(dp1845
sg75
g1839
sg68
(lp1846
g61
(g82
g63
NtRp1847
(dp1848
g66
(dp1849
sg75
g1843
sg68
(lp1850
g61
(g62
g63
NtRp1851
(dp1852
g66
(dp1853
g74
I3
ssg75
g1847
sg68
(lp1854
S'1'
asbasbasbag61
(g77
g63
NtRp1855
(dp1856
g66
(dp1857
sg75
g1839
sg68
(lp1858
g61
(g82
g63
NtRp1859
(dp1860
g66
(dp1861
sg75
g1855
sg68
(lp1862
g61
(g62
g63
NtRp1863
(dp1864
g66
(dp1865
g74
I3
ssg75
g1859
sg68
(lp1866
S'0'
asbasbasbasbasbasbasbasbasbasbasbag61
(g77
g63
NtRp1867
(dp1868
g66
(dp1869
sg75
g71
sg68
(lp1870
g61
(g82
g63
NtRp1871
(dp1872
g66
(dp1873
g86
g87
ssg75
g1867
sg68
(lp1874
S'extension'
p1875
asbag61
(g82
g63
NtRp1876
(dp1877
g66
(dp1878
g93
g94
ssg75
g1867
sg68
(lp1879
S':'
asbag61
(g82
g63
NtRp1880
(dp1881
g66
(dp1882
sg75
g1867
sg68
(lp1883
g61
(g62
g63
NtRp1884
(dp1885
g66
(dp1886
g74
I5
ssg75
g1880
sg68
(lp1887
S'html'
p1888
asbasbasbag61
(g77
g63
NtRp1889
(dp1890
g66
(dp1891
sg75
g71
sg68
(lp1892
g61
(g82
g63
NtRp1893
(dp1894
g66
(dp1895
g86
g87
ssg75
g1889
sg68
(lp1896
S'folder'
p1897
asbag61
(g82
g63
NtRp1898
(dp1899
g66
(dp1900
g93
g94
ssg75
g1889
sg68
(lp1901
S':'
asbag61
(g82
g63
NtRp1902
(dp1903
g66
(dp1904
sg75
g1889
sg68
(lp1905
g61
(g62
g63
NtRp1906
(dp1907
g66
(dp1908
g74
I5
ssg75
g1902
sg68
(lp1909
S'/var/www/conferencia/applications/projeto/'
p1910
asbasbasbag61
(g77
g63
NtRp1911
(dp1912
g66
(dp1913
sg75
g71
sg68
(lp1914
g61
(g82
g63
NtRp1915
(dp1916
g66
(dp1917
g86
g87
ssg75
g1911
sg68
(lp1918
S'function'
p1919
asbag61
(g82
g63
NtRp1920
(dp1921
g66
(dp1922
g93
g94
ssg75
g1911
sg68
(lp1923
S':'
asbag61
(g82
g63
NtRp1924
(dp1925
g66
(dp1926
sg75
g1911
sg68
(lp1927
g61
(g62
g63
NtRp1928
(dp1929
g66
(dp1930
g74
I5
ssg75
g1924
sg68
(lp1931
S'principal'
p1932
asbasbasbag61
(g77
g63
NtRp1933
(dp1934
g66
(dp1935
sg75
g71
sg68
(lp1936
g61
(g82
g63
NtRp1937
(dp1938
g66
(dp1939
g86
g87
ssg75
g1933
sg68
(lp1940
S'get_vars'
p1941
asbag61
(g82
g63
NtRp1942
(dp1943
g66
(dp1944
g93
g94
ssg75
g1933
sg68
(lp1945
S':'
asbag61
(g82
g63
NtRp1946
(dp1947
g66
(dp1948
sg75
g1933
sg68
(lp1949
g61
(g62
g63
NtRp1950
(dp1951
g66
(dp1952
g74
I5
ssg75
g1946
sg68
(lp1953
g61
(g70
g63
NtRp1954
(dp1955
g66
(dp1956
g74
I4
ssg75
Nsg68
(lp1957
sbasbasbasbag61
(g77
g63
NtRp1958
(dp1959
g66
(dp1960
sg75
g71
sg68
(lp1961
g61
(g82
g63
NtRp1962
(dp1963
g66
(dp1964
g86
g87
ssg75
g1958
sg68
(lp1965
S'global_settings'
p1966
asbag61
(g82
g63
NtRp1967
(dp1968
g66
(dp1969
g93
g94
ssg75
g1958
sg68
(lp1970
S':'
asbag61
(g82
g63
NtRp1971
(dp1972
g66
(dp1973
sg75
g1958
sg68
(lp1974
g61
(g62
g63
NtRp1975
(dp1976
g66
(dp1977
g74
I5
ssg75
g1971
sg68
(lp1978
g61
(g70
g63
NtRp1979
(dp1980
g66
(dp1981
g74
I4
ssg75
Nsg68
(lp1982
g61
(g77
g63
NtRp1983
(dp1984
g66
(dp1985
sg75
g1979
sg68
(lp1986
g61
(g82
g63
NtRp1987
(dp1988
g66
(dp1989
g86
g87
ssg75
g1983
sg68
(lp1990
g703
asbag61
(g82
g63
NtRp1991
(dp1992
g66
(dp1993
g93
g94
ssg75
g1983
sg68
(lp1994
S':'
asbag61
(g82
g63
NtRp1995
(dp1996
g66
(dp1997
sg75
g1983
sg68
(lp1998
g61
(g62
g63
NtRp1999
(dp2000
g66
(dp2001
g74
I4
ssg75
g1995
sg68
(lp2002
S"set(['/var/www/conferencia/applications/admin/', '/var/www/conferencia/applications/projeto/'])"
p2003
asbasbasbag61
(g77
g63
NtRp2004
(dp2005
g66
(dp2006
sg75
g1979
sg68
(lp2007
g61
(g82
g63
NtRp2008
(dp2009
g66
(dp2010
g86
g87
ssg75
g2004
sg68
(lp2011
g725
asbag61
(g82
g63
NtRp2012
(dp2013
g66
(dp2014
g93
g94
ssg75
g2004
sg68
(lp2015
S':'
asbag61
(g82
g63
NtRp2016
(dp2017
g66
(dp2018
sg75
g2004
sg68
(lp2019
g61
(g62
g63
NtRp2020
(dp2021
g66
(dp2022
g74
I4
ssg75
g2016
sg68
(lp2023
g738
asbasbasbag61
(g77
g63
NtRp2024
(dp2025
g66
(dp2026
sg75
g1979
sg68
(lp2027
g61
(g82
g63
NtRp2028
(dp2029
g66
(dp2030
g86
g87
ssg75
g2024
sg68
(lp2031
g747
asbag61
(g82
g63
NtRp2032
(dp2033
g66
(dp2034
g93
g94
ssg75
g2024
sg68
(lp2035
S':'
asbag61
(g82
g63
NtRp2036
(dp2037
g66
(dp2038
sg75
g2024
sg68
(lp2039
g61
(g62
g63
NtRp2040
(dp2041
g66
(dp2042
g74
I4
ssg75
g2036
sg68
(lp2043
g61
(g70
g63
NtRp2044
(dp2045
g66
(dp2046
g74
I3
ssg75
Nsg68
(lp2047
sbasbasbasbag61
(g77
g63
NtRp2048
(dp2049
g66
(dp2050
sg75
g1979
sg68
(lp2051
g61
(g82
g63
NtRp2052
(dp2053
g66
(dp2054
g86
g87
ssg75
g2048
sg68
(lp2055
g772
asbag61
(g82
g63
NtRp2056
(dp2057
g66
(dp2058
g93
g94
ssg75
g2048
sg68
(lp2059
S':'
asbag61
(g82
g63
NtRp2060
(dp2061
g66
(dp2062
sg75
g2048
sg68
(lp2063
g61
(g62
g63
NtRp2064
(dp2065
g66
(dp2066
g74
I4
ssg75
g2060
sg68
(lp2067
S"<Values at 0x3027248: {'verbose': False, 'ip': '127.0.0.1', 'with_scheduler': False, 'ips': [], 'shutdown_timeout': 5, 'taskbar': False, 'port': 8000, 'maxthreads': None, 'softcron': False, 'server_name': 'fernando-workstation', 'bpython': False, 'nogui': False, 'pid_filename': 'httpserver.pid', 'extcron': False, 'runcron': False, 'run_system_tests': False, 'test': None, 'folder': '/var/www/conferencia', 'config': '', 'minthreads': None, 'winservice': '', 'shell': None, 'run': '', 'log_filename': 'httpserver.log', 'debuglevel': 30, 'args': [''], 'socket_timeout': 5, 'ssl_ca_certificate': None, 'scheduler': None, 'profiler_filename': None, 'ssl_private_key': '', 'scheduler_groups': None, 'password': '123456', 'request_queue_size': 5, 'ssl_certificate': '', 'cronjob': False, 'numthreads': None, 'quiet': False, 'interfaces': None, 'import_models': False, 'timeout': 10, 'plain': False, 'nobanner': False}>"
p2068
asbasbasbag61
(g77
g63
NtRp2069
(dp2070
g66
(dp2071
sg75
g1979
sg68
(lp2072
g61
(g82
g63
NtRp2073
(dp2074
g66
(dp2075
g86
g87
ssg75
g2069
sg68
(lp2076
g838
asbag61
(g82
g63
NtRp2077
(dp2078
g66
(dp2079
g93
g94
ssg75
g2069
sg68
(lp2080
S':'
asbag61
(g82
g63
NtRp2081
(dp2082
g66
(dp2083
sg75
g2069
sg68
(lp2084
g61
(g62
g63
NtRp2085
(dp2086
g66
(dp2087
g74
I4
ssg75
g2081
sg68
(lp2088
S'set([])'
p2089
asbasbasbag61
(g77
g63
NtRp2090
(dp2091
g66
(dp2092
sg75
g1979
sg68
(lp2093
g61
(g82
g63
NtRp2094
(dp2095
g66
(dp2096
g86
g87
ssg75
g2090
sg68
(lp2097
g860
asbag61
(g82
g63
NtRp2098
(dp2099
g66
(dp2100
g93
g94
ssg75
g2090
sg68
(lp2101
S':'
asbag61
(g82
g63
NtRp2102
(dp2103
g66
(dp2104
sg75
g2090
sg68
(lp2105
g61
(g62
g63
NtRp2106
(dp2107
g66
(dp2108
g74
I4
ssg75
g2102
sg68
(lp2109
g104
asbasbasbag61
(g77
g63
NtRp2110
(dp2111
g66
(dp2112
sg75
g1979
sg68
(lp2113
g61
(g82
g63
NtRp2114
(dp2115
g66
(dp2116
g86
g87
ssg75
g2110
sg68
(lp2117
g881
asbag61
(g82
g63
NtRp2118
(dp2119
g66
(dp2120
g93
g94
ssg75
g2110
sg68
(lp2121
S':'
asbag61
(g82
g63
NtRp2122
(dp2123
g66
(dp2124
sg75
g2110
sg68
(lp2125
g61
(g62
g63
NtRp2126
(dp2127
g66
(dp2128
g74
I4
ssg75
g2122
sg68
(lp2129
g894
asbasbasbag61
(g77
g63
NtRp2130
(dp2131
g66
(dp2132
sg75
g1979
sg68
(lp2133
g61
(g82
g63
NtRp2134
(dp2135
g66
(dp2136
g86
g87
ssg75
g2130
sg68
(lp2137
g1187
asbag61
(g82
g63
NtRp2138
(dp2139
g66
(dp2140
g93
g94
ssg75
g2130
sg68
(lp2141
S':'
asbag61
(g82
g63
NtRp2142
(dp2143
g66
(dp2144
sg75
g2130
sg68
(lp2145
g61
(g62
g63
NtRp2146
(dp2147
g66
(dp2148
g74
I4
ssg75
g2142
sg68
(lp2149
g104
asbasbasbag61
(g77
g63
NtRp2150
(dp2151
g66
(dp2152
sg75
g1979
sg68
(lp2153
g61
(g82
g63
NtRp2154
(dp2155
g66
(dp2156
g86
g87
ssg75
g2150
sg68
(lp2157
g1208
asbag61
(g82
g63
NtRp2158
(dp2159
g66
(dp2160
g93
g94
ssg75
g2150
sg68
(lp2161
S':'
asbag61
(g82
g63
NtRp2162
(dp2163
g66
(dp2164
sg75
g2150
sg68
(lp2165
g61
(g62
g63
NtRp2166
(dp2167
g66
(dp2168
g74
I4
ssg75
g2162
sg68
(lp2169
g104
asbasbasbag61
(g77
g63
NtRp2170
(dp2171
g66
(dp2172
sg75
g1979
sg68
(lp2173
g61
(g82
g63
NtRp2174
(dp2175
g66
(dp2176
g86
g87
ssg75
g2170
sg68
(lp2177
g1229
asbag61
(g82
g63
NtRp2178
(dp2179
g66
(dp2180
g93
g94
ssg75
g2170
sg68
(lp2181
S':'
asbag61
(g82
g63
NtRp2182
(dp2183
g66
(dp2184
sg75
g2170
sg68
(lp2185
g61
(g62
g63
NtRp2186
(dp2187
g66
(dp2188
g74
I4
ssg75
g2182
sg68
(lp2189
g61
(g70
g63
NtRp2190
(dp2191
g66
(dp2192
g74
I3
ssg75
Nsg68
(lp2193
g61
(g77
g63
NtRp2194
(dp2195
g66
(dp2196
sg75
g2190
sg68
(lp2197
g61
(g82
g63
NtRp2198
(dp2199
g66
(dp2200
sg75
g2194
sg68
(lp2201
g61
(g62
g63
NtRp2202
(dp2203
g66
(dp2204
g74
I3
ssg75
g2198
sg68
(lp2205
g1258
asbasbasbag61
(g77
g63
NtRp2206
(dp2207
g66
(dp2208
sg75
g2190
sg68
(lp2209
g61
(g82
g63
NtRp2210
(dp2211
g66
(dp2212
sg75
g2206
sg68
(lp2213
g61
(g62
g63
NtRp2214
(dp2215
g66
(dp2216
g74
I3
ssg75
g2210
sg68
(lp2217
g1271
asbasbasbag61
(g77
g63
NtRp2218
(dp2219
g66
(dp2220
sg75
g2190
sg68
(lp2221
g61
(g82
g63
NtRp2222
(dp2223
g66
(dp2224
sg75
g2218
sg68
(lp2225
g61
(g62
g63
NtRp2226
(dp2227
g66
(dp2228
g74
I3
ssg75
g2222
sg68
(lp2229
g1284
asbasbasbag61
(g77
g63
NtRp2230
(dp2231
g66
(dp2232
sg75
g2190
sg68
(lp2233
g61
(g82
g63
NtRp2234
(dp2235
g66
(dp2236
sg75
g2230
sg68
(lp2237
g61
(g62
g63
NtRp2238
(dp2239
g66
(dp2240
g74
I3
ssg75
g2234
sg68
(lp2241
g1297
asbasbasbasbasbasbasbag61
(g77
g63
NtRp2242
(dp2243
g66
(dp2244
sg75
g1979
sg68
(lp2245
g61
(g82
g63
NtRp2246
(dp2247
g66
(dp2248
g86
g87
ssg75
g2242
sg68
(lp2249
g1587
asbag61
(g82
g63
NtRp2250
(dp2251
g66
(dp2252
g93
g94
ssg75
g2242
sg68
(lp2253
S':'
asbag61
(g82
g63
NtRp2254
(dp2255
g66
(dp2256
sg75
g2242
sg68
(lp2257
g61
(g62
g63
NtRp2258
(dp2259
g66
(dp2260
g74
I4
ssg75
g2254
sg68
(lp2261
g61
(g70
g63
NtRp2262
(dp2263
g66
(dp2264
g74
I3
ssg75
Nsg68
(lp2265
g61
(g77
g63
NtRp2266
(dp2267
g66
(dp2268
sg75
g2262
sg68
(lp2269
g61
(g82
g63
NtRp2270
(dp2271
g66
(dp2272
sg75
g2266
sg68
(lp2273
g61
(g62
g63
NtRp2274
(dp2275
g66
(dp2276
g74
I3
ssg75
g2270
sg68
(lp2277
S'2'
asbasbasbag61
(g77
g63
NtRp2278
(dp2279
g66
(dp2280
sg75
g2262
sg68
(lp2281
g61
(g82
g63
NtRp2282
(dp2283
g66
(dp2284
sg75
g2278
sg68
(lp2285
g61
(g62
g63
NtRp2286
(dp2287
g66
(dp2288
g74
I3
ssg75
g2282
sg68
(lp2289
S'3'
asbasbasbag61
(g77
g63
NtRp2290
(dp2291
g66
(dp2292
sg75
g2262
sg68
(lp2293
g61
(g82
g63
NtRp2294
(dp2295
g66
(dp2296
sg75
g2290
sg68
(lp2297
g61
(g62
g63
NtRp2298
(dp2299
g66
(dp2300
g74
I3
ssg75
g2294
sg68
(lp2301
S'2'
asbasbasbag61
(g77
g63
NtRp2302
(dp2303
g66
(dp2304
sg75
g2262
sg68
(lp2305
g61
(g82
g63
NtRp2306
(dp2307
g66
(dp2308
sg75
g2302
sg68
(lp2309
g61
(g62
g63
NtRp2310
(dp2311
g66
(dp2312
g74
I3
ssg75
g2306
sg68
(lp2313
S'datetime.datetime(2012, 12, 17, 15, 3, 30)'
p2314
asbasbasbag61
(g77
g63
NtRp2315
(dp2316
g66
(dp2317
sg75
g2262
sg68
(lp2318
g61
(g82
g63
NtRp2319
(dp2320
g66
(dp2321
sg75
g2315
sg68
(lp2322
g61
(g62
g63
NtRp2323
(dp2324
g66
(dp2325
g74
I3
ssg75
g2319
sg68
(lp2326
g1665
asbasbasbasbasbasbasbasbasbasbasbag61
(g77
g63
NtRp2327
(dp2328
g66
(dp2329
sg75
g71
sg68
(lp2330
g61
(g82
g63
NtRp2331
(dp2332
g66
(dp2333
g86
g87
ssg75
g2327
sg68
(lp2334
S'is_https'
p2335
asbag61
(g82
g63
NtRp2336
(dp2337
g66
(dp2338
g93
g94
ssg75
g2327
sg68
(lp2339
S':'
asbag61
(g82
g63
NtRp2340
(dp2341
g66
(dp2342
sg75
g2327
sg68
(lp2343
g61
(g62
g63
NtRp2344
(dp2345
g66
(dp2346
g74
I5
ssg75
g2340
sg68
(lp2347
g104
asbasbasbag61
(g77
g63
NtRp2348
(dp2349
g66
(dp2350
sg75
g71
sg68
(lp2351
g61
(g82
g63
NtRp2352
(dp2353
g66
(dp2354
g86
g87
ssg75
g2348
sg68
(lp2355
S'is_local'
p2356
asbag61
(g82
g63
NtRp2357
(dp2358
g66
(dp2359
g93
g94
ssg75
g2348
sg68
(lp2360
S':'
asbag61
(g82
g63
NtRp2361
(dp2362
g66
(dp2363
sg75
g2348
sg68
(lp2364
g61
(g62
g63
NtRp2365
(dp2366
g66
(dp2367
g74
I5
ssg75
g2361
sg68
(lp2368
g1774
asbasbasbag61
(g77
g63
NtRp2369
(dp2370
g66
(dp2371
sg75
g71
sg68
(lp2372
g61
(g82
g63
NtRp2373
(dp2374
g66
(dp2375
g86
g87
ssg75
g2369
sg68
(lp2376
S'is_restful'
p2377
asbag61
(g82
g63
NtRp2378
(dp2379
g66
(dp2380
g93
g94
ssg75
g2369
sg68
(lp2381
S':'
asbag61
(g82
g63
NtRp2382
(dp2383
g66
(dp2384
sg75
g2369
sg68
(lp2385
g61
(g62
g63
NtRp2386
(dp2387
g66
(dp2388
g74
I5
ssg75
g2382
sg68
(lp2389
g104
asbasbasbag61
(g77
g63
NtRp2390
(dp2391
g66
(dp2392
sg75
g71
sg68
(lp2393
g61
(g82
g63
NtRp2394
(dp2395
g66
(dp2396
g86
g87
ssg75
g2390
sg68
(lp2397
S'now'
p2398
asbag61
(g82
g63
NtRp2399
(dp2400
g66
(dp2401
g93
g94
ssg75
g2390
sg68
(lp2402
S':'
asbag61
(g82
g63
NtRp2403
(dp2404
g66
(dp2405
sg75
g2390
sg68
(lp2406
g61
(g62
g63
NtRp2407
(dp2408
g66
(dp2409
g74
I5
ssg75
g2403
sg68
(lp2410
S'datetime.datetime(2013, 4, 4, 9, 7, 18, 415046)'
p2411
asbasbasbag61
(g77
g63
NtRp2412
(dp2413
g66
(dp2414
sg75
g71
sg68
(lp2415
g61
(g82
g63
NtRp2416
(dp2417
g66
(dp2418
g86
g87
ssg75
g2412
sg68
(lp2419
S'post_vars'
p2420
asbag61
(g82
g63
NtRp2421
(dp2422
g66
(dp2423
g93
g94
ssg75
g2412
sg68
(lp2424
S':'
asbag61
(g82
g63
NtRp2425
(dp2426
g66
(dp2427
sg75
g2412
sg68
(lp2428
g61
(g62
g63
NtRp2429
(dp2430
g66
(dp2431
g74
I5
ssg75
g2425
sg68
(lp2432
g61
(g70
g63
NtRp2433
(dp2434
g66
(dp2435
g74
I4
ssg75
Nsg68
(lp2436
g61
(g77
g63
NtRp2437
(dp2438
g66
(dp2439
sg75
g2433
sg68
(lp2440
g61
(g82
g63
NtRp2441
(dp2442
g66
(dp2443
g86
g87
ssg75
g2437
sg68
(lp2444
S'email'
p2445
asbag61
(g82
g63
NtRp2446
(dp2447
g66
(dp2448
g93
g94
ssg75
g2437
sg68
(lp2449
S':'
asbag61
(g82
g63
NtRp2450
(dp2451
g66
(dp2452
sg75
g2437
sg68
(lp2453
g61
(g62
g63
NtRp2454
(dp2455
g66
(dp2456
g74
I4
ssg75
g2450
sg68
(lp2457
S'fernando@ad2.com.br'
p2458
asbasbasbag61
(g77
g63
NtRp2459
(dp2460
g66
(dp2461
sg75
g2433
sg68
(lp2462
g61
(g82
g63
NtRp2463
(dp2464
g66
(dp2465
g86
g87
ssg75
g2459
sg68
(lp2466
S'nome'
p2467
asbag61
(g82
g63
NtRp2468
(dp2469
g66
(dp2470
g93
g94
ssg75
g2459
sg68
(lp2471
S':'
asbag61
(g82
g63
NtRp2472
(dp2473
g66
(dp2474
sg75
g2459
sg68
(lp2475
g61
(g62
g63
NtRp2476
(dp2477
g66
(dp2478
g74
I4
ssg75
g2472
sg68
(lp2479
S'Fernando'
p2480
asbasbasbag61
(g77
g63
NtRp2481
(dp2482
g66
(dp2483
sg75
g2433
sg68
(lp2484
g61
(g82
g63
NtRp2485
(dp2486
g66
(dp2487
g86
g87
ssg75
g2481
sg68
(lp2488
S'pin'
p2489
asbag61
(g82
g63
NtRp2490
(dp2491
g66
(dp2492
g93
g94
ssg75
g2481
sg68
(lp2493
S':'
asbag61
(g82
g63
NtRp2494
(dp2495
g66
(dp2496
sg75
g2481
sg68
(lp2497
g61
(g62
g63
NtRp2498
(dp2499
g66
(dp2500
g74
I4
ssg75
g2494
sg68
(lp2501
S'2554'
p2502
asbasbasbasbasbasbasbag61
(g77
g63
NtRp2503
(dp2504
g66
(dp2505
sg75
g71
sg68
(lp2506
g61
(g82
g63
NtRp2507
(dp2508
g66
(dp2509
g86
g87
ssg75
g2503
sg68
(lp2510
S'url'
p2511
asbag61
(g82
g63
NtRp2512
(dp2513
g66
(dp2514
g93
g94
ssg75
g2503
sg68
(lp2515
S':'
asbag61
(g82
g63
NtRp2516
(dp2517
g66
(dp2518
sg75
g2503
sg68
(lp2519
g61
(g62
g63
NtRp2520
(dp2521
g66
(dp2522
g74
I5
ssg75
g2516
sg68
(lp2523
g1319
asbasbasbag61
(g77
g63
NtRp2524
(dp2525
g66
(dp2526
sg75
g71
sg68
(lp2527
g61
(g82
g63
NtRp2528
(dp2529
g66
(dp2530
g86
g87
ssg75
g2524
sg68
(lp2531
S'utcnow'
p2532
asbag61
(g82
g63
NtRp2533
(dp2534
g66
(dp2535
g93
g94
ssg75
g2524
sg68
(lp2536
S':'
asbag61
(g82
g63
NtRp2537
(dp2538
g66
(dp2539
sg75
g2524
sg68
(lp2540
g61
(g62
g63
NtRp2541
(dp2542
g66
(dp2543
g74
I5
ssg75
g2537
sg68
(lp2544
S'datetime.datetime(2013, 4, 4, 12, 7, 18, 415114)'
p2545
asbasbasbag61
(g77
g63
NtRp2546
(dp2547
g66
(dp2548
sg75
g71
sg68
(lp2549
g61
(g82
g63
NtRp2550
(dp2551
g66
(dp2552
g86
g87
ssg75
g2546
sg68
(lp2553
S'uuid'
p2554
asbag61
(g82
g63
NtRp2555
(dp2556
g66
(dp2557
g93
g94
ssg75
g2546
sg68
(lp2558
S':'
asbag61
(g82
g63
NtRp2559
(dp2560
g66
(dp2561
sg75
g2546
sg68
(lp2562
g61
(g62
g63
NtRp2563
(dp2564
g66
(dp2565
g74
I5
ssg75
g2559
sg68
(lp2566
S'projeto/127.0.0.1.2013-04-04.09-07-18.42549382-2e29-4baa-8816-48da527cd514'
p2567
asbasbasbag61
(g77
g63
NtRp2568
(dp2569
g66
(dp2570
sg75
g71
sg68
(lp2571
g61
(g82
g63
NtRp2572
(dp2573
g66
(dp2574
g86
g87
ssg75
g2568
sg68
(lp2575
S'vars'
p2576
asbag61
(g82
g63
NtRp2577
(dp2578
g66
(dp2579
g93
g94
ssg75
g2568
sg68
(lp2580
S':'
asbag61
(g82
g63
NtRp2581
(dp2582
g66
(dp2583
sg75
g2568
sg68
(lp2584
g61
(g62
g63
NtRp2585
(dp2586
g66
(dp2587
g74
I5
ssg75
g2581
sg68
(lp2588
g61
(g70
g63
NtRp2589
(dp2590
g66
(dp2591
g74
I4
ssg75
Nsg68
(lp2592
g61
(g77
g63
NtRp2593
(dp2594
g66
(dp2595
sg75
g2589
sg68
(lp2596
g61
(g82
g63
NtRp2597
(dp2598
g66
(dp2599
g86
g87
ssg75
g2593
sg68
(lp2600
g2445
asbag61
(g82
g63
NtRp2601
(dp2602
g66
(dp2603
g93
g94
ssg75
g2593
sg68
(lp2604
S':'
asbag61
(g82
g63
NtRp2605
(dp2606
g66
(dp2607
sg75
g2593
sg68
(lp2608
g61
(g62
g63
NtRp2609
(dp2610
g66
(dp2611
g74
I4
ssg75
g2605
sg68
(lp2612
g2458
asbasbasbag61
(g77
g63
NtRp2613
(dp2614
g66
(dp2615
sg75
g2589
sg68
(lp2616
g61
(g82
g63
NtRp2617
(dp2618
g66
(dp2619
g86
g87
ssg75
g2613
sg68
(lp2620
g2467
asbag61
(g82
g63
NtRp2621
(dp2622
g66
(dp2623
g93
g94
ssg75
g2613
sg68
(lp2624
S':'
asbag61
(g82
g63
NtRp2625
(dp2626
g66
(dp2627
sg75
g2613
sg68
(lp2628
g61
(g62
g63
NtRp2629
(dp2630
g66
(dp2631
g74
I4
ssg75
g2625
sg68
(lp2632
g2480
asbasbasbag61
(g77
g63
NtRp2633
(dp2634
g66
(dp2635
sg75
g2589
sg68
(lp2636
g61
(g82
g63
NtRp2637
(dp2638
g66
(dp2639
g86
g87
ssg75
g2633
sg68
(lp2640
g2489
asbag61
(g82
g63
NtRp2641
(dp2642
g66
(dp2643
g93
g94
ssg75
g2633
sg68
(lp2644
S':'
asbag61
(g82
g63
NtRp2645
(dp2646
g66
(dp2647
sg75
g2633
sg68
(lp2648
g61
(g62
g63
NtRp2649
(dp2650
g66
(dp2651
g74
I4
ssg75
g2645
sg68
(lp2652
g2502
asbasbasbasbasbasbasbag61
(g77
g63
NtRp2653
(dp2654
g66
(dp2655
sg75
g71
sg68
(lp2656
g61
(g82
g63
NtRp2657
(dp2658
g66
(dp2659
g86
g87
ssg75
g2653
sg68
(lp2660
S'wsgi'
p2661
asbag61
(g82
g63
NtRp2662
(dp2663
g66
(dp2664
g93
g94
ssg75
g2653
sg68
(lp2665
S':'
asbag61
(g82
g63
NtRp2666
(dp2667
g66
(dp2668
sg75
g2653
sg68
(lp2669
g61
(g62
g63
NtRp2670
(dp2671
g66
(dp2672
g74
I5
ssg75
g2666
sg68
(lp2673
g61
(g70
g63
NtRp2674
(dp2675
g66
(dp2676
g74
I4
ssg75
Nsg68
(lp2677
g61
(g77
g63
NtRp2678
(dp2679
g66
(dp2680
sg75
g2674
sg68
(lp2681
g61
(g82
g63
NtRp2682
(dp2683
g66
(dp2684
g86
g87
ssg75
g2678
sg68
(lp2685
S'environ'
p2686
asbag61
(g82
g63
NtRp2687
(dp2688
g66
(dp2689
g93
g94
ssg75
g2678
sg68
(lp2690
S':'
asbag61
(g82
g63
NtRp2691
(dp2692
g66
(dp2693
sg75
g2678
sg68
(lp2694
g61
(g62
g63
NtRp2695
(dp2696
g66
(dp2697
g74
I4
ssg75
g2691
sg68
(lp2698
g61
(g70
g63
NtRp2699
(dp2700
g66
(dp2701
g74
I3
ssg75
Nsg68
(lp2702
g61
(g77
g63
NtRp2703
(dp2704
g66
(dp2705
sg75
g2699
sg68
(lp2706
g61
(g82
g63
NtRp2707
(dp2708
g66
(dp2709
g86
g87
ssg75
g2703
sg68
(lp2710
S'CONTENT_LENGTH'
p2711
asbag61
(g82
g63
NtRp2712
(dp2713
g66
(dp2714
g93
g94
ssg75
g2703
sg68
(lp2715
S':'
asbag61
(g82
g63
NtRp2716
(dp2717
g66
(dp2718
sg75
g2703
sg68
(lp2719
g61
(g62
g63
NtRp2720
(dp2721
g66
(dp2722
g74
I3
ssg75
g2716
sg68
(lp2723
g807
asbasbasbag61
(g77
g63
NtRp2724
(dp2725
g66
(dp2726
sg75
g2699
sg68
(lp2727
g61
(g82
g63
NtRp2728
(dp2729
g66
(dp2730
g86
g87
ssg75
g2724
sg68
(lp2731
S'CONTENT_TYPE'
p2732
asbag61
(g82
g63
NtRp2733
(dp2734
g66
(dp2735
g93
g94
ssg75
g2724
sg68
(lp2736
S':'
asbag61
(g82
g63
NtRp2737
(dp2738
g66
(dp2739
sg75
g2724
sg68
(lp2740
g61
(g62
g63
NtRp2741
(dp2742
g66
(dp2743
g74
I3
ssg75
g2737
sg68
(lp2744
g829
asbasbasbag61
(g77
g63
NtRp2745
(dp2746
g66
(dp2747
sg75
g2699
sg68
(lp2748
g61
(g82
g63
NtRp2749
(dp2750
g66
(dp2751
g86
g87
ssg75
g2745
sg68
(lp2752
S'HTTP_ACCEPT'
p2753
asbag61
(g82
g63
NtRp2754
(dp2755
g66
(dp2756
g93
g94
ssg75
g2745
sg68
(lp2757
S':'
asbag61
(g82
g63
NtRp2758
(dp2759
g66
(dp2760
sg75
g2745
sg68
(lp2761
g61
(g62
g63
NtRp2762
(dp2763
g66
(dp2764
g74
I3
ssg75
g2758
sg68
(lp2765
g916
asbasbasbag61
(g77
g63
NtRp2766
(dp2767
g66
(dp2768
sg75
g2699
sg68
(lp2769
g61
(g82
g63
NtRp2770
(dp2771
g66
(dp2772
g86
g87
ssg75
g2766
sg68
(lp2773
S'HTTP_ACCEPT_CHARSET'
p2774
asbag61
(g82
g63
NtRp2775
(dp2776
g66
(dp2777
g93
g94
ssg75
g2766
sg68
(lp2778
S':'
asbag61
(g82
g63
NtRp2779
(dp2780
g66
(dp2781
sg75
g2766
sg68
(lp2782
g61
(g62
g63
NtRp2783
(dp2784
g66
(dp2785
g74
I3
ssg75
g2779
sg68
(lp2786
g938
asbasbasbag61
(g77
g63
NtRp2787
(dp2788
g66
(dp2789
sg75
g2699
sg68
(lp2790
g61
(g82
g63
NtRp2791
(dp2792
g66
(dp2793
g86
g87
ssg75
g2787
sg68
(lp2794
S'HTTP_ACCEPT_ENCODING'
p2795
asbag61
(g82
g63
NtRp2796
(dp2797
g66
(dp2798
g93
g94
ssg75
g2787
sg68
(lp2799
S':'
asbag61
(g82
g63
NtRp2800
(dp2801
g66
(dp2802
sg75
g2787
sg68
(lp2803
g61
(g62
g63
NtRp2804
(dp2805
g66
(dp2806
g74
I3
ssg75
g2800
sg68
(lp2807
g960
asbasbasbag61
(g77
g63
NtRp2808
(dp2809
g66
(dp2810
sg75
g2699
sg68
(lp2811
g61
(g82
g63
NtRp2812
(dp2813
g66
(dp2814
g86
g87
ssg75
g2808
sg68
(lp2815
S'HTTP_ACCEPT_LANGUAGE'
p2816
asbag61
(g82
g63
NtRp2817
(dp2818
g66
(dp2819
g93
g94
ssg75
g2808
sg68
(lp2820
S':'
asbag61
(g82
g63
NtRp2821
(dp2822
g66
(dp2823
sg75
g2808
sg68
(lp2824
g61
(g62
g63
NtRp2825
(dp2826
g66
(dp2827
g74
I3
ssg75
g2821
sg68
(lp2828
g982
asbasbasbag61
(g77
g63
NtRp2829
(dp2830
g66
(dp2831
sg75
g2699
sg68
(lp2832
g61
(g82
g63
NtRp2833
(dp2834
g66
(dp2835
g86
g87
ssg75
g2829
sg68
(lp2836
S'HTTP_CACHE_CONTROL'
p2837
asbag61
(g82
g63
NtRp2838
(dp2839
g66
(dp2840
g93
g94
ssg75
g2829
sg68
(lp2841
S':'
asbag61
(g82
g63
NtRp2842
(dp2843
g66
(dp2844
sg75
g2829
sg68
(lp2845
g61
(g62
g63
NtRp2846
(dp2847
g66
(dp2848
g74
I3
ssg75
g2842
sg68
(lp2849
g1004
asbasbasbag61
(g77
g63
NtRp2850
(dp2851
g66
(dp2852
sg75
g2699
sg68
(lp2853
g61
(g82
g63
NtRp2854
(dp2855
g66
(dp2856
g86
g87
ssg75
g2850
sg68
(lp2857
S'HTTP_CONNECTION'
p2858
asbag61
(g82
g63
NtRp2859
(dp2860
g66
(dp2861
g93
g94
ssg75
g2850
sg68
(lp2862
S':'
asbag61
(g82
g63
NtRp2863
(dp2864
g66
(dp2865
sg75
g2850
sg68
(lp2866
g61
(g62
g63
NtRp2867
(dp2868
g66
(dp2869
g74
I3
ssg75
g2863
sg68
(lp2870
g1026
asbasbasbag61
(g77
g63
NtRp2871
(dp2872
g66
(dp2873
sg75
g2699
sg68
(lp2874
g61
(g82
g63
NtRp2875
(dp2876
g66
(dp2877
g86
g87
ssg75
g2871
sg68
(lp2878
S'HTTP_CONTENT_LENGTH'
p2879
asbag61
(g82
g63
NtRp2880
(dp2881
g66
(dp2882
g93
g94
ssg75
g2871
sg68
(lp2883
S':'
asbag61
(g82
g63
NtRp2884
(dp2885
g66
(dp2886
sg75
g2871
sg68
(lp2887
g61
(g62
g63
NtRp2888
(dp2889
g66
(dp2890
g74
I3
ssg75
g2884
sg68
(lp2891
g807
asbasbasbag61
(g77
g63
NtRp2892
(dp2893
g66
(dp2894
sg75
g2699
sg68
(lp2895
g61
(g82
g63
NtRp2896
(dp2897
g66
(dp2898
g86
g87
ssg75
g2892
sg68
(lp2899
S'HTTP_CONTENT_TYPE'
p2900
asbag61
(g82
g63
NtRp2901
(dp2902
g66
(dp2903
g93
g94
ssg75
g2892
sg68
(lp2904
S':'
asbag61
(g82
g63
NtRp2905
(dp2906
g66
(dp2907
sg75
g2892
sg68
(lp2908
g61
(g62
g63
NtRp2909
(dp2910
g66
(dp2911
g74
I3
ssg75
g2905
sg68
(lp2912
g829
asbasbasbag61
(g77
g63
NtRp2913
(dp2914
g66
(dp2915
sg75
g2699
sg68
(lp2916
g61
(g82
g63
NtRp2917
(dp2918
g66
(dp2919
g86
g87
ssg75
g2913
sg68
(lp2920
S'HTTP_COOKIE'
p2921
asbag61
(g82
g63
NtRp2922
(dp2923
g66
(dp2924
g93
g94
ssg75
g2913
sg68
(lp2925
S':'
asbag61
(g82
g63
NtRp2926
(dp2927
g66
(dp2928
sg75
g2913
sg68
(lp2929
g61
(g62
g63
NtRp2930
(dp2931
g66
(dp2932
g74
I3
ssg75
g2926
sg68
(lp2933
g1090
asbasbasbag61
(g77
g63
NtRp2934
(dp2935
g66
(dp2936
sg75
g2699
sg68
(lp2937
g61
(g82
g63
NtRp2938
(dp2939
g66
(dp2940
g86
g87
ssg75
g2934
sg68
(lp2941
S'HTTP_HOST'
p2942
asbag61
(g82
g63
NtRp2943
(dp2944
g66
(dp2945
g93
g94
ssg75
g2934
sg68
(lp2946
S':'
asbag61
(g82
g63
NtRp2947
(dp2948
g66
(dp2949
sg75
g2934
sg68
(lp2950
g61
(g62
g63
NtRp2951
(dp2952
g66
(dp2953
g74
I3
ssg75
g2947
sg68
(lp2954
g1112
asbasbasbag61
(g77
g63
NtRp2955
(dp2956
g66
(dp2957
sg75
g2699
sg68
(lp2958
g61
(g82
g63
NtRp2959
(dp2960
g66
(dp2961
g86
g87
ssg75
g2955
sg68
(lp2962
S'HTTP_ORIGIN'
p2963
asbag61
(g82
g63
NtRp2964
(dp2965
g66
(dp2966
g93
g94
ssg75
g2955
sg68
(lp2967
S':'
asbag61
(g82
g63
NtRp2968
(dp2969
g66
(dp2970
sg75
g2955
sg68
(lp2971
g61
(g62
g63
NtRp2972
(dp2973
g66
(dp2974
g74
I3
ssg75
g2968
sg68
(lp2975
g1134
asbasbasbag61
(g77
g63
NtRp2976
(dp2977
g66
(dp2978
sg75
g2699
sg68
(lp2979
g61
(g82
g63
NtRp2980
(dp2981
g66
(dp2982
g86
g87
ssg75
g2976
sg68
(lp2983
S'HTTP_REFERER'
p2984
asbag61
(g82
g63
NtRp2985
(dp2986
g66
(dp2987
g93
g94
ssg75
g2976
sg68
(lp2988
S':'
asbag61
(g82
g63
NtRp2989
(dp2990
g66
(dp2991
sg75
g2976
sg68
(lp2992
g61
(g62
g63
NtRp2993
(dp2994
g66
(dp2995
g74
I3
ssg75
g2989
sg68
(lp2996
g1156
asbasbasbag61
(g77
g63
NtRp2997
(dp2998
g66
(dp2999
sg75
g2699
sg68
(lp3000
g61
(g82
g63
NtRp3001
(dp3002
g66
(dp3003
g86
g87
ssg75
g2997
sg68
(lp3004
S'HTTP_USER_AGENT'
p3005
asbag61
(g82
g63
NtRp3006
(dp3007
g66
(dp3008
g93
g94
ssg75
g2997
sg68
(lp3009
S':'
asbag61
(g82
g63
NtRp3010
(dp3011
g66
(dp3012
sg75
g2997
sg68
(lp3013
g61
(g62
g63
NtRp3014
(dp3015
g66
(dp3016
g74
I3
ssg75
g3010
sg68
(lp3017
g1178
asbasbasbag61
(g77
g63
NtRp3018
(dp3019
g66
(dp3020
sg75
g2699
sg68
(lp3021
g61
(g82
g63
NtRp3022
(dp3023
g66
(dp3024
g86
g87
ssg75
g3018
sg68
(lp3025
S'PATH_INFO'
p3026
asbag61
(g82
g63
NtRp3027
(dp3028
g66
(dp3029
g93
g94
ssg75
g3018
sg68
(lp3030
S':'
asbag61
(g82
g63
NtRp3031
(dp3032
g66
(dp3033
sg75
g3018
sg68
(lp3034
g61
(g62
g63
NtRp3035
(dp3036
g66
(dp3037
g74
I3
ssg75
g3031
sg68
(lp3038
g1319
asbasbasbag61
(g77
g63
NtRp3039
(dp3040
g66
(dp3041
sg75
g2699
sg68
(lp3042
g61
(g82
g63
NtRp3043
(dp3044
g66
(dp3045
g86
g87
ssg75
g3039
sg68
(lp3046
S'QUERY_STRING'
p3047
asbag61
(g82
g63
NtRp3048
(dp3049
g66
(dp3050
g93
g94
ssg75
g3039
sg68
(lp3051
S':'
asbag61
(g82
g63
NtRp3052
(dp3053
g66
(dp3054
sg75
g3039
sg68
(lp3055
g61
(g62
g63
NtRp3056
(dp3057
g66
(dp3058
g74
I3
ssg75
g3052
sg68
(lp3059
S''
asbasbasbag61
(g77
g63
NtRp3060
(dp3061
g66
(dp3062
sg75
g2699
sg68
(lp3063
g61
(g82
g63
NtRp3064
(dp3065
g66
(dp3066
g86
g87
ssg75
g3060
sg68
(lp3067
S'REMOTE_ADDR'
p3068
asbag61
(g82
g63
NtRp3069
(dp3070
g66
(dp3071
g93
g94
ssg75
g3060
sg68
(lp3072
S':'
asbag61
(g82
g63
NtRp3073
(dp3074
g66
(dp3075
sg75
g3060
sg68
(lp3076
g61
(g62
g63
NtRp3077
(dp3078
g66
(dp3079
g74
I3
ssg75
g3073
sg68
(lp3080
g242
asbasbasbag61
(g77
g63
NtRp3081
(dp3082
g66
(dp3083
sg75
g2699
sg68
(lp3084
g61
(g82
g63
NtRp3085
(dp3086
g66
(dp3087
g86
g87
ssg75
g3081
sg68
(lp3088
S'REMOTE_PORT'
p3089
asbag61
(g82
g63
NtRp3090
(dp3091
g66
(dp3092
g93
g94
ssg75
g3081
sg68
(lp3093
S':'
asbag61
(g82
g63
NtRp3094
(dp3095
g66
(dp3096
sg75
g3081
sg68
(lp3097
g61
(g62
g63
NtRp3098
(dp3099
g66
(dp3100
g74
I3
ssg75
g3094
sg68
(lp3101
g1383
asbasbasbag61
(g77
g63
NtRp3102
(dp3103
g66
(dp3104
sg75
g2699
sg68
(lp3105
g61
(g82
g63
NtRp3106
(dp3107
g66
(dp3108
g86
g87
ssg75
g3102
sg68
(lp3109
S'REQUEST_METHOD'
p3110
asbag61
(g82
g63
NtRp3111
(dp3112
g66
(dp3113
g93
g94
ssg75
g3102
sg68
(lp3114
S':'
asbag61
(g82
g63
NtRp3115
(dp3116
g66
(dp3117
sg75
g3102
sg68
(lp3118
g61
(g62
g63
NtRp3119
(dp3120
g66
(dp3121
g74
I3
ssg75
g3115
sg68
(lp3122
g1405
asbasbasbag61
(g77
g63
NtRp3123
(dp3124
g66
(dp3125
sg75
g2699
sg68
(lp3126
g61
(g82
g63
NtRp3127
(dp3128
g66
(dp3129
g86
g87
ssg75
g3123
sg68
(lp3130
S'REQUEST_URI'
p3131
asbag61
(g82
g63
NtRp3132
(dp3133
g66
(dp3134
g93
g94
ssg75
g3123
sg68
(lp3135
S':'
asbag61
(g82
g63
NtRp3136
(dp3137
g66
(dp3138
sg75
g3123
sg68
(lp3139
g61
(g62
g63
NtRp3140
(dp3141
g66
(dp3142
g74
I3
ssg75
g3136
sg68
(lp3143
g1427
asbasbasbag61
(g77
g63
NtRp3144
(dp3145
g66
(dp3146
sg75
g2699
sg68
(lp3147
g61
(g82
g63
NtRp3148
(dp3149
g66
(dp3150
g86
g87
ssg75
g3144
sg68
(lp3151
S'SCRIPT_NAME'
p3152
asbag61
(g82
g63
NtRp3153
(dp3154
g66
(dp3155
g93
g94
ssg75
g3144
sg68
(lp3156
S':'
asbag61
(g82
g63
NtRp3157
(dp3158
g66
(dp3159
sg75
g3144
sg68
(lp3160
g61
(g62
g63
NtRp3161
(dp3162
g66
(dp3163
g74
I3
ssg75
g3157
sg68
(lp3164
S''
asbasbasbag61
(g77
g63
NtRp3165
(dp3166
g66
(dp3167
sg75
g2699
sg68
(lp3168
g61
(g82
g63
NtRp3169
(dp3170
g66
(dp3171
g86
g87
ssg75
g3165
sg68
(lp3172
S'SERVER_NAME'
p3173
asbag61
(g82
g63
NtRp3174
(dp3175
g66
(dp3176
g93
g94
ssg75
g3165
sg68
(lp3177
S':'
asbag61
(g82
g63
NtRp3178
(dp3179
g66
(dp3180
sg75
g3165
sg68
(lp3181
g61
(g62
g63
NtRp3182
(dp3183
g66
(dp3184
g74
I3
ssg75
g3178
sg68
(lp3185
g1470
asbasbasbag61
(g77
g63
NtRp3186
(dp3187
g66
(dp3188
sg75
g2699
sg68
(lp3189
g61
(g82
g63
NtRp3190
(dp3191
g66
(dp3192
g86
g87
ssg75
g3186
sg68
(lp3193
S'SERVER_PORT'
p3194
asbag61
(g82
g63
NtRp3195
(dp3196
g66
(dp3197
g93
g94
ssg75
g3186
sg68
(lp3198
S':'
asbag61
(g82
g63
NtRp3199
(dp3200
g66
(dp3201
sg75
g3186
sg68
(lp3202
g61
(g62
g63
NtRp3203
(dp3204
g66
(dp3205
g74
I3
ssg75
g3199
sg68
(lp3206
g1492
asbasbasbag61
(g77
g63
NtRp3207
(dp3208
g66
(dp3209
sg75
g2699
sg68
(lp3210
g61
(g82
g63
NtRp3211
(dp3212
g66
(dp3213
g86
g87
ssg75
g3207
sg68
(lp3214
S'SERVER_PROTOCOL'
p3215
asbag61
(g82
g63
NtRp3216
(dp3217
g66
(dp3218
g93
g94
ssg75
g3207
sg68
(lp3219
S':'
asbag61
(g82
g63
NtRp3220
(dp3221
g66
(dp3222
sg75
g3207
sg68
(lp3223
g61
(g62
g63
NtRp3224
(dp3225
g66
(dp3226
g74
I3
ssg75
g3220
sg68
(lp3227
g1514
asbasbasbag61
(g77
g63
NtRp3228
(dp3229
g66
(dp3230
sg75
g2699
sg68
(lp3231
g61
(g82
g63
NtRp3232
(dp3233
g66
(dp3234
g86
g87
ssg75
g3228
sg68
(lp3235
S'SERVER_SOFTWARE'
p3236
asbag61
(g82
g63
NtRp3237
(dp3238
g66
(dp3239
g93
g94
ssg75
g3228
sg68
(lp3240
S':'
asbag61
(g82
g63
NtRp3241
(dp3242
g66
(dp3243
sg75
g3228
sg68
(lp3244
g61
(g62
g63
NtRp3245
(dp3246
g66
(dp3247
g74
I3
ssg75
g3241
sg68
(lp3248
g1536
asbasbasbag61
(g77
g63
NtRp3249
(dp3250
g66
(dp3251
sg75
g2699
sg68
(lp3252
g61
(g82
g63
NtRp3253
(dp3254
g66
(dp3255
g86
g87
ssg75
g3249
sg68
(lp3256
S'WEB2PY_ORIGINAL_URI'
p3257
asbag61
(g82
g63
NtRp3258
(dp3259
g66
(dp3260
g93
g94
ssg75
g3249
sg68
(lp3261
S':'
asbag61
(g82
g63
NtRp3262
(dp3263
g66
(dp3264
sg75
g3249
sg68
(lp3265
g61
(g62
g63
NtRp3266
(dp3267
g66
(dp3268
g74
I3
ssg75
g3262
sg68
(lp3269
g1319
asbasbasbag61
(g77
g63
NtRp3270
(dp3271
g66
(dp3272
sg75
g2699
sg68
(lp3273
g61
(g82
g63
NtRp3274
(dp3275
g66
(dp3276
g86
g87
ssg75
g3270
sg68
(lp3277
S'wsgi.errors'
p3278
asbag61
(g82
g63
NtRp3279
(dp3280
g66
(dp3281
g93
g94
ssg75
g3270
sg68
(lp3282
S':'
asbag61
(g82
g63
NtRp3283
(dp3284
g66
(dp3285
sg75
g3270
sg68
(lp3286
g61
(g62
g63
NtRp3287
(dp3288
g66
(dp3289
g74
I3
ssg75
g3283
sg68
(lp3290
S"<open file '<stderr>', mode 'w' at 0x7fc5ebe43270>"
p3291
asbasbasbag61
(g77
g63
NtRp3292
(dp3293
g66
(dp3294
sg75
g2699
sg68
(lp3295
g61
(g82
g63
NtRp3296
(dp3297
g66
(dp3298
g86
g87
ssg75
g3292
sg68
(lp3299
S'wsgi.file_wrapper'
p3300
asbag61
(g82
g63
NtRp3301
(dp3302
g66
(dp3303
g93
g94
ssg75
g3292
sg68
(lp3304
S':'
asbag61
(g82
g63
NtRp3305
(dp3306
g66
(dp3307
sg75
g3292
sg68
(lp3308
g61
(g62
g63
NtRp3309
(dp3310
g66
(dp3311
g74
I3
ssg75
g3305
sg68
(lp3312
S'<class wsgiref.util.FileWrapper at 0x2f9f598>'
p3313
asbasbasbag61
(g77
g63
NtRp3314
(dp3315
g66
(dp3316
sg75
g2699
sg68
(lp3317
g61
(g82
g63
NtRp3318
(dp3319
g66
(dp3320
g86
g87
ssg75
g3314
sg68
(lp3321
S'wsgi.input'
p3322
asbag61
(g82
g63
NtRp3323
(dp3324
g66
(dp3325
g93
g94
ssg75
g3314
sg68
(lp3326
S':'
asbag61
(g82
g63
NtRp3327
(dp3328
g66
(dp3329
sg75
g3314
sg68
(lp3330
g61
(g62
g63
NtRp3331
(dp3332
g66
(dp3333
g74
I3
ssg75
g3327
sg68
(lp3334
S"<open file '<fdopen>', mode 'w+b' at 0x7fc5d8b80db0>"
p3335
asbasbasbag61
(g77
g63
NtRp3336
(dp3337
g66
(dp3338
sg75
g2699
sg68
(lp3339
g61
(g82
g63
NtRp3340
(dp3341
g66
(dp3342
g86
g87
ssg75
g3336
sg68
(lp3343
S'wsgi.multiprocess'
p3344
asbag61
(g82
g63
NtRp3345
(dp3346
g66
(dp3347
g93
g94
ssg75
g3336
sg68
(lp3348
S':'
asbag61
(g82
g63
NtRp3349
(dp3350
g66
(dp3351
sg75
g3336
sg68
(lp3352
g61
(g62
g63
NtRp3353
(dp3354
g66
(dp3355
g74
I3
ssg75
g3349
sg68
(lp3356
g104
asbasbasbag61
(g77
g63
NtRp3357
(dp3358
g66
(dp3359
sg75
g2699
sg68
(lp3360
g61
(g82
g63
NtRp3361
(dp3362
g66
(dp3363
g86
g87
ssg75
g3357
sg68
(lp3364
S'wsgi.multithread'
p3365
asbag61
(g82
g63
NtRp3366
(dp3367
g66
(dp3368
g93
g94
ssg75
g3357
sg68
(lp3369
S':'
asbag61
(g82
g63
NtRp3370
(dp3371
g66
(dp3372
sg75
g3357
sg68
(lp3373
g61
(g62
g63
NtRp3374
(dp3375
g66
(dp3376
g74
I3
ssg75
g3370
sg68
(lp3377
g1774
asbasbasbag61
(g77
g63
NtRp3378
(dp3379
g66
(dp3380
sg75
g2699
sg68
(lp3381
g61
(g82
g63
NtRp3382
(dp3383
g66
(dp3384
g86
g87
ssg75
g3378
sg68
(lp3385
S'wsgi.run_once'
p3386
asbag61
(g82
g63
NtRp3387
(dp3388
g66
(dp3389
g93
g94
ssg75
g3378
sg68
(lp3390
S':'
asbag61
(g82
g63
NtRp3391
(dp3392
g66
(dp3393
sg75
g3378
sg68
(lp3394
g61
(g62
g63
NtRp3395
(dp3396
g66
(dp3397
g74
I3
ssg75
g3391
sg68
(lp3398
g104
asbasbasbag61
(g77
g63
NtRp3399
(dp3400
g66
(dp3401
sg75
g2699
sg68
(lp3402
g61
(g82
g63
NtRp3403
(dp3404
g66
(dp3405
g86
g87
ssg75
g3399
sg68
(lp3406
S'wsgi.url_scheme'
p3407
asbag61
(g82
g63
NtRp3408
(dp3409
g66
(dp3410
g93
g94
ssg75
g3399
sg68
(lp3411
S':'
asbag61
(g82
g63
NtRp3412
(dp3413
g66
(dp3414
sg75
g3399
sg68
(lp3415
g61
(g62
g63
NtRp3416
(dp3417
g66
(dp3418
g74
I3
ssg75
g3412
sg68
(lp3419
g1817
asbasbasbag61
(g77
g63
NtRp3420
(dp3421
g66
(dp3422
sg75
g2699
sg68
(lp3423
g61
(g82
g63
NtRp3424
(dp3425
g66
(dp3426
g86
g87
ssg75
g3420
sg68
(lp3427
S'wsgi.version'
p3428
asbag61
(g82
g63
NtRp3429
(dp3430
g66
(dp3431
g93
g94
ssg75
g3420
sg68
(lp3432
S':'
asbag61
(g82
g63
NtRp3433
(dp3434
g66
(dp3435
sg75
g3420
sg68
(lp3436
g61
(g62
g63
NtRp3437
(dp3438
g66
(dp3439
g74
I3
ssg75
g3433
sg68
(lp3440
S'1'
asbasbasbasbasbasbasbasbasbasbasbasbasbsS'frames'
p3441
(lp3442
(dp3443
S'file'
p3444
S'/var/www/conferencia/gluon/restricted.py'
p3445
sS'dump'
p3446
(dp3447
S'environment'
p3448
S"{'A': <class 'gluon.html.A'>, 'Auth': <class 'gluon.tools.Auth'>, 'B': <class 'gluon.html.B'>, 'BEAUTIFY': <class 'gluon.html.BEAUTIFY'>, 'BODY': <class 'gluon.html.BODY'>, 'BR': <class 'gluon.html.BR'>, 'BUTTON': <class 'gluon.html.BUTTON'>, 'CAT': <class 'gluon.html.CAT'>, 'CENTER': <class 'gluon.html.CENTER'>, 'CLEANUP': <class 'gluon.validators.CLEANUP'>, ...}"
p3449
sS'ccode'
p3450
S'<code object <module> at 0x7fc5d8a39c30, file "/...ications/projeto/controllers/initial.py", line 3>'
p3451
ssS'lnum'
p3452
I212
sS'lines'
p3453
(dp3454
I207
S'    try:'
p3455
sI208
S'        if isinstance(code, types.CodeType):'
p3456
sI209
S'            ccode = code'
p3457
sI210
S'        else:'
p3458
sI211
S'            ccode = compile2(code, layer)'
p3459
sI212
S'        exec ccode in environment'
p3460
sI213
S'    except HTTP:'
p3461
sI214
S'        raise'
p3462
sI215
S'    except RestrictedError:'
p3463
sI216
S'        # do not encapsulate (obfuscate) the original RestrictedError'
p3464
ssS'call'
p3465
S"(code='# coding: utf-8\\n\\ndef show_cliente():\\n\\tresponse.t...\\t\\t\\t)\\n\\nresponse._vars=response._caller(principal)\\n', environment={'A': <class 'gluon.html.A'>, 'Auth': <class 'gluon.tools.Auth'>, 'B': <class 'gluon.html.B'>, 'BEAUTIFY': <class 'gluon.html.BEAUTIFY'>, 'BODY': <class 'gluon.html.BODY'>, 'BR': <class 'gluon.html.BR'>, 'BUTTON': <class 'gluon.html.BUTTON'>, 'CAT': <class 'gluon.html.CAT'>, 'CENTER': <class 'gluon.html.CENTER'>, 'CLEANUP': <class 'gluon.validators.CLEANUP'>, ...}, layer='/var/www/conferencia/applications/projeto/controllers/initial.py')"
p3466
sS'func'
p3467
S'restricted'
p3468
sa(dp3469
g3444
S'/var/www/conferencia/applications/projeto/controllers/initial.py'
p3470
sg3446
(dp3471
sg3452
I324
sg3453
(dp3472
I320
S'\t\t\tsubject="host adicionado",'
p3473
sI321
S'\t\t\tmessage="<html>Um novo host foi adicionado pelo usu\xc3\xa1rio %s <br>nome: %s <br>vpn: %s<br><br>\xc3\x89 preciso fazer a instala\xc3\xa7\xc3\xa3o do client zabbix e bacula</html>" % (auth.user.first_name, host.nome, host.ip_chegada,)'
p3474
sI322
S'\t\t\t)'
p3475
sI313
S'\t\t\tto="fndiaz02@gmail.com",'
p3476
sI314
S'\t\t\tsubject="host adicionado",'
p3477
sI315
S'\t\t\tmessage="<html>Um novo host foi adicionado pelo usu\xc3\xa1rio %s <br>nome: %s <br>vpn: %s<br><br>\xc3\x89 preciso fazer a instala\xc3\xa7\xc3\xa3o do client zabbix e bacula</html>" % (auth.user.first_name, host.nome, host.ip_chegada,)'
p3478
sI316
S'\t\t\t)'
p3479
sI317
S"\telif auth.has_membership('internet'):"
p3480
sI318
S'\t\tmail.send('
p3481
sI319
S'\t\t\tto="fernando@ad2.com.br",'
p3482
ssg3465
S'()'
p3483
sg3467
S'<module>'
p3484
sa(dp3485
g3444
S'/var/www/conferencia/gluon/globals.py'
p3486
sg3446
(dp3487
S'self'
p3488
S'undefined'
p3489
sS'f'
S'<function principal>'
p3490
ssg3452
I193
sg3453
(dp3491
I192
S'        self._vars = None'
p3492
sI193
S'        self._caller = lambda f: f()'
p3493
sI194
S'        self._view_environment = None'
p3494
sI195
S'        self._custom_commit = None'
p3495
sI196
S'        self._custom_rollback = None'
p3496
sI197
S''
sI188
S'        self.menu = []             # used by the default view layout'
p3497
sI189
S'        self.files = []            # used by web2py_ajax.html'
p3498
sI190
S'        self.generic_patterns = []  # patterns to allow generic views'
p3499
sI191
S"        self.delimiters = ('{{', '}}')"
p3500
ssg3465
S'(f=<function principal>)'
p3501
sg3467
S'<lambda>'
p3502
sa(dp3503
g3444
S'/var/www/conferencia/applications/projeto/controllers/initial.py'
p3504
sg3446
(dp3505
S'ignore_rw'
p3506
g3489
sS'builtinTrue'
p3507
g1774
sS'maxtextlength'
p3508
g3489
ssg3452
I293
sg3453
(dp3509
I288
S'\tresponse.title="Usu\xc3\xa1rios"'
p3510
sI289
S''
sI290
S'\tgrid = SQLFORM.grid(db.usuario,'
p3511
sI291
S'\t\tuser_signature=False, searchable=True, csv=False,'
p3512
sI292
S'\t\tpaginate=50, details=False,'
p3513
sI293
S'\t\tignore_rw = True, maxtextlength=36,'
p3514
sI294
S'    \t)'
p3515
sI295
S'\treturn response.render("initial/show_grid.html", grid=grid)'
p3516
sI296
S''
sI297
S''
ssg3465
S'()'
p3517
sg3467
g1932
sa(dp3518
g3444
S'/var/www/conferencia/gluon/sqlhtml.py'
p3519
sg3446
(dp3520
S'oncreate'
p3521
S'None'
p3522
sS'onsuccess'
p3523
g3489
ssg3452
I1881
sg3453
(dp3524
I1876
S"                _class='web2py_form',"
p3525
sI1877
S'                **sqlformargs)'
p3526
sI1878
S'            create_form.process(formname=formname,'
p3527
sI1879
S'                                next=referrer,'
p3528
sI1880
S'                                onvalidation=onvalidation,'
p3529
sI1881
S'                                onsuccess=oncreate)'
p3530
sI1882
S'            res = DIV(buttons(), create_form, formfooter, _class=_class)'
p3531
sI1883
S'            res.create_form = create_form'
p3532
sI1884
S'            res.update_form = update_form'
p3533
sI1885
S'            res.view_form = view_form'
p3534
ssg3465
S"(query=<Table usuario (id,nome,pin,email)>, fields=[<gluon.dal.Field object>, <gluon.dal.Field object>, <gluon.dal.Field object>, <gluon.dal.Field object>], field_id=<gluon.dal.Field object>, left=None, headers={}, orderby=None, groupby=None, searchable=True, sortable=True, paginate=50, deletable=True, editable=True, details=False, selectable=None, create=True, csv=False, links=None, links_in_grid=True, upload=<function <lambda>>, args=[], user_signature=False, maxtextlengths={}, maxtextlength=36, onvalidation=None, oncreate=None, onupdate=None, ondelete=None, sorter_icons=(<gluon.html.XML object>, <gluon.html.XML object>), ui={'button': 'button btn', 'buttonadd': 'icon plus icon-plus', 'buttonback': 'icon leftarrow icon-arrow-left', 'buttondelete': 'icon trash icon-trash', 'buttonedit': 'icon pen icon-pencil', 'buttonexport': 'icon downarrow icon-download', 'buttontable': 'icon rightarrow icon-arrow-right', 'buttontext': 'buttontext button', 'buttonview': 'icon magnifier icon-zoom-in', 'content': '', ...}, showbuttontext=True, _class='web2py_grid', formname='web2py_grid', search_widget='default', ignore_rw=True, formstyle='table3cols', exportclasses=None, formargs={}, createargs={}, editargs={}, viewargs={}, buttons_placement='right', links_placement='right')"
p3535
sg3467
S'grid'
p3536
sa(dp3537
g3444
S'/var/www/conferencia/gluon/html.py'
p3538
sg3446
(dp3539
S'self'
p3540
S'<gluon.sqlhtml.SQLFORM object>'
p3541
sS'self.validate'
p3542
S'<bound method SQLFORM.validate of <gluon.sqlhtml.SQLFORM object>>'
p3543
sS'kwargs'
p3544
S"{'dbio': True, 'formname': 'web2py_grid', 'next': '/', 'onsuccess': None, 'onvalidation': None}"
p3545
ssg3452
I2179
sg3453
(dp3546
I2176
S'        """'
p3547
sI2177
S"        kwargs['dbio'] = kwargs.get('dbio', True)"
p3548
sI2178
S'                                    # necessary for SQLHTML forms'
p3549
sI2179
S'        self.validate(**kwargs)'
p3550
sI2180
S'        return self'
p3551
sI2181
S''
sI2182
S'    REDIRECT_JS = "window.location=\'%s\';return false"'
p3552
sI2183
S''
sI2174
S'        def action():'
p3553
sI2175
S'            return dict(form=SQLFORM(db.table).process(onsuccess=my_callback)'
p3554
ssg3465
S"(self=<gluon.sqlhtml.SQLFORM object>, **kwargs={'dbio': True, 'formname': 'web2py_grid', 'next': '/', 'onsuccess': None, 'onvalidation': None})"
p3555
sg3467
S'process'
p3556
sa(dp3557
g3444
S'/var/www/conferencia/gluon/html.py'
p3558
sg3446
(dp3559
S'self'
p3560
S'<gluon.sqlhtml.SQLFORM object>'
p3561
sS'self.accepts'
p3562
S'<bound method SQLFORM.accepts of <gluon.sqlhtml.SQLFORM object>>'
p3563
sS'kwargs'
p3564
S"{'dbio': True, 'formname': 'web2py_grid', 'onvalidation': None, 'request_vars': <Storage {'_formkey': 'd534b576-7d01-4649-9ef1-0..., 'pin': '2554', 'email': 'fernando@ad2.com.br'}>, 'session': <Storage {'_formkey[meetme/1002]': '6325d488-b19...ssion_hash': 'a3d8b9b99ec46fa7771c3c60186e26d5'}>}"
p3565
ssg3452
I2118
sg3453
(dp3566
I2113
S"        for key in ('message_onsuccess', 'message_onfailure', 'onsuccess',"
p3567
sI2114
S"                    'onfailure', 'next', 'message_onchange', 'onchange'):"
p3568
sI2115
S'            if key in kwargs:'
p3569
sI2116
S'                del kwargs[key]'
p3570
sI2117
S''
sI2118
S'        if self.accepts(**kwargs):'
p3571
sI2119
S"            if onsuccess == 'flash':"
p3572
sI2120
S'                if next:'
p3573
sI2121
S'                    current.session.flash = message_onsuccess'
p3574
sI2122
S'                else:'
p3575
ssg3465
S"(self=<gluon.sqlhtml.SQLFORM object>, **kwargs={'dbio': True, 'formname': 'web2py_grid', 'onvalidation': None, 'request_vars': <Storage {'_formkey': 'd534b576-7d01-4649-9ef1-0..., 'pin': '2554', 'email': 'fernando@ad2.com.br'}>, 'session': <Storage {'_formkey[meetme/1002]': '6325d488-b19...ssion_hash': 'a3d8b9b99ec46fa7771c3c60186e26d5'}>})"
p3576
sg3467
S'validate'
p3577
sa(dp3578
g3444
S'/var/www/conferencia/gluon/sqlhtml.py'
p3579
sg3446
(dp3580
S'self.vars.id'
p3581
S'None'
p3582
sS'fields'
p3583
S"{'email': 'fernando@ad2.com.br', 'nome': 'Fernando', 'pin': '2554'}"
p3584
sS'self'
p3585
S'<gluon.sqlhtml.SQLFORM object>'
p3586
sS'self.vars'
p3587
S"<Storage {'email': 'fernando@ad2.com.br', 'pin': '2554', 'nome': 'Fernando'}>"
p3588
sS'self.table.insert'
p3589
S'<bound method Table.insert of <Table usuario (id,nome,pin,email)>>'
p3590
sS'self.table'
p3591
S'<Table usuario (id,nome,pin,email)>'
p3592
ssg3452
I1486
sg3453
(dp3593
I1481
S'                    self.vars.id = self.record[self.id_field_name]'
p3594
sI1482
S'                    if fields:'
p3595
sI1483
S'                        self.table._db(self.table._id == self.record['
p3596
sI1484
S'                                       self.id_field_name]).update(**fields)'
p3597
sI1485
S'                else:'
p3598
sI1486
S'                    self.vars.id = self.table.insert(**fields)'
p3599
sI1487
S'        self.accepted = ret'
p3600
sI1488
S'        return ret'
p3601
sI1489
S''
sI1490
S'    AUTOTYPES = {'
p3602
ssg3465
S"(self=<gluon.sqlhtml.SQLFORM object>, request_vars=<Storage {'_formkey': 'd534b576-7d01-4649-9ef1-0..., 'pin': '2554', 'email': 'fernando@ad2.com.br'}>, session=<Storage {'_formkey[meetme/1002]': '6325d488-b19...ssion_hash': 'a3d8b9b99ec46fa7771c3c60186e26d5'}>, formname='web2py_grid', keepvalues=False, onvalidation=None, dbio=True, hideerror=False, detect_record_change=False, **kwargs={})"
p3603
sg3467
S'accepts'
p3604
sa(dp3605
g3444
S'/var/www/conferencia/gluon/dal.py'
p3606
sg3446
(dp3607
S'self._listify'
p3608
S'<bound method Table._listify of <Table usuario (id,nome,pin,email)>>'
p3609
sS'fields'
p3610
S"{'email': 'fernando@ad2.com.br', 'nome': 'Fernando', 'pin': '2554'}"
p3611
sS'self'
p3612
S'<Table usuario (id,nome,pin,email)>'
p3613
sS'ret'
p3614
g3489
sS'self._db._adapter'
p3615
S'<gluon.dal.PostgreSQLAdapter object>'
p3616
sS'self._db._adapter.insert'
p3617
S'<bound method PostgreSQLAdapter.insert of <gluon.dal.PostgreSQLAdapter object>>'
p3618
sS'self._db'
p3619
S'<DAL uri="postgres:pg8000://******:123456@127.0.0.1/conferencia">'
p3620
ssg3452
I7918
sg3453
(dp3621
I7913
S'        return self._db._adapter._insert(self,self._listify(fields))'
p3622
sI7914
S''
sI7915
S'    def insert(self, **fields):'
p3623
sI7916
S'        self._attempt_upload(fields)'
p3624
sI7917
S'        if any(f(fields) for f in self._before_insert): return 0'
p3625
sI7918
S'        ret =  self._db._adapter.insert(self,self._listify(fields))'
p3626
sI7919
S'        if ret and self._after_insert:'
p3627
sI7920
S'            fields = Row(fields)'
p3628
sI7921
S'            [f(fields,ret) for f in self._after_insert]'
p3629
sI7922
S'        return ret'
p3630
ssg3465
S"(self=<Table usuario (id,nome,pin,email)>, **fields={'email': 'fernando@ad2.com.br', 'nome': 'Fernando', 'pin': '2554'})"
p3631
sg3467
S'insert'
p3632
sa(dp3633
g3444
S'/var/www/conferencia/gluon/dal.py'
p3634
sg3446
(dp3635
S'e'
S'ProgrammingError(\'ERROR\', \'23505\', \'duplicate ke...e violates unique constraint "usuario_nome_key"\')'
p3636
ssg3452
I1176
sg3453
(dp3637
I1171
S'            self.execute(query)'
p3638
sI1172
S'        except Exception:'
p3639
sI1173
S'            e = sys.exc_info()[1]'
p3640
sI1174
S'            if isinstance(e,self.integrity_error_class()):'
p3641
sI1175
S'                return None'
p3642
sI1176
S'            raise e'
p3643
sI1177
S"        if hasattr(table,'_primarykey'):"
p3644
sI1178
S'            return dict([(k[0].name, k[1]) for k in fields \\'
p3645
sI1179
S'                             if k[0].name in table._primarykey])'
p3646
sI1180
S'        id = self.lastrowid(table)'
p3647
ssg3465
S"(self=<gluon.dal.PostgreSQLAdapter object>, table=<Table usuario (id,nome,pin,email)>, fields=[(<gluon.dal.Field object>, 'fernando@ad2.com.br'), (<gluon.dal.Field object>, '2554'), (<gluon.dal.Field object>, 'Fernando')])"
p3648
sg3467
g3632
sasS'pyver'
p3649
S'Python 2.7.3: /usr/bin/python'
p3650
sS'session'
p3651
g61
(g62
g63
NtRp3652
(dp3653
g66
(dp3654
sg68
(lp3655
g61
(g70
g63
NtRp3656
(dp3657
g66
(dp3658
g74
I5
ssg75
Nsg68
(lp3659
sbasbsS'etype'
p3660
S"<class 'gluon.contrib.pg8000.errors.ProgrammingError'>"
p3661
sS'date'
p3662
S'Thu Apr  4 09:07:18 2013'
p3663
sS'response'
p3664
g61
(g62
g63
NtRp3665
(dp3666
g66
(dp3667
sg68
(lp3668
g61
(g70
g63
NtRp3669
(dp3670
g66
(dp3671
g74
I5
ssg75
Nsg68
(lp3672
g61
(g77
g63
NtRp3673
(dp3674
g66
(dp3675
sg75
g3669
sg68
(lp3676
g61
(g82
g63
NtRp3677
(dp3678
g66
(dp3679
g86
g87
ssg75
g3673
sg68
(lp3680
g185
asbag61
(g82
g63
NtRp3681
(dp3682
g66
(dp3683
g93
g94
ssg75
g3673
sg68
(lp3684
S':'
asbag61
(g82
g63
NtRp3685
(dp3686
g66
(dp3687
sg75
g3673
sg68
(lp3688
g61
(g62
g63
NtRp3689
(dp3690
g66
(dp3691
g74
I5
ssg75
g3685
sg68
(lp3692
S'<cStringIO.StringO object at 0x7fc5d8807b58>'
p3693
asbasbasbag61
(g77
g63
NtRp3694
(dp3695
g66
(dp3696
sg75
g3669
sg68
(lp3697
g61
(g82
g63
NtRp3698
(dp3699
g66
(dp3700
g86
g87
ssg75
g3694
sg68
(lp3701
g273
asbag61
(g82
g63
NtRp3702
(dp3703
g66
(dp3704
g93
g94
ssg75
g3694
sg68
(lp3705
S':'
asbag61
(g82
g63
NtRp3706
(dp3707
g66
(dp3708
sg75
g3694
sg68
(lp3709
g61
(g62
g63
NtRp3710
(dp3711
g66
(dp3712
g74
I5
ssg75
g3706
sg68
(lp3713
g61
(g70
g63
NtRp3714
(dp3715
g66
(dp3716
g74
I4
ssg75
Nsg68
(lp3717
g61
(g77
g63
NtRp3718
(dp3719
g66
(dp3720
sg75
g3714
sg68
(lp3721
g61
(g82
g63
NtRp3722
(dp3723
g66
(dp3724
g86
g87
ssg75
g3718
sg68
(lp3725
S'session_id_projeto'
p3726
asbag61
(g82
g63
NtRp3727
(dp3728
g66
(dp3729
g93
g94
ssg75
g3718
sg68
(lp3730
S':'
asbag61
(g82
g63
NtRp3731
(dp3732
g66
(dp3733
sg75
g3718
sg68
(lp3734
g61
(g62
g63
NtRp3735
(dp3736
g66
(dp3737
g74
I4
ssg75
g3731
sg68
(lp3738
g505
ag61
(g70
g63
NtRp3739
(dp3740
g66
(dp3741
g74
I3
ssg75
Nsg68
(lp3742
g61
(g77
g63
NtRp3743
(dp3744
g66
(dp3745
sg75
g3739
sg68
(lp3746
g61
(g82
g63
NtRp3747
(dp3748
g66
(dp3749
g86
g87
ssg75
g3743
sg68
(lp3750
g324
asbag61
(g82
g63
NtRp3751
(dp3752
g66
(dp3753
g93
g94
ssg75
g3743
sg68
(lp3754
S':'
asbag61
(g82
g63
NtRp3755
(dp3756
g66
(dp3757
sg75
g3743
sg68
(lp3758
g61
(g62
g63
NtRp3759
(dp3760
g66
(dp3761
g74
I3
ssg75
g3755
sg68
(lp3762
S''
asbasbasbag61
(g77
g63
NtRp3763
(dp3764
g66
(dp3765
sg75
g3739
sg68
(lp3766
g61
(g82
g63
NtRp3767
(dp3768
g66
(dp3769
g86
g87
ssg75
g3763
sg68
(lp3770
g345
asbag61
(g82
g63
NtRp3771
(dp3772
g66
(dp3773
g93
g94
ssg75
g3763
sg68
(lp3774
S':'
asbag61
(g82
g63
NtRp3775
(dp3776
g66
(dp3777
sg75
g3763
sg68
(lp3778
g61
(g62
g63
NtRp3779
(dp3780
g66
(dp3781
g74
I3
ssg75
g3775
sg68
(lp3782
S''
asbasbasbag61
(g77
g63
NtRp3783
(dp3784
g66
(dp3785
sg75
g3739
sg68
(lp3786
g61
(g82
g63
NtRp3787
(dp3788
g66
(dp3789
g86
g87
ssg75
g3783
sg68
(lp3790
g366
asbag61
(g82
g63
NtRp3791
(dp3792
g66
(dp3793
g93
g94
ssg75
g3783
sg68
(lp3794
S':'
asbag61
(g82
g63
NtRp3795
(dp3796
g66
(dp3797
sg75
g3783
sg68
(lp3798
g61
(g62
g63
NtRp3799
(dp3800
g66
(dp3801
g74
I3
ssg75
g3795
sg68
(lp3802
S''
asbasbasbag61
(g77
g63
NtRp3803
(dp3804
g66
(dp3805
sg75
g3739
sg68
(lp3806
g61
(g82
g63
NtRp3807
(dp3808
g66
(dp3809
g86
g87
ssg75
g3803
sg68
(lp3810
g387
asbag61
(g82
g63
NtRp3811
(dp3812
g66
(dp3813
g93
g94
ssg75
g3803
sg68
(lp3814
S':'
asbag61
(g82
g63
NtRp3815
(dp3816
g66
(dp3817
sg75
g3803
sg68
(lp3818
g61
(g62
g63
NtRp3819
(dp3820
g66
(dp3821
g74
I3
ssg75
g3815
sg68
(lp3822
S''
asbasbasbag61
(g77
g63
NtRp3823
(dp3824
g66
(dp3825
sg75
g3739
sg68
(lp3826
g61
(g82
g63
NtRp3827
(dp3828
g66
(dp3829
g86
g87
ssg75
g3823
sg68
(lp3830
g408
asbag61
(g82
g63
NtRp3831
(dp3832
g66
(dp3833
g93
g94
ssg75
g3823
sg68
(lp3834
S':'
asbag61
(g82
g63
NtRp3835
(dp3836
g66
(dp3837
sg75
g3823
sg68
(lp3838
g61
(g62
g63
NtRp3839
(dp3840
g66
(dp3841
g74
I3
ssg75
g3835
sg68
(lp3842
S''
asbasbasbag61
(g77
g63
NtRp3843
(dp3844
g66
(dp3845
sg75
g3739
sg68
(lp3846
g61
(g82
g63
NtRp3847
(dp3848
g66
(dp3849
g86
g87
ssg75
g3843
sg68
(lp3850
g429
asbag61
(g82
g63
NtRp3851
(dp3852
g66
(dp3853
g93
g94
ssg75
g3843
sg68
(lp3854
S':'
asbag61
(g82
g63
NtRp3855
(dp3856
g66
(dp3857
sg75
g3843
sg68
(lp3858
g61
(g62
g63
NtRp3859
(dp3860
g66
(dp3861
g74
I3
ssg75
g3855
sg68
(lp3862
S'/'
asbasbasbag61
(g77
g63
NtRp3863
(dp3864
g66
(dp3865
sg75
g3739
sg68
(lp3866
g61
(g82
g63
NtRp3867
(dp3868
g66
(dp3869
g86
g87
ssg75
g3863
sg68
(lp3870
g450
asbag61
(g82
g63
NtRp3871
(dp3872
g66
(dp3873
g93
g94
ssg75
g3863
sg68
(lp3874
S':'
asbag61
(g82
g63
NtRp3875
(dp3876
g66
(dp3877
sg75
g3863
sg68
(lp3878
g61
(g62
g63
NtRp3879
(dp3880
g66
(dp3881
g74
I3
ssg75
g3875
sg68
(lp3882
S''
asbasbasbag61
(g77
g63
NtRp3883
(dp3884
g66
(dp3885
sg75
g3739
sg68
(lp3886
g61
(g82
g63
NtRp3887
(dp3888
g66
(dp3889
g86
g87
ssg75
g3883
sg68
(lp3890
g471
asbag61
(g82
g63
NtRp3891
(dp3892
g66
(dp3893
g93
g94
ssg75
g3883
sg68
(lp3894
S':'
asbag61
(g82
g63
NtRp3895
(dp3896
g66
(dp3897
sg75
g3883
sg68
(lp3898
g61
(g62
g63
NtRp3899
(dp3900
g66
(dp3901
g74
I3
ssg75
g3895
sg68
(lp3902
S''
asbasbasbasbasbasbasbasbasbasbasbag61
(g77
g63
NtRp3903
(dp3904
g66
(dp3905
sg75
g3669
sg68
(lp3906
g61
(g82
g63
NtRp3907
(dp3908
g66
(dp3909
g86
g87
ssg75
g3903
sg68
(lp3910
S'delimiters'
p3911
asbag61
(g82
g63
NtRp3912
(dp3913
g66
(dp3914
g93
g94
ssg75
g3903
sg68
(lp3915
S':'
asbag61
(g82
g63
NtRp3916
(dp3917
g66
(dp3918
sg75
g3903
sg68
(lp3919
g61
(g62
g63
NtRp3920
(dp3921
g66
(dp3922
g74
I5
ssg75
g3916
sg68
(lp3923
g61
(g70
g63
NtRp3924
(dp3925
g66
(dp3926
g74
I4
ssg75
Nsg68
(lp3927
g61
(g77
g63
NtRp3928
(dp3929
g66
(dp3930
sg75
g3924
sg68
(lp3931
g61
(g82
g63
NtRp3932
(dp3933
g66
(dp3934
sg75
g3928
sg68
(lp3935
g61
(g62
g63
NtRp3936
(dp3937
g66
(dp3938
g74
I4
ssg75
g3932
sg68
(lp3939
S'{{'
p3940
asbasbasbag61
(g77
g63
NtRp3941
(dp3942
g66
(dp3943
sg75
g3924
sg68
(lp3944
g61
(g82
g63
NtRp3945
(dp3946
g66
(dp3947
sg75
g3941
sg68
(lp3948
g61
(g62
g63
NtRp3949
(dp3950
g66
(dp3951
g74
I4
ssg75
g3945
sg68
(lp3952
S'}}'
p3953
asbasbasbasbasbasbasbag61
(g77
g63
NtRp3954
(dp3955
g66
(dp3956
sg75
g3669
sg68
(lp3957
g61
(g82
g63
NtRp3958
(dp3959
g66
(dp3960
g86
g87
ssg75
g3954
sg68
(lp3961
S'files'
p3962
asbag61
(g82
g63
NtRp3963
(dp3964
g66
(dp3965
g93
g94
ssg75
g3954
sg68
(lp3966
S':'
asbag61
(g82
g63
NtRp3967
(dp3968
g66
(dp3969
sg75
g3954
sg68
(lp3970
g61
(g62
g63
NtRp3971
(dp3972
g66
(dp3973
g74
I5
ssg75
g3967
sg68
(lp3974
g61
(g70
g63
NtRp3975
(dp3976
g66
(dp3977
g74
I4
ssg75
Nsg68
(lp3978
sbasbasbasbag61
(g77
g63
NtRp3979
(dp3980
g66
(dp3981
sg75
g3669
sg68
(lp3982
g61
(g82
g63
NtRp3983
(dp3984
g66
(dp3985
g86
g87
ssg75
g3979
sg68
(lp3986
S'flash'
p3987
asbag61
(g82
g63
NtRp3988
(dp3989
g66
(dp3990
g93
g94
ssg75
g3979
sg68
(lp3991
S':'
asbag61
(g82
g63
NtRp3992
(dp3993
g66
(dp3994
sg75
g3979
sg68
(lp3995
g61
(g62
g63
NtRp3996
(dp3997
g66
(dp3998
g74
I5
ssg75
g3992
sg68
(lp3999
S''
asbasbasbag61
(g77
g63
NtRp4000
(dp4001
g66
(dp4002
sg75
g3669
sg68
(lp4003
g61
(g82
g63
NtRp4004
(dp4005
g66
(dp4006
g86
g87
ssg75
g4000
sg68
(lp4007
S'generic_patterns'
p4008
asbag61
(g82
g63
NtRp4009
(dp4010
g66
(dp4011
g93
g94
ssg75
g4000
sg68
(lp4012
S':'
asbag61
(g82
g63
NtRp4013
(dp4014
g66
(dp4015
sg75
g4000
sg68
(lp4016
g61
(g62
g63
NtRp4017
(dp4018
g66
(dp4019
g74
I5
ssg75
g4013
sg68
(lp4020
g61
(g70
g63
NtRp4021
(dp4022
g66
(dp4023
g74
I4
ssg75
Nsg68
(lp4024
g61
(g77
g63
NtRp4025
(dp4026
g66
(dp4027
sg75
g4021
sg68
(lp4028
g61
(g82
g63
NtRp4029
(dp4030
g66
(dp4031
sg75
g4025
sg68
(lp4032
g61
(g62
g63
NtRp4033
(dp4034
g66
(dp4035
g74
I4
ssg75
g4029
sg68
(lp4036
S'*'
asbasbasbasbasbasbasbag61
(g77
g63
NtRp4037
(dp4038
g66
(dp4039
sg75
g3669
sg68
(lp4040
g61
(g82
g63
NtRp4041
(dp4042
g66
(dp4043
g86
g87
ssg75
g4037
sg68
(lp4044
S'google_analytics_id'
p4045
asbag61
(g82
g63
NtRp4046
(dp4047
g66
(dp4048
g93
g94
ssg75
g4037
sg68
(lp4049
S':'
asbag61
(g82
g63
NtRp4050
(dp4051
g66
(dp4052
sg75
g4037
sg68
(lp4053
g61
(g62
g63
NtRp4054
(dp4055
g66
(dp4056
g74
I5
ssg75
g4050
sg68
(lp4057
S'None'
p4058
asbasbasbag61
(g77
g63
NtRp4059
(dp4060
g66
(dp4061
sg75
g3669
sg68
(lp4062
g61
(g82
g63
NtRp4063
(dp4064
g66
(dp4065
g86
g87
ssg75
g4059
sg68
(lp4066
S'headers'
p4067
asbag61
(g82
g63
NtRp4068
(dp4069
g66
(dp4070
g93
g94
ssg75
g4059
sg68
(lp4071
S':'
asbag61
(g82
g63
NtRp4072
(dp4073
g66
(dp4074
sg75
g4059
sg68
(lp4075
g61
(g62
g63
NtRp4076
(dp4077
g66
(dp4078
g74
I5
ssg75
g4072
sg68
(lp4079
g61
(g70
g63
NtRp4080
(dp4081
g66
(dp4082
g74
I4
ssg75
Nsg68
(lp4083
g61
(g77
g63
NtRp4084
(dp4085
g66
(dp4086
sg75
g4080
sg68
(lp4087
g61
(g82
g63
NtRp4088
(dp4089
g66
(dp4090
g86
g87
ssg75
g4084
sg68
(lp4091
S'X-Powered-By'
p4092
asbag61
(g82
g63
NtRp4093
(dp4094
g66
(dp4095
g93
g94
ssg75
g4084
sg68
(lp4096
S':'
asbag61
(g82
g63
NtRp4097
(dp4098
g66
(dp4099
sg75
g4084
sg68
(lp4100
g61
(g62
g63
NtRp4101
(dp4102
g66
(dp4103
g74
I4
ssg75
g4097
sg68
(lp4104
S'web2py'
p4105
asbasbasbasbasbasbasbag61
(g77
g63
NtRp4106
(dp4107
g66
(dp4108
sg75
g3669
sg68
(lp4109
g61
(g82
g63
NtRp4110
(dp4111
g66
(dp4112
g86
g87
ssg75
g4106
sg68
(lp4113
S'logo'
p4114
asbag61
(g82
g63
NtRp4115
(dp4116
g66
(dp4117
g93
g94
ssg75
g4106
sg68
(lp4118
S':'
asbag61
(g82
g63
NtRp4119
(dp4120
g66
(dp4121
sg75
g4106
sg68
(lp4122
g61
(g62
g63
NtRp4123
(dp4124
g66
(dp4125
g74
I5
ssg75
g4119
sg68
(lp4126
g61
(cgluon.html
A
p4127
g63
NtRp4128
(dp4129
g66
(dp4130
S'_class'
p4131
S'brand'
p4132
sS'_href'
p4133
g1932
ssg75
Nsg68
(lp4134
g61
(cgluon.html
B
p4135
g63
NtRp4136
(dp4137
g66
(dp4138
sg75
g4128
sg68
(lp4139
S'hosts'
p4140
ag61
(cgluon.html
SPAN
p4141
g63
NtRp4142
(dp4143
g66
(dp4144
sg75
g4136
sg68
(lp4145
S'3'
asbaS''
asbacgluon.html
XML_unpickle
p4146
(S's\r\x00\x00\x00&trade;&nbsp;'
tRp4147
asbasbasbasbag61
(g77
g63
NtRp4148
(dp4149
g66
(dp4150
sg75
g3669
sg68
(lp4151
g61
(g82
g63
NtRp4152
(dp4153
g66
(dp4154
g86
g87
ssg75
g4148
sg68
(lp4155
S'menu'
p4156
asbag61
(g82
g63
NtRp4157
(dp4158
g66
(dp4159
g93
g94
ssg75
g4148
sg68
(lp4160
S':'
asbag61
(g82
g63
NtRp4161
(dp4162
g66
(dp4163
sg75
g4148
sg68
(lp4164
g61
(g62
g63
NtRp4165
(dp4166
g66
(dp4167
g74
I5
ssg75
g4161
sg68
(lp4168
g61
(g70
g63
NtRp4169
(dp4170
g66
(dp4171
g74
I4
ssg75
Nsg68
(lp4172
g61
(g77
g63
NtRp4173
(dp4174
g66
(dp4175
sg75
g4169
sg68
(lp4176
g61
(g82
g63
NtRp4177
(dp4178
g66
(dp4179
sg75
g4173
sg68
(lp4180
g61
(g62
g63
NtRp4181
(dp4182
g66
(dp4183
g74
I4
ssg75
g4177
sg68
(lp4184
g61
(g70
g63
NtRp4185
(dp4186
g66
(dp4187
g74
I3
ssg75
Nsg68
(lp4188
g61
(g77
g63
NtRp4189
(dp4190
g66
(dp4191
sg75
g4185
sg68
(lp4192
g61
(g82
g63
NtRp4193
(dp4194
g66
(dp4195
sg75
g4189
sg68
(lp4196
g61
(g62
g63
NtRp4197
(dp4198
g66
(dp4199
g74
I3
ssg75
g4193
sg68
(lp4200
cgluon.languages
lazyT_unpickle
p4201
(S't\x08\x00\x00\x00Clientes'
tRp4202
asbasbasbag61
(g77
g63
NtRp4203
(dp4204
g66
(dp4205
sg75
g4185
sg68
(lp4206
g61
(g82
g63
NtRp4207
(dp4208
g66
(dp4209
sg75
g4203
sg68
(lp4210
g61
(g62
g63
NtRp4211
(dp4212
g66
(dp4213
g74
I3
ssg75
g4207
sg68
(lp4214
g104
asbasbasbag61
(g77
g63
NtRp4215
(dp4216
g66
(dp4217
sg75
g4185
sg68
(lp4218
g61
(g82
g63
NtRp4219
(dp4220
g66
(dp4221
sg75
g4215
sg68
(lp4222
g61
(g62
g63
NtRp4223
(dp4224
g66
(dp4225
g74
I3
ssg75
g4219
sg68
(lp4226
S'/show_cliente'
p4227
asbasbasbag61
(g77
g63
NtRp4228
(dp4229
g66
(dp4230
sg75
g4185
sg68
(lp4231
g61
(g82
g63
NtRp4232
(dp4233
g66
(dp4234
sg75
g4228
sg68
(lp4235
g61
(g62
g63
NtRp4236
(dp4237
g66
(dp4238
g74
I3
ssg75
g4232
sg68
(lp4239
g61
(g70
g63
NtRp4240
(dp4241
g66
(dp4242
g74
I2
ssg75
Nsg68
(lp4243
sbasbasbasbasbasbasbasbag61
(g77
g63
NtRp4244
(dp4245
g66
(dp4246
sg75
g4169
sg68
(lp4247
g61
(g82
g63
NtRp4248
(dp4249
g66
(dp4250
sg75
g4244
sg68
(lp4251
g61
(g62
g63
NtRp4252
(dp4253
g66
(dp4254
g74
I4
ssg75
g4248
sg68
(lp4255
g61
(g70
g63
NtRp4256
(dp4257
g66
(dp4258
g74
I3
ssg75
Nsg68
(lp4259
g61
(g77
g63
NtRp4260
(dp4261
g66
(dp4262
sg75
g4256
sg68
(lp4263
g61
(g82
g63
NtRp4264
(dp4265
g66
(dp4266
sg75
g4260
sg68
(lp4267
g61
(g62
g63
NtRp4268
(dp4269
g66
(dp4270
g74
I3
ssg75
g4264
sg68
(lp4271
g4201
(S't\n\x00\x00\x00Servidores'
tRp4272
asbasbasbag61
(g77
g63
NtRp4273
(dp4274
g66
(dp4275
sg75
g4256
sg68
(lp4276
g61
(g82
g63
NtRp4277
(dp4278
g66
(dp4279
sg75
g4273
sg68
(lp4280
g61
(g62
g63
NtRp4281
(dp4282
g66
(dp4283
g74
I3
ssg75
g4277
sg68
(lp4284
g104
asbasbasbag61
(g77
g63
NtRp4285
(dp4286
g66
(dp4287
sg75
g4256
sg68
(lp4288
g61
(g82
g63
NtRp4289
(dp4290
g66
(dp4291
sg75
g4285
sg68
(lp4292
g61
(g62
g63
NtRp4293
(dp4294
g66
(dp4295
g74
I3
ssg75
g4289
sg68
(lp4296
S'/show_servidor'
p4297
asbasbasbag61
(g77
g63
NtRp4298
(dp4299
g66
(dp4300
sg75
g4256
sg68
(lp4301
g61
(g82
g63
NtRp4302
(dp4303
g66
(dp4304
sg75
g4298
sg68
(lp4305
g61
(g62
g63
NtRp4306
(dp4307
g66
(dp4308
g74
I3
ssg75
g4302
sg68
(lp4309
g61
(g70
g63
NtRp4310
(dp4311
g66
(dp4312
g74
I2
ssg75
Nsg68
(lp4313
sbasbasbasbasbasbasbasbag61
(g77
g63
NtRp4314
(dp4315
g66
(dp4316
sg75
g4169
sg68
(lp4317
g61
(g82
g63
NtRp4318
(dp4319
g66
(dp4320
sg75
g4314
sg68
(lp4321
g61
(g62
g63
NtRp4322
(dp4323
g66
(dp4324
g74
I4
ssg75
g4318
sg68
(lp4325
g61
(g70
g63
NtRp4326
(dp4327
g66
(dp4328
g74
I3
ssg75
Nsg68
(lp4329
g61
(g77
g63
NtRp4330
(dp4331
g66
(dp4332
sg75
g4326
sg68
(lp4333
g61
(g82
g63
NtRp4334
(dp4335
g66
(dp4336
sg75
g4330
sg68
(lp4337
g61
(g62
g63
NtRp4338
(dp4339
g66
(dp4340
g74
I3
ssg75
g4334
sg68
(lp4341
g4201
(S't\x07\x00\x00\x00Distros'
tRp4342
asbasbasbag61
(g77
g63
NtRp4343
(dp4344
g66
(dp4345
sg75
g4326
sg68
(lp4346
g61
(g82
g63
NtRp4347
(dp4348
g66
(dp4349
sg75
g4343
sg68
(lp4350
g61
(g62
g63
NtRp4351
(dp4352
g66
(dp4353
g74
I3
ssg75
g4347
sg68
(lp4354
g104
asbasbasbag61
(g77
g63
NtRp4355
(dp4356
g66
(dp4357
sg75
g4326
sg68
(lp4358
g61
(g82
g63
NtRp4359
(dp4360
g66
(dp4361
sg75
g4355
sg68
(lp4362
g61
(g62
g63
NtRp4363
(dp4364
g66
(dp4365
g74
I3
ssg75
g4359
sg68
(lp4366
S'/show_distro'
p4367
asbasbasbag61
(g77
g63
NtRp4368
(dp4369
g66
(dp4370
sg75
g4326
sg68
(lp4371
g61
(g82
g63
NtRp4372
(dp4373
g66
(dp4374
sg75
g4368
sg68
(lp4375
g61
(g62
g63
NtRp4376
(dp4377
g66
(dp4378
g74
I3
ssg75
g4372
sg68
(lp4379
g61
(g70
g63
NtRp4380
(dp4381
g66
(dp4382
g74
I2
ssg75
Nsg68
(lp4383
sbasbasbasbasbasbasbasbag61
(g77
g63
NtRp4384
(dp4385
g66
(dp4386
sg75
g4169
sg68
(lp4387
g61
(g82
g63
NtRp4388
(dp4389
g66
(dp4390
sg75
g4384
sg68
(lp4391
g61
(g62
g63
NtRp4392
(dp4393
g66
(dp4394
g74
I4
ssg75
g4388
sg68
(lp4395
g61
(g70
g63
NtRp4396
(dp4397
g66
(dp4398
g74
I3
ssg75
Nsg68
(lp4399
g61
(g77
g63
NtRp4400
(dp4401
g66
(dp4402
sg75
g4396
sg68
(lp4403
g61
(g82
g63
NtRp4404
(dp4405
g66
(dp4406
sg75
g4400
sg68
(lp4407
g61
(g62
g63
NtRp4408
(dp4409
g66
(dp4410
g74
I3
ssg75
g4404
sg68
(lp4411
g4201
(S's\x05\x00\x00\x00+host'
tRp4412
asbasbasbag61
(g77
g63
NtRp4413
(dp4414
g66
(dp4415
sg75
g4396
sg68
(lp4416
g61
(g82
g63
NtRp4417
(dp4418
g66
(dp4419
sg75
g4413
sg68
(lp4420
g61
(g62
g63
NtRp4421
(dp4422
g66
(dp4423
g74
I3
ssg75
g4417
sg68
(lp4424
g104
asbasbasbag61
(g77
g63
NtRp4425
(dp4426
g66
(dp4427
sg75
g4396
sg68
(lp4428
g61
(g82
g63
NtRp4429
(dp4430
g66
(dp4431
sg75
g4425
sg68
(lp4432
g61
(g62
g63
NtRp4433
(dp4434
g66
(dp4435
g74
I3
ssg75
g4429
sg68
(lp4436
S'/interface'
p4437
asbasbasbag61
(g77
g63
NtRp4438
(dp4439
g66
(dp4440
sg75
g4396
sg68
(lp4441
g61
(g82
g63
NtRp4442
(dp4443
g66
(dp4444
sg75
g4438
sg68
(lp4445
g61
(g62
g63
NtRp4446
(dp4447
g66
(dp4448
g74
I3
ssg75
g4442
sg68
(lp4449
g61
(g70
g63
NtRp4450
(dp4451
g66
(dp4452
g74
I2
ssg75
Nsg68
(lp4453
sbasbasbasbasbasbasbasbasbasbasbasbag61
(g77
g63
NtRp4454
(dp4455
g66
(dp4456
sg75
g3669
sg68
(lp4457
g61
(g82
g63
NtRp4458
(dp4459
g66
(dp4460
g86
g87
ssg75
g4454
sg68
(lp4461
S'menu2'
p4462
asbag61
(g82
g63
NtRp4463
(dp4464
g66
(dp4465
g93
g94
ssg75
g4454
sg68
(lp4466
S':'
asbag61
(g82
g63
NtRp4467
(dp4468
g66
(dp4469
sg75
g4454
sg68
(lp4470
g61
(g62
g63
NtRp4471
(dp4472
g66
(dp4473
g74
I5
ssg75
g4467
sg68
(lp4474
g61
(g70
g63
NtRp4475
(dp4476
g66
(dp4477
g74
I4
ssg75
Nsg68
(lp4478
g61
(g77
g63
NtRp4479
(dp4480
g66
(dp4481
sg75
g4475
sg68
(lp4482
g61
(g82
g63
NtRp4483
(dp4484
g66
(dp4485
sg75
g4479
sg68
(lp4486
g61
(g62
g63
NtRp4487
(dp4488
g66
(dp4489
g74
I4
ssg75
g4483
sg68
(lp4490
g61
(g70
g63
NtRp4491
(dp4492
g66
(dp4493
g74
I3
ssg75
Nsg68
(lp4494
g61
(g77
g63
NtRp4495
(dp4496
g66
(dp4497
sg75
g4491
sg68
(lp4498
g61
(g82
g63
NtRp4499
(dp4500
g66
(dp4501
sg75
g4495
sg68
(lp4502
g61
(g62
g63
NtRp4503
(dp4504
g66
(dp4505
g74
I3
ssg75
g4499
sg68
(lp4506
g61
(g4141
g63
NtRp4507
(dp4508
g66
(dp4509
g4131
S'dropdown-toggle'
p4510
ssg75
Nsg68
(lp4511
S'Admin'
p4512
asbasbasbasbag61
(g77
g63
NtRp4513
(dp4514
g66
(dp4515
sg75
g4491
sg68
(lp4516
g61
(g82
g63
NtRp4517
(dp4518
g66
(dp4519
sg75
g4513
sg68
(lp4520
g61
(g62
g63
NtRp4521
(dp4522
g66
(dp4523
g74
I3
ssg75
g4517
sg68
(lp4524
g104
asbasbasbag61
(g77
g63
NtRp4525
(dp4526
g66
(dp4527
sg75
g4491
sg68
(lp4528
g61
(g82
g63
NtRp4529
(dp4530
g66
(dp4531
sg75
g4525
sg68
(lp4532
g61
(g62
g63
NtRp4533
(dp4534
g66
(dp4535
g74
I3
ssg75
g4529
sg68
(lp4536
S'#'
asbasbasbag61
(g77
g63
NtRp4537
(dp4538
g66
(dp4539
sg75
g4491
sg68
(lp4540
g61
(g82
g63
NtRp4541
(dp4542
g66
(dp4543
sg75
g4537
sg68
(lp4544
g61
(g62
g63
NtRp4545
(dp4546
g66
(dp4547
g74
I3
ssg75
g4541
sg68
(lp4548
g61
(g70
g63
NtRp4549
(dp4550
g66
(dp4551
g74
I2
ssg75
Nsg68
(lp4552
g61
(g77
g63
NtRp4553
(dp4554
g66
(dp4555
sg75
g4549
sg68
(lp4556
g61
(g82
g63
NtRp4557
(dp4558
g66
(dp4559
sg75
g4553
sg68
(lp4560
g61
(g62
g63
NtRp4561
(dp4562
g66
(dp4563
g74
I2
ssg75
g4557
sg68
(lp4564
g61
(g70
g63
NtRp4565
(dp4566
g66
(dp4567
g74
I1
ssg75
Nsg68
(lp4568
g61
(g77
g63
NtRp4569
(dp4570
g66
(dp4571
sg75
g4565
sg68
(lp4572
g61
(g82
g63
NtRp4573
(dp4574
g66
(dp4575
sg75
g4569
sg68
(lp4576
g61
(g62
g63
NtRp4577
(dp4578
g66
(dp4579
g74
I1
ssg75
g4573
sg68
(lp4580
g4201
(S's\t\x00\x00\x00Usu\xc3\xa1rios'
tRp4581
asbasbasbag61
(g77
g63
NtRp4582
(dp4583
g66
(dp4584
sg75
g4565
sg68
(lp4585
g61
(g82
g63
NtRp4586
(dp4587
g66
(dp4588
sg75
g4582
sg68
(lp4589
g61
(g62
g63
NtRp4590
(dp4591
g66
(dp4592
g74
I1
ssg75
g4586
sg68
(lp4593
I00
asbasbasbag61
(g77
g63
NtRp4594
(dp4595
g66
(dp4596
sg75
g4565
sg68
(lp4597
g61
(g82
g63
NtRp4598
(dp4599
g66
(dp4600
sg75
g4594
sg68
(lp4601
g61
(g62
g63
NtRp4602
(dp4603
g66
(dp4604
g74
I1
ssg75
g4598
sg68
(lp4605
S'/manager/users'
p4606
asbasbasbasbasbasbasbag61
(g77
g63
NtRp4607
(dp4608
g66
(dp4609
sg75
g4549
sg68
(lp4610
g61
(g82
g63
NtRp4611
(dp4612
g66
(dp4613
sg75
g4607
sg68
(lp4614
g61
(g62
g63
NtRp4615
(dp4616
g66
(dp4617
g74
I2
ssg75
g4611
sg68
(lp4618
g61
(g70
g63
NtRp4619
(dp4620
g66
(dp4621
g74
I1
ssg75
Nsg68
(lp4622
g61
(g77
g63
NtRp4623
(dp4624
g66
(dp4625
sg75
g4619
sg68
(lp4626
g61
(g82
g63
NtRp4627
(dp4628
g66
(dp4629
sg75
g4623
sg68
(lp4630
g61
(g62
g63
NtRp4631
(dp4632
g66
(dp4633
g74
I1
ssg75
g4627
sg68
(lp4634
g4201
(S't\x06\x00\x00\x00Grupos'
tRp4635
asbasbasbag61
(g77
g63
NtRp4636
(dp4637
g66
(dp4638
sg75
g4619
sg68
(lp4639
g61
(g82
g63
NtRp4640
(dp4641
g66
(dp4642
sg75
g4636
sg68
(lp4643
g61
(g62
g63
NtRp4644
(dp4645
g66
(dp4646
g74
I1
ssg75
g4640
sg68
(lp4647
I00
asbasbasbag61
(g77
g63
NtRp4648
(dp4649
g66
(dp4650
sg75
g4619
sg68
(lp4651
g61
(g82
g63
NtRp4652
(dp4653
g66
(dp4654
sg75
g4648
sg68
(lp4655
g61
(g62
g63
NtRp4656
(dp4657
g66
(dp4658
g74
I1
ssg75
g4652
sg68
(lp4659
S'/manager/groups'
p4660
asbasbasbasbasbasbasbag61
(g77
g63
NtRp4661
(dp4662
g66
(dp4663
sg75
g4549
sg68
(lp4664
g61
(g82
g63
NtRp4665
(dp4666
g66
(dp4667
sg75
g4661
sg68
(lp4668
g61
(g62
g63
NtRp4669
(dp4670
g66
(dp4671
g74
I2
ssg75
g4665
sg68
(lp4672
g61
(g70
g63
NtRp4673
(dp4674
g66
(dp4675
g74
I1
ssg75
Nsg68
(lp4676
g61
(g77
g63
NtRp4677
(dp4678
g66
(dp4679
sg75
g4673
sg68
(lp4680
g61
(g82
g63
NtRp4681
(dp4682
g66
(dp4683
sg75
g4677
sg68
(lp4684
g61
(g62
g63
NtRp4685
(dp4686
g66
(dp4687
g74
I1
ssg75
g4681
sg68
(lp4688
g4201
(S't\x07\x00\x00\x00Membros'
tRp4689
asbasbasbag61
(g77
g63
NtRp4690
(dp4691
g66
(dp4692
sg75
g4673
sg68
(lp4693
g61
(g82
g63
NtRp4694
(dp4695
g66
(dp4696
sg75
g4690
sg68
(lp4697
g61
(g62
g63
NtRp4698
(dp4699
g66
(dp4700
g74
I1
ssg75
g4694
sg68
(lp4701
I00
asbasbasbag61
(g77
g63
NtRp4702
(dp4703
g66
(dp4704
sg75
g4673
sg68
(lp4705
g61
(g82
g63
NtRp4706
(dp4707
g66
(dp4708
sg75
g4702
sg68
(lp4709
g61
(g62
g63
NtRp4710
(dp4711
g66
(dp4712
g74
I1
ssg75
g4706
sg68
(lp4713
S'/manager/membership'
p4714
asbasbasbasbasbasbasbasbasbasbasbasbasbasbasbag61
(g77
g63
NtRp4715
(dp4716
g66
(dp4717
sg75
g4475
sg68
(lp4718
g61
(g82
g63
NtRp4719
(dp4720
g66
(dp4721
sg75
g4715
sg68
(lp4722
g61
(g62
g63
NtRp4723
(dp4724
g66
(dp4725
g74
I4
ssg75
g4719
sg68
(lp4726
g61
(g70
g63
NtRp4727
(dp4728
g66
(dp4729
g74
I3
ssg75
Nsg68
(lp4730
g61
(g77
g63
NtRp4731
(dp4732
g66
(dp4733
sg75
g4727
sg68
(lp4734
g61
(g82
g63
NtRp4735
(dp4736
g66
(dp4737
sg75
g4731
sg68
(lp4738
g61
(g62
g63
NtRp4739
(dp4740
g66
(dp4741
g74
I3
ssg75
g4735
sg68
(lp4742
g61
(g4141
g63
NtRp4743
(dp4744
g66
(dp4745
g4131
g4510
ssg75
Nsg68
(lp4746
S'Login'
p4747
asbasbasbasbag61
(g77
g63
NtRp4748
(dp4749
g66
(dp4750
sg75
g4727
sg68
(lp4751
g61
(g82
g63
NtRp4752
(dp4753
g66
(dp4754
sg75
g4748
sg68
(lp4755
g61
(g62
g63
NtRp4756
(dp4757
g66
(dp4758
g74
I3
ssg75
g4752
sg68
(lp4759
g104
asbasbasbag61
(g77
g63
NtRp4760
(dp4761
g66
(dp4762
sg75
g4727
sg68
(lp4763
g61
(g82
g63
NtRp4764
(dp4765
g66
(dp4766
sg75
g4760
sg68
(lp4767
g61
(g62
g63
NtRp4768
(dp4769
g66
(dp4770
g74
I3
ssg75
g4764
sg68
(lp4771
S'#'
asbasbasbag61
(g77
g63
NtRp4772
(dp4773
g66
(dp4774
sg75
g4727
sg68
(lp4775
g61
(g82
g63
NtRp4776
(dp4777
g66
(dp4778
sg75
g4772
sg68
(lp4779
g61
(g62
g63
NtRp4780
(dp4781
g66
(dp4782
g74
I3
ssg75
g4776
sg68
(lp4783
g61
(g70
g63
NtRp4784
(dp4785
g66
(dp4786
g74
I2
ssg75
Nsg68
(lp4787
g61
(g77
g63
NtRp4788
(dp4789
g66
(dp4790
sg75
g4784
sg68
(lp4791
g61
(g82
g63
NtRp4792
(dp4793
g66
(dp4794
sg75
g4788
sg68
(lp4795
g61
(g62
g63
NtRp4796
(dp4797
g66
(dp4798
g74
I2
ssg75
g4792
sg68
(lp4799
g61
(g70
g63
NtRp4800
(dp4801
g66
(dp4802
g74
I1
ssg75
Nsg68
(lp4803
g61
(g77
g63
NtRp4804
(dp4805
g66
(dp4806
sg75
g4800
sg68
(lp4807
g61
(g82
g63
NtRp4808
(dp4809
g66
(dp4810
sg75
g4804
sg68
(lp4811
g61
(g62
g63
NtRp4812
(dp4813
g66
(dp4814
g74
I1
ssg75
g4808
sg68
(lp4815
g4201
(S't\x06\x00\x00\x00Logout'
tRp4816
asbasbasbag61
(g77
g63
NtRp4817
(dp4818
g66
(dp4819
sg75
g4800
sg68
(lp4820
g61
(g82
g63
NtRp4821
(dp4822
g66
(dp4823
sg75
g4817
sg68
(lp4824
g61
(g62
g63
NtRp4825
(dp4826
g66
(dp4827
g74
I1
ssg75
g4821
sg68
(lp4828
I00
asbasbasbag61
(g77
g63
NtRp4829
(dp4830
g66
(dp4831
sg75
g4800
sg68
(lp4832
g61
(g82
g63
NtRp4833
(dp4834
g66
(dp4835
sg75
g4829
sg68
(lp4836
g61
(g62
g63
NtRp4837
(dp4838
g66
(dp4839
g74
I1
ssg75
g4833
sg68
(lp4840
S'/initial/user/logout'
p4841
asbasbasbasbasbasbasbasbasbasbasbasbasbasbasbasbasbasbasbag61
(g77
g63
NtRp4842
(dp4843
g66
(dp4844
sg75
g3669
sg68
(lp4845
g61
(g82
g63
NtRp4846
(dp4847
g66
(dp4848
g86
g87
ssg75
g4842
sg68
(lp4849
S'meta'
p4850
asbag61
(g82
g63
NtRp4851
(dp4852
g66
(dp4853
g93
g94
ssg75
g4842
sg68
(lp4854
S':'
asbag61
(g82
g63
NtRp4855
(dp4856
g66
(dp4857
sg75
g4842
sg68
(lp4858
g61
(g62
g63
NtRp4859
(dp4860
g66
(dp4861
g74
I5
ssg75
g4855
sg68
(lp4862
g61
(g70
g63
NtRp4863
(dp4864
g66
(dp4865
g74
I4
ssg75
Nsg68
(lp4866
g61
(g77
g63
NtRp4867
(dp4868
g66
(dp4869
sg75
g4863
sg68
(lp4870
g61
(g82
g63
NtRp4871
(dp4872
g66
(dp4873
g86
g87
ssg75
g4867
sg68
(lp4874
S'author'
p4875
asbag61
(g82
g63
NtRp4876
(dp4877
g66
(dp4878
g93
g94
ssg75
g4867
sg68
(lp4879
S':'
asbag61
(g82
g63
NtRp4880
(dp4881
g66
(dp4882
sg75
g4867
sg68
(lp4883
g61
(g62
g63
NtRp4884
(dp4885
g66
(dp4886
g74
I4
ssg75
g4880
sg68
(lp4887
S'Your Name <you@example.com>'
p4888
asbasbasbag61
(g77
g63
NtRp4889
(dp4890
g66
(dp4891
sg75
g4863
sg68
(lp4892
g61
(g82
g63
NtRp4893
(dp4894
g66
(dp4895
g86
g87
ssg75
g4889
sg68
(lp4896
S'description'
p4897
asbag61
(g82
g63
NtRp4898
(dp4899
g66
(dp4900
g93
g94
ssg75
g4889
sg68
(lp4901
S':'
asbag61
(g82
g63
NtRp4902
(dp4903
g66
(dp4904
sg75
g4889
sg68
(lp4905
g61
(g62
g63
NtRp4906
(dp4907
g66
(dp4908
g74
I4
ssg75
g4902
sg68
(lp4909
S'a cool new app'
p4910
asbasbasbag61
(g77
g63
NtRp4911
(dp4912
g66
(dp4913
sg75
g4863
sg68
(lp4914
g61
(g82
g63
NtRp4915
(dp4916
g66
(dp4917
g86
g87
ssg75
g4911
sg68
(lp4918
S'generator'
p4919
asbag61
(g82
g63
NtRp4920
(dp4921
g66
(dp4922
g93
g94
ssg75
g4911
sg68
(lp4923
S':'
asbag61
(g82
g63
NtRp4924
(dp4925
g66
(dp4926
sg75
g4911
sg68
(lp4927
g61
(g62
g63
NtRp4928
(dp4929
g66
(dp4930
g74
I4
ssg75
g4924
sg68
(lp4931
S'Web2py Web Framework'
p4932
asbasbasbag61
(g77
g63
NtRp4933
(dp4934
g66
(dp4935
sg75
g4863
sg68
(lp4936
g61
(g82
g63
NtRp4937
(dp4938
g66
(dp4939
g86
g87
ssg75
g4933
sg68
(lp4940
S'keywords'
p4941
asbag61
(g82
g63
NtRp4942
(dp4943
g66
(dp4944
g93
g94
ssg75
g4933
sg68
(lp4945
S':'
asbag61
(g82
g63
NtRp4946
(dp4947
g66
(dp4948
sg75
g4933
sg68
(lp4949
g61
(g62
g63
NtRp4950
(dp4951
g66
(dp4952
g74
I4
ssg75
g4946
sg68
(lp4953
S'web2py, python, framework'
p4954
asbasbasbasbasbasbasbag61
(g77
g63
NtRp4955
(dp4956
g66
(dp4957
sg75
g3669
sg68
(lp4958
g61
(g82
g63
NtRp4959
(dp4960
g66
(dp4961
g86
g87
ssg75
g4955
sg68
(lp4962
S'models_to_run'
p4963
asbag61
(g82
g63
NtRp4964
(dp4965
g66
(dp4966
g93
g94
ssg75
g4955
sg68
(lp4967
S':'
asbag61
(g82
g63
NtRp4968
(dp4969
g66
(dp4970
sg75
g4955
sg68
(lp4971
g61
(g62
g63
NtRp4972
(dp4973
g66
(dp4974
g74
I5
ssg75
g4968
sg68
(lp4975
g61
(g70
g63
NtRp4976
(dp4977
g66
(dp4978
g74
I4
ssg75
Nsg68
(lp4979
g61
(g77
g63
NtRp4980
(dp4981
g66
(dp4982
sg75
g4976
sg68
(lp4983
g61
(g82
g63
NtRp4984
(dp4985
g66
(dp4986
sg75
g4980
sg68
(lp4987
g61
(g62
g63
NtRp4988
(dp4989
g66
(dp4990
g74
I4
ssg75
g4984
sg68
(lp4991
S'^\\w+\\.py$'
p4992
asbasbasbag61
(g77
g63
NtRp4993
(dp4994
g66
(dp4995
sg75
g4976
sg68
(lp4996
g61
(g82
g63
NtRp4997
(dp4998
g66
(dp4999
sg75
g4993
sg68
(lp5000
g61
(g62
g63
NtRp5001
(dp5002
g66
(dp5003
g74
I4
ssg75
g4997
sg68
(lp5004
S'^initial/\\w+\\.py$'
p5005
asbasbasbag61
(g77
g63
NtRp5006
(dp5007
g66
(dp5008
sg75
g4976
sg68
(lp5009
g61
(g82
g63
NtRp5010
(dp5011
g66
(dp5012
sg75
g5006
sg68
(lp5013
g61
(g62
g63
NtRp5014
(dp5015
g66
(dp5016
g74
I4
ssg75
g5010
sg68
(lp5017
S'^initial/principal/\\w+\\.py$'
p5018
asbasbasbasbasbasbasbag61
(g77
g63
NtRp5019
(dp5020
g66
(dp5021
sg75
g3669
sg68
(lp5022
g61
(g82
g63
NtRp5023
(dp5024
g66
(dp5025
g86
g87
ssg75
g5019
sg68
(lp5026
S'postprocessing'
p5027
asbag61
(g82
g63
NtRp5028
(dp5029
g66
(dp5030
g93
g94
ssg75
g5019
sg68
(lp5031
S':'
asbag61
(g82
g63
NtRp5032
(dp5033
g66
(dp5034
sg75
g5019
sg68
(lp5035
g61
(g62
g63
NtRp5036
(dp5037
g66
(dp5038
g74
I5
ssg75
g5032
sg68
(lp5039
g61
(g70
g63
NtRp5040
(dp5041
g66
(dp5042
g74
I4
ssg75
Nsg68
(lp5043
sbasbasbasbag61
(g77
g63
NtRp5044
(dp5045
g66
(dp5046
sg75
g3669
sg68
(lp5047
g61
(g82
g63
NtRp5048
(dp5049
g66
(dp5050
g86
g87
ssg75
g5044
sg68
(lp5051
S'session_cookie_expires'
p5052
asbag61
(g82
g63
NtRp5053
(dp5054
g66
(dp5055
g93
g94
ssg75
g5044
sg68
(lp5056
S':'
asbag61
(g82
g63
NtRp5057
(dp5058
g66
(dp5059
sg75
g5044
sg68
(lp5060
g61
(g62
g63
NtRp5061
(dp5062
g66
(dp5063
g74
I5
ssg75
g5057
sg68
(lp5064
S'None'
p5065
asbasbasbag61
(g77
g63
NtRp5066
(dp5067
g66
(dp5068
sg75
g3669
sg68
(lp5069
g61
(g82
g63
NtRp5070
(dp5071
g66
(dp5072
g86
g87
ssg75
g5066
sg68
(lp5073
S'session_data_name'
p5074
asbag61
(g82
g63
NtRp5075
(dp5076
g66
(dp5077
g93
g94
ssg75
g5066
sg68
(lp5078
S':'
asbag61
(g82
g63
NtRp5079
(dp5080
g66
(dp5081
sg75
g5066
sg68
(lp5082
g61
(g62
g63
NtRp5083
(dp5084
g66
(dp5085
g74
I5
ssg75
g5079
sg68
(lp5086
S'session_data_projeto'
p5087
asbasbasbag61
(g77
g63
NtRp5088
(dp5089
g66
(dp5090
sg75
g3669
sg68
(lp5091
g61
(g82
g63
NtRp5092
(dp5093
g66
(dp5094
g86
g87
ssg75
g5088
sg68
(lp5095
S'session_file'
p5096
asbag61
(g82
g63
NtRp5097
(dp5098
g66
(dp5099
g93
g94
ssg75
g5088
sg68
(lp5100
S':'
asbag61
(g82
g63
NtRp5101
(dp5102
g66
(dp5103
sg75
g5088
sg68
(lp5104
g61
(g62
g63
NtRp5105
(dp5106
g66
(dp5107
g74
I5
ssg75
g5101
sg68
(lp5108
S"<open file '/var/www/conferencia/applications/projeto/sessions/127.0.0.1-32b58d02-0b69-424e-9fa3-773b7f2f336f', mode 'rb+' at 0x7fc5d87e51e0>"
p5109
asbasbasbag61
(g77
g63
NtRp5110
(dp5111
g66
(dp5112
sg75
g3669
sg68
(lp5113
g61
(g82
g63
NtRp5114
(dp5115
g66
(dp5116
g86
g87
ssg75
g5110
sg68
(lp5117
S'session_filename'
p5118
asbag61
(g82
g63
NtRp5119
(dp5120
g66
(dp5121
g93
g94
ssg75
g5110
sg68
(lp5122
S':'
asbag61
(g82
g63
NtRp5123
(dp5124
g66
(dp5125
sg75
g5110
sg68
(lp5126
g61
(g62
g63
NtRp5127
(dp5128
g66
(dp5129
g74
I5
ssg75
g5123
sg68
(lp5130
S'/var/www/conferencia/applications/projeto/sessions/127.0.0.1-32b58d02-0b69-424e-9fa3-773b7f2f336f'
p5131
asbasbasbag61
(g77
g63
NtRp5132
(dp5133
g66
(dp5134
sg75
g3669
sg68
(lp5135
g61
(g82
g63
NtRp5136
(dp5137
g66
(dp5138
g86
g87
ssg75
g5132
sg68
(lp5139
S'session_id'
p5140
asbag61
(g82
g63
NtRp5141
(dp5142
g66
(dp5143
g93
g94
ssg75
g5132
sg68
(lp5144
S':'
asbag61
(g82
g63
NtRp5145
(dp5146
g66
(dp5147
sg75
g5132
sg68
(lp5148
g61
(g62
g63
NtRp5149
(dp5150
g66
(dp5151
g74
I5
ssg75
g5145
sg68
(lp5152
g505
asbasbasbag61
(g77
g63
NtRp5153
(dp5154
g66
(dp5155
sg75
g3669
sg68
(lp5156
g61
(g82
g63
NtRp5157
(dp5158
g66
(dp5159
g86
g87
ssg75
g5153
sg68
(lp5160
S'session_id_name'
p5161
asbag61
(g82
g63
NtRp5162
(dp5163
g66
(dp5164
g93
g94
ssg75
g5153
sg68
(lp5165
S':'
asbag61
(g82
g63
NtRp5166
(dp5167
g66
(dp5168
sg75
g5153
sg68
(lp5169
g61
(g62
g63
NtRp5170
(dp5171
g66
(dp5172
g74
I5
ssg75
g5166
sg68
(lp5173
g3726
asbasbasbag61
(g77
g63
NtRp5174
(dp5175
g66
(dp5176
sg75
g3669
sg68
(lp5177
g61
(g82
g63
NtRp5178
(dp5179
g66
(dp5180
g86
g87
ssg75
g5174
sg68
(lp5181
S'session_locked'
p5182
asbag61
(g82
g63
NtRp5183
(dp5184
g66
(dp5185
g93
g94
ssg75
g5174
sg68
(lp5186
S':'
asbag61
(g82
g63
NtRp5187
(dp5188
g66
(dp5189
sg75
g5174
sg68
(lp5190
g61
(g62
g63
NtRp5191
(dp5192
g66
(dp5193
g74
I5
ssg75
g5187
sg68
(lp5194
g1774
asbasbasbag61
(g77
g63
NtRp5195
(dp5196
g66
(dp5197
sg75
g3669
sg68
(lp5198
g61
(g82
g63
NtRp5199
(dp5200
g66
(dp5201
g86
g87
ssg75
g5195
sg68
(lp5202
S'session_new'
p5203
asbag61
(g82
g63
NtRp5204
(dp5205
g66
(dp5206
g93
g94
ssg75
g5195
sg68
(lp5207
S':'
asbag61
(g82
g63
NtRp5208
(dp5209
g66
(dp5210
sg75
g5195
sg68
(lp5211
g61
(g62
g63
NtRp5212
(dp5213
g66
(dp5214
g74
I5
ssg75
g5208
sg68
(lp5215
g104
asbasbasbag61
(g77
g63
NtRp5216
(dp5217
g66
(dp5218
sg75
g3669
sg68
(lp5219
g61
(g82
g63
NtRp5220
(dp5221
g66
(dp5222
g86
g87
ssg75
g5216
sg68
(lp5223
S'session_storage_type'
p5224
asbag61
(g82
g63
NtRp5225
(dp5226
g66
(dp5227
g93
g94
ssg75
g5216
sg68
(lp5228
S':'
asbag61
(g82
g63
NtRp5229
(dp5230
g66
(dp5231
sg75
g5216
sg68
(lp5232
g61
(g62
g63
NtRp5233
(dp5234
g66
(dp5235
g74
I5
ssg75
g5229
sg68
(lp5236
g3444
asbasbasbag61
(g77
g63
NtRp5237
(dp5238
g66
(dp5239
sg75
g3669
sg68
(lp5240
g61
(g82
g63
NtRp5241
(dp5242
g66
(dp5243
g86
g87
ssg75
g5237
sg68
(lp5244
S'status'
p5245
asbag61
(g82
g63
NtRp5246
(dp5247
g66
(dp5248
g93
g94
ssg75
g5237
sg68
(lp5249
S':'
asbag61
(g82
g63
NtRp5250
(dp5251
g66
(dp5252
sg75
g5237
sg68
(lp5253
g61
(g62
g63
NtRp5254
(dp5255
g66
(dp5256
g74
I5
ssg75
g5250
sg68
(lp5257
S'200'
p5258
asbasbasbag61
(g77
g63
NtRp5259
(dp5260
g66
(dp5261
sg75
g3669
sg68
(lp5262
g61
(g82
g63
NtRp5263
(dp5264
g66
(dp5265
g86
g87
ssg75
g5259
sg68
(lp5266
S'subtitle'
p5267
asbag61
(g82
g63
NtRp5268
(dp5269
g66
(dp5270
g93
g94
ssg75
g5259
sg68
(lp5271
S':'
asbag61
(g82
g63
NtRp5272
(dp5273
g66
(dp5274
sg75
g5259
sg68
(lp5275
g61
(g62
g63
NtRp5276
(dp5277
g66
(dp5278
g74
I5
ssg75
g5272
sg68
(lp5279
g4201
(S's\r\x00\x00\x00customize me!'
tRp5280
asbasbasbag61
(g77
g63
NtRp5281
(dp5282
g66
(dp5283
sg75
g3669
sg68
(lp5284
g61
(g82
g63
NtRp5285
(dp5286
g66
(dp5287
g86
g87
ssg75
g5281
sg68
(lp5288
S'title'
p5289
asbag61
(g82
g63
NtRp5290
(dp5291
g66
(dp5292
g93
g94
ssg75
g5281
sg68
(lp5293
S':'
asbag61
(g82
g63
NtRp5294
(dp5295
g66
(dp5296
sg75
g5281
sg68
(lp5297
g61
(g62
g63
NtRp5298
(dp5299
g66
(dp5300
g74
I5
ssg75
g5294
sg68
(lp5301
S'Usu\xc3\xa1rios'
p5302
asbasbasbag61
(g77
g63
NtRp5303
(dp5304
g66
(dp5305
sg75
g3669
sg68
(lp5306
g61
(g82
g63
NtRp5307
(dp5308
g66
(dp5309
g86
g87
ssg75
g5303
sg68
(lp5310
S'view'
p5311
asbag61
(g82
g63
NtRp5312
(dp5313
g66
(dp5314
g93
g94
ssg75
g5303
sg68
(lp5315
S':'
asbag61
(g82
g63
NtRp5316
(dp5317
g66
(dp5318
sg75
g5303
sg68
(lp5319
g61
(g62
g63
NtRp5320
(dp5321
g66
(dp5322
g74
I5
ssg75
g5316
sg68
(lp5323
S'initial/principal.html'
p5324
asbasbasbasbasbsS'locals'
p5325
(dp5326
S'query'
p5327
S'"INSERT INTO usuario(email,pin,nome) VALUES (\'fernando@ad2.com.br\',\'2554\',\'Fernando\');"'
p5328
sS'self'
p5329
S'<gluon.dal.PostgreSQLAdapter object>'
p5330
sS'e'
S'ProgrammingError(\'ERROR\', \'23505\', \'duplicate ke...e violates unique constraint "usuario_nome_key"\')'
p5331
sS'fields'
p5332
S"[(<gluon.dal.Field object>, 'fernando@ad2.com.br'), (<gluon.dal.Field object>, '2554'), (<gluon.dal.Field object>, 'Fernando')]"
p5333
sS'table'
p5334
S'<Table usuario (id,nome,pin,email)>'
p5335
sssS'traceback'
p5336
S'Traceback (most recent call last):\n  File "/var/www/conferencia/gluon/restricted.py", line 212, in restricted\n    exec ccode in environment\n  File "/var/www/conferencia/applications/projeto/controllers/initial.py", line 324, in <module>\n  File "/var/www/conferencia/gluon/globals.py", line 193, in <lambda>\n    self._caller = lambda f: f()\n  File "/var/www/conferencia/applications/projeto/controllers/initial.py", line 293, in principal\n    ignore_rw = True, maxtextlength=36,\n  File "/var/www/conferencia/gluon/sqlhtml.py", line 1881, in grid\n    onsuccess=oncreate)\n  File "/var/www/conferencia/gluon/html.py", line 2179, in process\n    self.validate(**kwargs)\n  File "/var/www/conferencia/gluon/html.py", line 2118, in validate\n    if self.accepts(**kwargs):\n  File "/var/www/conferencia/gluon/sqlhtml.py", line 1486, in accepts\n    self.vars.id = self.table.insert(**fields)\n  File "/var/www/conferencia/gluon/dal.py", line 7918, in insert\n    ret =  self._db._adapter.insert(self,self._listify(fields))\n  File "/var/www/conferencia/gluon/dal.py", line 1176, in insert\n    raise e\nProgrammingError: (\'ERROR\', \'23505\', \'duplicate key value violates unique constraint "usuario_nome_key"\')\n'
p5337
s.