(dp1
S'output'
p2
S"<type 'exceptions.IndentationError'> unexpected indent (initial.py, line 81)"
p3
sS'layer'
p4
S'/var/www/conferencia/applications/projeto/controllers/initial.py'
p5
sS'code'
p6
S'# coding: utf-8\n\ndef principal():\n\tresponse.title="Usu\xc3\xa1rios"\n\n\tgrid = SQLFORM.grid(db.usuario,\n\t\tuser_signature=False, searchable=True, csv=False, \n\t\tpaginate=50, details=False,  \n\t\tignore_rw = True, maxtextlength=36, \n    \t)\n\treturn response.render("initial/show_grid.html", grid=grid)\n\ndef show_cliente():\n\tresponse.title="Eventos"\n\n\tgrid = SQLFORM.grid(db.meetme, orderby=db.meetme.endtime,\n\t\tuser_signature=False, searchable=True, csv=False, \n\t\tpaginate=50, details=False,  \n\t\tignore_rw = True, maxtextlength=36,\n\t\tlinks=[lambda row: A(\'Editar\', \n    \t\t      _class=\'btn\', \n    \t\t      _title=\'Editar\', \n    \t\t      _href=URL("initial", "/edit_host", \n    \t\t      vars=dict(f=row.confno)))] \n    \t)\n\treturn response.render("initial/show_grid.html", grid=grid)\n\ndef show_servidor():\n\tresponse.title="Eventos"\n\tdata = request.now\n\n\tquery=(db.meetme.endtime > data) \n\tprint query\n\n\tgrid = SQLFORM.grid(query=query, orderby=db.meetme.endtime,\n\t\tuser_signature=False, searchable=True, editable=False,  \n\t\tpaginate=50, details=False, csv=False,\n\t\tignore_rw = True, maxtextlength=36,\n\t\tlinks=[lambda row: A(\'Editar\', \n    \t\t      _class=\'btn\', \n    \t\t      _title=\'Editar\', \n    \t\t      _href=URL("initial", "/edit_host", \n    \t\t      vars=dict(f=row.confno)))] \n    \t)\n\treturn response.render("initial/show_grid.html", grid=grid)\n\ndef interface():\n\t#adicionar\n    form = SQLFORM(db.meetme, submit_button=\'Adicionar\', \n    \t\t\tfields = [\'starttime\', \'endtime\', \'membros_user\', \n    \t\t\t\t\'admin_user\', \'gravacao\'], \n\t\t\t\tlabels = {\'starttime\':\'In\xc3\xadcio\', \'endtime\':\'Fim\', \n\t\t\t\t\'membros_user\':\'Membros\', \'admin_user\':\'Admins\', \'gravacao\':\'Grava\xc3\xa7\xc3\xa3o\'})\n   \n    if form.process().accepted:\n    \tevento = request.vars\n    \tconfno = form.vars.id\n    \temail(evento, confno)\n    \tresponse.flash = \'Inserido com sucesso\'\t\t\n    elif form.errors:\n       response.flash = \'Ops, algo n\xc3\xa3o est\xc3\xa1 correto\'\n    else:\n       response.flash = \'Insira os dados do novo host\'\n    return response.render("initial/show_form2.html", form=form)\n\ndef edit_host():\n    form = SQLFORM(db.meetme, request.vars[\'f\'], submit_button=\'Editar\')\n\n    if form.process().accepted:\n       response.flash = \'Editado com sucesso\'\n    elif form.errors:\n       response.flash = \'Ops, algo n\xc3\xa3o est\xc3\xa1 correto\'\n    else:\n       response.flash = \'Edite os dados do host\'\n\n    return response.render("initial/show_form2.html", form=form)\n\ndef email(evento, confno):\n\tprint evento \n\n\t\tmembros = evento.membros_user\n    \tfor a in membros:        \n   \t\t\tprint \'membro:\',a\n   \t\t\tteste = db.executesql(\'SELECT nome FROM usuario WHERE id = %s;\' %str(a))\n   \t\t\tprint  \'select:\',teste[0][0]\n   \t\t\tprint evento.starttime, evento.endtime, confno\n\n\n\t#if auth.has_membership(\'voip\'):\n\t#\tmail.send(\n\t#\t\tto="fndiaz02@gmail.com",\n\t#\t\tsubject="host adicionado",\n\t#\t\tmessage="<html>Um novo host foi adicionado pelo usu\xc3\xa1rio %s <br>nome: %s <br>vpn: %s<br><br>\xc3\x89 preciso fazer a instala\xc3\xa7\xc3\xa3o do client zabbix e bacula</html>" % (auth.user.first_name, host.nome, host.ip_chegada,)\n\t#\t\t)\n\t#elif auth.has_membership(\'internet\'):\n\t#\tmail.send(\n\t#\t\tto="fernando@ad2.com.br",\n\t#\t\tsubject="host adicionado",\n\t#\t\tmessage="<html>Um novo host foi adicionado pelo usu\xc3\xa1rio %s <br>nome: %s <br>vpn: %s<br><br>\xc3\x89 preciso fazer a instala\xc3\xa7\xc3\xa3o do client zabbix e bacula</html>" % (auth.user.first_name, host.nome, host.ip_chegada,)\n\t#\t\t)\n\n\n@auth.requires_login()\ndef show_distro():\n\tresponse.title="Distribui\xc3\xa7\xc3\xb5es"\n\n\tdb.args=Distro.id.readable=False\n\tdb.args=Distro.img.readable=False\n\tgrid = SQLFORM.grid(Distro,\n\t\tuser_signature=True, searchable=True, csv=False,\n\t\tpaginate=50, details=False, ignore_rw = True, \n\t\tmaxtextlength=26, links_placement=\'left\',\n\t\tcreate=auth.has_membership("admin"),\n\t\teditable=auth.has_membership("admin"),\n\t\tdeletable=auth.has_membership("admin"),  \n    \tlinks = [lambda row: A(\'hosts\', \n    \t\t_class=\'btn\', \n    \t\t_title=\'ver servidores\', \n    \t\t_href=URL("initial", "/distro_host", \n    \t\tvars=dict(f=row.id, n1=\'Distros\', p1=\'show_distro\'))), \n    \tdict(header=\'\',body=lambda row: A( IMG(_src=URL("static", "images", args=(row.img) ))))]\n\t\t)\n\treturn response.render("initial/show_grid.html", grid=grid)\n\n\n@auth.requires_login()\ndef cliente_host():\n\tfiltro = request.vars[\'f\']\n\tqueryset = db(db.cliente.id == filtro)\n\trows = queryset.select()\n\tcliente = rows[0]\n\tresponse.title = cliente.nome\n\tprint cliente\n\n\tnome_ant1 = request.vars[\'n1\']\n\tfuncao_ant1 = request.vars[\'p1\']\n\tnome_atual = cliente.nome\n\n\tquery = ((db.hosts.id_cliente == filtro) & (db.distro.id == db.hosts.id_distro))\n\tlinks = [dict(header=\'\',body=lambda row: A( IMG(_src=URL("static", "images", args=(row.distro.img)) ))), \n\t lambda row: A(\'Detalhes\', \n    \t\t      _class=\'btn\', \n    \t\t      _title=\'Detalhes\', \n    \t\t      _href=URL("initial", "/detalhes_nav", \n    \t\t      vars=dict(f=row.hosts.id, c=filtro, n=cliente.nome, \n    \t\t      \t\t\tn1=\'Clientes\', p1=\'show_cliente\', p=\'cliente_host\'))),\n\t lambda row: A(\'Editar\', \n    \t\t      _class=\'btn\', \n    \t\t      _title=\'Editar\', \n    \t\t      _href=URL("initial", "/edit_host", \n    \t\t      vars=dict(f=row.hosts.id, c=filtro, n=cliente.nome, \n    \t\t      \t\tn1=\'Clientes\', p1=\'show_cliente\', p=\'cliente_host\')))]\n\tdb.hosts.id.readable=False\n\tdb.distro.img.readable=False\n\t\n\tfields = (db.hosts.id, db.hosts.id_servidor, db.hosts.id_distro, db.distro.img, \n\t\t\t  db.hosts.ip_chegada, db.hosts.porta_ssh, db.hosts.gateway)\n\theaders = {\'hosts.id\':   \'ID\',\n\t\t\t   \'hosts.id_cliente\': \'Cliente\',\n               \'hosts.id_servidor\': \'Servidor\',\n               \'hosts.id_distro\': \'Distro\',\n               \'hosts.nome\': \'Nome\',\n\t           \'hosts.servicos\': \'Servicos\'}\n\tgrid = SQLFORM.grid(query=query, fields=fields, headers=headers, csv=False,\n\t\t\t\t\t\tdetails=False, searchable=False, maxtextlength=23, links=links, \n\t\t\t\t\t\tlinks_placement=\'left\', editable=False, create=False)\n\n\treturn response.render("initial/show_grid2.html", grid=grid, nome_ant1=nome_ant1, \n\t\t\t\t\t\tfuncao_ant1=funcao_ant1, nome_atual=nome_atual)\n\n@auth.requires_login()\ndef servidor_host():\n\tfiltro = request.vars[\'f\']\n\tqueryset = db(db.servidor.id == filtro)\n\trows = queryset.select()\n\tservidor = rows[0]\n\tresponse.title = servidor.nome\n\n\tnome_ant1 = request.vars[\'n1\']\n\tfuncao_ant1 = request.vars[\'p1\']\n\tnome_atual = servidor.nome\t\n\n\tdb.distro.img.readable=False\n\tdb.hosts.id.readable=False\n\tquery = ((db.hosts.id_servidor == filtro) & (db.distro.id == db.hosts.id_distro))\n\n\tlinks = [dict(header=\'\',body=lambda row: A( IMG(_src=URL("static", "images", args=(row.distro.img)) ))), \n\t lambda row: A(\'Detalhes\', \n    \t\t      _class=\'btn\', \n    \t\t      _title=\'Detalhes\', \n    \t\t      _href=URL("initial", "/detalhes_nav", \n    \t\t      vars=dict(f=row.hosts.id, c=filtro, n=servidor.nome, \n    \t\t      \t\tn1=\'Servidores\', p1=\'show_servidor\', p=\'servidor_host\'))),\n\t lambda row: A(\'Editar\', \n    \t\t      _class=\'btn\', \n    \t\t      _title=\'Editar\', \n    \t\t      _href=URL("initial", "/edit_host", \n    \t\t      vars=dict(f=row.hosts.id, c=filtro, n=servidor.nome, \n    \t\t      \t\tn1=\'Servidores\', p1=\'show_servidor\', p=\'servidor_host\')))]\n\n\tfields = (db.hosts.id, db.hosts.id_cliente, db.hosts.id_distro, db.distro.img, \n\t\t\t\tdb.hosts.ip_chegada, db.hosts.porta_ssh, db.hosts.gateway)\n\theaders = {\'hosts.id\':   \'ID\',\n\t\t\t   \'hosts.id_cliente\': \'Cliente\',\n               \'hosts.id_servidor\': \'Servidor\',\n               \'hosts.id_distro\': \'Distro\',\n               \'hosts.nome\': \'Nome\',\n\t           \'hosts.servicos\': \'Servicos\'}\n\tgrid = SQLFORM.grid(query=query, fields=fields, headers=headers, csv=False,\n\t\t\t\t\t\tdetails=False, searchable=False, maxtextlength=23, links=links, \n\t\t\t\t\t\tlinks_placement=\'left\', editable=False, create=False)\n\n\treturn response.render("initial/show_grid2.html", grid=grid, nome_ant1=nome_ant1, \n\t\t\t\t\t\tfuncao_ant1=funcao_ant1, nome_atual=nome_atual)\n\n@auth.requires_login()\ndef distro_host():\n\tfiltro = request.vars[\'f\']\n\tqueryset = db(db.distro.id == filtro)\n\trows = queryset.select()\n\tdistro = rows[0]\n\tresponse.title = distro.nome\n\n\tnome_ant1 = request.vars[\'n1\']\n\tfuncao_ant1 = request.vars[\'p1\']\n\tnome_atual = distro.nome\t\n\t\n\tdb.hosts.id.readable=False\n\tdb.distro.img.readable=False\n\tquery = ((db.hosts.id_distro == filtro) & (db.distro.id == db.hosts.id_distro))\n\tlinks = [dict(header=\'\',body=lambda row: A( IMG(_src=URL("static", "images", args=(row.distro.img)) ))), \n\t lambda row: A(\'Detalhes\', \n    \t\t      _class=\'btn\', \n    \t\t      _title=\'Detalhes\', \n    \t\t      _href=URL("initial", "/detalhes_nav", \n    \t\t      vars=dict(f=row.hosts.id, c=filtro, n=distro.nome, \n    \t\t      \t\tn1=\'Distros\', p1=\'show_distro\', p=\'distro_host\'))),\n\t lambda row: A(\'Editar\', \n    \t\t      _class=\'btn\', \n    \t\t      _title=\'Editar\', \n    \t\t      _href=URL("initial", "/edit_host", \n    \t\t      vars=dict(f=row.hosts.id, c=filtro, n=distro.nome, \n    \t\t      \t\tn1=\'Distros\', p1=\'show_distro\', p=\'distro_host\')))]\n\n\tfields = (db.hosts.id, db.hosts.id_cliente, db.hosts.id_servidor, db.distro.img, \n\t\t\t  db.hosts.ip_chegada, db.hosts.porta_ssh, db.hosts.gateway)\n\theaders = {\'hosts.id\':   \'ID\',\n\t\t\t\t\'hosts.id_cliente\': \'Cliente\',\n               \'hosts.id_servidor\': \'Servidor\',\n               \'hosts.id_distro\': \'Distro\',\n               \'hosts.nome\': \'Nome\',\n\t           \'hosts.servicos\': \'Servicos\'}\n\tgrid = SQLFORM.grid(query=query, fields=fields, headers=headers, csv=False,\n\t\t\t\t\t\tdetails=False, searchable=False, maxtextlength=23, links=links, \n\t\t\t\t\t\tlinks_placement=\'left\', editable=False, create=False)\n\n\treturn response.render("initial/show_grid2.html", grid=grid, nome_ant1=nome_ant1, \n\t\t\t\t\t\tfuncao_ant1=funcao_ant1, nome_atual=nome_atual)\n\ndef detalhes_nav():\n\t#detalhes\n\tfiltro = request.vars[\'f\'] #id_host\n\tid_cliente = request.vars[\'c\'] #id_cliente\n\tnome_ant = request.vars[\'n\'] #nome (asterisk ou agronelli ou debian)\n\tnome_ant1 = request.vars[\'n1\'] #nome (servidores ou clientes ou distros)\n\tfuncao_ant = request.vars[\'p\'] #funcao(host_servidores)\n\tfuncao_ant1 = request.vars[\'p1\'] #funcao(show_servidores)\n\t\n\n\tquery = ((db.hosts.id == filtro) & (db.hosts.id_cliente == db.cliente.id)\n\t \t    & (db.hosts.id_servidor == db.servidor.id) \n\t \t    & (db.hosts.id_distro == db.distro.id)) \n\tdetalhes = db.hosts(query)\n\t\n\t\n\treturn response.render("initial/detalhes_host.html", detalhes=detalhes, \n\t\t\t\tid_cliente=id_cliente, funcao_ant=funcao_ant, funcao_ant1=funcao_ant1, \n\t\t\t\tnome_ant=nome_ant, nome_ant1=nome_ant1, filtro=filtro)\n\n\ndef about():\n\tfiltro = request.vars[\'f\']\n\tquery = ((db.hosts.id_servidor == filtro) & (db.distro.id == db.hosts.id_distro))\n\tfields = (db.hosts.id, db.hosts.id_cliente, db.hosts.id_distro, db.distro.img, \n\t\t\t\tdb.hosts.ip_chegada, db.hosts.porta_ssh, db.hosts.gateway)\n\theaders = {\'host.id\':   \'ID\',\n               \'host.id_servidor\': \'Servidor\',\n               \'host.id_distro\': \'Distro\',\n               \'host.nome\': \'Nome\',\n\t           \'host.servicos\': \'Servicos\'}\n\tgrid = SQLFORM.grid(query=query, fields=fields, headers=headers, csv=False,\n\t\t\t\t\t\tdetails=False, maxtextlength=23, searchable=True, editable=False, create=False)\n\n\treturn response.render("initial/teste.html", grid=grid,)\n\ndef user():\n\t#if request.args(0) == \'register\':\n    #    \tdb.auth_user.bio.writable = db.auth_user.bio.readable = False\n\treturn response.render("initial/user.html", user=auth())\n\ndef register():\n\treturn auth.register()\n\ndef login():\n        return auth.login()\n\ndef account():\n    return dict(register=auth.register(),\n                login=auth.login())\n\t\ndef download():\n\treturn response.download(request, db)\n\t\ndef detalhes_clean():\n\tfiltro = request.vars[\'f\'] #id_host\n\t\t\n\n\tquery = ((db.hosts.id == filtro) & (db.hosts.id_cliente == db.cliente.id)\n\t \t    & (db.hosts.id_servidor == db.servidor.id) \n\t \t    & (db.hosts.id_distro == db.distro.id)) \n\tdetalhes = db.hosts(query)\n\n\t\n\treturn response.render("initial/detalhes_host_clean.html", detalhes=detalhes)\n\n\n\nresponse._vars=response._caller(principal)\n'
p7
sS'snapshot'
p8
(dp9
S'exception'
p10
(dp11
S'__getslice__'
p12
S"<method-wrapper '__getslice__' of exceptions.IndentationError object>"
p13
sS'text'
p14
S"'\\t\\tmembros = evento.membros_user\\n'"
p15
sS'__str__'
p16
S"<method-wrapper '__str__' of exceptions.IndentationError object>"
p17
sS'__reduce__'
p18
S'<built-in method __reduce__ of exceptions.IndentationError object>'
p19
sS'__dict__'
p20
S'{}'
p21
sS'__sizeof__'
p22
S'<built-in method __sizeof__ of exceptions.IndentationError object>'
p23
sS'__init__'
p24
S"<method-wrapper '__init__' of exceptions.IndentationError object>"
p25
sS'__setattr__'
p26
S"<method-wrapper '__setattr__' of exceptions.IndentationError object>"
p27
sS'__reduce_ex__'
p28
S'<built-in method __reduce_ex__ of exceptions.IndentationError object>'
p29
sS'__new__'
p30
S'<built-in method __new__ of type object>'
p31
sS'__format__'
p32
S'<built-in method __format__ of exceptions.IndentationError object>'
p33
sS'__class__'
p34
S"<type 'exceptions.IndentationError'>"
p35
sS'filename'
p36
S"'/var/www/conferencia/applications/projeto/controllers/initial.py'"
p37
sS'lineno'
p38
S'81'
p39
sS'msg'
p40
S"'unexpected indent'"
p41
sS'__doc__'
p42
S"'Improper indentation.'"
p43
sS'__getitem__'
p44
S"<method-wrapper '__getitem__' of exceptions.IndentationError object>"
p45
sS'__setstate__'
p46
S'<built-in method __setstate__ of exceptions.IndentationError object>'
p47
sS'__getattribute__'
p48
S"<method-wrapper '__getattribute__' of exceptions.IndentationError object>"
p49
sS'print_file_and_line'
p50
S'None'
p51
sS'args'
p52
S"('unexpected indent', ('/var/www/conferencia/applications/projeto/controllers/initial.py', 81, 2, '\\t\\tmembros = evento.membros_user\\n'))"
p53
sS'__subclasshook__'
p54
S'<built-in method __subclasshook__ of type object>'
p55
sS'offset'
p56
S'2'
sS'__unicode__'
p57
S'<built-in method __unicode__ of exceptions.IndentationError object>'
p58
sS'__delattr__'
p59
S"<method-wrapper '__delattr__' of exceptions.IndentationError object>"
p60
sS'__repr__'
p61
S"<method-wrapper '__repr__' of exceptions.IndentationError object>"
p62
sS'__hash__'
p63
S"<method-wrapper '__hash__' of exceptions.IndentationError object>"
p64
ssS'evalue'
p65
S'unexpected indent (initial.py, line 81)'
p66
sS'request'
p67
ccopy_reg
_reconstructor
p68
(cgluon.html
BEAUTIFY
p69
c__builtin__
object
p70
NtRp71
(dp72
S'attributes'
p73
(dp74
sS'components'
p75
(lp76
g68
(cgluon.html
TABLE
p77
g70
NtRp78
(dp79
g73
(dp80
S'level'
p81
I5
ssS'parent'
p82
Nsg75
(lp83
g68
(cgluon.html
TR
p84
g70
NtRp85
(dp86
g73
(dp87
sg82
g78
sg75
(lp88
g68
(cgluon.html
TD
p89
g70
NtRp90
(dp91
g73
(dp92
S'_style'
p93
S'font-weight:bold;vertical-align:top'
p94
ssg82
g85
sg75
(lp95
S'ajax'
p96
asbag68
(g89
g70
NtRp97
(dp98
g73
(dp99
S'_valign'
p100
S'top'
p101
ssg82
g85
sg75
(lp102
S':'
asbag68
(g89
g70
NtRp103
(dp104
g73
(dp105
sg82
g85
sg75
(lp106
g68
(g69
g70
NtRp107
(dp108
g73
(dp109
g81
I5
ssg82
g103
sg75
(lp110
S'False'
p111
asbasbasbag68
(g84
g70
NtRp112
(dp113
g73
(dp114
sg82
g78
sg75
(lp115
g68
(g89
g70
NtRp116
(dp117
g73
(dp118
g93
g94
ssg82
g112
sg75
(lp119
S'application'
p120
asbag68
(g89
g70
NtRp121
(dp122
g73
(dp123
g100
g101
ssg82
g112
sg75
(lp124
S':'
asbag68
(g89
g70
NtRp125
(dp126
g73
(dp127
sg82
g112
sg75
(lp128
g68
(g69
g70
NtRp129
(dp130
g73
(dp131
g81
I5
ssg82
g125
sg75
(lp132
S'projeto'
p133
asbasbasbag68
(g84
g70
NtRp134
(dp135
g73
(dp136
sg82
g78
sg75
(lp137
g68
(g89
g70
NtRp138
(dp139
g73
(dp140
g93
g94
ssg82
g134
sg75
(lp141
g52
asbag68
(g89
g70
NtRp142
(dp143
g73
(dp144
g100
g101
ssg82
g134
sg75
(lp145
S':'
asbag68
(g89
g70
NtRp146
(dp147
g73
(dp148
sg82
g134
sg75
(lp149
g68
(g69
g70
NtRp150
(dp151
g73
(dp152
g81
I5
ssg82
g146
sg75
(lp153
g68
(g77
g70
NtRp154
(dp155
g73
(dp156
g81
I4
ssg82
Nsg75
(lp157
sbasbasbasbag68
(g84
g70
NtRp158
(dp159
g73
(dp160
sg82
g78
sg75
(lp161
g68
(g89
g70
NtRp162
(dp163
g73
(dp164
g93
g94
ssg82
g158
sg75
(lp165
S'body'
p166
asbag68
(g89
g70
NtRp167
(dp168
g73
(dp169
g100
g101
ssg82
g158
sg75
(lp170
S':'
asbag68
(g89
g70
NtRp171
(dp172
g73
(dp173
sg82
g158
sg75
(lp174
g68
(g69
g70
NtRp175
(dp176
g73
(dp177
g81
I5
ssg82
g171
sg75
(lp178
S'<cStringIO.StringO object at 0x7fc3ec915420>'
p179
asbasbasbag68
(g84
g70
NtRp180
(dp181
g73
(dp182
sg82
g78
sg75
(lp183
g68
(g89
g70
NtRp184
(dp185
g73
(dp186
g93
g94
ssg82
g180
sg75
(lp187
S'cid'
p188
asbag68
(g89
g70
NtRp189
(dp190
g73
(dp191
g100
g101
ssg82
g180
sg75
(lp192
S':'
asbag68
(g89
g70
NtRp193
(dp194
g73
(dp195
sg82
g180
sg75
(lp196
g68
(g69
g70
NtRp197
(dp198
g73
(dp199
g81
I5
ssg82
g193
sg75
(lp200
S'None'
p201
asbasbasbag68
(g84
g70
NtRp202
(dp203
g73
(dp204
sg82
g78
sg75
(lp205
g68
(g89
g70
NtRp206
(dp207
g73
(dp208
g93
g94
ssg82
g202
sg75
(lp209
S'client'
p210
asbag68
(g89
g70
NtRp211
(dp212
g73
(dp213
g100
g101
ssg82
g202
sg75
(lp214
S':'
asbag68
(g89
g70
NtRp215
(dp216
g73
(dp217
sg82
g202
sg75
(lp218
g68
(g69
g70
NtRp219
(dp220
g73
(dp221
g81
I5
ssg82
g215
sg75
(lp222
S'127.0.0.1'
p223
asbasbasbag68
(g84
g70
NtRp224
(dp225
g73
(dp226
sg82
g78
sg75
(lp227
g68
(g89
g70
NtRp228
(dp229
g73
(dp230
g93
g94
ssg82
g224
sg75
(lp231
S'controller'
p232
asbag68
(g89
g70
NtRp233
(dp234
g73
(dp235
g100
g101
ssg82
g224
sg75
(lp236
S':'
asbag68
(g89
g70
NtRp237
(dp238
g73
(dp239
sg82
g224
sg75
(lp240
g68
(g69
g70
NtRp241
(dp242
g73
(dp243
g81
I5
ssg82
g237
sg75
(lp244
S'initial'
p245
asbasbasbag68
(g84
g70
NtRp246
(dp247
g73
(dp248
sg82
g78
sg75
(lp249
g68
(g89
g70
NtRp250
(dp251
g73
(dp252
g93
g94
ssg82
g246
sg75
(lp253
S'cookies'
p254
asbag68
(g89
g70
NtRp255
(dp256
g73
(dp257
g100
g101
ssg82
g246
sg75
(lp258
S':'
asbag68
(g89
g70
NtRp259
(dp260
g73
(dp261
sg82
g246
sg75
(lp262
g68
(g69
g70
NtRp263
(dp264
g73
(dp265
g81
I5
ssg82
g259
sg75
(lp266
g68
(g77
g70
NtRp267
(dp268
g73
(dp269
g81
I4
ssg82
Nsg75
(lp270
g68
(g84
g70
NtRp271
(dp272
g73
(dp273
sg82
g267
sg75
(lp274
g68
(g89
g70
NtRp275
(dp276
g73
(dp277
g93
g94
ssg82
g271
sg75
(lp278
S'session_id_admin'
p279
asbag68
(g89
g70
NtRp280
(dp281
g73
(dp282
g100
g101
ssg82
g271
sg75
(lp283
S':'
asbag68
(g89
g70
NtRp284
(dp285
g73
(dp286
sg82
g271
sg75
(lp287
g68
(g69
g70
NtRp288
(dp289
g73
(dp290
g81
I4
ssg82
g284
sg75
(lp291
S'127.0.0.1-ded1ddd8-3c4e-4361-a616-1b194320894a'
p292
ag68
(g77
g70
NtRp293
(dp294
g73
(dp295
g81
I3
ssg82
Nsg75
(lp296
g68
(g84
g70
NtRp297
(dp298
g73
(dp299
sg82
g293
sg75
(lp300
g68
(g89
g70
NtRp301
(dp302
g73
(dp303
g93
g94
ssg82
g297
sg75
(lp304
S'comment'
p305
asbag68
(g89
g70
NtRp306
(dp307
g73
(dp308
g100
g101
ssg82
g297
sg75
(lp309
S':'
asbag68
(g89
g70
NtRp310
(dp311
g73
(dp312
sg82
g297
sg75
(lp313
g68
(g69
g70
NtRp314
(dp315
g73
(dp316
g81
I3
ssg82
g310
sg75
(lp317
S''
asbasbasbag68
(g84
g70
NtRp318
(dp319
g73
(dp320
sg82
g293
sg75
(lp321
g68
(g89
g70
NtRp322
(dp323
g73
(dp324
g93
g94
ssg82
g318
sg75
(lp325
S'domain'
p326
asbag68
(g89
g70
NtRp327
(dp328
g73
(dp329
g100
g101
ssg82
g318
sg75
(lp330
S':'
asbag68
(g89
g70
NtRp331
(dp332
g73
(dp333
sg82
g318
sg75
(lp334
g68
(g69
g70
NtRp335
(dp336
g73
(dp337
g81
I3
ssg82
g331
sg75
(lp338
S''
asbasbasbag68
(g84
g70
NtRp339
(dp340
g73
(dp341
sg82
g293
sg75
(lp342
g68
(g89
g70
NtRp343
(dp344
g73
(dp345
g93
g94
ssg82
g339
sg75
(lp346
S'expires'
p347
asbag68
(g89
g70
NtRp348
(dp349
g73
(dp350
g100
g101
ssg82
g339
sg75
(lp351
S':'
asbag68
(g89
g70
NtRp352
(dp353
g73
(dp354
sg82
g339
sg75
(lp355
g68
(g69
g70
NtRp356
(dp357
g73
(dp358
g81
I3
ssg82
g352
sg75
(lp359
S''
asbasbasbag68
(g84
g70
NtRp360
(dp361
g73
(dp362
sg82
g293
sg75
(lp363
g68
(g89
g70
NtRp364
(dp365
g73
(dp366
g93
g94
ssg82
g360
sg75
(lp367
S'httponly'
p368
asbag68
(g89
g70
NtRp369
(dp370
g73
(dp371
g100
g101
ssg82
g360
sg75
(lp372
S':'
asbag68
(g89
g70
NtRp373
(dp374
g73
(dp375
sg82
g360
sg75
(lp376
g68
(g69
g70
NtRp377
(dp378
g73
(dp379
g81
I3
ssg82
g373
sg75
(lp380
S''
asbasbasbag68
(g84
g70
NtRp381
(dp382
g73
(dp383
sg82
g293
sg75
(lp384
g68
(g89
g70
NtRp385
(dp386
g73
(dp387
g93
g94
ssg82
g381
sg75
(lp388
S'max-age'
p389
asbag68
(g89
g70
NtRp390
(dp391
g73
(dp392
g100
g101
ssg82
g381
sg75
(lp393
S':'
asbag68
(g89
g70
NtRp394
(dp395
g73
(dp396
sg82
g381
sg75
(lp397
g68
(g69
g70
NtRp398
(dp399
g73
(dp400
g81
I3
ssg82
g394
sg75
(lp401
S''
asbasbasbag68
(g84
g70
NtRp402
(dp403
g73
(dp404
sg82
g293
sg75
(lp405
g68
(g89
g70
NtRp406
(dp407
g73
(dp408
g93
g94
ssg82
g402
sg75
(lp409
S'path'
p410
asbag68
(g89
g70
NtRp411
(dp412
g73
(dp413
g100
g101
ssg82
g402
sg75
(lp414
S':'
asbag68
(g89
g70
NtRp415
(dp416
g73
(dp417
sg82
g402
sg75
(lp418
g68
(g69
g70
NtRp419
(dp420
g73
(dp421
g81
I3
ssg82
g415
sg75
(lp422
S''
asbasbasbag68
(g84
g70
NtRp423
(dp424
g73
(dp425
sg82
g293
sg75
(lp426
g68
(g89
g70
NtRp427
(dp428
g73
(dp429
g93
g94
ssg82
g423
sg75
(lp430
S'secure'
p431
asbag68
(g89
g70
NtRp432
(dp433
g73
(dp434
g100
g101
ssg82
g423
sg75
(lp435
S':'
asbag68
(g89
g70
NtRp436
(dp437
g73
(dp438
sg82
g423
sg75
(lp439
g68
(g69
g70
NtRp440
(dp441
g73
(dp442
g81
I3
ssg82
g436
sg75
(lp443
S''
asbasbasbag68
(g84
g70
NtRp444
(dp445
g73
(dp446
sg82
g293
sg75
(lp447
g68
(g89
g70
NtRp448
(dp449
g73
(dp450
g93
g94
ssg82
g444
sg75
(lp451
S'version'
p452
asbag68
(g89
g70
NtRp453
(dp454
g73
(dp455
g100
g101
ssg82
g444
sg75
(lp456
S':'
asbag68
(g89
g70
NtRp457
(dp458
g73
(dp459
sg82
g444
sg75
(lp460
g68
(g69
g70
NtRp461
(dp462
g73
(dp463
g81
I3
ssg82
g457
sg75
(lp464
S''
asbasbasbasbasbasbasbag68
(g84
g70
NtRp465
(dp466
g73
(dp467
sg82
g267
sg75
(lp468
g68
(g89
g70
NtRp469
(dp470
g73
(dp471
g93
g94
ssg82
g465
sg75
(lp472
S'session_id_projeto'
p473
asbag68
(g89
g70
NtRp474
(dp475
g73
(dp476
g100
g101
ssg82
g465
sg75
(lp477
S':'
asbag68
(g89
g70
NtRp478
(dp479
g73
(dp480
sg82
g465
sg75
(lp481
g68
(g69
g70
NtRp482
(dp483
g73
(dp484
g81
I4
ssg82
g478
sg75
(lp485
S'127.0.0.1-b222eab6-fff3-4ee1-9193-07dc6b9c8361'
p486
ag68
(g77
g70
NtRp487
(dp488
g73
(dp489
g81
I3
ssg82
Nsg75
(lp490
g68
(g84
g70
NtRp491
(dp492
g73
(dp493
sg82
g487
sg75
(lp494
g68
(g89
g70
NtRp495
(dp496
g73
(dp497
g93
g94
ssg82
g491
sg75
(lp498
g305
asbag68
(g89
g70
NtRp499
(dp500
g73
(dp501
g100
g101
ssg82
g491
sg75
(lp502
S':'
asbag68
(g89
g70
NtRp503
(dp504
g73
(dp505
sg82
g491
sg75
(lp506
g68
(g69
g70
NtRp507
(dp508
g73
(dp509
g81
I3
ssg82
g503
sg75
(lp510
S''
asbasbasbag68
(g84
g70
NtRp511
(dp512
g73
(dp513
sg82
g487
sg75
(lp514
g68
(g89
g70
NtRp515
(dp516
g73
(dp517
g93
g94
ssg82
g511
sg75
(lp518
g326
asbag68
(g89
g70
NtRp519
(dp520
g73
(dp521
g100
g101
ssg82
g511
sg75
(lp522
S':'
asbag68
(g89
g70
NtRp523
(dp524
g73
(dp525
sg82
g511
sg75
(lp526
g68
(g69
g70
NtRp527
(dp528
g73
(dp529
g81
I3
ssg82
g523
sg75
(lp530
S''
asbasbasbag68
(g84
g70
NtRp531
(dp532
g73
(dp533
sg82
g487
sg75
(lp534
g68
(g89
g70
NtRp535
(dp536
g73
(dp537
g93
g94
ssg82
g531
sg75
(lp538
g347
asbag68
(g89
g70
NtRp539
(dp540
g73
(dp541
g100
g101
ssg82
g531
sg75
(lp542
S':'
asbag68
(g89
g70
NtRp543
(dp544
g73
(dp545
sg82
g531
sg75
(lp546
g68
(g69
g70
NtRp547
(dp548
g73
(dp549
g81
I3
ssg82
g543
sg75
(lp550
S''
asbasbasbag68
(g84
g70
NtRp551
(dp552
g73
(dp553
sg82
g487
sg75
(lp554
g68
(g89
g70
NtRp555
(dp556
g73
(dp557
g93
g94
ssg82
g551
sg75
(lp558
g368
asbag68
(g89
g70
NtRp559
(dp560
g73
(dp561
g100
g101
ssg82
g551
sg75
(lp562
S':'
asbag68
(g89
g70
NtRp563
(dp564
g73
(dp565
sg82
g551
sg75
(lp566
g68
(g69
g70
NtRp567
(dp568
g73
(dp569
g81
I3
ssg82
g563
sg75
(lp570
S''
asbasbasbag68
(g84
g70
NtRp571
(dp572
g73
(dp573
sg82
g487
sg75
(lp574
g68
(g89
g70
NtRp575
(dp576
g73
(dp577
g93
g94
ssg82
g571
sg75
(lp578
g389
asbag68
(g89
g70
NtRp579
(dp580
g73
(dp581
g100
g101
ssg82
g571
sg75
(lp582
S':'
asbag68
(g89
g70
NtRp583
(dp584
g73
(dp585
sg82
g571
sg75
(lp586
g68
(g69
g70
NtRp587
(dp588
g73
(dp589
g81
I3
ssg82
g583
sg75
(lp590
S''
asbasbasbag68
(g84
g70
NtRp591
(dp592
g73
(dp593
sg82
g487
sg75
(lp594
g68
(g89
g70
NtRp595
(dp596
g73
(dp597
g93
g94
ssg82
g591
sg75
(lp598
g410
asbag68
(g89
g70
NtRp599
(dp600
g73
(dp601
g100
g101
ssg82
g591
sg75
(lp602
S':'
asbag68
(g89
g70
NtRp603
(dp604
g73
(dp605
sg82
g591
sg75
(lp606
g68
(g69
g70
NtRp607
(dp608
g73
(dp609
g81
I3
ssg82
g603
sg75
(lp610
S''
asbasbasbag68
(g84
g70
NtRp611
(dp612
g73
(dp613
sg82
g487
sg75
(lp614
g68
(g89
g70
NtRp615
(dp616
g73
(dp617
g93
g94
ssg82
g611
sg75
(lp618
g431
asbag68
(g89
g70
NtRp619
(dp620
g73
(dp621
g100
g101
ssg82
g611
sg75
(lp622
S':'
asbag68
(g89
g70
NtRp623
(dp624
g73
(dp625
sg82
g611
sg75
(lp626
g68
(g69
g70
NtRp627
(dp628
g73
(dp629
g81
I3
ssg82
g623
sg75
(lp630
S''
asbasbasbag68
(g84
g70
NtRp631
(dp632
g73
(dp633
sg82
g487
sg75
(lp634
g68
(g89
g70
NtRp635
(dp636
g73
(dp637
g93
g94
ssg82
g631
sg75
(lp638
g452
asbag68
(g89
g70
NtRp639
(dp640
g73
(dp641
g100
g101
ssg82
g631
sg75
(lp642
S':'
asbag68
(g89
g70
NtRp643
(dp644
g73
(dp645
sg82
g631
sg75
(lp646
g68
(g69
g70
NtRp647
(dp648
g73
(dp649
g81
I3
ssg82
g643
sg75
(lp650
S''
asbasbasbasbasbasbasbasbasbasbasbag68
(g84
g70
NtRp651
(dp652
g73
(dp653
sg82
g78
sg75
(lp654
g68
(g89
g70
NtRp655
(dp656
g73
(dp657
g93
g94
ssg82
g651
sg75
(lp658
S'env'
p659
asbag68
(g89
g70
NtRp660
(dp661
g73
(dp662
g100
g101
ssg82
g651
sg75
(lp663
S':'
asbag68
(g89
g70
NtRp664
(dp665
g73
(dp666
sg82
g651
sg75
(lp667
g68
(g69
g70
NtRp668
(dp669
g73
(dp670
g81
I5
ssg82
g664
sg75
(lp671
g68
(g77
g70
NtRp672
(dp673
g73
(dp674
g81
I4
ssg82
Nsg75
(lp675
g68
(g84
g70
NtRp676
(dp677
g73
(dp678
sg82
g672
sg75
(lp679
g68
(g89
g70
NtRp680
(dp681
g73
(dp682
g93
g94
ssg82
g676
sg75
(lp683
S'app_folders'
p684
asbag68
(g89
g70
NtRp685
(dp686
g73
(dp687
g100
g101
ssg82
g676
sg75
(lp688
S':'
asbag68
(g89
g70
NtRp689
(dp690
g73
(dp691
sg82
g676
sg75
(lp692
g68
(g69
g70
NtRp693
(dp694
g73
(dp695
g81
I4
ssg82
g689
sg75
(lp696
S"set(['/var/www/conferencia/applications/admin/', '/var/www/conferencia/applications/projeto/'])"
p697
asbasbasbag68
(g84
g70
NtRp698
(dp699
g73
(dp700
sg82
g672
sg75
(lp701
g68
(g89
g70
NtRp702
(dp703
g73
(dp704
g93
g94
ssg82
g698
sg75
(lp705
S'applications_parent'
p706
asbag68
(g89
g70
NtRp707
(dp708
g73
(dp709
g100
g101
ssg82
g698
sg75
(lp710
S':'
asbag68
(g89
g70
NtRp711
(dp712
g73
(dp713
sg82
g698
sg75
(lp714
g68
(g69
g70
NtRp715
(dp716
g73
(dp717
g81
I4
ssg82
g711
sg75
(lp718
S'/var/www/conferencia'
p719
asbasbasbag68
(g84
g70
NtRp720
(dp721
g73
(dp722
sg82
g672
sg75
(lp723
g68
(g89
g70
NtRp724
(dp725
g73
(dp726
g93
g94
ssg82
g720
sg75
(lp727
S'cmd_args'
p728
asbag68
(g89
g70
NtRp729
(dp730
g73
(dp731
g100
g101
ssg82
g720
sg75
(lp732
S':'
asbag68
(g89
g70
NtRp733
(dp734
g73
(dp735
sg82
g720
sg75
(lp736
g68
(g69
g70
NtRp737
(dp738
g73
(dp739
g81
I4
ssg82
g733
sg75
(lp740
g68
(g77
g70
NtRp741
(dp742
g73
(dp743
g81
I3
ssg82
Nsg75
(lp744
sbasbasbasbag68
(g84
g70
NtRp745
(dp746
g73
(dp747
sg82
g672
sg75
(lp748
g68
(g89
g70
NtRp749
(dp750
g73
(dp751
g93
g94
ssg82
g745
sg75
(lp752
S'cmd_options'
p753
asbag68
(g89
g70
NtRp754
(dp755
g73
(dp756
g100
g101
ssg82
g745
sg75
(lp757
S':'
asbag68
(g89
g70
NtRp758
(dp759
g73
(dp760
sg82
g745
sg75
(lp761
g68
(g69
g70
NtRp762
(dp763
g73
(dp764
g81
I4
ssg82
g758
sg75
(lp765
S"<Values at 0x1885248: {'verbose': False, 'ip': '127.0.0.1', 'with_scheduler': False, 'ips': [], 'shutdown_timeout': 5, 'taskbar': False, 'port': 8000, 'maxthreads': None, 'softcron': False, 'server_name': 'fernando-workstation', 'bpython': False, 'nogui': False, 'pid_filename': 'httpserver.pid', 'extcron': False, 'runcron': False, 'run_system_tests': False, 'test': None, 'folder': '/var/www/conferencia', 'config': '', 'minthreads': None, 'winservice': '', 'shell': None, 'run': '', 'log_filename': 'httpserver.log', 'debuglevel': 30, 'args': [''], 'socket_timeout': 5, 'ssl_ca_certificate': None, 'scheduler': None, 'profiler_filename': None, 'ssl_private_key': '', 'scheduler_groups': None, 'password': '123456', 'request_queue_size': 5, 'ssl_certificate': '', 'cronjob': False, 'numthreads': None, 'quiet': False, 'interfaces': None, 'import_models': False, 'timeout': 10, 'plain': False, 'nobanner': False}>"
p766
asbasbasbag68
(g84
g70
NtRp767
(dp768
g73
(dp769
sg82
g672
sg75
(lp770
g68
(g89
g70
NtRp771
(dp772
g73
(dp773
g93
g94
ssg82
g767
sg75
(lp774
S'db_sessions'
p775
asbag68
(g89
g70
NtRp776
(dp777
g73
(dp778
g100
g101
ssg82
g767
sg75
(lp779
S':'
asbag68
(g89
g70
NtRp780
(dp781
g73
(dp782
sg82
g767
sg75
(lp783
g68
(g69
g70
NtRp784
(dp785
g73
(dp786
g81
I4
ssg82
g780
sg75
(lp787
S'set([])'
p788
asbasbasbag68
(g84
g70
NtRp789
(dp790
g73
(dp791
sg82
g672
sg75
(lp792
g68
(g89
g70
NtRp793
(dp794
g73
(dp795
g93
g94
ssg82
g789
sg75
(lp796
S'debugging'
p797
asbag68
(g89
g70
NtRp798
(dp799
g73
(dp800
g100
g101
ssg82
g789
sg75
(lp801
S':'
asbag68
(g89
g70
NtRp802
(dp803
g73
(dp804
sg82
g789
sg75
(lp805
g68
(g69
g70
NtRp806
(dp807
g73
(dp808
g81
I4
ssg82
g802
sg75
(lp809
g111
asbasbasbag68
(g84
g70
NtRp810
(dp811
g73
(dp812
sg82
g672
sg75
(lp813
g68
(g89
g70
NtRp814
(dp815
g73
(dp816
g93
g94
ssg82
g810
sg75
(lp817
S'gluon_parent'
p818
asbag68
(g89
g70
NtRp819
(dp820
g73
(dp821
g100
g101
ssg82
g810
sg75
(lp822
S':'
asbag68
(g89
g70
NtRp823
(dp824
g73
(dp825
sg82
g810
sg75
(lp826
g68
(g69
g70
NtRp827
(dp828
g73
(dp829
g81
I4
ssg82
g823
sg75
(lp830
S'/var/www/conferencia'
p831
asbasbasbag68
(g84
g70
NtRp832
(dp833
g73
(dp834
sg82
g672
sg75
(lp835
g68
(g89
g70
NtRp836
(dp837
g73
(dp838
g93
g94
ssg82
g832
sg75
(lp839
S'http_accept'
p840
asbag68
(g89
g70
NtRp841
(dp842
g73
(dp843
g100
g101
ssg82
g832
sg75
(lp844
S':'
asbag68
(g89
g70
NtRp845
(dp846
g73
(dp847
sg82
g832
sg75
(lp848
g68
(g69
g70
NtRp849
(dp850
g73
(dp851
g81
I4
ssg82
g845
sg75
(lp852
S'text/html,application/xhtml+xml,application/xml;q=0.9,*/*;q=0.8'
p853
asbasbasbag68
(g84
g70
NtRp854
(dp855
g73
(dp856
sg82
g672
sg75
(lp857
g68
(g89
g70
NtRp858
(dp859
g73
(dp860
g93
g94
ssg82
g854
sg75
(lp861
S'http_accept_charset'
p862
asbag68
(g89
g70
NtRp863
(dp864
g73
(dp865
g100
g101
ssg82
g854
sg75
(lp866
S':'
asbag68
(g89
g70
NtRp867
(dp868
g73
(dp869
sg82
g854
sg75
(lp870
g68
(g69
g70
NtRp871
(dp872
g73
(dp873
g81
I4
ssg82
g867
sg75
(lp874
S'ISO-8859-1,utf-8;q=0.7,*;q=0.3'
p875
asbasbasbag68
(g84
g70
NtRp876
(dp877
g73
(dp878
sg82
g672
sg75
(lp879
g68
(g89
g70
NtRp880
(dp881
g73
(dp882
g93
g94
ssg82
g876
sg75
(lp883
S'http_accept_encoding'
p884
asbag68
(g89
g70
NtRp885
(dp886
g73
(dp887
g100
g101
ssg82
g876
sg75
(lp888
S':'
asbag68
(g89
g70
NtRp889
(dp890
g73
(dp891
sg82
g876
sg75
(lp892
g68
(g69
g70
NtRp893
(dp894
g73
(dp895
g81
I4
ssg82
g889
sg75
(lp896
S'gzip,deflate,sdch'
p897
asbasbasbag68
(g84
g70
NtRp898
(dp899
g73
(dp900
sg82
g672
sg75
(lp901
g68
(g89
g70
NtRp902
(dp903
g73
(dp904
g93
g94
ssg82
g898
sg75
(lp905
S'http_accept_language'
p906
asbag68
(g89
g70
NtRp907
(dp908
g73
(dp909
g100
g101
ssg82
g898
sg75
(lp910
S':'
asbag68
(g89
g70
NtRp911
(dp912
g73
(dp913
sg82
g898
sg75
(lp914
g68
(g69
g70
NtRp915
(dp916
g73
(dp917
g81
I4
ssg82
g911
sg75
(lp918
S'pt-BR,pt;q=0.8,en-US;q=0.6,en;q=0.4'
p919
asbasbasbag68
(g84
g70
NtRp920
(dp921
g73
(dp922
sg82
g672
sg75
(lp923
g68
(g89
g70
NtRp924
(dp925
g73
(dp926
g93
g94
ssg82
g920
sg75
(lp927
S'http_cache_control'
p928
asbag68
(g89
g70
NtRp929
(dp930
g73
(dp931
g100
g101
ssg82
g920
sg75
(lp932
S':'
asbag68
(g89
g70
NtRp933
(dp934
g73
(dp935
sg82
g920
sg75
(lp936
g68
(g69
g70
NtRp937
(dp938
g73
(dp939
g81
I4
ssg82
g933
sg75
(lp940
S'max-age=0'
p941
asbasbasbag68
(g84
g70
NtRp942
(dp943
g73
(dp944
sg82
g672
sg75
(lp945
g68
(g89
g70
NtRp946
(dp947
g73
(dp948
g93
g94
ssg82
g942
sg75
(lp949
S'http_connection'
p950
asbag68
(g89
g70
NtRp951
(dp952
g73
(dp953
g100
g101
ssg82
g942
sg75
(lp954
S':'
asbag68
(g89
g70
NtRp955
(dp956
g73
(dp957
sg82
g942
sg75
(lp958
g68
(g69
g70
NtRp959
(dp960
g73
(dp961
g81
I4
ssg82
g955
sg75
(lp962
S'keep-alive'
p963
asbasbasbag68
(g84
g70
NtRp964
(dp965
g73
(dp966
sg82
g672
sg75
(lp967
g68
(g89
g70
NtRp968
(dp969
g73
(dp970
g93
g94
ssg82
g964
sg75
(lp971
S'http_cookie'
p972
asbag68
(g89
g70
NtRp973
(dp974
g73
(dp975
g100
g101
ssg82
g964
sg75
(lp976
S':'
asbag68
(g89
g70
NtRp977
(dp978
g73
(dp979
sg82
g964
sg75
(lp980
g68
(g69
g70
NtRp981
(dp982
g73
(dp983
g81
I4
ssg82
g977
sg75
(lp984
S'session_id_admin=127.0.0.1-ded1ddd8-3c4e-4361-a616-1b194320894a; session_id_projeto=127.0.0.1-b222eab6-fff3-4ee1-9193-07dc6b9c8361'
p985
asbasbasbag68
(g84
g70
NtRp986
(dp987
g73
(dp988
sg82
g672
sg75
(lp989
g68
(g89
g70
NtRp990
(dp991
g73
(dp992
g93
g94
ssg82
g986
sg75
(lp993
S'http_host'
p994
asbag68
(g89
g70
NtRp995
(dp996
g73
(dp997
g100
g101
ssg82
g986
sg75
(lp998
S':'
asbag68
(g89
g70
NtRp999
(dp1000
g73
(dp1001
sg82
g986
sg75
(lp1002
g68
(g69
g70
NtRp1003
(dp1004
g73
(dp1005
g81
I4
ssg82
g999
sg75
(lp1006
S'127.0.0.1:8000'
p1007
asbasbasbag68
(g84
g70
NtRp1008
(dp1009
g73
(dp1010
sg82
g672
sg75
(lp1011
g68
(g89
g70
NtRp1012
(dp1013
g73
(dp1014
g93
g94
ssg82
g1008
sg75
(lp1015
S'http_user_agent'
p1016
asbag68
(g89
g70
NtRp1017
(dp1018
g73
(dp1019
g100
g101
ssg82
g1008
sg75
(lp1020
S':'
asbag68
(g89
g70
NtRp1021
(dp1022
g73
(dp1023
sg82
g1008
sg75
(lp1024
g68
(g69
g70
NtRp1025
(dp1026
g73
(dp1027
g81
I4
ssg82
g1021
sg75
(lp1028
S'Mozilla/5.0 (X11; Linux x86_64) AppleWebKit/537.4 (KHTML, like Gecko) Ubuntu/12.10 Chromium/22.0.1229.94 Chrome/22.0.1229.94 Safari/537.4'
p1029
asbasbasbag68
(g84
g70
NtRp1030
(dp1031
g73
(dp1032
sg82
g672
sg75
(lp1033
g68
(g89
g70
NtRp1034
(dp1035
g73
(dp1036
g93
g94
ssg82
g1030
sg75
(lp1037
S'is_jython'
p1038
asbag68
(g89
g70
NtRp1039
(dp1040
g73
(dp1041
g100
g101
ssg82
g1030
sg75
(lp1042
S':'
asbag68
(g89
g70
NtRp1043
(dp1044
g73
(dp1045
sg82
g1030
sg75
(lp1046
g68
(g69
g70
NtRp1047
(dp1048
g73
(dp1049
g81
I4
ssg82
g1043
sg75
(lp1050
g111
asbasbasbag68
(g84
g70
NtRp1051
(dp1052
g73
(dp1053
sg82
g672
sg75
(lp1054
g68
(g89
g70
NtRp1055
(dp1056
g73
(dp1057
g93
g94
ssg82
g1051
sg75
(lp1058
S'is_pypy'
p1059
asbag68
(g89
g70
NtRp1060
(dp1061
g73
(dp1062
g100
g101
ssg82
g1051
sg75
(lp1063
S':'
asbag68
(g89
g70
NtRp1064
(dp1065
g73
(dp1066
sg82
g1051
sg75
(lp1067
g68
(g69
g70
NtRp1068
(dp1069
g73
(dp1070
g81
I4
ssg82
g1064
sg75
(lp1071
g111
asbasbasbag68
(g84
g70
NtRp1072
(dp1073
g73
(dp1074
sg82
g672
sg75
(lp1075
g68
(g89
g70
NtRp1076
(dp1077
g73
(dp1078
g93
g94
ssg82
g1072
sg75
(lp1079
S'local_hosts'
p1080
asbag68
(g89
g70
NtRp1081
(dp1082
g73
(dp1083
g100
g101
ssg82
g1072
sg75
(lp1084
S':'
asbag68
(g89
g70
NtRp1085
(dp1086
g73
(dp1087
sg82
g1072
sg75
(lp1088
g68
(g69
g70
NtRp1089
(dp1090
g73
(dp1091
g81
I4
ssg82
g1085
sg75
(lp1092
g68
(g77
g70
NtRp1093
(dp1094
g73
(dp1095
g81
I3
ssg82
Nsg75
(lp1096
g68
(g84
g70
NtRp1097
(dp1098
g73
(dp1099
sg82
g1093
sg75
(lp1100
g68
(g89
g70
NtRp1101
(dp1102
g73
(dp1103
sg82
g1097
sg75
(lp1104
g68
(g69
g70
NtRp1105
(dp1106
g73
(dp1107
g81
I3
ssg82
g1101
sg75
(lp1108
S'::1'
p1109
asbasbasbag68
(g84
g70
NtRp1110
(dp1111
g73
(dp1112
sg82
g1093
sg75
(lp1113
g68
(g89
g70
NtRp1114
(dp1115
g73
(dp1116
sg82
g1110
sg75
(lp1117
g68
(g69
g70
NtRp1118
(dp1119
g73
(dp1120
g81
I3
ssg82
g1114
sg75
(lp1121
S'::ffff:127.0.0.1'
p1122
asbasbasbag68
(g84
g70
NtRp1123
(dp1124
g73
(dp1125
sg82
g1093
sg75
(lp1126
g68
(g89
g70
NtRp1127
(dp1128
g73
(dp1129
sg82
g1123
sg75
(lp1130
g68
(g69
g70
NtRp1131
(dp1132
g73
(dp1133
g81
I3
ssg82
g1127
sg75
(lp1134
S'127.0.0.1'
p1135
asbasbasbag68
(g84
g70
NtRp1136
(dp1137
g73
(dp1138
sg82
g1093
sg75
(lp1139
g68
(g89
g70
NtRp1140
(dp1141
g73
(dp1142
sg82
g1136
sg75
(lp1143
g68
(g69
g70
NtRp1144
(dp1145
g73
(dp1146
g81
I3
ssg82
g1140
sg75
(lp1147
S'fernando-workstation'
p1148
asbasbasbasbasbasbasbag68
(g84
g70
NtRp1149
(dp1150
g73
(dp1151
sg82
g672
sg75
(lp1152
g68
(g89
g70
NtRp1153
(dp1154
g73
(dp1155
g93
g94
ssg82
g1149
sg75
(lp1156
S'path_info'
p1157
asbag68
(g89
g70
NtRp1158
(dp1159
g73
(dp1160
g100
g101
ssg82
g1149
sg75
(lp1161
S':'
asbag68
(g89
g70
NtRp1162
(dp1163
g73
(dp1164
sg82
g1149
sg75
(lp1165
g68
(g69
g70
NtRp1166
(dp1167
g73
(dp1168
g81
I4
ssg82
g1162
sg75
(lp1169
S'/'
asbasbasbag68
(g84
g70
NtRp1170
(dp1171
g73
(dp1172
sg82
g672
sg75
(lp1173
g68
(g89
g70
NtRp1174
(dp1175
g73
(dp1176
g93
g94
ssg82
g1170
sg75
(lp1177
S'query_string'
p1178
asbag68
(g89
g70
NtRp1179
(dp1180
g73
(dp1181
g100
g101
ssg82
g1170
sg75
(lp1182
S':'
asbag68
(g89
g70
NtRp1183
(dp1184
g73
(dp1185
sg82
g1170
sg75
(lp1186
g68
(g69
g70
NtRp1187
(dp1188
g73
(dp1189
g81
I4
ssg82
g1183
sg75
(lp1190
S''
asbasbasbag68
(g84
g70
NtRp1191
(dp1192
g73
(dp1193
sg82
g672
sg75
(lp1194
g68
(g89
g70
NtRp1195
(dp1196
g73
(dp1197
g93
g94
ssg82
g1191
sg75
(lp1198
S'remote_addr'
p1199
asbag68
(g89
g70
NtRp1200
(dp1201
g73
(dp1202
g100
g101
ssg82
g1191
sg75
(lp1203
S':'
asbag68
(g89
g70
NtRp1204
(dp1205
g73
(dp1206
sg82
g1191
sg75
(lp1207
g68
(g69
g70
NtRp1208
(dp1209
g73
(dp1210
g81
I4
ssg82
g1204
sg75
(lp1211
g223
asbasbasbag68
(g84
g70
NtRp1212
(dp1213
g73
(dp1214
sg82
g672
sg75
(lp1215
g68
(g89
g70
NtRp1216
(dp1217
g73
(dp1218
g93
g94
ssg82
g1212
sg75
(lp1219
S'remote_port'
p1220
asbag68
(g89
g70
NtRp1221
(dp1222
g73
(dp1223
g100
g101
ssg82
g1212
sg75
(lp1224
S':'
asbag68
(g89
g70
NtRp1225
(dp1226
g73
(dp1227
sg82
g1212
sg75
(lp1228
g68
(g69
g70
NtRp1229
(dp1230
g73
(dp1231
g81
I4
ssg82
g1225
sg75
(lp1232
S'35861'
p1233
asbasbasbag68
(g84
g70
NtRp1234
(dp1235
g73
(dp1236
sg82
g672
sg75
(lp1237
g68
(g89
g70
NtRp1238
(dp1239
g73
(dp1240
g93
g94
ssg82
g1234
sg75
(lp1241
S'request_method'
p1242
asbag68
(g89
g70
NtRp1243
(dp1244
g73
(dp1245
g100
g101
ssg82
g1234
sg75
(lp1246
S':'
asbag68
(g89
g70
NtRp1247
(dp1248
g73
(dp1249
sg82
g1234
sg75
(lp1250
g68
(g69
g70
NtRp1251
(dp1252
g73
(dp1253
g81
I4
ssg82
g1247
sg75
(lp1254
S'GET'
p1255
asbasbasbag68
(g84
g70
NtRp1256
(dp1257
g73
(dp1258
sg82
g672
sg75
(lp1259
g68
(g89
g70
NtRp1260
(dp1261
g73
(dp1262
g93
g94
ssg82
g1256
sg75
(lp1263
S'request_uri'
p1264
asbag68
(g89
g70
NtRp1265
(dp1266
g73
(dp1267
g100
g101
ssg82
g1256
sg75
(lp1268
S':'
asbag68
(g89
g70
NtRp1269
(dp1270
g73
(dp1271
sg82
g1256
sg75
(lp1272
g68
(g69
g70
NtRp1273
(dp1274
g73
(dp1275
g81
I4
ssg82
g1269
sg75
(lp1276
S'/projeto/initial/principal'
p1277
asbasbasbag68
(g84
g70
NtRp1278
(dp1279
g73
(dp1280
sg82
g672
sg75
(lp1281
g68
(g89
g70
NtRp1282
(dp1283
g73
(dp1284
g93
g94
ssg82
g1278
sg75
(lp1285
S'script_name'
p1286
asbag68
(g89
g70
NtRp1287
(dp1288
g73
(dp1289
g100
g101
ssg82
g1278
sg75
(lp1290
S':'
asbag68
(g89
g70
NtRp1291
(dp1292
g73
(dp1293
sg82
g1278
sg75
(lp1294
g68
(g69
g70
NtRp1295
(dp1296
g73
(dp1297
g81
I4
ssg82
g1291
sg75
(lp1298
S''
asbasbasbag68
(g84
g70
NtRp1299
(dp1300
g73
(dp1301
sg82
g672
sg75
(lp1302
g68
(g89
g70
NtRp1303
(dp1304
g73
(dp1305
g93
g94
ssg82
g1299
sg75
(lp1306
S'server_name'
p1307
asbag68
(g89
g70
NtRp1308
(dp1309
g73
(dp1310
g100
g101
ssg82
g1299
sg75
(lp1311
S':'
asbag68
(g89
g70
NtRp1312
(dp1313
g73
(dp1314
sg82
g1299
sg75
(lp1315
g68
(g69
g70
NtRp1316
(dp1317
g73
(dp1318
g81
I4
ssg82
g1312
sg75
(lp1319
S'fernando-workstation'
p1320
asbasbasbag68
(g84
g70
NtRp1321
(dp1322
g73
(dp1323
sg82
g672
sg75
(lp1324
g68
(g89
g70
NtRp1325
(dp1326
g73
(dp1327
g93
g94
ssg82
g1321
sg75
(lp1328
S'server_port'
p1329
asbag68
(g89
g70
NtRp1330
(dp1331
g73
(dp1332
g100
g101
ssg82
g1321
sg75
(lp1333
S':'
asbag68
(g89
g70
NtRp1334
(dp1335
g73
(dp1336
sg82
g1321
sg75
(lp1337
g68
(g69
g70
NtRp1338
(dp1339
g73
(dp1340
g81
I4
ssg82
g1334
sg75
(lp1341
S'8000'
p1342
asbasbasbag68
(g84
g70
NtRp1343
(dp1344
g73
(dp1345
sg82
g672
sg75
(lp1346
g68
(g89
g70
NtRp1347
(dp1348
g73
(dp1349
g93
g94
ssg82
g1343
sg75
(lp1350
S'server_protocol'
p1351
asbag68
(g89
g70
NtRp1352
(dp1353
g73
(dp1354
g100
g101
ssg82
g1343
sg75
(lp1355
S':'
asbag68
(g89
g70
NtRp1356
(dp1357
g73
(dp1358
sg82
g1343
sg75
(lp1359
g68
(g69
g70
NtRp1360
(dp1361
g73
(dp1362
g81
I4
ssg82
g1356
sg75
(lp1363
S'HTTP/1.1'
p1364
asbasbasbag68
(g84
g70
NtRp1365
(dp1366
g73
(dp1367
sg82
g672
sg75
(lp1368
g68
(g89
g70
NtRp1369
(dp1370
g73
(dp1371
g93
g94
ssg82
g1365
sg75
(lp1372
S'server_software'
p1373
asbag68
(g89
g70
NtRp1374
(dp1375
g73
(dp1376
g100
g101
ssg82
g1365
sg75
(lp1377
S':'
asbag68
(g89
g70
NtRp1378
(dp1379
g73
(dp1380
sg82
g1365
sg75
(lp1381
g68
(g69
g70
NtRp1382
(dp1383
g73
(dp1384
g81
I4
ssg82
g1378
sg75
(lp1385
S'Rocket 1.2.6'
p1386
asbasbasbag68
(g84
g70
NtRp1387
(dp1388
g73
(dp1389
sg82
g672
sg75
(lp1390
g68
(g89
g70
NtRp1391
(dp1392
g73
(dp1393
g93
g94
ssg82
g1387
sg75
(lp1394
S'web2py_original_uri'
p1395
asbag68
(g89
g70
NtRp1396
(dp1397
g73
(dp1398
g100
g101
ssg82
g1387
sg75
(lp1399
S':'
asbag68
(g89
g70
NtRp1400
(dp1401
g73
(dp1402
sg82
g1387
sg75
(lp1403
g68
(g69
g70
NtRp1404
(dp1405
g73
(dp1406
g81
I4
ssg82
g1400
sg75
(lp1407
S'/'
asbasbasbag68
(g84
g70
NtRp1408
(dp1409
g73
(dp1410
sg82
g672
sg75
(lp1411
g68
(g89
g70
NtRp1412
(dp1413
g73
(dp1414
g93
g94
ssg82
g1408
sg75
(lp1415
S'web2py_path'
p1416
asbag68
(g89
g70
NtRp1417
(dp1418
g73
(dp1419
g100
g101
ssg82
g1408
sg75
(lp1420
S':'
asbag68
(g89
g70
NtRp1421
(dp1422
g73
(dp1423
sg82
g1408
sg75
(lp1424
g68
(g69
g70
NtRp1425
(dp1426
g73
(dp1427
g81
I4
ssg82
g1421
sg75
(lp1428
g719
asbasbasbag68
(g84
g70
NtRp1429
(dp1430
g73
(dp1431
sg82
g672
sg75
(lp1432
g68
(g89
g70
NtRp1433
(dp1434
g73
(dp1435
g93
g94
ssg82
g1429
sg75
(lp1436
S'web2py_version'
p1437
asbag68
(g89
g70
NtRp1438
(dp1439
g73
(dp1440
g100
g101
ssg82
g1429
sg75
(lp1441
S':'
asbag68
(g89
g70
NtRp1442
(dp1443
g73
(dp1444
sg82
g1429
sg75
(lp1445
g68
(g69
g70
NtRp1446
(dp1447
g73
(dp1448
g81
I4
ssg82
g1442
sg75
(lp1449
g68
(g77
g70
NtRp1450
(dp1451
g73
(dp1452
g81
I3
ssg82
Nsg75
(lp1453
g68
(g84
g70
NtRp1454
(dp1455
g73
(dp1456
sg82
g1450
sg75
(lp1457
g68
(g89
g70
NtRp1458
(dp1459
g73
(dp1460
sg82
g1454
sg75
(lp1461
g68
(g69
g70
NtRp1462
(dp1463
g73
(dp1464
g81
I3
ssg82
g1458
sg75
(lp1465
S'2'
asbasbasbag68
(g84
g70
NtRp1466
(dp1467
g73
(dp1468
sg82
g1450
sg75
(lp1469
g68
(g89
g70
NtRp1470
(dp1471
g73
(dp1472
sg82
g1466
sg75
(lp1473
g68
(g69
g70
NtRp1474
(dp1475
g73
(dp1476
g81
I3
ssg82
g1470
sg75
(lp1477
S'3'
asbasbasbag68
(g84
g70
NtRp1478
(dp1479
g73
(dp1480
sg82
g1450
sg75
(lp1481
g68
(g89
g70
NtRp1482
(dp1483
g73
(dp1484
sg82
g1478
sg75
(lp1485
g68
(g69
g70
NtRp1486
(dp1487
g73
(dp1488
g81
I3
ssg82
g1482
sg75
(lp1489
S'2'
asbasbasbag68
(g84
g70
NtRp1490
(dp1491
g73
(dp1492
sg82
g1450
sg75
(lp1493
g68
(g89
g70
NtRp1494
(dp1495
g73
(dp1496
sg82
g1490
sg75
(lp1497
g68
(g69
g70
NtRp1498
(dp1499
g73
(dp1500
g81
I3
ssg82
g1494
sg75
(lp1501
S'datetime.datetime(2012, 12, 17, 15, 3, 30)'
p1502
asbasbasbag68
(g84
g70
NtRp1503
(dp1504
g73
(dp1505
sg82
g1450
sg75
(lp1506
g68
(g89
g70
NtRp1507
(dp1508
g73
(dp1509
sg82
g1503
sg75
(lp1510
g68
(g69
g70
NtRp1511
(dp1512
g73
(dp1513
g81
I3
ssg82
g1507
sg75
(lp1514
S'stable'
p1515
asbasbasbasbasbasbasbag68
(g84
g70
NtRp1516
(dp1517
g73
(dp1518
sg82
g672
sg75
(lp1519
g68
(g89
g70
NtRp1520
(dp1521
g73
(dp1522
g93
g94
ssg82
g1516
sg75
(lp1523
S'wsgi_errors'
p1524
asbag68
(g89
g70
NtRp1525
(dp1526
g73
(dp1527
g100
g101
ssg82
g1516
sg75
(lp1528
S':'
asbag68
(g89
g70
NtRp1529
(dp1530
g73
(dp1531
sg82
g1516
sg75
(lp1532
g68
(g69
g70
NtRp1533
(dp1534
g73
(dp1535
g81
I4
ssg82
g1529
sg75
(lp1536
S"<open file '<stderr>', mode 'w' at 0x7fc41b634270>"
p1537
asbasbasbag68
(g84
g70
NtRp1538
(dp1539
g73
(dp1540
sg82
g672
sg75
(lp1541
g68
(g89
g70
NtRp1542
(dp1543
g73
(dp1544
g93
g94
ssg82
g1538
sg75
(lp1545
S'wsgi_file_wrapper'
p1546
asbag68
(g89
g70
NtRp1547
(dp1548
g73
(dp1549
g100
g101
ssg82
g1538
sg75
(lp1550
S':'
asbag68
(g89
g70
NtRp1551
(dp1552
g73
(dp1553
sg82
g1538
sg75
(lp1554
g68
(g69
g70
NtRp1555
(dp1556
g73
(dp1557
g81
I4
ssg82
g1551
sg75
(lp1558
S'<class wsgiref.util.FileWrapper at 0x17fd598>'
p1559
asbasbasbag68
(g84
g70
NtRp1560
(dp1561
g73
(dp1562
sg82
g672
sg75
(lp1563
g68
(g89
g70
NtRp1564
(dp1565
g73
(dp1566
g93
g94
ssg82
g1560
sg75
(lp1567
S'wsgi_input'
p1568
asbag68
(g89
g70
NtRp1569
(dp1570
g73
(dp1571
g100
g101
ssg82
g1560
sg75
(lp1572
S':'
asbag68
(g89
g70
NtRp1573
(dp1574
g73
(dp1575
sg82
g1560
sg75
(lp1576
g68
(g69
g70
NtRp1577
(dp1578
g73
(dp1579
g81
I4
ssg82
g1573
sg75
(lp1580
S'<socket._fileobject object at 0x7fc40c14e5d0>'
p1581
asbasbasbag68
(g84
g70
NtRp1582
(dp1583
g73
(dp1584
sg82
g672
sg75
(lp1585
g68
(g89
g70
NtRp1586
(dp1587
g73
(dp1588
g93
g94
ssg82
g1582
sg75
(lp1589
S'wsgi_multiprocess'
p1590
asbag68
(g89
g70
NtRp1591
(dp1592
g73
(dp1593
g100
g101
ssg82
g1582
sg75
(lp1594
S':'
asbag68
(g89
g70
NtRp1595
(dp1596
g73
(dp1597
sg82
g1582
sg75
(lp1598
g68
(g69
g70
NtRp1599
(dp1600
g73
(dp1601
g81
I4
ssg82
g1595
sg75
(lp1602
g111
asbasbasbag68
(g84
g70
NtRp1603
(dp1604
g73
(dp1605
sg82
g672
sg75
(lp1606
g68
(g89
g70
NtRp1607
(dp1608
g73
(dp1609
g93
g94
ssg82
g1603
sg75
(lp1610
S'wsgi_multithread'
p1611
asbag68
(g89
g70
NtRp1612
(dp1613
g73
(dp1614
g100
g101
ssg82
g1603
sg75
(lp1615
S':'
asbag68
(g89
g70
NtRp1616
(dp1617
g73
(dp1618
sg82
g1603
sg75
(lp1619
g68
(g69
g70
NtRp1620
(dp1621
g73
(dp1622
g81
I4
ssg82
g1616
sg75
(lp1623
S'True'
p1624
asbasbasbag68
(g84
g70
NtRp1625
(dp1626
g73
(dp1627
sg82
g672
sg75
(lp1628
g68
(g89
g70
NtRp1629
(dp1630
g73
(dp1631
g93
g94
ssg82
g1625
sg75
(lp1632
S'wsgi_run_once'
p1633
asbag68
(g89
g70
NtRp1634
(dp1635
g73
(dp1636
g100
g101
ssg82
g1625
sg75
(lp1637
S':'
asbag68
(g89
g70
NtRp1638
(dp1639
g73
(dp1640
sg82
g1625
sg75
(lp1641
g68
(g69
g70
NtRp1642
(dp1643
g73
(dp1644
g81
I4
ssg82
g1638
sg75
(lp1645
g111
asbasbasbag68
(g84
g70
NtRp1646
(dp1647
g73
(dp1648
sg82
g672
sg75
(lp1649
g68
(g89
g70
NtRp1650
(dp1651
g73
(dp1652
g93
g94
ssg82
g1646
sg75
(lp1653
S'wsgi_url_scheme'
p1654
asbag68
(g89
g70
NtRp1655
(dp1656
g73
(dp1657
g100
g101
ssg82
g1646
sg75
(lp1658
S':'
asbag68
(g89
g70
NtRp1659
(dp1660
g73
(dp1661
sg82
g1646
sg75
(lp1662
g68
(g69
g70
NtRp1663
(dp1664
g73
(dp1665
g81
I4
ssg82
g1659
sg75
(lp1666
S'http'
p1667
asbasbasbag68
(g84
g70
NtRp1668
(dp1669
g73
(dp1670
sg82
g672
sg75
(lp1671
g68
(g89
g70
NtRp1672
(dp1673
g73
(dp1674
g93
g94
ssg82
g1668
sg75
(lp1675
S'wsgi_version'
p1676
asbag68
(g89
g70
NtRp1677
(dp1678
g73
(dp1679
g100
g101
ssg82
g1668
sg75
(lp1680
S':'
asbag68
(g89
g70
NtRp1681
(dp1682
g73
(dp1683
sg82
g1668
sg75
(lp1684
g68
(g69
g70
NtRp1685
(dp1686
g73
(dp1687
g81
I4
ssg82
g1681
sg75
(lp1688
g68
(g77
g70
NtRp1689
(dp1690
g73
(dp1691
g81
I3
ssg82
Nsg75
(lp1692
g68
(g84
g70
NtRp1693
(dp1694
g73
(dp1695
sg82
g1689
sg75
(lp1696
g68
(g89
g70
NtRp1697
(dp1698
g73
(dp1699
sg82
g1693
sg75
(lp1700
g68
(g69
g70
NtRp1701
(dp1702
g73
(dp1703
g81
I3
ssg82
g1697
sg75
(lp1704
S'1'
asbasbasbag68
(g84
g70
NtRp1705
(dp1706
g73
(dp1707
sg82
g1689
sg75
(lp1708
g68
(g89
g70
NtRp1709
(dp1710
g73
(dp1711
sg82
g1705
sg75
(lp1712
g68
(g69
g70
NtRp1713
(dp1714
g73
(dp1715
g81
I3
ssg82
g1709
sg75
(lp1716
S'0'
asbasbasbasbasbasbasbasbasbasbasbag68
(g84
g70
NtRp1717
(dp1718
g73
(dp1719
sg82
g78
sg75
(lp1720
g68
(g89
g70
NtRp1721
(dp1722
g73
(dp1723
g93
g94
ssg82
g1717
sg75
(lp1724
S'extension'
p1725
asbag68
(g89
g70
NtRp1726
(dp1727
g73
(dp1728
g100
g101
ssg82
g1717
sg75
(lp1729
S':'
asbag68
(g89
g70
NtRp1730
(dp1731
g73
(dp1732
sg82
g1717
sg75
(lp1733
g68
(g69
g70
NtRp1734
(dp1735
g73
(dp1736
g81
I5
ssg82
g1730
sg75
(lp1737
S'html'
p1738
asbasbasbag68
(g84
g70
NtRp1739
(dp1740
g73
(dp1741
sg82
g78
sg75
(lp1742
g68
(g89
g70
NtRp1743
(dp1744
g73
(dp1745
g93
g94
ssg82
g1739
sg75
(lp1746
S'folder'
p1747
asbag68
(g89
g70
NtRp1748
(dp1749
g73
(dp1750
g100
g101
ssg82
g1739
sg75
(lp1751
S':'
asbag68
(g89
g70
NtRp1752
(dp1753
g73
(dp1754
sg82
g1739
sg75
(lp1755
g68
(g69
g70
NtRp1756
(dp1757
g73
(dp1758
g81
I5
ssg82
g1752
sg75
(lp1759
S'/var/www/conferencia/applications/projeto/'
p1760
asbasbasbag68
(g84
g70
NtRp1761
(dp1762
g73
(dp1763
sg82
g78
sg75
(lp1764
g68
(g89
g70
NtRp1765
(dp1766
g73
(dp1767
g93
g94
ssg82
g1761
sg75
(lp1768
S'function'
p1769
asbag68
(g89
g70
NtRp1770
(dp1771
g73
(dp1772
g100
g101
ssg82
g1761
sg75
(lp1773
S':'
asbag68
(g89
g70
NtRp1774
(dp1775
g73
(dp1776
sg82
g1761
sg75
(lp1777
g68
(g69
g70
NtRp1778
(dp1779
g73
(dp1780
g81
I5
ssg82
g1774
sg75
(lp1781
S'principal'
p1782
asbasbasbag68
(g84
g70
NtRp1783
(dp1784
g73
(dp1785
sg82
g78
sg75
(lp1786
g68
(g89
g70
NtRp1787
(dp1788
g73
(dp1789
g93
g94
ssg82
g1783
sg75
(lp1790
S'get_vars'
p1791
asbag68
(g89
g70
NtRp1792
(dp1793
g73
(dp1794
g100
g101
ssg82
g1783
sg75
(lp1795
S':'
asbag68
(g89
g70
NtRp1796
(dp1797
g73
(dp1798
sg82
g1783
sg75
(lp1799
g68
(g69
g70
NtRp1800
(dp1801
g73
(dp1802
g81
I5
ssg82
g1796
sg75
(lp1803
g68
(g77
g70
NtRp1804
(dp1805
g73
(dp1806
g81
I4
ssg82
Nsg75
(lp1807
sbasbasbasbag68
(g84
g70
NtRp1808
(dp1809
g73
(dp1810
sg82
g78
sg75
(lp1811
g68
(g89
g70
NtRp1812
(dp1813
g73
(dp1814
g93
g94
ssg82
g1808
sg75
(lp1815
S'global_settings'
p1816
asbag68
(g89
g70
NtRp1817
(dp1818
g73
(dp1819
g100
g101
ssg82
g1808
sg75
(lp1820
S':'
asbag68
(g89
g70
NtRp1821
(dp1822
g73
(dp1823
sg82
g1808
sg75
(lp1824
g68
(g69
g70
NtRp1825
(dp1826
g73
(dp1827
g81
I5
ssg82
g1821
sg75
(lp1828
g68
(g77
g70
NtRp1829
(dp1830
g73
(dp1831
g81
I4
ssg82
Nsg75
(lp1832
g68
(g84
g70
NtRp1833
(dp1834
g73
(dp1835
sg82
g1829
sg75
(lp1836
g68
(g89
g70
NtRp1837
(dp1838
g73
(dp1839
g93
g94
ssg82
g1833
sg75
(lp1840
g684
asbag68
(g89
g70
NtRp1841
(dp1842
g73
(dp1843
g100
g101
ssg82
g1833
sg75
(lp1844
S':'
asbag68
(g89
g70
NtRp1845
(dp1846
g73
(dp1847
sg82
g1833
sg75
(lp1848
g68
(g69
g70
NtRp1849
(dp1850
g73
(dp1851
g81
I4
ssg82
g1845
sg75
(lp1852
S"set(['/var/www/conferencia/applications/admin/', '/var/www/conferencia/applications/projeto/'])"
p1853
asbasbasbag68
(g84
g70
NtRp1854
(dp1855
g73
(dp1856
sg82
g1829
sg75
(lp1857
g68
(g89
g70
NtRp1858
(dp1859
g73
(dp1860
g93
g94
ssg82
g1854
sg75
(lp1861
g706
asbag68
(g89
g70
NtRp1862
(dp1863
g73
(dp1864
g100
g101
ssg82
g1854
sg75
(lp1865
S':'
asbag68
(g89
g70
NtRp1866
(dp1867
g73
(dp1868
sg82
g1854
sg75
(lp1869
g68
(g69
g70
NtRp1870
(dp1871
g73
(dp1872
g81
I4
ssg82
g1866
sg75
(lp1873
g719
asbasbasbag68
(g84
g70
NtRp1874
(dp1875
g73
(dp1876
sg82
g1829
sg75
(lp1877
g68
(g89
g70
NtRp1878
(dp1879
g73
(dp1880
g93
g94
ssg82
g1874
sg75
(lp1881
g728
asbag68
(g89
g70
NtRp1882
(dp1883
g73
(dp1884
g100
g101
ssg82
g1874
sg75
(lp1885
S':'
asbag68
(g89
g70
NtRp1886
(dp1887
g73
(dp1888
sg82
g1874
sg75
(lp1889
g68
(g69
g70
NtRp1890
(dp1891
g73
(dp1892
g81
I4
ssg82
g1886
sg75
(lp1893
g68
(g77
g70
NtRp1894
(dp1895
g73
(dp1896
g81
I3
ssg82
Nsg75
(lp1897
sbasbasbasbag68
(g84
g70
NtRp1898
(dp1899
g73
(dp1900
sg82
g1829
sg75
(lp1901
g68
(g89
g70
NtRp1902
(dp1903
g73
(dp1904
g93
g94
ssg82
g1898
sg75
(lp1905
g753
asbag68
(g89
g70
NtRp1906
(dp1907
g73
(dp1908
g100
g101
ssg82
g1898
sg75
(lp1909
S':'
asbag68
(g89
g70
NtRp1910
(dp1911
g73
(dp1912
sg82
g1898
sg75
(lp1913
g68
(g69
g70
NtRp1914
(dp1915
g73
(dp1916
g81
I4
ssg82
g1910
sg75
(lp1917
S"<Values at 0x1885248: {'verbose': False, 'ip': '127.0.0.1', 'with_scheduler': False, 'ips': [], 'shutdown_timeout': 5, 'taskbar': False, 'port': 8000, 'maxthreads': None, 'softcron': False, 'server_name': 'fernando-workstation', 'bpython': False, 'nogui': False, 'pid_filename': 'httpserver.pid', 'extcron': False, 'runcron': False, 'run_system_tests': False, 'test': None, 'folder': '/var/www/conferencia', 'config': '', 'minthreads': None, 'winservice': '', 'shell': None, 'run': '', 'log_filename': 'httpserver.log', 'debuglevel': 30, 'args': [''], 'socket_timeout': 5, 'ssl_ca_certificate': None, 'scheduler': None, 'profiler_filename': None, 'ssl_private_key': '', 'scheduler_groups': None, 'password': '123456', 'request_queue_size': 5, 'ssl_certificate': '', 'cronjob': False, 'numthreads': None, 'quiet': False, 'interfaces': None, 'import_models': False, 'timeout': 10, 'plain': False, 'nobanner': False}>"
p1918
asbasbasbag68
(g84
g70
NtRp1919
(dp1920
g73
(dp1921
sg82
g1829
sg75
(lp1922
g68
(g89
g70
NtRp1923
(dp1924
g73
(dp1925
g93
g94
ssg82
g1919
sg75
(lp1926
g775
asbag68
(g89
g70
NtRp1927
(dp1928
g73
(dp1929
g100
g101
ssg82
g1919
sg75
(lp1930
S':'
asbag68
(g89
g70
NtRp1931
(dp1932
g73
(dp1933
sg82
g1919
sg75
(lp1934
g68
(g69
g70
NtRp1935
(dp1936
g73
(dp1937
g81
I4
ssg82
g1931
sg75
(lp1938
S'set([])'
p1939
asbasbasbag68
(g84
g70
NtRp1940
(dp1941
g73
(dp1942
sg82
g1829
sg75
(lp1943
g68
(g89
g70
NtRp1944
(dp1945
g73
(dp1946
g93
g94
ssg82
g1940
sg75
(lp1947
g797
asbag68
(g89
g70
NtRp1948
(dp1949
g73
(dp1950
g100
g101
ssg82
g1940
sg75
(lp1951
S':'
asbag68
(g89
g70
NtRp1952
(dp1953
g73
(dp1954
sg82
g1940
sg75
(lp1955
g68
(g69
g70
NtRp1956
(dp1957
g73
(dp1958
g81
I4
ssg82
g1952
sg75
(lp1959
g111
asbasbasbag68
(g84
g70
NtRp1960
(dp1961
g73
(dp1962
sg82
g1829
sg75
(lp1963
g68
(g89
g70
NtRp1964
(dp1965
g73
(dp1966
g93
g94
ssg82
g1960
sg75
(lp1967
g818
asbag68
(g89
g70
NtRp1968
(dp1969
g73
(dp1970
g100
g101
ssg82
g1960
sg75
(lp1971
S':'
asbag68
(g89
g70
NtRp1972
(dp1973
g73
(dp1974
sg82
g1960
sg75
(lp1975
g68
(g69
g70
NtRp1976
(dp1977
g73
(dp1978
g81
I4
ssg82
g1972
sg75
(lp1979
g831
asbasbasbag68
(g84
g70
NtRp1980
(dp1981
g73
(dp1982
sg82
g1829
sg75
(lp1983
g68
(g89
g70
NtRp1984
(dp1985
g73
(dp1986
g93
g94
ssg82
g1980
sg75
(lp1987
g1038
asbag68
(g89
g70
NtRp1988
(dp1989
g73
(dp1990
g100
g101
ssg82
g1980
sg75
(lp1991
S':'
asbag68
(g89
g70
NtRp1992
(dp1993
g73
(dp1994
sg82
g1980
sg75
(lp1995
g68
(g69
g70
NtRp1996
(dp1997
g73
(dp1998
g81
I4
ssg82
g1992
sg75
(lp1999
g111
asbasbasbag68
(g84
g70
NtRp2000
(dp2001
g73
(dp2002
sg82
g1829
sg75
(lp2003
g68
(g89
g70
NtRp2004
(dp2005
g73
(dp2006
g93
g94
ssg82
g2000
sg75
(lp2007
g1059
asbag68
(g89
g70
NtRp2008
(dp2009
g73
(dp2010
g100
g101
ssg82
g2000
sg75
(lp2011
S':'
asbag68
(g89
g70
NtRp2012
(dp2013
g73
(dp2014
sg82
g2000
sg75
(lp2015
g68
(g69
g70
NtRp2016
(dp2017
g73
(dp2018
g81
I4
ssg82
g2012
sg75
(lp2019
g111
asbasbasbag68
(g84
g70
NtRp2020
(dp2021
g73
(dp2022
sg82
g1829
sg75
(lp2023
g68
(g89
g70
NtRp2024
(dp2025
g73
(dp2026
g93
g94
ssg82
g2020
sg75
(lp2027
g1080
asbag68
(g89
g70
NtRp2028
(dp2029
g73
(dp2030
g100
g101
ssg82
g2020
sg75
(lp2031
S':'
asbag68
(g89
g70
NtRp2032
(dp2033
g73
(dp2034
sg82
g2020
sg75
(lp2035
g68
(g69
g70
NtRp2036
(dp2037
g73
(dp2038
g81
I4
ssg82
g2032
sg75
(lp2039
g68
(g77
g70
NtRp2040
(dp2041
g73
(dp2042
g81
I3
ssg82
Nsg75
(lp2043
g68
(g84
g70
NtRp2044
(dp2045
g73
(dp2046
sg82
g2040
sg75
(lp2047
g68
(g89
g70
NtRp2048
(dp2049
g73
(dp2050
sg82
g2044
sg75
(lp2051
g68
(g69
g70
NtRp2052
(dp2053
g73
(dp2054
g81
I3
ssg82
g2048
sg75
(lp2055
g1109
asbasbasbag68
(g84
g70
NtRp2056
(dp2057
g73
(dp2058
sg82
g2040
sg75
(lp2059
g68
(g89
g70
NtRp2060
(dp2061
g73
(dp2062
sg82
g2056
sg75
(lp2063
g68
(g69
g70
NtRp2064
(dp2065
g73
(dp2066
g81
I3
ssg82
g2060
sg75
(lp2067
g1122
asbasbasbag68
(g84
g70
NtRp2068
(dp2069
g73
(dp2070
sg82
g2040
sg75
(lp2071
g68
(g89
g70
NtRp2072
(dp2073
g73
(dp2074
sg82
g2068
sg75
(lp2075
g68
(g69
g70
NtRp2076
(dp2077
g73
(dp2078
g81
I3
ssg82
g2072
sg75
(lp2079
g1135
asbasbasbag68
(g84
g70
NtRp2080
(dp2081
g73
(dp2082
sg82
g2040
sg75
(lp2083
g68
(g89
g70
NtRp2084
(dp2085
g73
(dp2086
sg82
g2080
sg75
(lp2087
g68
(g69
g70
NtRp2088
(dp2089
g73
(dp2090
g81
I3
ssg82
g2084
sg75
(lp2091
g1148
asbasbasbasbasbasbasbag68
(g84
g70
NtRp2092
(dp2093
g73
(dp2094
sg82
g1829
sg75
(lp2095
g68
(g89
g70
NtRp2096
(dp2097
g73
(dp2098
g93
g94
ssg82
g2092
sg75
(lp2099
g1437
asbag68
(g89
g70
NtRp2100
(dp2101
g73
(dp2102
g100
g101
ssg82
g2092
sg75
(lp2103
S':'
asbag68
(g89
g70
NtRp2104
(dp2105
g73
(dp2106
sg82
g2092
sg75
(lp2107
g68
(g69
g70
NtRp2108
(dp2109
g73
(dp2110
g81
I4
ssg82
g2104
sg75
(lp2111
g68
(g77
g70
NtRp2112
(dp2113
g73
(dp2114
g81
I3
ssg82
Nsg75
(lp2115
g68
(g84
g70
NtRp2116
(dp2117
g73
(dp2118
sg82
g2112
sg75
(lp2119
g68
(g89
g70
NtRp2120
(dp2121
g73
(dp2122
sg82
g2116
sg75
(lp2123
g68
(g69
g70
NtRp2124
(dp2125
g73
(dp2126
g81
I3
ssg82
g2120
sg75
(lp2127
S'2'
asbasbasbag68
(g84
g70
NtRp2128
(dp2129
g73
(dp2130
sg82
g2112
sg75
(lp2131
g68
(g89
g70
NtRp2132
(dp2133
g73
(dp2134
sg82
g2128
sg75
(lp2135
g68
(g69
g70
NtRp2136
(dp2137
g73
(dp2138
g81
I3
ssg82
g2132
sg75
(lp2139
S'3'
asbasbasbag68
(g84
g70
NtRp2140
(dp2141
g73
(dp2142
sg82
g2112
sg75
(lp2143
g68
(g89
g70
NtRp2144
(dp2145
g73
(dp2146
sg82
g2140
sg75
(lp2147
g68
(g69
g70
NtRp2148
(dp2149
g73
(dp2150
g81
I3
ssg82
g2144
sg75
(lp2151
S'2'
asbasbasbag68
(g84
g70
NtRp2152
(dp2153
g73
(dp2154
sg82
g2112
sg75
(lp2155
g68
(g89
g70
NtRp2156
(dp2157
g73
(dp2158
sg82
g2152
sg75
(lp2159
g68
(g69
g70
NtRp2160
(dp2161
g73
(dp2162
g81
I3
ssg82
g2156
sg75
(lp2163
S'datetime.datetime(2012, 12, 17, 15, 3, 30)'
p2164
asbasbasbag68
(g84
g70
NtRp2165
(dp2166
g73
(dp2167
sg82
g2112
sg75
(lp2168
g68
(g89
g70
NtRp2169
(dp2170
g73
(dp2171
sg82
g2165
sg75
(lp2172
g68
(g69
g70
NtRp2173
(dp2174
g73
(dp2175
g81
I3
ssg82
g2169
sg75
(lp2176
g1515
asbasbasbasbasbasbasbasbasbasbasbag68
(g84
g70
NtRp2177
(dp2178
g73
(dp2179
sg82
g78
sg75
(lp2180
g68
(g89
g70
NtRp2181
(dp2182
g73
(dp2183
g93
g94
ssg82
g2177
sg75
(lp2184
S'is_https'
p2185
asbag68
(g89
g70
NtRp2186
(dp2187
g73
(dp2188
g100
g101
ssg82
g2177
sg75
(lp2189
S':'
asbag68
(g89
g70
NtRp2190
(dp2191
g73
(dp2192
sg82
g2177
sg75
(lp2193
g68
(g69
g70
NtRp2194
(dp2195
g73
(dp2196
g81
I5
ssg82
g2190
sg75
(lp2197
g111
asbasbasbag68
(g84
g70
NtRp2198
(dp2199
g73
(dp2200
sg82
g78
sg75
(lp2201
g68
(g89
g70
NtRp2202
(dp2203
g73
(dp2204
g93
g94
ssg82
g2198
sg75
(lp2205
S'is_local'
p2206
asbag68
(g89
g70
NtRp2207
(dp2208
g73
(dp2209
g100
g101
ssg82
g2198
sg75
(lp2210
S':'
asbag68
(g89
g70
NtRp2211
(dp2212
g73
(dp2213
sg82
g2198
sg75
(lp2214
g68
(g69
g70
NtRp2215
(dp2216
g73
(dp2217
g81
I5
ssg82
g2211
sg75
(lp2218
g1624
asbasbasbag68
(g84
g70
NtRp2219
(dp2220
g73
(dp2221
sg82
g78
sg75
(lp2222
g68
(g89
g70
NtRp2223
(dp2224
g73
(dp2225
g93
g94
ssg82
g2219
sg75
(lp2226
S'is_restful'
p2227
asbag68
(g89
g70
NtRp2228
(dp2229
g73
(dp2230
g100
g101
ssg82
g2219
sg75
(lp2231
S':'
asbag68
(g89
g70
NtRp2232
(dp2233
g73
(dp2234
sg82
g2219
sg75
(lp2235
g68
(g69
g70
NtRp2236
(dp2237
g73
(dp2238
g81
I5
ssg82
g2232
sg75
(lp2239
g111
asbasbasbag68
(g84
g70
NtRp2240
(dp2241
g73
(dp2242
sg82
g78
sg75
(lp2243
g68
(g89
g70
NtRp2244
(dp2245
g73
(dp2246
g93
g94
ssg82
g2240
sg75
(lp2247
S'now'
p2248
asbag68
(g89
g70
NtRp2249
(dp2250
g73
(dp2251
g100
g101
ssg82
g2240
sg75
(lp2252
S':'
asbag68
(g89
g70
NtRp2253
(dp2254
g73
(dp2255
sg82
g2240
sg75
(lp2256
g68
(g69
g70
NtRp2257
(dp2258
g73
(dp2259
g81
I5
ssg82
g2253
sg75
(lp2260
S'datetime.datetime(2013, 4, 5, 15, 58, 20, 40730)'
p2261
asbasbasbag68
(g84
g70
NtRp2262
(dp2263
g73
(dp2264
sg82
g78
sg75
(lp2265
g68
(g89
g70
NtRp2266
(dp2267
g73
(dp2268
g93
g94
ssg82
g2262
sg75
(lp2269
S'post_vars'
p2270
asbag68
(g89
g70
NtRp2271
(dp2272
g73
(dp2273
g100
g101
ssg82
g2262
sg75
(lp2274
S':'
asbag68
(g89
g70
NtRp2275
(dp2276
g73
(dp2277
sg82
g2262
sg75
(lp2278
g68
(g69
g70
NtRp2279
(dp2280
g73
(dp2281
g81
I5
ssg82
g2275
sg75
(lp2282
g68
(g77
g70
NtRp2283
(dp2284
g73
(dp2285
g81
I4
ssg82
Nsg75
(lp2286
sbasbasbasbag68
(g84
g70
NtRp2287
(dp2288
g73
(dp2289
sg82
g78
sg75
(lp2290
g68
(g89
g70
NtRp2291
(dp2292
g73
(dp2293
g93
g94
ssg82
g2287
sg75
(lp2294
S'url'
p2295
asbag68
(g89
g70
NtRp2296
(dp2297
g73
(dp2298
g100
g101
ssg82
g2287
sg75
(lp2299
S':'
asbag68
(g89
g70
NtRp2300
(dp2301
g73
(dp2302
sg82
g2287
sg75
(lp2303
g68
(g69
g70
NtRp2304
(dp2305
g73
(dp2306
g81
I5
ssg82
g2300
sg75
(lp2307
S'/'
asbasbasbag68
(g84
g70
NtRp2308
(dp2309
g73
(dp2310
sg82
g78
sg75
(lp2311
g68
(g89
g70
NtRp2312
(dp2313
g73
(dp2314
g93
g94
ssg82
g2308
sg75
(lp2315
S'utcnow'
p2316
asbag68
(g89
g70
NtRp2317
(dp2318
g73
(dp2319
g100
g101
ssg82
g2308
sg75
(lp2320
S':'
asbag68
(g89
g70
NtRp2321
(dp2322
g73
(dp2323
sg82
g2308
sg75
(lp2324
g68
(g69
g70
NtRp2325
(dp2326
g73
(dp2327
g81
I5
ssg82
g2321
sg75
(lp2328
S'datetime.datetime(2013, 4, 5, 18, 58, 20, 40766)'
p2329
asbasbasbag68
(g84
g70
NtRp2330
(dp2331
g73
(dp2332
sg82
g78
sg75
(lp2333
g68
(g89
g70
NtRp2334
(dp2335
g73
(dp2336
g93
g94
ssg82
g2330
sg75
(lp2337
S'uuid'
p2338
asbag68
(g89
g70
NtRp2339
(dp2340
g73
(dp2341
g100
g101
ssg82
g2330
sg75
(lp2342
S':'
asbag68
(g89
g70
NtRp2343
(dp2344
g73
(dp2345
sg82
g2330
sg75
(lp2346
g68
(g69
g70
NtRp2347
(dp2348
g73
(dp2349
g81
I5
ssg82
g2343
sg75
(lp2350
S'projeto/127.0.0.1.2013-04-05.15-58-20.2fd462bf-e499-4ad0-a92b-4f0d11db44b6'
p2351
asbasbasbag68
(g84
g70
NtRp2352
(dp2353
g73
(dp2354
sg82
g78
sg75
(lp2355
g68
(g89
g70
NtRp2356
(dp2357
g73
(dp2358
g93
g94
ssg82
g2352
sg75
(lp2359
S'vars'
p2360
asbag68
(g89
g70
NtRp2361
(dp2362
g73
(dp2363
g100
g101
ssg82
g2352
sg75
(lp2364
S':'
asbag68
(g89
g70
NtRp2365
(dp2366
g73
(dp2367
sg82
g2352
sg75
(lp2368
g68
(g69
g70
NtRp2369
(dp2370
g73
(dp2371
g81
I5
ssg82
g2365
sg75
(lp2372
g68
(g77
g70
NtRp2373
(dp2374
g73
(dp2375
g81
I4
ssg82
Nsg75
(lp2376
sbasbasbasbag68
(g84
g70
NtRp2377
(dp2378
g73
(dp2379
sg82
g78
sg75
(lp2380
g68
(g89
g70
NtRp2381
(dp2382
g73
(dp2383
g93
g94
ssg82
g2377
sg75
(lp2384
S'wsgi'
p2385
asbag68
(g89
g70
NtRp2386
(dp2387
g73
(dp2388
g100
g101
ssg82
g2377
sg75
(lp2389
S':'
asbag68
(g89
g70
NtRp2390
(dp2391
g73
(dp2392
sg82
g2377
sg75
(lp2393
g68
(g69
g70
NtRp2394
(dp2395
g73
(dp2396
g81
I5
ssg82
g2390
sg75
(lp2397
g68
(g77
g70
NtRp2398
(dp2399
g73
(dp2400
g81
I4
ssg82
Nsg75
(lp2401
g68
(g84
g70
NtRp2402
(dp2403
g73
(dp2404
sg82
g2398
sg75
(lp2405
g68
(g89
g70
NtRp2406
(dp2407
g73
(dp2408
g93
g94
ssg82
g2402
sg75
(lp2409
S'environ'
p2410
asbag68
(g89
g70
NtRp2411
(dp2412
g73
(dp2413
g100
g101
ssg82
g2402
sg75
(lp2414
S':'
asbag68
(g89
g70
NtRp2415
(dp2416
g73
(dp2417
sg82
g2402
sg75
(lp2418
g68
(g69
g70
NtRp2419
(dp2420
g73
(dp2421
g81
I4
ssg82
g2415
sg75
(lp2422
g68
(g77
g70
NtRp2423
(dp2424
g73
(dp2425
g81
I3
ssg82
Nsg75
(lp2426
g68
(g84
g70
NtRp2427
(dp2428
g73
(dp2429
sg82
g2423
sg75
(lp2430
g68
(g89
g70
NtRp2431
(dp2432
g73
(dp2433
g93
g94
ssg82
g2427
sg75
(lp2434
S'HTTP_ACCEPT'
p2435
asbag68
(g89
g70
NtRp2436
(dp2437
g73
(dp2438
g100
g101
ssg82
g2427
sg75
(lp2439
S':'
asbag68
(g89
g70
NtRp2440
(dp2441
g73
(dp2442
sg82
g2427
sg75
(lp2443
g68
(g69
g70
NtRp2444
(dp2445
g73
(dp2446
g81
I3
ssg82
g2440
sg75
(lp2447
g853
asbasbasbag68
(g84
g70
NtRp2448
(dp2449
g73
(dp2450
sg82
g2423
sg75
(lp2451
g68
(g89
g70
NtRp2452
(dp2453
g73
(dp2454
g93
g94
ssg82
g2448
sg75
(lp2455
S'HTTP_ACCEPT_CHARSET'
p2456
asbag68
(g89
g70
NtRp2457
(dp2458
g73
(dp2459
g100
g101
ssg82
g2448
sg75
(lp2460
S':'
asbag68
(g89
g70
NtRp2461
(dp2462
g73
(dp2463
sg82
g2448
sg75
(lp2464
g68
(g69
g70
NtRp2465
(dp2466
g73
(dp2467
g81
I3
ssg82
g2461
sg75
(lp2468
g875
asbasbasbag68
(g84
g70
NtRp2469
(dp2470
g73
(dp2471
sg82
g2423
sg75
(lp2472
g68
(g89
g70
NtRp2473
(dp2474
g73
(dp2475
g93
g94
ssg82
g2469
sg75
(lp2476
S'HTTP_ACCEPT_ENCODING'
p2477
asbag68
(g89
g70
NtRp2478
(dp2479
g73
(dp2480
g100
g101
ssg82
g2469
sg75
(lp2481
S':'
asbag68
(g89
g70
NtRp2482
(dp2483
g73
(dp2484
sg82
g2469
sg75
(lp2485
g68
(g69
g70
NtRp2486
(dp2487
g73
(dp2488
g81
I3
ssg82
g2482
sg75
(lp2489
g897
asbasbasbag68
(g84
g70
NtRp2490
(dp2491
g73
(dp2492
sg82
g2423
sg75
(lp2493
g68
(g89
g70
NtRp2494
(dp2495
g73
(dp2496
g93
g94
ssg82
g2490
sg75
(lp2497
S'HTTP_ACCEPT_LANGUAGE'
p2498
asbag68
(g89
g70
NtRp2499
(dp2500
g73
(dp2501
g100
g101
ssg82
g2490
sg75
(lp2502
S':'
asbag68
(g89
g70
NtRp2503
(dp2504
g73
(dp2505
sg82
g2490
sg75
(lp2506
g68
(g69
g70
NtRp2507
(dp2508
g73
(dp2509
g81
I3
ssg82
g2503
sg75
(lp2510
g919
asbasbasbag68
(g84
g70
NtRp2511
(dp2512
g73
(dp2513
sg82
g2423
sg75
(lp2514
g68
(g89
g70
NtRp2515
(dp2516
g73
(dp2517
g93
g94
ssg82
g2511
sg75
(lp2518
S'HTTP_CACHE_CONTROL'
p2519
asbag68
(g89
g70
NtRp2520
(dp2521
g73
(dp2522
g100
g101
ssg82
g2511
sg75
(lp2523
S':'
asbag68
(g89
g70
NtRp2524
(dp2525
g73
(dp2526
sg82
g2511
sg75
(lp2527
g68
(g69
g70
NtRp2528
(dp2529
g73
(dp2530
g81
I3
ssg82
g2524
sg75
(lp2531
g941
asbasbasbag68
(g84
g70
NtRp2532
(dp2533
g73
(dp2534
sg82
g2423
sg75
(lp2535
g68
(g89
g70
NtRp2536
(dp2537
g73
(dp2538
g93
g94
ssg82
g2532
sg75
(lp2539
S'HTTP_CONNECTION'
p2540
asbag68
(g89
g70
NtRp2541
(dp2542
g73
(dp2543
g100
g101
ssg82
g2532
sg75
(lp2544
S':'
asbag68
(g89
g70
NtRp2545
(dp2546
g73
(dp2547
sg82
g2532
sg75
(lp2548
g68
(g69
g70
NtRp2549
(dp2550
g73
(dp2551
g81
I3
ssg82
g2545
sg75
(lp2552
g963
asbasbasbag68
(g84
g70
NtRp2553
(dp2554
g73
(dp2555
sg82
g2423
sg75
(lp2556
g68
(g89
g70
NtRp2557
(dp2558
g73
(dp2559
g93
g94
ssg82
g2553
sg75
(lp2560
S'HTTP_COOKIE'
p2561
asbag68
(g89
g70
NtRp2562
(dp2563
g73
(dp2564
g100
g101
ssg82
g2553
sg75
(lp2565
S':'
asbag68
(g89
g70
NtRp2566
(dp2567
g73
(dp2568
sg82
g2553
sg75
(lp2569
g68
(g69
g70
NtRp2570
(dp2571
g73
(dp2572
g81
I3
ssg82
g2566
sg75
(lp2573
g985
asbasbasbag68
(g84
g70
NtRp2574
(dp2575
g73
(dp2576
sg82
g2423
sg75
(lp2577
g68
(g89
g70
NtRp2578
(dp2579
g73
(dp2580
g93
g94
ssg82
g2574
sg75
(lp2581
S'HTTP_HOST'
p2582
asbag68
(g89
g70
NtRp2583
(dp2584
g73
(dp2585
g100
g101
ssg82
g2574
sg75
(lp2586
S':'
asbag68
(g89
g70
NtRp2587
(dp2588
g73
(dp2589
sg82
g2574
sg75
(lp2590
g68
(g69
g70
NtRp2591
(dp2592
g73
(dp2593
g81
I3
ssg82
g2587
sg75
(lp2594
g1007
asbasbasbag68
(g84
g70
NtRp2595
(dp2596
g73
(dp2597
sg82
g2423
sg75
(lp2598
g68
(g89
g70
NtRp2599
(dp2600
g73
(dp2601
g93
g94
ssg82
g2595
sg75
(lp2602
S'HTTP_USER_AGENT'
p2603
asbag68
(g89
g70
NtRp2604
(dp2605
g73
(dp2606
g100
g101
ssg82
g2595
sg75
(lp2607
S':'
asbag68
(g89
g70
NtRp2608
(dp2609
g73
(dp2610
sg82
g2595
sg75
(lp2611
g68
(g69
g70
NtRp2612
(dp2613
g73
(dp2614
g81
I3
ssg82
g2608
sg75
(lp2615
g1029
asbasbasbag68
(g84
g70
NtRp2616
(dp2617
g73
(dp2618
sg82
g2423
sg75
(lp2619
g68
(g89
g70
NtRp2620
(dp2621
g73
(dp2622
g93
g94
ssg82
g2616
sg75
(lp2623
S'PATH_INFO'
p2624
asbag68
(g89
g70
NtRp2625
(dp2626
g73
(dp2627
g100
g101
ssg82
g2616
sg75
(lp2628
S':'
asbag68
(g89
g70
NtRp2629
(dp2630
g73
(dp2631
sg82
g2616
sg75
(lp2632
g68
(g69
g70
NtRp2633
(dp2634
g73
(dp2635
g81
I3
ssg82
g2629
sg75
(lp2636
S'/'
asbasbasbag68
(g84
g70
NtRp2637
(dp2638
g73
(dp2639
sg82
g2423
sg75
(lp2640
g68
(g89
g70
NtRp2641
(dp2642
g73
(dp2643
g93
g94
ssg82
g2637
sg75
(lp2644
S'QUERY_STRING'
p2645
asbag68
(g89
g70
NtRp2646
(dp2647
g73
(dp2648
g100
g101
ssg82
g2637
sg75
(lp2649
S':'
asbag68
(g89
g70
NtRp2650
(dp2651
g73
(dp2652
sg82
g2637
sg75
(lp2653
g68
(g69
g70
NtRp2654
(dp2655
g73
(dp2656
g81
I3
ssg82
g2650
sg75
(lp2657
S''
asbasbasbag68
(g84
g70
NtRp2658
(dp2659
g73
(dp2660
sg82
g2423
sg75
(lp2661
g68
(g89
g70
NtRp2662
(dp2663
g73
(dp2664
g93
g94
ssg82
g2658
sg75
(lp2665
S'REMOTE_ADDR'
p2666
asbag68
(g89
g70
NtRp2667
(dp2668
g73
(dp2669
g100
g101
ssg82
g2658
sg75
(lp2670
S':'
asbag68
(g89
g70
NtRp2671
(dp2672
g73
(dp2673
sg82
g2658
sg75
(lp2674
g68
(g69
g70
NtRp2675
(dp2676
g73
(dp2677
g81
I3
ssg82
g2671
sg75
(lp2678
g223
asbasbasbag68
(g84
g70
NtRp2679
(dp2680
g73
(dp2681
sg82
g2423
sg75
(lp2682
g68
(g89
g70
NtRp2683
(dp2684
g73
(dp2685
g93
g94
ssg82
g2679
sg75
(lp2686
S'REMOTE_PORT'
p2687
asbag68
(g89
g70
NtRp2688
(dp2689
g73
(dp2690
g100
g101
ssg82
g2679
sg75
(lp2691
S':'
asbag68
(g89
g70
NtRp2692
(dp2693
g73
(dp2694
sg82
g2679
sg75
(lp2695
g68
(g69
g70
NtRp2696
(dp2697
g73
(dp2698
g81
I3
ssg82
g2692
sg75
(lp2699
g1233
asbasbasbag68
(g84
g70
NtRp2700
(dp2701
g73
(dp2702
sg82
g2423
sg75
(lp2703
g68
(g89
g70
NtRp2704
(dp2705
g73
(dp2706
g93
g94
ssg82
g2700
sg75
(lp2707
S'REQUEST_METHOD'
p2708
asbag68
(g89
g70
NtRp2709
(dp2710
g73
(dp2711
g100
g101
ssg82
g2700
sg75
(lp2712
S':'
asbag68
(g89
g70
NtRp2713
(dp2714
g73
(dp2715
sg82
g2700
sg75
(lp2716
g68
(g69
g70
NtRp2717
(dp2718
g73
(dp2719
g81
I3
ssg82
g2713
sg75
(lp2720
g1255
asbasbasbag68
(g84
g70
NtRp2721
(dp2722
g73
(dp2723
sg82
g2423
sg75
(lp2724
g68
(g89
g70
NtRp2725
(dp2726
g73
(dp2727
g93
g94
ssg82
g2721
sg75
(lp2728
S'REQUEST_URI'
p2729
asbag68
(g89
g70
NtRp2730
(dp2731
g73
(dp2732
g100
g101
ssg82
g2721
sg75
(lp2733
S':'
asbag68
(g89
g70
NtRp2734
(dp2735
g73
(dp2736
sg82
g2721
sg75
(lp2737
g68
(g69
g70
NtRp2738
(dp2739
g73
(dp2740
g81
I3
ssg82
g2734
sg75
(lp2741
g1277
asbasbasbag68
(g84
g70
NtRp2742
(dp2743
g73
(dp2744
sg82
g2423
sg75
(lp2745
g68
(g89
g70
NtRp2746
(dp2747
g73
(dp2748
g93
g94
ssg82
g2742
sg75
(lp2749
S'SCRIPT_NAME'
p2750
asbag68
(g89
g70
NtRp2751
(dp2752
g73
(dp2753
g100
g101
ssg82
g2742
sg75
(lp2754
S':'
asbag68
(g89
g70
NtRp2755
(dp2756
g73
(dp2757
sg82
g2742
sg75
(lp2758
g68
(g69
g70
NtRp2759
(dp2760
g73
(dp2761
g81
I3
ssg82
g2755
sg75
(lp2762
S''
asbasbasbag68
(g84
g70
NtRp2763
(dp2764
g73
(dp2765
sg82
g2423
sg75
(lp2766
g68
(g89
g70
NtRp2767
(dp2768
g73
(dp2769
g93
g94
ssg82
g2763
sg75
(lp2770
S'SERVER_NAME'
p2771
asbag68
(g89
g70
NtRp2772
(dp2773
g73
(dp2774
g100
g101
ssg82
g2763
sg75
(lp2775
S':'
asbag68
(g89
g70
NtRp2776
(dp2777
g73
(dp2778
sg82
g2763
sg75
(lp2779
g68
(g69
g70
NtRp2780
(dp2781
g73
(dp2782
g81
I3
ssg82
g2776
sg75
(lp2783
g1320
asbasbasbag68
(g84
g70
NtRp2784
(dp2785
g73
(dp2786
sg82
g2423
sg75
(lp2787
g68
(g89
g70
NtRp2788
(dp2789
g73
(dp2790
g93
g94
ssg82
g2784
sg75
(lp2791
S'SERVER_PORT'
p2792
asbag68
(g89
g70
NtRp2793
(dp2794
g73
(dp2795
g100
g101
ssg82
g2784
sg75
(lp2796
S':'
asbag68
(g89
g70
NtRp2797
(dp2798
g73
(dp2799
sg82
g2784
sg75
(lp2800
g68
(g69
g70
NtRp2801
(dp2802
g73
(dp2803
g81
I3
ssg82
g2797
sg75
(lp2804
g1342
asbasbasbag68
(g84
g70
NtRp2805
(dp2806
g73
(dp2807
sg82
g2423
sg75
(lp2808
g68
(g89
g70
NtRp2809
(dp2810
g73
(dp2811
g93
g94
ssg82
g2805
sg75
(lp2812
S'SERVER_PROTOCOL'
p2813
asbag68
(g89
g70
NtRp2814
(dp2815
g73
(dp2816
g100
g101
ssg82
g2805
sg75
(lp2817
S':'
asbag68
(g89
g70
NtRp2818
(dp2819
g73
(dp2820
sg82
g2805
sg75
(lp2821
g68
(g69
g70
NtRp2822
(dp2823
g73
(dp2824
g81
I3
ssg82
g2818
sg75
(lp2825
g1364
asbasbasbag68
(g84
g70
NtRp2826
(dp2827
g73
(dp2828
sg82
g2423
sg75
(lp2829
g68
(g89
g70
NtRp2830
(dp2831
g73
(dp2832
g93
g94
ssg82
g2826
sg75
(lp2833
S'SERVER_SOFTWARE'
p2834
asbag68
(g89
g70
NtRp2835
(dp2836
g73
(dp2837
g100
g101
ssg82
g2826
sg75
(lp2838
S':'
asbag68
(g89
g70
NtRp2839
(dp2840
g73
(dp2841
sg82
g2826
sg75
(lp2842
g68
(g69
g70
NtRp2843
(dp2844
g73
(dp2845
g81
I3
ssg82
g2839
sg75
(lp2846
g1386
asbasbasbag68
(g84
g70
NtRp2847
(dp2848
g73
(dp2849
sg82
g2423
sg75
(lp2850
g68
(g89
g70
NtRp2851
(dp2852
g73
(dp2853
g93
g94
ssg82
g2847
sg75
(lp2854
S'WEB2PY_ORIGINAL_URI'
p2855
asbag68
(g89
g70
NtRp2856
(dp2857
g73
(dp2858
g100
g101
ssg82
g2847
sg75
(lp2859
S':'
asbag68
(g89
g70
NtRp2860
(dp2861
g73
(dp2862
sg82
g2847
sg75
(lp2863
g68
(g69
g70
NtRp2864
(dp2865
g73
(dp2866
g81
I3
ssg82
g2860
sg75
(lp2867
S'/'
asbasbasbag68
(g84
g70
NtRp2868
(dp2869
g73
(dp2870
sg82
g2423
sg75
(lp2871
g68
(g89
g70
NtRp2872
(dp2873
g73
(dp2874
g93
g94
ssg82
g2868
sg75
(lp2875
S'wsgi.errors'
p2876
asbag68
(g89
g70
NtRp2877
(dp2878
g73
(dp2879
g100
g101
ssg82
g2868
sg75
(lp2880
S':'
asbag68
(g89
g70
NtRp2881
(dp2882
g73
(dp2883
sg82
g2868
sg75
(lp2884
g68
(g69
g70
NtRp2885
(dp2886
g73
(dp2887
g81
I3
ssg82
g2881
sg75
(lp2888
S"<open file '<stderr>', mode 'w' at 0x7fc41b634270>"
p2889
asbasbasbag68
(g84
g70
NtRp2890
(dp2891
g73
(dp2892
sg82
g2423
sg75
(lp2893
g68
(g89
g70
NtRp2894
(dp2895
g73
(dp2896
g93
g94
ssg82
g2890
sg75
(lp2897
S'wsgi.file_wrapper'
p2898
asbag68
(g89
g70
NtRp2899
(dp2900
g73
(dp2901
g100
g101
ssg82
g2890
sg75
(lp2902
S':'
asbag68
(g89
g70
NtRp2903
(dp2904
g73
(dp2905
sg82
g2890
sg75
(lp2906
g68
(g69
g70
NtRp2907
(dp2908
g73
(dp2909
g81
I3
ssg82
g2903
sg75
(lp2910
S'<class wsgiref.util.FileWrapper at 0x17fd598>'
p2911
asbasbasbag68
(g84
g70
NtRp2912
(dp2913
g73
(dp2914
sg82
g2423
sg75
(lp2915
g68
(g89
g70
NtRp2916
(dp2917
g73
(dp2918
g93
g94
ssg82
g2912
sg75
(lp2919
S'wsgi.input'
p2920
asbag68
(g89
g70
NtRp2921
(dp2922
g73
(dp2923
g100
g101
ssg82
g2912
sg75
(lp2924
S':'
asbag68
(g89
g70
NtRp2925
(dp2926
g73
(dp2927
sg82
g2912
sg75
(lp2928
g68
(g69
g70
NtRp2929
(dp2930
g73
(dp2931
g81
I3
ssg82
g2925
sg75
(lp2932
S'<cStringIO.StringO object at 0x7fc3ec915420>'
p2933
asbasbasbag68
(g84
g70
NtRp2934
(dp2935
g73
(dp2936
sg82
g2423
sg75
(lp2937
g68
(g89
g70
NtRp2938
(dp2939
g73
(dp2940
g93
g94
ssg82
g2934
sg75
(lp2941
S'wsgi.multiprocess'
p2942
asbag68
(g89
g70
NtRp2943
(dp2944
g73
(dp2945
g100
g101
ssg82
g2934
sg75
(lp2946
S':'
asbag68
(g89
g70
NtRp2947
(dp2948
g73
(dp2949
sg82
g2934
sg75
(lp2950
g68
(g69
g70
NtRp2951
(dp2952
g73
(dp2953
g81
I3
ssg82
g2947
sg75
(lp2954
g111
asbasbasbag68
(g84
g70
NtRp2955
(dp2956
g73
(dp2957
sg82
g2423
sg75
(lp2958
g68
(g89
g70
NtRp2959
(dp2960
g73
(dp2961
g93
g94
ssg82
g2955
sg75
(lp2962
S'wsgi.multithread'
p2963
asbag68
(g89
g70
NtRp2964
(dp2965
g73
(dp2966
g100
g101
ssg82
g2955
sg75
(lp2967
S':'
asbag68
(g89
g70
NtRp2968
(dp2969
g73
(dp2970
sg82
g2955
sg75
(lp2971
g68
(g69
g70
NtRp2972
(dp2973
g73
(dp2974
g81
I3
ssg82
g2968
sg75
(lp2975
g1624
asbasbasbag68
(g84
g70
NtRp2976
(dp2977
g73
(dp2978
sg82
g2423
sg75
(lp2979
g68
(g89
g70
NtRp2980
(dp2981
g73
(dp2982
g93
g94
ssg82
g2976
sg75
(lp2983
S'wsgi.run_once'
p2984
asbag68
(g89
g70
NtRp2985
(dp2986
g73
(dp2987
g100
g101
ssg82
g2976
sg75
(lp2988
S':'
asbag68
(g89
g70
NtRp2989
(dp2990
g73
(dp2991
sg82
g2976
sg75
(lp2992
g68
(g69
g70
NtRp2993
(dp2994
g73
(dp2995
g81
I3
ssg82
g2989
sg75
(lp2996
g111
asbasbasbag68
(g84
g70
NtRp2997
(dp2998
g73
(dp2999
sg82
g2423
sg75
(lp3000
g68
(g89
g70
NtRp3001
(dp3002
g73
(dp3003
g93
g94
ssg82
g2997
sg75
(lp3004
S'wsgi.url_scheme'
p3005
asbag68
(g89
g70
NtRp3006
(dp3007
g73
(dp3008
g100
g101
ssg82
g2997
sg75
(lp3009
S':'
asbag68
(g89
g70
NtRp3010
(dp3011
g73
(dp3012
sg82
g2997
sg75
(lp3013
g68
(g69
g70
NtRp3014
(dp3015
g73
(dp3016
g81
I3
ssg82
g3010
sg75
(lp3017
g1667
asbasbasbag68
(g84
g70
NtRp3018
(dp3019
g73
(dp3020
sg82
g2423
sg75
(lp3021
g68
(g89
g70
NtRp3022
(dp3023
g73
(dp3024
g93
g94
ssg82
g3018
sg75
(lp3025
S'wsgi.version'
p3026
asbag68
(g89
g70
NtRp3027
(dp3028
g73
(dp3029
g100
g101
ssg82
g3018
sg75
(lp3030
S':'
asbag68
(g89
g70
NtRp3031
(dp3032
g73
(dp3033
sg82
g3018
sg75
(lp3034
g68
(g69
g70
NtRp3035
(dp3036
g73
(dp3037
g81
I3
ssg82
g3031
sg75
(lp3038
S'1'
asbasbasbasbasbasbasbasbasbasbasbasbasbsS'frames'
p3039
(lp3040
(dp3041
S'file'
p3042
S'/var/www/conferencia/gluon/restricted.py'
p3043
sS'dump'
p3044
(dp3045
S'code'
p3046
S"'# coding: utf-8\\n\\ndef principal():\\n\\tresponse.titl...s)\\n\\n\\n\\nresponse._vars=response._caller(principal)\\n'"
p3047
sS'layer'
p3048
S"'/var/www/conferencia/applications/projeto/controllers/initial.py'"
p3049
sS'global compile2'
p3050
S'<function compile2>'
p3051
sS'ccode'
p3052
S'undefined'
p3053
ssS'lnum'
p3054
I211
sS'lines'
p3055
(dp3056
I206
S"    environment['__name__'] = '__restricted__'"
p3057
sI207
S'    try:'
p3058
sI208
S'        if isinstance(code, types.CodeType):'
p3059
sI209
S'            ccode = code'
p3060
sI210
S'        else:'
p3061
sI211
S'            ccode = compile2(code, layer)'
p3062
sI212
S'        exec ccode in environment'
p3063
sI213
S'    except HTTP:'
p3064
sI214
S'        raise'
p3065
sI215
S'    except RestrictedError:'
p3066
ssS'call'
p3067
S"(code='# coding: utf-8\\n\\ndef principal():\\n\\tresponse.titl...s)\\n\\n\\n\\nresponse._vars=response._caller(principal)\\n', environment={'A': <class 'gluon.html.A'>, 'Auth': <class 'gluon.tools.Auth'>, 'B': <class 'gluon.html.B'>, 'BEAUTIFY': <class 'gluon.html.BEAUTIFY'>, 'BODY': <class 'gluon.html.BODY'>, 'BR': <class 'gluon.html.BR'>, 'BUTTON': <class 'gluon.html.BUTTON'>, 'CAT': <class 'gluon.html.CAT'>, 'CENTER': <class 'gluon.html.CENTER'>, 'CLEANUP': <class 'gluon.validators.CLEANUP'>, ...}, layer='/var/www/conferencia/applications/projeto/controllers/initial.py')"
p3068
sS'func'
p3069
S'restricted'
p3070
sa(dp3071
g3042
S'/var/www/conferencia/gluon/restricted.py'
p3072
sg3044
(dp3073
S'builtincompile'
p3074
S'<built-in function compile>'
p3075
sS'code'
p3076
S"'# coding: utf-8\\n\\ndef principal():\\n\\tresponse.titl...s)\\n\\n\\n\\nresponse._vars=response._caller(principal)\\n'"
p3077
sS'code.rstrip'
p3078
S'<built-in method rstrip of str object>'
p3079
sS').replace'
p3080
g3053
sS'layer'
p3081
S"'/var/www/conferencia/applications/projeto/controllers/initial.py'"
p3082
ssg3054
I194
sg3055
(dp3083
I192
S"    The +'\\n' is necessary else compile fails when code ends in a comment."
p3084
sI193
S'    """'
p3085
sI194
S"    return compile(code.rstrip().replace('\\r\\n', '\\n') + '\\n', layer, 'exec')"
p3086
sI195
S''
sI196
S''
sI197
S"def restricted(code, environment=None, layer='Unknown'):"
p3087
sI198
S'    """'
p3088
sI189
S''
sI190
S'def compile2(code, layer):'
p3089
sI191
S'    """'
p3090
ssg3067
S"(code='# coding: utf-8\\n\\ndef principal():\\n\\tresponse.titl...s)\\n\\n\\n\\nresponse._vars=response._caller(principal)\\n', layer='/var/www/conferencia/applications/projeto/controllers/initial.py')"
p3091
sg3069
S'compile2'
p3092
sasS'pyver'
p3093
S'Python 2.7.3: /usr/bin/python'
p3094
sS'session'
p3095
g68
(g69
g70
NtRp3096
(dp3097
g73
(dp3098
sg75
(lp3099
g68
(g77
g70
NtRp3100
(dp3101
g73
(dp3102
g81
I5
ssg82
Nsg75
(lp3103
sbasbsS'etype'
p3104
S"<type 'exceptions.IndentationError'>"
p3105
sS'date'
p3106
S'Fri Apr  5 15:58:20 2013'
p3107
sS'response'
p3108
g68
(g69
g70
NtRp3109
(dp3110
g73
(dp3111
sg75
(lp3112
g68
(g77
g70
NtRp3113
(dp3114
g73
(dp3115
g81
I5
ssg82
Nsg75
(lp3116
g68
(g84
g70
NtRp3117
(dp3118
g73
(dp3119
sg82
g3113
sg75
(lp3120
g68
(g89
g70
NtRp3121
(dp3122
g73
(dp3123
g93
g94
ssg82
g3117
sg75
(lp3124
g166
asbag68
(g89
g70
NtRp3125
(dp3126
g73
(dp3127
g100
g101
ssg82
g3117
sg75
(lp3128
S':'
asbag68
(g89
g70
NtRp3129
(dp3130
g73
(dp3131
sg82
g3117
sg75
(lp3132
g68
(g69
g70
NtRp3133
(dp3134
g73
(dp3135
g81
I5
ssg82
g3129
sg75
(lp3136
S'<cStringIO.StringO object at 0x7fc3ec9750d8>'
p3137
asbasbasbag68
(g84
g70
NtRp3138
(dp3139
g73
(dp3140
sg82
g3113
sg75
(lp3141
g68
(g89
g70
NtRp3142
(dp3143
g73
(dp3144
g93
g94
ssg82
g3138
sg75
(lp3145
g254
asbag68
(g89
g70
NtRp3146
(dp3147
g73
(dp3148
g100
g101
ssg82
g3138
sg75
(lp3149
S':'
asbag68
(g89
g70
NtRp3150
(dp3151
g73
(dp3152
sg82
g3138
sg75
(lp3153
g68
(g69
g70
NtRp3154
(dp3155
g73
(dp3156
g81
I5
ssg82
g3150
sg75
(lp3157
g68
(g77
g70
NtRp3158
(dp3159
g73
(dp3160
g81
I4
ssg82
Nsg75
(lp3161
g68
(g84
g70
NtRp3162
(dp3163
g73
(dp3164
sg82
g3158
sg75
(lp3165
g68
(g89
g70
NtRp3166
(dp3167
g73
(dp3168
g93
g94
ssg82
g3162
sg75
(lp3169
S'session_id_projeto'
p3170
asbag68
(g89
g70
NtRp3171
(dp3172
g73
(dp3173
g100
g101
ssg82
g3162
sg75
(lp3174
S':'
asbag68
(g89
g70
NtRp3175
(dp3176
g73
(dp3177
sg82
g3162
sg75
(lp3178
g68
(g69
g70
NtRp3179
(dp3180
g73
(dp3181
g81
I4
ssg82
g3175
sg75
(lp3182
g486
ag68
(g77
g70
NtRp3183
(dp3184
g73
(dp3185
g81
I3
ssg82
Nsg75
(lp3186
g68
(g84
g70
NtRp3187
(dp3188
g73
(dp3189
sg82
g3183
sg75
(lp3190
g68
(g89
g70
NtRp3191
(dp3192
g73
(dp3193
g93
g94
ssg82
g3187
sg75
(lp3194
g305
asbag68
(g89
g70
NtRp3195
(dp3196
g73
(dp3197
g100
g101
ssg82
g3187
sg75
(lp3198
S':'
asbag68
(g89
g70
NtRp3199
(dp3200
g73
(dp3201
sg82
g3187
sg75
(lp3202
g68
(g69
g70
NtRp3203
(dp3204
g73
(dp3205
g81
I3
ssg82
g3199
sg75
(lp3206
S''
asbasbasbag68
(g84
g70
NtRp3207
(dp3208
g73
(dp3209
sg82
g3183
sg75
(lp3210
g68
(g89
g70
NtRp3211
(dp3212
g73
(dp3213
g93
g94
ssg82
g3207
sg75
(lp3214
g326
asbag68
(g89
g70
NtRp3215
(dp3216
g73
(dp3217
g100
g101
ssg82
g3207
sg75
(lp3218
S':'
asbag68
(g89
g70
NtRp3219
(dp3220
g73
(dp3221
sg82
g3207
sg75
(lp3222
g68
(g69
g70
NtRp3223
(dp3224
g73
(dp3225
g81
I3
ssg82
g3219
sg75
(lp3226
S''
asbasbasbag68
(g84
g70
NtRp3227
(dp3228
g73
(dp3229
sg82
g3183
sg75
(lp3230
g68
(g89
g70
NtRp3231
(dp3232
g73
(dp3233
g93
g94
ssg82
g3227
sg75
(lp3234
g347
asbag68
(g89
g70
NtRp3235
(dp3236
g73
(dp3237
g100
g101
ssg82
g3227
sg75
(lp3238
S':'
asbag68
(g89
g70
NtRp3239
(dp3240
g73
(dp3241
sg82
g3227
sg75
(lp3242
g68
(g69
g70
NtRp3243
(dp3244
g73
(dp3245
g81
I3
ssg82
g3239
sg75
(lp3246
S''
asbasbasbag68
(g84
g70
NtRp3247
(dp3248
g73
(dp3249
sg82
g3183
sg75
(lp3250
g68
(g89
g70
NtRp3251
(dp3252
g73
(dp3253
g93
g94
ssg82
g3247
sg75
(lp3254
g368
asbag68
(g89
g70
NtRp3255
(dp3256
g73
(dp3257
g100
g101
ssg82
g3247
sg75
(lp3258
S':'
asbag68
(g89
g70
NtRp3259
(dp3260
g73
(dp3261
sg82
g3247
sg75
(lp3262
g68
(g69
g70
NtRp3263
(dp3264
g73
(dp3265
g81
I3
ssg82
g3259
sg75
(lp3266
S''
asbasbasbag68
(g84
g70
NtRp3267
(dp3268
g73
(dp3269
sg82
g3183
sg75
(lp3270
g68
(g89
g70
NtRp3271
(dp3272
g73
(dp3273
g93
g94
ssg82
g3267
sg75
(lp3274
g389
asbag68
(g89
g70
NtRp3275
(dp3276
g73
(dp3277
g100
g101
ssg82
g3267
sg75
(lp3278
S':'
asbag68
(g89
g70
NtRp3279
(dp3280
g73
(dp3281
sg82
g3267
sg75
(lp3282
g68
(g69
g70
NtRp3283
(dp3284
g73
(dp3285
g81
I3
ssg82
g3279
sg75
(lp3286
S''
asbasbasbag68
(g84
g70
NtRp3287
(dp3288
g73
(dp3289
sg82
g3183
sg75
(lp3290
g68
(g89
g70
NtRp3291
(dp3292
g73
(dp3293
g93
g94
ssg82
g3287
sg75
(lp3294
g410
asbag68
(g89
g70
NtRp3295
(dp3296
g73
(dp3297
g100
g101
ssg82
g3287
sg75
(lp3298
S':'
asbag68
(g89
g70
NtRp3299
(dp3300
g73
(dp3301
sg82
g3287
sg75
(lp3302
g68
(g69
g70
NtRp3303
(dp3304
g73
(dp3305
g81
I3
ssg82
g3299
sg75
(lp3306
S'/'
asbasbasbag68
(g84
g70
NtRp3307
(dp3308
g73
(dp3309
sg82
g3183
sg75
(lp3310
g68
(g89
g70
NtRp3311
(dp3312
g73
(dp3313
g93
g94
ssg82
g3307
sg75
(lp3314
g431
asbag68
(g89
g70
NtRp3315
(dp3316
g73
(dp3317
g100
g101
ssg82
g3307
sg75
(lp3318
S':'
asbag68
(g89
g70
NtRp3319
(dp3320
g73
(dp3321
sg82
g3307
sg75
(lp3322
g68
(g69
g70
NtRp3323
(dp3324
g73
(dp3325
g81
I3
ssg82
g3319
sg75
(lp3326
S''
asbasbasbag68
(g84
g70
NtRp3327
(dp3328
g73
(dp3329
sg82
g3183
sg75
(lp3330
g68
(g89
g70
NtRp3331
(dp3332
g73
(dp3333
g93
g94
ssg82
g3327
sg75
(lp3334
g452
asbag68
(g89
g70
NtRp3335
(dp3336
g73
(dp3337
g100
g101
ssg82
g3327
sg75
(lp3338
S':'
asbag68
(g89
g70
NtRp3339
(dp3340
g73
(dp3341
sg82
g3327
sg75
(lp3342
g68
(g69
g70
NtRp3343
(dp3344
g73
(dp3345
g81
I3
ssg82
g3339
sg75
(lp3346
S''
asbasbasbasbasbasbasbasbasbasbasbag68
(g84
g70
NtRp3347
(dp3348
g73
(dp3349
sg82
g3113
sg75
(lp3350
g68
(g89
g70
NtRp3351
(dp3352
g73
(dp3353
g93
g94
ssg82
g3347
sg75
(lp3354
S'delimiters'
p3355
asbag68
(g89
g70
NtRp3356
(dp3357
g73
(dp3358
g100
g101
ssg82
g3347
sg75
(lp3359
S':'
asbag68
(g89
g70
NtRp3360
(dp3361
g73
(dp3362
sg82
g3347
sg75
(lp3363
g68
(g69
g70
NtRp3364
(dp3365
g73
(dp3366
g81
I5
ssg82
g3360
sg75
(lp3367
g68
(g77
g70
NtRp3368
(dp3369
g73
(dp3370
g81
I4
ssg82
Nsg75
(lp3371
g68
(g84
g70
NtRp3372
(dp3373
g73
(dp3374
sg82
g3368
sg75
(lp3375
g68
(g89
g70
NtRp3376
(dp3377
g73
(dp3378
sg82
g3372
sg75
(lp3379
g68
(g69
g70
NtRp3380
(dp3381
g73
(dp3382
g81
I4
ssg82
g3376
sg75
(lp3383
S'{{'
p3384
asbasbasbag68
(g84
g70
NtRp3385
(dp3386
g73
(dp3387
sg82
g3368
sg75
(lp3388
g68
(g89
g70
NtRp3389
(dp3390
g73
(dp3391
sg82
g3385
sg75
(lp3392
g68
(g69
g70
NtRp3393
(dp3394
g73
(dp3395
g81
I4
ssg82
g3389
sg75
(lp3396
S'}}'
p3397
asbasbasbasbasbasbasbag68
(g84
g70
NtRp3398
(dp3399
g73
(dp3400
sg82
g3113
sg75
(lp3401
g68
(g89
g70
NtRp3402
(dp3403
g73
(dp3404
g93
g94
ssg82
g3398
sg75
(lp3405
S'files'
p3406
asbag68
(g89
g70
NtRp3407
(dp3408
g73
(dp3409
g100
g101
ssg82
g3398
sg75
(lp3410
S':'
asbag68
(g89
g70
NtRp3411
(dp3412
g73
(dp3413
sg82
g3398
sg75
(lp3414
g68
(g69
g70
NtRp3415
(dp3416
g73
(dp3417
g81
I5
ssg82
g3411
sg75
(lp3418
g68
(g77
g70
NtRp3419
(dp3420
g73
(dp3421
g81
I4
ssg82
Nsg75
(lp3422
sbasbasbasbag68
(g84
g70
NtRp3423
(dp3424
g73
(dp3425
sg82
g3113
sg75
(lp3426
g68
(g89
g70
NtRp3427
(dp3428
g73
(dp3429
g93
g94
ssg82
g3423
sg75
(lp3430
S'flash'
p3431
asbag68
(g89
g70
NtRp3432
(dp3433
g73
(dp3434
g100
g101
ssg82
g3423
sg75
(lp3435
S':'
asbag68
(g89
g70
NtRp3436
(dp3437
g73
(dp3438
sg82
g3423
sg75
(lp3439
g68
(g69
g70
NtRp3440
(dp3441
g73
(dp3442
g81
I5
ssg82
g3436
sg75
(lp3443
S''
asbasbasbag68
(g84
g70
NtRp3444
(dp3445
g73
(dp3446
sg82
g3113
sg75
(lp3447
g68
(g89
g70
NtRp3448
(dp3449
g73
(dp3450
g93
g94
ssg82
g3444
sg75
(lp3451
S'generic_patterns'
p3452
asbag68
(g89
g70
NtRp3453
(dp3454
g73
(dp3455
g100
g101
ssg82
g3444
sg75
(lp3456
S':'
asbag68
(g89
g70
NtRp3457
(dp3458
g73
(dp3459
sg82
g3444
sg75
(lp3460
g68
(g69
g70
NtRp3461
(dp3462
g73
(dp3463
g81
I5
ssg82
g3457
sg75
(lp3464
g68
(g77
g70
NtRp3465
(dp3466
g73
(dp3467
g81
I4
ssg82
Nsg75
(lp3468
g68
(g84
g70
NtRp3469
(dp3470
g73
(dp3471
sg82
g3465
sg75
(lp3472
g68
(g89
g70
NtRp3473
(dp3474
g73
(dp3475
sg82
g3469
sg75
(lp3476
g68
(g69
g70
NtRp3477
(dp3478
g73
(dp3479
g81
I4
ssg82
g3473
sg75
(lp3480
S'*'
asbasbasbasbasbasbasbag68
(g84
g70
NtRp3481
(dp3482
g73
(dp3483
sg82
g3113
sg75
(lp3484
g68
(g89
g70
NtRp3485
(dp3486
g73
(dp3487
g93
g94
ssg82
g3481
sg75
(lp3488
S'google_analytics_id'
p3489
asbag68
(g89
g70
NtRp3490
(dp3491
g73
(dp3492
g100
g101
ssg82
g3481
sg75
(lp3493
S':'
asbag68
(g89
g70
NtRp3494
(dp3495
g73
(dp3496
sg82
g3481
sg75
(lp3497
g68
(g69
g70
NtRp3498
(dp3499
g73
(dp3500
g81
I5
ssg82
g3494
sg75
(lp3501
S'None'
p3502
asbasbasbag68
(g84
g70
NtRp3503
(dp3504
g73
(dp3505
sg82
g3113
sg75
(lp3506
g68
(g89
g70
NtRp3507
(dp3508
g73
(dp3509
g93
g94
ssg82
g3503
sg75
(lp3510
S'headers'
p3511
asbag68
(g89
g70
NtRp3512
(dp3513
g73
(dp3514
g100
g101
ssg82
g3503
sg75
(lp3515
S':'
asbag68
(g89
g70
NtRp3516
(dp3517
g73
(dp3518
sg82
g3503
sg75
(lp3519
g68
(g69
g70
NtRp3520
(dp3521
g73
(dp3522
g81
I5
ssg82
g3516
sg75
(lp3523
g68
(g77
g70
NtRp3524
(dp3525
g73
(dp3526
g81
I4
ssg82
Nsg75
(lp3527
g68
(g84
g70
NtRp3528
(dp3529
g73
(dp3530
sg82
g3524
sg75
(lp3531
g68
(g89
g70
NtRp3532
(dp3533
g73
(dp3534
g93
g94
ssg82
g3528
sg75
(lp3535
S'X-Powered-By'
p3536
asbag68
(g89
g70
NtRp3537
(dp3538
g73
(dp3539
g100
g101
ssg82
g3528
sg75
(lp3540
S':'
asbag68
(g89
g70
NtRp3541
(dp3542
g73
(dp3543
sg82
g3528
sg75
(lp3544
g68
(g69
g70
NtRp3545
(dp3546
g73
(dp3547
g81
I4
ssg82
g3541
sg75
(lp3548
S'web2py'
p3549
asbasbasbasbasbasbasbag68
(g84
g70
NtRp3550
(dp3551
g73
(dp3552
sg82
g3113
sg75
(lp3553
g68
(g89
g70
NtRp3554
(dp3555
g73
(dp3556
g93
g94
ssg82
g3550
sg75
(lp3557
S'logo'
p3558
asbag68
(g89
g70
NtRp3559
(dp3560
g73
(dp3561
g100
g101
ssg82
g3550
sg75
(lp3562
S':'
asbag68
(g89
g70
NtRp3563
(dp3564
g73
(dp3565
sg82
g3550
sg75
(lp3566
g68
(g69
g70
NtRp3567
(dp3568
g73
(dp3569
g81
I5
ssg82
g3563
sg75
(lp3570
g68
(cgluon.html
A
p3571
g70
NtRp3572
(dp3573
g73
(dp3574
S'_class'
p3575
S'brand'
p3576
sS'_href'
p3577
g1782
ssg82
Nsg75
(lp3578
g68
(cgluon.html
B
p3579
g70
NtRp3580
(dp3581
g73
(dp3582
sg82
g3572
sg75
(lp3583
S'hosts'
p3584
ag68
(cgluon.html
SPAN
p3585
g70
NtRp3586
(dp3587
g73
(dp3588
sg82
g3580
sg75
(lp3589
S'3'
asbaS''
asbacgluon.html
XML_unpickle
p3590
(S's\r\x00\x00\x00&trade;&nbsp;'
tRp3591
asbasbasbasbag68
(g84
g70
NtRp3592
(dp3593
g73
(dp3594
sg82
g3113
sg75
(lp3595
g68
(g89
g70
NtRp3596
(dp3597
g73
(dp3598
g93
g94
ssg82
g3592
sg75
(lp3599
S'menu'
p3600
asbag68
(g89
g70
NtRp3601
(dp3602
g73
(dp3603
g100
g101
ssg82
g3592
sg75
(lp3604
S':'
asbag68
(g89
g70
NtRp3605
(dp3606
g73
(dp3607
sg82
g3592
sg75
(lp3608
g68
(g69
g70
NtRp3609
(dp3610
g73
(dp3611
g81
I5
ssg82
g3605
sg75
(lp3612
g68
(g77
g70
NtRp3613
(dp3614
g73
(dp3615
g81
I4
ssg82
Nsg75
(lp3616
g68
(g84
g70
NtRp3617
(dp3618
g73
(dp3619
sg82
g3613
sg75
(lp3620
g68
(g89
g70
NtRp3621
(dp3622
g73
(dp3623
sg82
g3617
sg75
(lp3624
g68
(g69
g70
NtRp3625
(dp3626
g73
(dp3627
g81
I4
ssg82
g3621
sg75
(lp3628
g68
(g77
g70
NtRp3629
(dp3630
g73
(dp3631
g81
I3
ssg82
Nsg75
(lp3632
g68
(g84
g70
NtRp3633
(dp3634
g73
(dp3635
sg82
g3629
sg75
(lp3636
g68
(g89
g70
NtRp3637
(dp3638
g73
(dp3639
sg82
g3633
sg75
(lp3640
g68
(g69
g70
NtRp3641
(dp3642
g73
(dp3643
g81
I3
ssg82
g3637
sg75
(lp3644
cgluon.languages
lazyT_unpickle
p3645
(S't\x08\x00\x00\x00Clientes'
tRp3646
asbasbasbag68
(g84
g70
NtRp3647
(dp3648
g73
(dp3649
sg82
g3629
sg75
(lp3650
g68
(g89
g70
NtRp3651
(dp3652
g73
(dp3653
sg82
g3647
sg75
(lp3654
g68
(g69
g70
NtRp3655
(dp3656
g73
(dp3657
g81
I3
ssg82
g3651
sg75
(lp3658
g111
asbasbasbag68
(g84
g70
NtRp3659
(dp3660
g73
(dp3661
sg82
g3629
sg75
(lp3662
g68
(g89
g70
NtRp3663
(dp3664
g73
(dp3665
sg82
g3659
sg75
(lp3666
g68
(g69
g70
NtRp3667
(dp3668
g73
(dp3669
g81
I3
ssg82
g3663
sg75
(lp3670
S'/show_cliente'
p3671
asbasbasbag68
(g84
g70
NtRp3672
(dp3673
g73
(dp3674
sg82
g3629
sg75
(lp3675
g68
(g89
g70
NtRp3676
(dp3677
g73
(dp3678
sg82
g3672
sg75
(lp3679
g68
(g69
g70
NtRp3680
(dp3681
g73
(dp3682
g81
I3
ssg82
g3676
sg75
(lp3683
g68
(g77
g70
NtRp3684
(dp3685
g73
(dp3686
g81
I2
ssg82
Nsg75
(lp3687
sbasbasbasbasbasbasbasbag68
(g84
g70
NtRp3688
(dp3689
g73
(dp3690
sg82
g3613
sg75
(lp3691
g68
(g89
g70
NtRp3692
(dp3693
g73
(dp3694
sg82
g3688
sg75
(lp3695
g68
(g69
g70
NtRp3696
(dp3697
g73
(dp3698
g81
I4
ssg82
g3692
sg75
(lp3699
g68
(g77
g70
NtRp3700
(dp3701
g73
(dp3702
g81
I3
ssg82
Nsg75
(lp3703
g68
(g84
g70
NtRp3704
(dp3705
g73
(dp3706
sg82
g3700
sg75
(lp3707
g68
(g89
g70
NtRp3708
(dp3709
g73
(dp3710
sg82
g3704
sg75
(lp3711
g68
(g69
g70
NtRp3712
(dp3713
g73
(dp3714
g81
I3
ssg82
g3708
sg75
(lp3715
g3645
(S't\n\x00\x00\x00Servidores'
tRp3716
asbasbasbag68
(g84
g70
NtRp3717
(dp3718
g73
(dp3719
sg82
g3700
sg75
(lp3720
g68
(g89
g70
NtRp3721
(dp3722
g73
(dp3723
sg82
g3717
sg75
(lp3724
g68
(g69
g70
NtRp3725
(dp3726
g73
(dp3727
g81
I3
ssg82
g3721
sg75
(lp3728
g111
asbasbasbag68
(g84
g70
NtRp3729
(dp3730
g73
(dp3731
sg82
g3700
sg75
(lp3732
g68
(g89
g70
NtRp3733
(dp3734
g73
(dp3735
sg82
g3729
sg75
(lp3736
g68
(g69
g70
NtRp3737
(dp3738
g73
(dp3739
g81
I3
ssg82
g3733
sg75
(lp3740
S'/show_servidor'
p3741
asbasbasbag68
(g84
g70
NtRp3742
(dp3743
g73
(dp3744
sg82
g3700
sg75
(lp3745
g68
(g89
g70
NtRp3746
(dp3747
g73
(dp3748
sg82
g3742
sg75
(lp3749
g68
(g69
g70
NtRp3750
(dp3751
g73
(dp3752
g81
I3
ssg82
g3746
sg75
(lp3753
g68
(g77
g70
NtRp3754
(dp3755
g73
(dp3756
g81
I2
ssg82
Nsg75
(lp3757
sbasbasbasbasbasbasbasbag68
(g84
g70
NtRp3758
(dp3759
g73
(dp3760
sg82
g3613
sg75
(lp3761
g68
(g89
g70
NtRp3762
(dp3763
g73
(dp3764
sg82
g3758
sg75
(lp3765
g68
(g69
g70
NtRp3766
(dp3767
g73
(dp3768
g81
I4
ssg82
g3762
sg75
(lp3769
g68
(g77
g70
NtRp3770
(dp3771
g73
(dp3772
g81
I3
ssg82
Nsg75
(lp3773
g68
(g84
g70
NtRp3774
(dp3775
g73
(dp3776
sg82
g3770
sg75
(lp3777
g68
(g89
g70
NtRp3778
(dp3779
g73
(dp3780
sg82
g3774
sg75
(lp3781
g68
(g69
g70
NtRp3782
(dp3783
g73
(dp3784
g81
I3
ssg82
g3778
sg75
(lp3785
g3645
(S't\x07\x00\x00\x00Distros'
tRp3786
asbasbasbag68
(g84
g70
NtRp3787
(dp3788
g73
(dp3789
sg82
g3770
sg75
(lp3790
g68
(g89
g70
NtRp3791
(dp3792
g73
(dp3793
sg82
g3787
sg75
(lp3794
g68
(g69
g70
NtRp3795
(dp3796
g73
(dp3797
g81
I3
ssg82
g3791
sg75
(lp3798
g111
asbasbasbag68
(g84
g70
NtRp3799
(dp3800
g73
(dp3801
sg82
g3770
sg75
(lp3802
g68
(g89
g70
NtRp3803
(dp3804
g73
(dp3805
sg82
g3799
sg75
(lp3806
g68
(g69
g70
NtRp3807
(dp3808
g73
(dp3809
g81
I3
ssg82
g3803
sg75
(lp3810
S'/show_distro'
p3811
asbasbasbag68
(g84
g70
NtRp3812
(dp3813
g73
(dp3814
sg82
g3770
sg75
(lp3815
g68
(g89
g70
NtRp3816
(dp3817
g73
(dp3818
sg82
g3812
sg75
(lp3819
g68
(g69
g70
NtRp3820
(dp3821
g73
(dp3822
g81
I3
ssg82
g3816
sg75
(lp3823
g68
(g77
g70
NtRp3824
(dp3825
g73
(dp3826
g81
I2
ssg82
Nsg75
(lp3827
sbasbasbasbasbasbasbasbag68
(g84
g70
NtRp3828
(dp3829
g73
(dp3830
sg82
g3613
sg75
(lp3831
g68
(g89
g70
NtRp3832
(dp3833
g73
(dp3834
sg82
g3828
sg75
(lp3835
g68
(g69
g70
NtRp3836
(dp3837
g73
(dp3838
g81
I4
ssg82
g3832
sg75
(lp3839
g68
(g77
g70
NtRp3840
(dp3841
g73
(dp3842
g81
I3
ssg82
Nsg75
(lp3843
g68
(g84
g70
NtRp3844
(dp3845
g73
(dp3846
sg82
g3840
sg75
(lp3847
g68
(g89
g70
NtRp3848
(dp3849
g73
(dp3850
sg82
g3844
sg75
(lp3851
g68
(g69
g70
NtRp3852
(dp3853
g73
(dp3854
g81
I3
ssg82
g3848
sg75
(lp3855
g3645
(S's\x05\x00\x00\x00+host'
tRp3856
asbasbasbag68
(g84
g70
NtRp3857
(dp3858
g73
(dp3859
sg82
g3840
sg75
(lp3860
g68
(g89
g70
NtRp3861
(dp3862
g73
(dp3863
sg82
g3857
sg75
(lp3864
g68
(g69
g70
NtRp3865
(dp3866
g73
(dp3867
g81
I3
ssg82
g3861
sg75
(lp3868
g111
asbasbasbag68
(g84
g70
NtRp3869
(dp3870
g73
(dp3871
sg82
g3840
sg75
(lp3872
g68
(g89
g70
NtRp3873
(dp3874
g73
(dp3875
sg82
g3869
sg75
(lp3876
g68
(g69
g70
NtRp3877
(dp3878
g73
(dp3879
g81
I3
ssg82
g3873
sg75
(lp3880
S'/interface'
p3881
asbasbasbag68
(g84
g70
NtRp3882
(dp3883
g73
(dp3884
sg82
g3840
sg75
(lp3885
g68
(g89
g70
NtRp3886
(dp3887
g73
(dp3888
sg82
g3882
sg75
(lp3889
g68
(g69
g70
NtRp3890
(dp3891
g73
(dp3892
g81
I3
ssg82
g3886
sg75
(lp3893
g68
(g77
g70
NtRp3894
(dp3895
g73
(dp3896
g81
I2
ssg82
Nsg75
(lp3897
sbasbasbasbasbasbasbasbasbasbasbasbag68
(g84
g70
NtRp3898
(dp3899
g73
(dp3900
sg82
g3113
sg75
(lp3901
g68
(g89
g70
NtRp3902
(dp3903
g73
(dp3904
g93
g94
ssg82
g3898
sg75
(lp3905
S'menu2'
p3906
asbag68
(g89
g70
NtRp3907
(dp3908
g73
(dp3909
g100
g101
ssg82
g3898
sg75
(lp3910
S':'
asbag68
(g89
g70
NtRp3911
(dp3912
g73
(dp3913
sg82
g3898
sg75
(lp3914
g68
(g69
g70
NtRp3915
(dp3916
g73
(dp3917
g81
I5
ssg82
g3911
sg75
(lp3918
g68
(g77
g70
NtRp3919
(dp3920
g73
(dp3921
g81
I4
ssg82
Nsg75
(lp3922
g68
(g84
g70
NtRp3923
(dp3924
g73
(dp3925
sg82
g3919
sg75
(lp3926
g68
(g89
g70
NtRp3927
(dp3928
g73
(dp3929
sg82
g3923
sg75
(lp3930
g68
(g69
g70
NtRp3931
(dp3932
g73
(dp3933
g81
I4
ssg82
g3927
sg75
(lp3934
g68
(g77
g70
NtRp3935
(dp3936
g73
(dp3937
g81
I3
ssg82
Nsg75
(lp3938
g68
(g84
g70
NtRp3939
(dp3940
g73
(dp3941
sg82
g3935
sg75
(lp3942
g68
(g89
g70
NtRp3943
(dp3944
g73
(dp3945
sg82
g3939
sg75
(lp3946
g68
(g69
g70
NtRp3947
(dp3948
g73
(dp3949
g81
I3
ssg82
g3943
sg75
(lp3950
g68
(g3585
g70
NtRp3951
(dp3952
g73
(dp3953
g3575
S'dropdown-toggle'
p3954
ssg82
Nsg75
(lp3955
S'Admin'
p3956
asbasbasbasbag68
(g84
g70
NtRp3957
(dp3958
g73
(dp3959
sg82
g3935
sg75
(lp3960
g68
(g89
g70
NtRp3961
(dp3962
g73
(dp3963
sg82
g3957
sg75
(lp3964
g68
(g69
g70
NtRp3965
(dp3966
g73
(dp3967
g81
I3
ssg82
g3961
sg75
(lp3968
g111
asbasbasbag68
(g84
g70
NtRp3969
(dp3970
g73
(dp3971
sg82
g3935
sg75
(lp3972
g68
(g89
g70
NtRp3973
(dp3974
g73
(dp3975
sg82
g3969
sg75
(lp3976
g68
(g69
g70
NtRp3977
(dp3978
g73
(dp3979
g81
I3
ssg82
g3973
sg75
(lp3980
S'#'
asbasbasbag68
(g84
g70
NtRp3981
(dp3982
g73
(dp3983
sg82
g3935
sg75
(lp3984
g68
(g89
g70
NtRp3985
(dp3986
g73
(dp3987
sg82
g3981
sg75
(lp3988
g68
(g69
g70
NtRp3989
(dp3990
g73
(dp3991
g81
I3
ssg82
g3985
sg75
(lp3992
g68
(g77
g70
NtRp3993
(dp3994
g73
(dp3995
g81
I2
ssg82
Nsg75
(lp3996
g68
(g84
g70
NtRp3997
(dp3998
g73
(dp3999
sg82
g3993
sg75
(lp4000
g68
(g89
g70
NtRp4001
(dp4002
g73
(dp4003
sg82
g3997
sg75
(lp4004
g68
(g69
g70
NtRp4005
(dp4006
g73
(dp4007
g81
I2
ssg82
g4001
sg75
(lp4008
g68
(g77
g70
NtRp4009
(dp4010
g73
(dp4011
g81
I1
ssg82
Nsg75
(lp4012
g68
(g84
g70
NtRp4013
(dp4014
g73
(dp4015
sg82
g4009
sg75
(lp4016
g68
(g89
g70
NtRp4017
(dp4018
g73
(dp4019
sg82
g4013
sg75
(lp4020
g68
(g69
g70
NtRp4021
(dp4022
g73
(dp4023
g81
I1
ssg82
g4017
sg75
(lp4024
g3645
(S's\t\x00\x00\x00Usu\xc3\xa1rios'
tRp4025
asbasbasbag68
(g84
g70
NtRp4026
(dp4027
g73
(dp4028
sg82
g4009
sg75
(lp4029
g68
(g89
g70
NtRp4030
(dp4031
g73
(dp4032
sg82
g4026
sg75
(lp4033
g68
(g69
g70
NtRp4034
(dp4035
g73
(dp4036
g81
I1
ssg82
g4030
sg75
(lp4037
I00
asbasbasbag68
(g84
g70
NtRp4038
(dp4039
g73
(dp4040
sg82
g4009
sg75
(lp4041
g68
(g89
g70
NtRp4042
(dp4043
g73
(dp4044
sg82
g4038
sg75
(lp4045
g68
(g69
g70
NtRp4046
(dp4047
g73
(dp4048
g81
I1
ssg82
g4042
sg75
(lp4049
S'/manager/users'
p4050
asbasbasbasbasbasbasbag68
(g84
g70
NtRp4051
(dp4052
g73
(dp4053
sg82
g3993
sg75
(lp4054
g68
(g89
g70
NtRp4055
(dp4056
g73
(dp4057
sg82
g4051
sg75
(lp4058
g68
(g69
g70
NtRp4059
(dp4060
g73
(dp4061
g81
I2
ssg82
g4055
sg75
(lp4062
g68
(g77
g70
NtRp4063
(dp4064
g73
(dp4065
g81
I1
ssg82
Nsg75
(lp4066
g68
(g84
g70
NtRp4067
(dp4068
g73
(dp4069
sg82
g4063
sg75
(lp4070
g68
(g89
g70
NtRp4071
(dp4072
g73
(dp4073
sg82
g4067
sg75
(lp4074
g68
(g69
g70
NtRp4075
(dp4076
g73
(dp4077
g81
I1
ssg82
g4071
sg75
(lp4078
g3645
(S't\x06\x00\x00\x00Grupos'
tRp4079
asbasbasbag68
(g84
g70
NtRp4080
(dp4081
g73
(dp4082
sg82
g4063
sg75
(lp4083
g68
(g89
g70
NtRp4084
(dp4085
g73
(dp4086
sg82
g4080
sg75
(lp4087
g68
(g69
g70
NtRp4088
(dp4089
g73
(dp4090
g81
I1
ssg82
g4084
sg75
(lp4091
I00
asbasbasbag68
(g84
g70
NtRp4092
(dp4093
g73
(dp4094
sg82
g4063
sg75
(lp4095
g68
(g89
g70
NtRp4096
(dp4097
g73
(dp4098
sg82
g4092
sg75
(lp4099
g68
(g69
g70
NtRp4100
(dp4101
g73
(dp4102
g81
I1
ssg82
g4096
sg75
(lp4103
S'/manager/groups'
p4104
asbasbasbasbasbasbasbag68
(g84
g70
NtRp4105
(dp4106
g73
(dp4107
sg82
g3993
sg75
(lp4108
g68
(g89
g70
NtRp4109
(dp4110
g73
(dp4111
sg82
g4105
sg75
(lp4112
g68
(g69
g70
NtRp4113
(dp4114
g73
(dp4115
g81
I2
ssg82
g4109
sg75
(lp4116
g68
(g77
g70
NtRp4117
(dp4118
g73
(dp4119
g81
I1
ssg82
Nsg75
(lp4120
g68
(g84
g70
NtRp4121
(dp4122
g73
(dp4123
sg82
g4117
sg75
(lp4124
g68
(g89
g70
NtRp4125
(dp4126
g73
(dp4127
sg82
g4121
sg75
(lp4128
g68
(g69
g70
NtRp4129
(dp4130
g73
(dp4131
g81
I1
ssg82
g4125
sg75
(lp4132
g3645
(S't\x07\x00\x00\x00Membros'
tRp4133
asbasbasbag68
(g84
g70
NtRp4134
(dp4135
g73
(dp4136
sg82
g4117
sg75
(lp4137
g68
(g89
g70
NtRp4138
(dp4139
g73
(dp4140
sg82
g4134
sg75
(lp4141
g68
(g69
g70
NtRp4142
(dp4143
g73
(dp4144
g81
I1
ssg82
g4138
sg75
(lp4145
I00
asbasbasbag68
(g84
g70
NtRp4146
(dp4147
g73
(dp4148
sg82
g4117
sg75
(lp4149
g68
(g89
g70
NtRp4150
(dp4151
g73
(dp4152
sg82
g4146
sg75
(lp4153
g68
(g69
g70
NtRp4154
(dp4155
g73
(dp4156
g81
I1
ssg82
g4150
sg75
(lp4157
S'/manager/membership'
p4158
asbasbasbasbasbasbasbasbasbasbasbasbasbasbasbag68
(g84
g70
NtRp4159
(dp4160
g73
(dp4161
sg82
g3919
sg75
(lp4162
g68
(g89
g70
NtRp4163
(dp4164
g73
(dp4165
sg82
g4159
sg75
(lp4166
g68
(g69
g70
NtRp4167
(dp4168
g73
(dp4169
g81
I4
ssg82
g4163
sg75
(lp4170
g68
(g77
g70
NtRp4171
(dp4172
g73
(dp4173
g81
I3
ssg82
Nsg75
(lp4174
g68
(g84
g70
NtRp4175
(dp4176
g73
(dp4177
sg82
g4171
sg75
(lp4178
g68
(g89
g70
NtRp4179
(dp4180
g73
(dp4181
sg82
g4175
sg75
(lp4182
g68
(g69
g70
NtRp4183
(dp4184
g73
(dp4185
g81
I3
ssg82
g4179
sg75
(lp4186
g68
(g3585
g70
NtRp4187
(dp4188
g73
(dp4189
g3575
g3954
ssg82
Nsg75
(lp4190
S'Login'
p4191
asbasbasbasbag68
(g84
g70
NtRp4192
(dp4193
g73
(dp4194
sg82
g4171
sg75
(lp4195
g68
(g89
g70
NtRp4196
(dp4197
g73
(dp4198
sg82
g4192
sg75
(lp4199
g68
(g69
g70
NtRp4200
(dp4201
g73
(dp4202
g81
I3
ssg82
g4196
sg75
(lp4203
g111
asbasbasbag68
(g84
g70
NtRp4204
(dp4205
g73
(dp4206
sg82
g4171
sg75
(lp4207
g68
(g89
g70
NtRp4208
(dp4209
g73
(dp4210
sg82
g4204
sg75
(lp4211
g68
(g69
g70
NtRp4212
(dp4213
g73
(dp4214
g81
I3
ssg82
g4208
sg75
(lp4215
S'#'
asbasbasbag68
(g84
g70
NtRp4216
(dp4217
g73
(dp4218
sg82
g4171
sg75
(lp4219
g68
(g89
g70
NtRp4220
(dp4221
g73
(dp4222
sg82
g4216
sg75
(lp4223
g68
(g69
g70
NtRp4224
(dp4225
g73
(dp4226
g81
I3
ssg82
g4220
sg75
(lp4227
g68
(g77
g70
NtRp4228
(dp4229
g73
(dp4230
g81
I2
ssg82
Nsg75
(lp4231
g68
(g84
g70
NtRp4232
(dp4233
g73
(dp4234
sg82
g4228
sg75
(lp4235
g68
(g89
g70
NtRp4236
(dp4237
g73
(dp4238
sg82
g4232
sg75
(lp4239
g68
(g69
g70
NtRp4240
(dp4241
g73
(dp4242
g81
I2
ssg82
g4236
sg75
(lp4243
g68
(g77
g70
NtRp4244
(dp4245
g73
(dp4246
g81
I1
ssg82
Nsg75
(lp4247
g68
(g84
g70
NtRp4248
(dp4249
g73
(dp4250
sg82
g4244
sg75
(lp4251
g68
(g89
g70
NtRp4252
(dp4253
g73
(dp4254
sg82
g4248
sg75
(lp4255
g68
(g69
g70
NtRp4256
(dp4257
g73
(dp4258
g81
I1
ssg82
g4252
sg75
(lp4259
g3645
(S't\x06\x00\x00\x00Logout'
tRp4260
asbasbasbag68
(g84
g70
NtRp4261
(dp4262
g73
(dp4263
sg82
g4244
sg75
(lp4264
g68
(g89
g70
NtRp4265
(dp4266
g73
(dp4267
sg82
g4261
sg75
(lp4268
g68
(g69
g70
NtRp4269
(dp4270
g73
(dp4271
g81
I1
ssg82
g4265
sg75
(lp4272
I00
asbasbasbag68
(g84
g70
NtRp4273
(dp4274
g73
(dp4275
sg82
g4244
sg75
(lp4276
g68
(g89
g70
NtRp4277
(dp4278
g73
(dp4279
sg82
g4273
sg75
(lp4280
g68
(g69
g70
NtRp4281
(dp4282
g73
(dp4283
g81
I1
ssg82
g4277
sg75
(lp4284
S'/initial/user/logout'
p4285
asbasbasbasbasbasbasbasbasbasbasbasbasbasbasbasbasbasbasbag68
(g84
g70
NtRp4286
(dp4287
g73
(dp4288
sg82
g3113
sg75
(lp4289
g68
(g89
g70
NtRp4290
(dp4291
g73
(dp4292
g93
g94
ssg82
g4286
sg75
(lp4293
S'meta'
p4294
asbag68
(g89
g70
NtRp4295
(dp4296
g73
(dp4297
g100
g101
ssg82
g4286
sg75
(lp4298
S':'
asbag68
(g89
g70
NtRp4299
(dp4300
g73
(dp4301
sg82
g4286
sg75
(lp4302
g68
(g69
g70
NtRp4303
(dp4304
g73
(dp4305
g81
I5
ssg82
g4299
sg75
(lp4306
g68
(g77
g70
NtRp4307
(dp4308
g73
(dp4309
g81
I4
ssg82
Nsg75
(lp4310
g68
(g84
g70
NtRp4311
(dp4312
g73
(dp4313
sg82
g4307
sg75
(lp4314
g68
(g89
g70
NtRp4315
(dp4316
g73
(dp4317
g93
g94
ssg82
g4311
sg75
(lp4318
S'author'
p4319
asbag68
(g89
g70
NtRp4320
(dp4321
g73
(dp4322
g100
g101
ssg82
g4311
sg75
(lp4323
S':'
asbag68
(g89
g70
NtRp4324
(dp4325
g73
(dp4326
sg82
g4311
sg75
(lp4327
g68
(g69
g70
NtRp4328
(dp4329
g73
(dp4330
g81
I4
ssg82
g4324
sg75
(lp4331
S'Your Name <you@example.com>'
p4332
asbasbasbag68
(g84
g70
NtRp4333
(dp4334
g73
(dp4335
sg82
g4307
sg75
(lp4336
g68
(g89
g70
NtRp4337
(dp4338
g73
(dp4339
g93
g94
ssg82
g4333
sg75
(lp4340
S'description'
p4341
asbag68
(g89
g70
NtRp4342
(dp4343
g73
(dp4344
g100
g101
ssg82
g4333
sg75
(lp4345
S':'
asbag68
(g89
g70
NtRp4346
(dp4347
g73
(dp4348
sg82
g4333
sg75
(lp4349
g68
(g69
g70
NtRp4350
(dp4351
g73
(dp4352
g81
I4
ssg82
g4346
sg75
(lp4353
S'a cool new app'
p4354
asbasbasbag68
(g84
g70
NtRp4355
(dp4356
g73
(dp4357
sg82
g4307
sg75
(lp4358
g68
(g89
g70
NtRp4359
(dp4360
g73
(dp4361
g93
g94
ssg82
g4355
sg75
(lp4362
S'generator'
p4363
asbag68
(g89
g70
NtRp4364
(dp4365
g73
(dp4366
g100
g101
ssg82
g4355
sg75
(lp4367
S':'
asbag68
(g89
g70
NtRp4368
(dp4369
g73
(dp4370
sg82
g4355
sg75
(lp4371
g68
(g69
g70
NtRp4372
(dp4373
g73
(dp4374
g81
I4
ssg82
g4368
sg75
(lp4375
S'Web2py Web Framework'
p4376
asbasbasbag68
(g84
g70
NtRp4377
(dp4378
g73
(dp4379
sg82
g4307
sg75
(lp4380
g68
(g89
g70
NtRp4381
(dp4382
g73
(dp4383
g93
g94
ssg82
g4377
sg75
(lp4384
S'keywords'
p4385
asbag68
(g89
g70
NtRp4386
(dp4387
g73
(dp4388
g100
g101
ssg82
g4377
sg75
(lp4389
S':'
asbag68
(g89
g70
NtRp4390
(dp4391
g73
(dp4392
sg82
g4377
sg75
(lp4393
g68
(g69
g70
NtRp4394
(dp4395
g73
(dp4396
g81
I4
ssg82
g4390
sg75
(lp4397
S'web2py, python, framework'
p4398
asbasbasbasbasbasbasbag68
(g84
g70
NtRp4399
(dp4400
g73
(dp4401
sg82
g3113
sg75
(lp4402
g68
(g89
g70
NtRp4403
(dp4404
g73
(dp4405
g93
g94
ssg82
g4399
sg75
(lp4406
S'models_to_run'
p4407
asbag68
(g89
g70
NtRp4408
(dp4409
g73
(dp4410
g100
g101
ssg82
g4399
sg75
(lp4411
S':'
asbag68
(g89
g70
NtRp4412
(dp4413
g73
(dp4414
sg82
g4399
sg75
(lp4415
g68
(g69
g70
NtRp4416
(dp4417
g73
(dp4418
g81
I5
ssg82
g4412
sg75
(lp4419
g68
(g77
g70
NtRp4420
(dp4421
g73
(dp4422
g81
I4
ssg82
Nsg75
(lp4423
g68
(g84
g70
NtRp4424
(dp4425
g73
(dp4426
sg82
g4420
sg75
(lp4427
g68
(g89
g70
NtRp4428
(dp4429
g73
(dp4430
sg82
g4424
sg75
(lp4431
g68
(g69
g70
NtRp4432
(dp4433
g73
(dp4434
g81
I4
ssg82
g4428
sg75
(lp4435
S'^\\w+\\.py$'
p4436
asbasbasbag68
(g84
g70
NtRp4437
(dp4438
g73
(dp4439
sg82
g4420
sg75
(lp4440
g68
(g89
g70
NtRp4441
(dp4442
g73
(dp4443
sg82
g4437
sg75
(lp4444
g68
(g69
g70
NtRp4445
(dp4446
g73
(dp4447
g81
I4
ssg82
g4441
sg75
(lp4448
S'^initial/\\w+\\.py$'
p4449
asbasbasbag68
(g84
g70
NtRp4450
(dp4451
g73
(dp4452
sg82
g4420
sg75
(lp4453
g68
(g89
g70
NtRp4454
(dp4455
g73
(dp4456
sg82
g4450
sg75
(lp4457
g68
(g69
g70
NtRp4458
(dp4459
g73
(dp4460
g81
I4
ssg82
g4454
sg75
(lp4461
S'^initial/principal/\\w+\\.py$'
p4462
asbasbasbasbasbasbasbag68
(g84
g70
NtRp4463
(dp4464
g73
(dp4465
sg82
g3113
sg75
(lp4466
g68
(g89
g70
NtRp4467
(dp4468
g73
(dp4469
g93
g94
ssg82
g4463
sg75
(lp4470
S'postprocessing'
p4471
asbag68
(g89
g70
NtRp4472
(dp4473
g73
(dp4474
g100
g101
ssg82
g4463
sg75
(lp4475
S':'
asbag68
(g89
g70
NtRp4476
(dp4477
g73
(dp4478
sg82
g4463
sg75
(lp4479
g68
(g69
g70
NtRp4480
(dp4481
g73
(dp4482
g81
I5
ssg82
g4476
sg75
(lp4483
g68
(g77
g70
NtRp4484
(dp4485
g73
(dp4486
g81
I4
ssg82
Nsg75
(lp4487
sbasbasbasbag68
(g84
g70
NtRp4488
(dp4489
g73
(dp4490
sg82
g3113
sg75
(lp4491
g68
(g89
g70
NtRp4492
(dp4493
g73
(dp4494
g93
g94
ssg82
g4488
sg75
(lp4495
S'session_cookie_expires'
p4496
asbag68
(g89
g70
NtRp4497
(dp4498
g73
(dp4499
g100
g101
ssg82
g4488
sg75
(lp4500
S':'
asbag68
(g89
g70
NtRp4501
(dp4502
g73
(dp4503
sg82
g4488
sg75
(lp4504
g68
(g69
g70
NtRp4505
(dp4506
g73
(dp4507
g81
I5
ssg82
g4501
sg75
(lp4508
S'None'
p4509
asbasbasbag68
(g84
g70
NtRp4510
(dp4511
g73
(dp4512
sg82
g3113
sg75
(lp4513
g68
(g89
g70
NtRp4514
(dp4515
g73
(dp4516
g93
g94
ssg82
g4510
sg75
(lp4517
S'session_data_name'
p4518
asbag68
(g89
g70
NtRp4519
(dp4520
g73
(dp4521
g100
g101
ssg82
g4510
sg75
(lp4522
S':'
asbag68
(g89
g70
NtRp4523
(dp4524
g73
(dp4525
sg82
g4510
sg75
(lp4526
g68
(g69
g70
NtRp4527
(dp4528
g73
(dp4529
g81
I5
ssg82
g4523
sg75
(lp4530
S'session_data_projeto'
p4531
asbasbasbag68
(g84
g70
NtRp4532
(dp4533
g73
(dp4534
sg82
g3113
sg75
(lp4535
g68
(g89
g70
NtRp4536
(dp4537
g73
(dp4538
g93
g94
ssg82
g4532
sg75
(lp4539
S'session_file'
p4540
asbag68
(g89
g70
NtRp4541
(dp4542
g73
(dp4543
g100
g101
ssg82
g4532
sg75
(lp4544
S':'
asbag68
(g89
g70
NtRp4545
(dp4546
g73
(dp4547
sg82
g4532
sg75
(lp4548
g68
(g69
g70
NtRp4549
(dp4550
g73
(dp4551
g81
I5
ssg82
g4545
sg75
(lp4552
S"<open file '/var/www/conferencia/applications/projeto/sessions/127.0.0.1-b222eab6-fff3-4ee1-9193-07dc6b9c8361', mode 'rb+' at 0x7fc3ecb8a4b0>"
p4553
asbasbasbag68
(g84
g70
NtRp4554
(dp4555
g73
(dp4556
sg82
g3113
sg75
(lp4557
g68
(g89
g70
NtRp4558
(dp4559
g73
(dp4560
g93
g94
ssg82
g4554
sg75
(lp4561
S'session_filename'
p4562
asbag68
(g89
g70
NtRp4563
(dp4564
g73
(dp4565
g100
g101
ssg82
g4554
sg75
(lp4566
S':'
asbag68
(g89
g70
NtRp4567
(dp4568
g73
(dp4569
sg82
g4554
sg75
(lp4570
g68
(g69
g70
NtRp4571
(dp4572
g73
(dp4573
g81
I5
ssg82
g4567
sg75
(lp4574
S'/var/www/conferencia/applications/projeto/sessions/127.0.0.1-b222eab6-fff3-4ee1-9193-07dc6b9c8361'
p4575
asbasbasbag68
(g84
g70
NtRp4576
(dp4577
g73
(dp4578
sg82
g3113
sg75
(lp4579
g68
(g89
g70
NtRp4580
(dp4581
g73
(dp4582
g93
g94
ssg82
g4576
sg75
(lp4583
S'session_id'
p4584
asbag68
(g89
g70
NtRp4585
(dp4586
g73
(dp4587
g100
g101
ssg82
g4576
sg75
(lp4588
S':'
asbag68
(g89
g70
NtRp4589
(dp4590
g73
(dp4591
sg82
g4576
sg75
(lp4592
g68
(g69
g70
NtRp4593
(dp4594
g73
(dp4595
g81
I5
ssg82
g4589
sg75
(lp4596
g486
asbasbasbag68
(g84
g70
NtRp4597
(dp4598
g73
(dp4599
sg82
g3113
sg75
(lp4600
g68
(g89
g70
NtRp4601
(dp4602
g73
(dp4603
g93
g94
ssg82
g4597
sg75
(lp4604
S'session_id_name'
p4605
asbag68
(g89
g70
NtRp4606
(dp4607
g73
(dp4608
g100
g101
ssg82
g4597
sg75
(lp4609
S':'
asbag68
(g89
g70
NtRp4610
(dp4611
g73
(dp4612
sg82
g4597
sg75
(lp4613
g68
(g69
g70
NtRp4614
(dp4615
g73
(dp4616
g81
I5
ssg82
g4610
sg75
(lp4617
g3170
asbasbasbag68
(g84
g70
NtRp4618
(dp4619
g73
(dp4620
sg82
g3113
sg75
(lp4621
g68
(g89
g70
NtRp4622
(dp4623
g73
(dp4624
g93
g94
ssg82
g4618
sg75
(lp4625
S'session_locked'
p4626
asbag68
(g89
g70
NtRp4627
(dp4628
g73
(dp4629
g100
g101
ssg82
g4618
sg75
(lp4630
S':'
asbag68
(g89
g70
NtRp4631
(dp4632
g73
(dp4633
sg82
g4618
sg75
(lp4634
g68
(g69
g70
NtRp4635
(dp4636
g73
(dp4637
g81
I5
ssg82
g4631
sg75
(lp4638
g1624
asbasbasbag68
(g84
g70
NtRp4639
(dp4640
g73
(dp4641
sg82
g3113
sg75
(lp4642
g68
(g89
g70
NtRp4643
(dp4644
g73
(dp4645
g93
g94
ssg82
g4639
sg75
(lp4646
S'session_new'
p4647
asbag68
(g89
g70
NtRp4648
(dp4649
g73
(dp4650
g100
g101
ssg82
g4639
sg75
(lp4651
S':'
asbag68
(g89
g70
NtRp4652
(dp4653
g73
(dp4654
sg82
g4639
sg75
(lp4655
g68
(g69
g70
NtRp4656
(dp4657
g73
(dp4658
g81
I5
ssg82
g4652
sg75
(lp4659
g111
asbasbasbag68
(g84
g70
NtRp4660
(dp4661
g73
(dp4662
sg82
g3113
sg75
(lp4663
g68
(g89
g70
NtRp4664
(dp4665
g73
(dp4666
g93
g94
ssg82
g4660
sg75
(lp4667
S'session_storage_type'
p4668
asbag68
(g89
g70
NtRp4669
(dp4670
g73
(dp4671
g100
g101
ssg82
g4660
sg75
(lp4672
S':'
asbag68
(g89
g70
NtRp4673
(dp4674
g73
(dp4675
sg82
g4660
sg75
(lp4676
g68
(g69
g70
NtRp4677
(dp4678
g73
(dp4679
g81
I5
ssg82
g4673
sg75
(lp4680
g3042
asbasbasbag68
(g84
g70
NtRp4681
(dp4682
g73
(dp4683
sg82
g3113
sg75
(lp4684
g68
(g89
g70
NtRp4685
(dp4686
g73
(dp4687
g93
g94
ssg82
g4681
sg75
(lp4688
S'status'
p4689
asbag68
(g89
g70
NtRp4690
(dp4691
g73
(dp4692
g100
g101
ssg82
g4681
sg75
(lp4693
S':'
asbag68
(g89
g70
NtRp4694
(dp4695
g73
(dp4696
sg82
g4681
sg75
(lp4697
g68
(g69
g70
NtRp4698
(dp4699
g73
(dp4700
g81
I5
ssg82
g4694
sg75
(lp4701
S'200'
p4702
asbasbasbag68
(g84
g70
NtRp4703
(dp4704
g73
(dp4705
sg82
g3113
sg75
(lp4706
g68
(g89
g70
NtRp4707
(dp4708
g73
(dp4709
g93
g94
ssg82
g4703
sg75
(lp4710
S'subtitle'
p4711
asbag68
(g89
g70
NtRp4712
(dp4713
g73
(dp4714
g100
g101
ssg82
g4703
sg75
(lp4715
S':'
asbag68
(g89
g70
NtRp4716
(dp4717
g73
(dp4718
sg82
g4703
sg75
(lp4719
g68
(g69
g70
NtRp4720
(dp4721
g73
(dp4722
g81
I5
ssg82
g4716
sg75
(lp4723
g3645
(S's\r\x00\x00\x00customize me!'
tRp4724
asbasbasbag68
(g84
g70
NtRp4725
(dp4726
g73
(dp4727
sg82
g3113
sg75
(lp4728
g68
(g89
g70
NtRp4729
(dp4730
g73
(dp4731
g93
g94
ssg82
g4725
sg75
(lp4732
S'title'
p4733
asbag68
(g89
g70
NtRp4734
(dp4735
g73
(dp4736
g100
g101
ssg82
g4725
sg75
(lp4737
S':'
asbag68
(g89
g70
NtRp4738
(dp4739
g73
(dp4740
sg82
g4725
sg75
(lp4741
g68
(g69
g70
NtRp4742
(dp4743
g73
(dp4744
g81
I5
ssg82
g4738
sg75
(lp4745
S'Projeto'
p4746
asbasbasbag68
(g84
g70
NtRp4747
(dp4748
g73
(dp4749
sg82
g3113
sg75
(lp4750
g68
(g89
g70
NtRp4751
(dp4752
g73
(dp4753
g93
g94
ssg82
g4747
sg75
(lp4754
S'view'
p4755
asbag68
(g89
g70
NtRp4756
(dp4757
g73
(dp4758
g100
g101
ssg82
g4747
sg75
(lp4759
S':'
asbag68
(g89
g70
NtRp4760
(dp4761
g73
(dp4762
sg82
g4747
sg75
(lp4763
g68
(g69
g70
NtRp4764
(dp4765
g73
(dp4766
g81
I5
ssg82
g4760
sg75
(lp4767
S'initial/principal.html'
p4768
asbasbasbasbasbsS'locals'
p4769
(dp4770
g4
S"'/var/www/conferencia/applications/projeto/controllers/initial.py'"
p4771
sg6
S"'# coding: utf-8\\n\\ndef principal():\\n\\tresponse.titl...s)\\n\\n\\n\\nresponse._vars=response._caller(principal)\\n'"
p4772
sssS'traceback'
p4773
S'Traceback (most recent call last):\n  File "/var/www/conferencia/gluon/restricted.py", line 211, in restricted\n    ccode = compile2(code, layer)\n  File "/var/www/conferencia/gluon/restricted.py", line 194, in compile2\n    return compile(code.rstrip().replace(\'\\r\\n\', \'\\n\') + \'\\n\', layer, \'exec\')\n  File "/var/www/conferencia/applications/projeto/controllers/initial.py", line 81\n    membros = evento.membros_user\n   ^\nIndentationError: unexpected indent\n'
p4774
s.