(dp1
S'output'
p2
S'<class \'gluon.contrib.pg8000.errors.ProgrammingError\'> (\'ERROR\', \'23502\', \'column "email__tmp" contains null values\')'
p3
sS'layer'
p4
S'/var/www/conferencia/applications/projeto/models/models.py'
p5
sS'code'
p6
S'usuario = db.define_table("usuario",\n      Field("nome", notnull=True),\n      Field("pin", notnull=True, unique=True),\n      Field("email", notnull=True, unique=True),\n      #auth.signature\n      format="%(nome)s")\n\n\nmeetme = db.define_table("meetme",\n      Field("confno", \'id\'), \n      Field("starttime", "datetime"),\n      Field("endtime", "datetime"),\n      Field("membros_user", \'list:reference usuario\'),\n      Field("admin_user", \'list:reference usuario\'),\n      Field(\'gravacao\', "boolean"),\n      #primarykey=[\'confno\']\n      )\n\n\nmeetme.confno.label = \'Sala\'\nmeetme.starttime.label = \'In\xc3\xadcio\'\nmeetme.endtime.label = "Fim"\nmeetme.membros_user.label = "Membros"\nmeetme.admin_user.label = "Admins"\n\n\n'
p7
sS'snapshot'
p8
(dp9
S'exception'
p10
(dp11
S'__module__'
p12
S"'gluon.contrib.pg8000.errors'"
p13
sS'__getslice__'
p14
S"<method-wrapper '__getslice__' of ProgrammingError object>"
p15
sS'__str__'
p16
S"<method-wrapper '__str__' of ProgrammingError object>"
p17
sS'__reduce__'
p18
S'<built-in method __reduce__ of ProgrammingError object>'
p19
sS'__dict__'
p20
S'{}'
p21
sS'__sizeof__'
p22
S'<built-in method __sizeof__ of ProgrammingError object>'
p23
sS'__weakref__'
p24
S'None'
p25
sS'__init__'
p26
S"<method-wrapper '__init__' of ProgrammingError object>"
p27
sS'__setattr__'
p28
S"<method-wrapper '__setattr__' of ProgrammingError object>"
p29
sS'__reduce_ex__'
p30
S'<built-in method __reduce_ex__ of ProgrammingError object>'
p31
sS'__new__'
p32
S'<built-in method __new__ of type object>'
p33
sS'__format__'
p34
S'<built-in method __format__ of ProgrammingError object>'
p35
sS'__class__'
p36
S"<class 'gluon.contrib.pg8000.errors.ProgrammingError'>"
p37
sS'__doc__'
p38
S'None'
p39
sS'__getitem__'
p40
S"<method-wrapper '__getitem__' of ProgrammingError object>"
p41
sS'__setstate__'
p42
S'<built-in method __setstate__ of ProgrammingError object>'
p43
sS'__getattribute__'
p44
S"<method-wrapper '__getattribute__' of ProgrammingError object>"
p45
sS'args'
p46
S'(\'ERROR\', \'23502\', \'column "email__tmp" contains null values\')'
p47
sS'__subclasshook__'
p48
S'<built-in method __subclasshook__ of type object>'
p49
sS'__unicode__'
p50
S'<built-in method __unicode__ of ProgrammingError object>'
p51
sS'__delattr__'
p52
S"<method-wrapper '__delattr__' of ProgrammingError object>"
p53
sS'__repr__'
p54
S"<method-wrapper '__repr__' of ProgrammingError object>"
p55
sS'__hash__'
p56
S"<method-wrapper '__hash__' of ProgrammingError object>"
p57
ssS'evalue'
p58
S'(\'ERROR\', \'23502\', \'column "email__tmp" contains null values\')'
p59
sS'request'
p60
ccopy_reg
_reconstructor
p61
(cgluon.html
BEAUTIFY
p62
c__builtin__
object
p63
NtRp64
(dp65
S'attributes'
p66
(dp67
sS'components'
p68
(lp69
g61
(cgluon.html
TABLE
p70
g63
NtRp71
(dp72
g66
(dp73
S'level'
p74
I5
ssS'parent'
p75
Nsg68
(lp76
g61
(cgluon.html
TR
p77
g63
NtRp78
(dp79
g66
(dp80
sg75
g71
sg68
(lp81
g61
(cgluon.html
TD
p82
g63
NtRp83
(dp84
g66
(dp85
S'_style'
p86
S'font-weight:bold;vertical-align:top'
p87
ssg75
g78
sg68
(lp88
S'ajax'
p89
asbag61
(g82
g63
NtRp90
(dp91
g66
(dp92
S'_valign'
p93
S'top'
p94
ssg75
g78
sg68
(lp95
S':'
asbag61
(g82
g63
NtRp96
(dp97
g66
(dp98
sg75
g78
sg68
(lp99
g61
(g62
g63
NtRp100
(dp101
g66
(dp102
g74
I5
ssg75
g96
sg68
(lp103
S'True'
p104
asbasbasbag61
(g77
g63
NtRp105
(dp106
g66
(dp107
sg75
g71
sg68
(lp108
g61
(g82
g63
NtRp109
(dp110
g66
(dp111
g86
g87
ssg75
g105
sg68
(lp112
S'application'
p113
asbag61
(g82
g63
NtRp114
(dp115
g66
(dp116
g93
g94
ssg75
g105
sg68
(lp117
S':'
asbag61
(g82
g63
NtRp118
(dp119
g66
(dp120
sg75
g105
sg68
(lp121
g61
(g62
g63
NtRp122
(dp123
g66
(dp124
g74
I5
ssg75
g118
sg68
(lp125
S'projeto'
p126
asbasbasbag61
(g77
g63
NtRp127
(dp128
g66
(dp129
sg75
g71
sg68
(lp130
g61
(g82
g63
NtRp131
(dp132
g66
(dp133
g86
g87
ssg75
g127
sg68
(lp134
g46
asbag61
(g82
g63
NtRp135
(dp136
g66
(dp137
g93
g94
ssg75
g127
sg68
(lp138
S':'
asbag61
(g82
g63
NtRp139
(dp140
g66
(dp141
sg75
g127
sg68
(lp142
g61
(g62
g63
NtRp143
(dp144
g66
(dp145
g74
I5
ssg75
g139
sg68
(lp146
g61
(g70
g63
NtRp147
(dp148
g66
(dp149
g74
I4
ssg75
Nsg68
(lp150
g61
(g77
g63
NtRp151
(dp152
g66
(dp153
sg75
g147
sg68
(lp154
g61
(g82
g63
NtRp155
(dp156
g66
(dp157
sg75
g151
sg68
(lp158
g61
(g62
g63
NtRp159
(dp160
g66
(dp161
g74
I4
ssg75
g155
sg68
(lp162
S'delete'
p163
asbasbasbag61
(g77
g63
NtRp164
(dp165
g66
(dp166
sg75
g147
sg68
(lp167
g61
(g82
g63
NtRp168
(dp169
g66
(dp170
sg75
g164
sg68
(lp171
g61
(g62
g63
NtRp172
(dp173
g66
(dp174
g74
I4
ssg75
g168
sg68
(lp175
S'usuario'
p176
asbasbasbag61
(g77
g63
NtRp177
(dp178
g66
(dp179
sg75
g147
sg68
(lp180
g61
(g82
g63
NtRp181
(dp182
g66
(dp183
sg75
g177
sg68
(lp184
g61
(g62
g63
NtRp185
(dp186
g66
(dp187
g74
I4
ssg75
g181
sg68
(lp188
S'1'
asbasbasbasbasbasbasbag61
(g77
g63
NtRp189
(dp190
g66
(dp191
sg75
g71
sg68
(lp192
g61
(g82
g63
NtRp193
(dp194
g66
(dp195
g86
g87
ssg75
g189
sg68
(lp196
S'body'
p197
asbag61
(g82
g63
NtRp198
(dp199
g66
(dp200
g93
g94
ssg75
g189
sg68
(lp201
S':'
asbag61
(g82
g63
NtRp202
(dp203
g66
(dp204
sg75
g189
sg68
(lp205
g61
(g62
g63
NtRp206
(dp207
g66
(dp208
g74
I5
ssg75
g202
sg68
(lp209
S"<open file '<fdopen>', mode 'w+b' at 0x7f4544126f60>"
p210
asbasbasbag61
(g77
g63
NtRp211
(dp212
g66
(dp213
sg75
g71
sg68
(lp214
g61
(g82
g63
NtRp215
(dp216
g66
(dp217
g86
g87
ssg75
g211
sg68
(lp218
S'cid'
p219
asbag61
(g82
g63
NtRp220
(dp221
g66
(dp222
g93
g94
ssg75
g211
sg68
(lp223
S':'
asbag61
(g82
g63
NtRp224
(dp225
g66
(dp226
sg75
g211
sg68
(lp227
g61
(g62
g63
NtRp228
(dp229
g66
(dp230
g74
I5
ssg75
g224
sg68
(lp231
S'None'
p232
asbasbasbag61
(g77
g63
NtRp233
(dp234
g66
(dp235
sg75
g71
sg68
(lp236
g61
(g82
g63
NtRp237
(dp238
g66
(dp239
g86
g87
ssg75
g233
sg68
(lp240
S'client'
p241
asbag61
(g82
g63
NtRp242
(dp243
g66
(dp244
g93
g94
ssg75
g233
sg68
(lp245
S':'
asbag61
(g82
g63
NtRp246
(dp247
g66
(dp248
sg75
g233
sg68
(lp249
g61
(g62
g63
NtRp250
(dp251
g66
(dp252
g74
I5
ssg75
g246
sg68
(lp253
S'127.0.0.1'
p254
asbasbasbag61
(g77
g63
NtRp255
(dp256
g66
(dp257
sg75
g71
sg68
(lp258
g61
(g82
g63
NtRp259
(dp260
g66
(dp261
g86
g87
ssg75
g255
sg68
(lp262
S'controller'
p263
asbag61
(g82
g63
NtRp264
(dp265
g66
(dp266
g93
g94
ssg75
g255
sg68
(lp267
S':'
asbag61
(g82
g63
NtRp268
(dp269
g66
(dp270
sg75
g255
sg68
(lp271
g61
(g62
g63
NtRp272
(dp273
g66
(dp274
g74
I5
ssg75
g268
sg68
(lp275
S'initial'
p276
asbasbasbag61
(g77
g63
NtRp277
(dp278
g66
(dp279
sg75
g71
sg68
(lp280
g61
(g82
g63
NtRp281
(dp282
g66
(dp283
g86
g87
ssg75
g277
sg68
(lp284
S'cookies'
p285
asbag61
(g82
g63
NtRp286
(dp287
g66
(dp288
g93
g94
ssg75
g277
sg68
(lp289
S':'
asbag61
(g82
g63
NtRp290
(dp291
g66
(dp292
sg75
g277
sg68
(lp293
g61
(g62
g63
NtRp294
(dp295
g66
(dp296
g74
I5
ssg75
g290
sg68
(lp297
g61
(g70
g63
NtRp298
(dp299
g66
(dp300
g74
I4
ssg75
Nsg68
(lp301
g61
(g77
g63
NtRp302
(dp303
g66
(dp304
sg75
g298
sg68
(lp305
g61
(g82
g63
NtRp306
(dp307
g66
(dp308
g86
g87
ssg75
g302
sg68
(lp309
S'session_id_admin'
p310
asbag61
(g82
g63
NtRp311
(dp312
g66
(dp313
g93
g94
ssg75
g302
sg68
(lp314
S':'
asbag61
(g82
g63
NtRp315
(dp316
g66
(dp317
sg75
g302
sg68
(lp318
g61
(g62
g63
NtRp319
(dp320
g66
(dp321
g74
I4
ssg75
g315
sg68
(lp322
S'127.0.0.1-cfe4c2e7-8d54-4ef8-9acc-85e77aa673da'
p323
ag61
(g70
g63
NtRp324
(dp325
g66
(dp326
g74
I3
ssg75
Nsg68
(lp327
g61
(g77
g63
NtRp328
(dp329
g66
(dp330
sg75
g324
sg68
(lp331
g61
(g82
g63
NtRp332
(dp333
g66
(dp334
g86
g87
ssg75
g328
sg68
(lp335
S'comment'
p336
asbag61
(g82
g63
NtRp337
(dp338
g66
(dp339
g93
g94
ssg75
g328
sg68
(lp340
S':'
asbag61
(g82
g63
NtRp341
(dp342
g66
(dp343
sg75
g328
sg68
(lp344
g61
(g62
g63
NtRp345
(dp346
g66
(dp347
g74
I3
ssg75
g341
sg68
(lp348
S''
asbasbasbag61
(g77
g63
NtRp349
(dp350
g66
(dp351
sg75
g324
sg68
(lp352
g61
(g82
g63
NtRp353
(dp354
g66
(dp355
g86
g87
ssg75
g349
sg68
(lp356
S'domain'
p357
asbag61
(g82
g63
NtRp358
(dp359
g66
(dp360
g93
g94
ssg75
g349
sg68
(lp361
S':'
asbag61
(g82
g63
NtRp362
(dp363
g66
(dp364
sg75
g349
sg68
(lp365
g61
(g62
g63
NtRp366
(dp367
g66
(dp368
g74
I3
ssg75
g362
sg68
(lp369
S''
asbasbasbag61
(g77
g63
NtRp370
(dp371
g66
(dp372
sg75
g324
sg68
(lp373
g61
(g82
g63
NtRp374
(dp375
g66
(dp376
g86
g87
ssg75
g370
sg68
(lp377
S'expires'
p378
asbag61
(g82
g63
NtRp379
(dp380
g66
(dp381
g93
g94
ssg75
g370
sg68
(lp382
S':'
asbag61
(g82
g63
NtRp383
(dp384
g66
(dp385
sg75
g370
sg68
(lp386
g61
(g62
g63
NtRp387
(dp388
g66
(dp389
g74
I3
ssg75
g383
sg68
(lp390
S''
asbasbasbag61
(g77
g63
NtRp391
(dp392
g66
(dp393
sg75
g324
sg68
(lp394
g61
(g82
g63
NtRp395
(dp396
g66
(dp397
g86
g87
ssg75
g391
sg68
(lp398
S'httponly'
p399
asbag61
(g82
g63
NtRp400
(dp401
g66
(dp402
g93
g94
ssg75
g391
sg68
(lp403
S':'
asbag61
(g82
g63
NtRp404
(dp405
g66
(dp406
sg75
g391
sg68
(lp407
g61
(g62
g63
NtRp408
(dp409
g66
(dp410
g74
I3
ssg75
g404
sg68
(lp411
S''
asbasbasbag61
(g77
g63
NtRp412
(dp413
g66
(dp414
sg75
g324
sg68
(lp415
g61
(g82
g63
NtRp416
(dp417
g66
(dp418
g86
g87
ssg75
g412
sg68
(lp419
S'max-age'
p420
asbag61
(g82
g63
NtRp421
(dp422
g66
(dp423
g93
g94
ssg75
g412
sg68
(lp424
S':'
asbag61
(g82
g63
NtRp425
(dp426
g66
(dp427
sg75
g412
sg68
(lp428
g61
(g62
g63
NtRp429
(dp430
g66
(dp431
g74
I3
ssg75
g425
sg68
(lp432
S''
asbasbasbag61
(g77
g63
NtRp433
(dp434
g66
(dp435
sg75
g324
sg68
(lp436
g61
(g82
g63
NtRp437
(dp438
g66
(dp439
g86
g87
ssg75
g433
sg68
(lp440
S'path'
p441
asbag61
(g82
g63
NtRp442
(dp443
g66
(dp444
g93
g94
ssg75
g433
sg68
(lp445
S':'
asbag61
(g82
g63
NtRp446
(dp447
g66
(dp448
sg75
g433
sg68
(lp449
g61
(g62
g63
NtRp450
(dp451
g66
(dp452
g74
I3
ssg75
g446
sg68
(lp453
S''
asbasbasbag61
(g77
g63
NtRp454
(dp455
g66
(dp456
sg75
g324
sg68
(lp457
g61
(g82
g63
NtRp458
(dp459
g66
(dp460
g86
g87
ssg75
g454
sg68
(lp461
S'secure'
p462
asbag61
(g82
g63
NtRp463
(dp464
g66
(dp465
g93
g94
ssg75
g454
sg68
(lp466
S':'
asbag61
(g82
g63
NtRp467
(dp468
g66
(dp469
sg75
g454
sg68
(lp470
g61
(g62
g63
NtRp471
(dp472
g66
(dp473
g74
I3
ssg75
g467
sg68
(lp474
S''
asbasbasbag61
(g77
g63
NtRp475
(dp476
g66
(dp477
sg75
g324
sg68
(lp478
g61
(g82
g63
NtRp479
(dp480
g66
(dp481
g86
g87
ssg75
g475
sg68
(lp482
S'version'
p483
asbag61
(g82
g63
NtRp484
(dp485
g66
(dp486
g93
g94
ssg75
g475
sg68
(lp487
S':'
asbag61
(g82
g63
NtRp488
(dp489
g66
(dp490
sg75
g475
sg68
(lp491
g61
(g62
g63
NtRp492
(dp493
g66
(dp494
g74
I3
ssg75
g488
sg68
(lp495
S''
asbasbasbasbasbasbasbag61
(g77
g63
NtRp496
(dp497
g66
(dp498
sg75
g298
sg68
(lp499
g61
(g82
g63
NtRp500
(dp501
g66
(dp502
g86
g87
ssg75
g496
sg68
(lp503
S'session_id_projeto'
p504
asbag61
(g82
g63
NtRp505
(dp506
g66
(dp507
g93
g94
ssg75
g496
sg68
(lp508
S':'
asbag61
(g82
g63
NtRp509
(dp510
g66
(dp511
sg75
g496
sg68
(lp512
g61
(g62
g63
NtRp513
(dp514
g66
(dp515
g74
I4
ssg75
g509
sg68
(lp516
S'127.0.0.1-32b58d02-0b69-424e-9fa3-773b7f2f336f'
p517
ag61
(g70
g63
NtRp518
(dp519
g66
(dp520
g74
I3
ssg75
Nsg68
(lp521
g61
(g77
g63
NtRp522
(dp523
g66
(dp524
sg75
g518
sg68
(lp525
g61
(g82
g63
NtRp526
(dp527
g66
(dp528
g86
g87
ssg75
g522
sg68
(lp529
g336
asbag61
(g82
g63
NtRp530
(dp531
g66
(dp532
g93
g94
ssg75
g522
sg68
(lp533
S':'
asbag61
(g82
g63
NtRp534
(dp535
g66
(dp536
sg75
g522
sg68
(lp537
g61
(g62
g63
NtRp538
(dp539
g66
(dp540
g74
I3
ssg75
g534
sg68
(lp541
S''
asbasbasbag61
(g77
g63
NtRp542
(dp543
g66
(dp544
sg75
g518
sg68
(lp545
g61
(g82
g63
NtRp546
(dp547
g66
(dp548
g86
g87
ssg75
g542
sg68
(lp549
g357
asbag61
(g82
g63
NtRp550
(dp551
g66
(dp552
g93
g94
ssg75
g542
sg68
(lp553
S':'
asbag61
(g82
g63
NtRp554
(dp555
g66
(dp556
sg75
g542
sg68
(lp557
g61
(g62
g63
NtRp558
(dp559
g66
(dp560
g74
I3
ssg75
g554
sg68
(lp561
S''
asbasbasbag61
(g77
g63
NtRp562
(dp563
g66
(dp564
sg75
g518
sg68
(lp565
g61
(g82
g63
NtRp566
(dp567
g66
(dp568
g86
g87
ssg75
g562
sg68
(lp569
g378
asbag61
(g82
g63
NtRp570
(dp571
g66
(dp572
g93
g94
ssg75
g562
sg68
(lp573
S':'
asbag61
(g82
g63
NtRp574
(dp575
g66
(dp576
sg75
g562
sg68
(lp577
g61
(g62
g63
NtRp578
(dp579
g66
(dp580
g74
I3
ssg75
g574
sg68
(lp581
S''
asbasbasbag61
(g77
g63
NtRp582
(dp583
g66
(dp584
sg75
g518
sg68
(lp585
g61
(g82
g63
NtRp586
(dp587
g66
(dp588
g86
g87
ssg75
g582
sg68
(lp589
g399
asbag61
(g82
g63
NtRp590
(dp591
g66
(dp592
g93
g94
ssg75
g582
sg68
(lp593
S':'
asbag61
(g82
g63
NtRp594
(dp595
g66
(dp596
sg75
g582
sg68
(lp597
g61
(g62
g63
NtRp598
(dp599
g66
(dp600
g74
I3
ssg75
g594
sg68
(lp601
S''
asbasbasbag61
(g77
g63
NtRp602
(dp603
g66
(dp604
sg75
g518
sg68
(lp605
g61
(g82
g63
NtRp606
(dp607
g66
(dp608
g86
g87
ssg75
g602
sg68
(lp609
g420
asbag61
(g82
g63
NtRp610
(dp611
g66
(dp612
g93
g94
ssg75
g602
sg68
(lp613
S':'
asbag61
(g82
g63
NtRp614
(dp615
g66
(dp616
sg75
g602
sg68
(lp617
g61
(g62
g63
NtRp618
(dp619
g66
(dp620
g74
I3
ssg75
g614
sg68
(lp621
S''
asbasbasbag61
(g77
g63
NtRp622
(dp623
g66
(dp624
sg75
g518
sg68
(lp625
g61
(g82
g63
NtRp626
(dp627
g66
(dp628
g86
g87
ssg75
g622
sg68
(lp629
g441
asbag61
(g82
g63
NtRp630
(dp631
g66
(dp632
g93
g94
ssg75
g622
sg68
(lp633
S':'
asbag61
(g82
g63
NtRp634
(dp635
g66
(dp636
sg75
g622
sg68
(lp637
g61
(g62
g63
NtRp638
(dp639
g66
(dp640
g74
I3
ssg75
g634
sg68
(lp641
S''
asbasbasbag61
(g77
g63
NtRp642
(dp643
g66
(dp644
sg75
g518
sg68
(lp645
g61
(g82
g63
NtRp646
(dp647
g66
(dp648
g86
g87
ssg75
g642
sg68
(lp649
g462
asbag61
(g82
g63
NtRp650
(dp651
g66
(dp652
g93
g94
ssg75
g642
sg68
(lp653
S':'
asbag61
(g82
g63
NtRp654
(dp655
g66
(dp656
sg75
g642
sg68
(lp657
g61
(g62
g63
NtRp658
(dp659
g66
(dp660
g74
I3
ssg75
g654
sg68
(lp661
S''
asbasbasbag61
(g77
g63
NtRp662
(dp663
g66
(dp664
sg75
g518
sg68
(lp665
g61
(g82
g63
NtRp666
(dp667
g66
(dp668
g86
g87
ssg75
g662
sg68
(lp669
g483
asbag61
(g82
g63
NtRp670
(dp671
g66
(dp672
g93
g94
ssg75
g662
sg68
(lp673
S':'
asbag61
(g82
g63
NtRp674
(dp675
g66
(dp676
sg75
g662
sg68
(lp677
g61
(g62
g63
NtRp678
(dp679
g66
(dp680
g74
I3
ssg75
g674
sg68
(lp681
S''
asbasbasbasbasbasbasbasbasbasbasbag61
(g77
g63
NtRp682
(dp683
g66
(dp684
sg75
g71
sg68
(lp685
g61
(g82
g63
NtRp686
(dp687
g66
(dp688
g86
g87
ssg75
g682
sg68
(lp689
S'env'
p690
asbag61
(g82
g63
NtRp691
(dp692
g66
(dp693
g93
g94
ssg75
g682
sg68
(lp694
S':'
asbag61
(g82
g63
NtRp695
(dp696
g66
(dp697
sg75
g682
sg68
(lp698
g61
(g62
g63
NtRp699
(dp700
g66
(dp701
g74
I5
ssg75
g695
sg68
(lp702
g61
(g70
g63
NtRp703
(dp704
g66
(dp705
g74
I4
ssg75
Nsg68
(lp706
g61
(g77
g63
NtRp707
(dp708
g66
(dp709
sg75
g703
sg68
(lp710
g61
(g82
g63
NtRp711
(dp712
g66
(dp713
g86
g87
ssg75
g707
sg68
(lp714
S'app_folders'
p715
asbag61
(g82
g63
NtRp716
(dp717
g66
(dp718
g93
g94
ssg75
g707
sg68
(lp719
S':'
asbag61
(g82
g63
NtRp720
(dp721
g66
(dp722
sg75
g707
sg68
(lp723
g61
(g62
g63
NtRp724
(dp725
g66
(dp726
g74
I4
ssg75
g720
sg68
(lp727
S"set(['/var/www/conferencia/applications/projeto/'])"
p728
asbasbasbag61
(g77
g63
NtRp729
(dp730
g66
(dp731
sg75
g703
sg68
(lp732
g61
(g82
g63
NtRp733
(dp734
g66
(dp735
g86
g87
ssg75
g729
sg68
(lp736
S'applications_parent'
p737
asbag61
(g82
g63
NtRp738
(dp739
g66
(dp740
g93
g94
ssg75
g729
sg68
(lp741
S':'
asbag61
(g82
g63
NtRp742
(dp743
g66
(dp744
sg75
g729
sg68
(lp745
g61
(g62
g63
NtRp746
(dp747
g66
(dp748
g74
I4
ssg75
g742
sg68
(lp749
S'/var/www/conferencia'
p750
asbasbasbag61
(g77
g63
NtRp751
(dp752
g66
(dp753
sg75
g703
sg68
(lp754
g61
(g82
g63
NtRp755
(dp756
g66
(dp757
g86
g87
ssg75
g751
sg68
(lp758
S'cmd_args'
p759
asbag61
(g82
g63
NtRp760
(dp761
g66
(dp762
g93
g94
ssg75
g751
sg68
(lp763
S':'
asbag61
(g82
g63
NtRp764
(dp765
g66
(dp766
sg75
g751
sg68
(lp767
g61
(g62
g63
NtRp768
(dp769
g66
(dp770
g74
I4
ssg75
g764
sg68
(lp771
g61
(g70
g63
NtRp772
(dp773
g66
(dp774
g74
I3
ssg75
Nsg68
(lp775
sbasbasbasbag61
(g77
g63
NtRp776
(dp777
g66
(dp778
sg75
g703
sg68
(lp779
g61
(g82
g63
NtRp780
(dp781
g66
(dp782
g86
g87
ssg75
g776
sg68
(lp783
S'cmd_options'
p784
asbag61
(g82
g63
NtRp785
(dp786
g66
(dp787
g93
g94
ssg75
g776
sg68
(lp788
S':'
asbag61
(g82
g63
NtRp789
(dp790
g66
(dp791
sg75
g776
sg68
(lp792
g61
(g62
g63
NtRp793
(dp794
g66
(dp795
g74
I4
ssg75
g789
sg68
(lp796
S"<Values at 0x1bd6248: {'verbose': False, 'ip': '127.0.0.1', 'with_scheduler': False, 'ips': [], 'shutdown_timeout': 5, 'taskbar': False, 'port': 8000, 'maxthreads': None, 'softcron': False, 'server_name': 'fernando-workstation', 'bpython': False, 'nogui': False, 'pid_filename': 'httpserver.pid', 'extcron': False, 'runcron': False, 'run_system_tests': False, 'test': None, 'folder': '/var/www/conferencia', 'config': '', 'minthreads': None, 'winservice': '', 'shell': None, 'run': '', 'log_filename': 'httpserver.log', 'debuglevel': 30, 'args': [''], 'socket_timeout': 5, 'ssl_ca_certificate': None, 'scheduler': None, 'profiler_filename': None, 'ssl_private_key': '', 'scheduler_groups': None, 'password': '123456', 'request_queue_size': 5, 'ssl_certificate': '', 'cronjob': False, 'numthreads': None, 'quiet': False, 'interfaces': None, 'import_models': False, 'timeout': 10, 'plain': False, 'nobanner': False}>"
p797
asbasbasbag61
(g77
g63
NtRp798
(dp799
g66
(dp800
sg75
g703
sg68
(lp801
g61
(g82
g63
NtRp802
(dp803
g66
(dp804
g86
g87
ssg75
g798
sg68
(lp805
S'content_length'
p806
asbag61
(g82
g63
NtRp807
(dp808
g66
(dp809
g93
g94
ssg75
g798
sg68
(lp810
S':'
asbag61
(g82
g63
NtRp811
(dp812
g66
(dp813
sg75
g798
sg68
(lp814
g61
(g62
g63
NtRp815
(dp816
g66
(dp817
g74
I4
ssg75
g811
sg68
(lp818
S'0'
asbasbasbag61
(g77
g63
NtRp819
(dp820
g66
(dp821
sg75
g703
sg68
(lp822
g61
(g82
g63
NtRp823
(dp824
g66
(dp825
g86
g87
ssg75
g819
sg68
(lp826
S'db_sessions'
p827
asbag61
(g82
g63
NtRp828
(dp829
g66
(dp830
g93
g94
ssg75
g819
sg68
(lp831
S':'
asbag61
(g82
g63
NtRp832
(dp833
g66
(dp834
sg75
g819
sg68
(lp835
g61
(g62
g63
NtRp836
(dp837
g66
(dp838
g74
I4
ssg75
g832
sg68
(lp839
S'set([])'
p840
asbasbasbag61
(g77
g63
NtRp841
(dp842
g66
(dp843
sg75
g703
sg68
(lp844
g61
(g82
g63
NtRp845
(dp846
g66
(dp847
g86
g87
ssg75
g841
sg68
(lp848
S'debugging'
p849
asbag61
(g82
g63
NtRp850
(dp851
g66
(dp852
g93
g94
ssg75
g841
sg68
(lp853
S':'
asbag61
(g82
g63
NtRp854
(dp855
g66
(dp856
sg75
g841
sg68
(lp857
g61
(g62
g63
NtRp858
(dp859
g66
(dp860
g74
I4
ssg75
g854
sg68
(lp861
S'False'
p862
asbasbasbag61
(g77
g63
NtRp863
(dp864
g66
(dp865
sg75
g703
sg68
(lp866
g61
(g82
g63
NtRp867
(dp868
g66
(dp869
g86
g87
ssg75
g863
sg68
(lp870
S'gluon_parent'
p871
asbag61
(g82
g63
NtRp872
(dp873
g66
(dp874
g93
g94
ssg75
g863
sg68
(lp875
S':'
asbag61
(g82
g63
NtRp876
(dp877
g66
(dp878
sg75
g863
sg68
(lp879
g61
(g62
g63
NtRp880
(dp881
g66
(dp882
g74
I4
ssg75
g876
sg68
(lp883
S'/var/www/conferencia'
p884
asbasbasbag61
(g77
g63
NtRp885
(dp886
g66
(dp887
sg75
g703
sg68
(lp888
g61
(g82
g63
NtRp889
(dp890
g66
(dp891
g86
g87
ssg75
g885
sg68
(lp892
S'http_accept'
p893
asbag61
(g82
g63
NtRp894
(dp895
g66
(dp896
g93
g94
ssg75
g885
sg68
(lp897
S':'
asbag61
(g82
g63
NtRp898
(dp899
g66
(dp900
sg75
g885
sg68
(lp901
g61
(g62
g63
NtRp902
(dp903
g66
(dp904
g74
I4
ssg75
g898
sg68
(lp905
S'*/*'
p906
asbasbasbag61
(g77
g63
NtRp907
(dp908
g66
(dp909
sg75
g703
sg68
(lp910
g61
(g82
g63
NtRp911
(dp912
g66
(dp913
g86
g87
ssg75
g907
sg68
(lp914
S'http_accept_charset'
p915
asbag61
(g82
g63
NtRp916
(dp917
g66
(dp918
g93
g94
ssg75
g907
sg68
(lp919
S':'
asbag61
(g82
g63
NtRp920
(dp921
g66
(dp922
sg75
g907
sg68
(lp923
g61
(g62
g63
NtRp924
(dp925
g66
(dp926
g74
I4
ssg75
g920
sg68
(lp927
S'ISO-8859-1,utf-8;q=0.7,*;q=0.3'
p928
asbasbasbag61
(g77
g63
NtRp929
(dp930
g66
(dp931
sg75
g703
sg68
(lp932
g61
(g82
g63
NtRp933
(dp934
g66
(dp935
g86
g87
ssg75
g929
sg68
(lp936
S'http_accept_encoding'
p937
asbag61
(g82
g63
NtRp938
(dp939
g66
(dp940
g93
g94
ssg75
g929
sg68
(lp941
S':'
asbag61
(g82
g63
NtRp942
(dp943
g66
(dp944
sg75
g929
sg68
(lp945
g61
(g62
g63
NtRp946
(dp947
g66
(dp948
g74
I4
ssg75
g942
sg68
(lp949
S'gzip,deflate,sdch'
p950
asbasbasbag61
(g77
g63
NtRp951
(dp952
g66
(dp953
sg75
g703
sg68
(lp954
g61
(g82
g63
NtRp955
(dp956
g66
(dp957
g86
g87
ssg75
g951
sg68
(lp958
S'http_accept_language'
p959
asbag61
(g82
g63
NtRp960
(dp961
g66
(dp962
g93
g94
ssg75
g951
sg68
(lp963
S':'
asbag61
(g82
g63
NtRp964
(dp965
g66
(dp966
sg75
g951
sg68
(lp967
g61
(g62
g63
NtRp968
(dp969
g66
(dp970
g74
I4
ssg75
g964
sg68
(lp971
S'pt-BR,pt;q=0.8,en-US;q=0.6,en;q=0.4'
p972
asbasbasbag61
(g77
g63
NtRp973
(dp974
g66
(dp975
sg75
g703
sg68
(lp976
g61
(g82
g63
NtRp977
(dp978
g66
(dp979
g86
g87
ssg75
g973
sg68
(lp980
S'http_connection'
p981
asbag61
(g82
g63
NtRp982
(dp983
g66
(dp984
g93
g94
ssg75
g973
sg68
(lp985
S':'
asbag61
(g82
g63
NtRp986
(dp987
g66
(dp988
sg75
g973
sg68
(lp989
g61
(g62
g63
NtRp990
(dp991
g66
(dp992
g74
I4
ssg75
g986
sg68
(lp993
S'keep-alive'
p994
asbasbasbag61
(g77
g63
NtRp995
(dp996
g66
(dp997
sg75
g703
sg68
(lp998
g61
(g82
g63
NtRp999
(dp1000
g66
(dp1001
g86
g87
ssg75
g995
sg68
(lp1002
S'http_content_length'
p1003
asbag61
(g82
g63
NtRp1004
(dp1005
g66
(dp1006
g93
g94
ssg75
g995
sg68
(lp1007
S':'
asbag61
(g82
g63
NtRp1008
(dp1009
g66
(dp1010
sg75
g995
sg68
(lp1011
g61
(g62
g63
NtRp1012
(dp1013
g66
(dp1014
g74
I4
ssg75
g1008
sg68
(lp1015
S'0'
asbasbasbag61
(g77
g63
NtRp1016
(dp1017
g66
(dp1018
sg75
g703
sg68
(lp1019
g61
(g82
g63
NtRp1020
(dp1021
g66
(dp1022
g86
g87
ssg75
g1016
sg68
(lp1023
S'http_cookie'
p1024
asbag61
(g82
g63
NtRp1025
(dp1026
g66
(dp1027
g93
g94
ssg75
g1016
sg68
(lp1028
S':'
asbag61
(g82
g63
NtRp1029
(dp1030
g66
(dp1031
sg75
g1016
sg68
(lp1032
g61
(g62
g63
NtRp1033
(dp1034
g66
(dp1035
g74
I4
ssg75
g1029
sg68
(lp1036
S'session_id_admin=127.0.0.1-cfe4c2e7-8d54-4ef8-9acc-85e77aa673da; session_id_projeto=127.0.0.1-32b58d02-0b69-424e-9fa3-773b7f2f336f'
p1037
asbasbasbag61
(g77
g63
NtRp1038
(dp1039
g66
(dp1040
sg75
g703
sg68
(lp1041
g61
(g82
g63
NtRp1042
(dp1043
g66
(dp1044
g86
g87
ssg75
g1038
sg68
(lp1045
S'http_host'
p1046
asbag61
(g82
g63
NtRp1047
(dp1048
g66
(dp1049
g93
g94
ssg75
g1038
sg68
(lp1050
S':'
asbag61
(g82
g63
NtRp1051
(dp1052
g66
(dp1053
sg75
g1038
sg68
(lp1054
g61
(g62
g63
NtRp1055
(dp1056
g66
(dp1057
g74
I4
ssg75
g1051
sg68
(lp1058
S'127.0.0.1:8000'
p1059
asbasbasbag61
(g77
g63
NtRp1060
(dp1061
g66
(dp1062
sg75
g703
sg68
(lp1063
g61
(g82
g63
NtRp1064
(dp1065
g66
(dp1066
g86
g87
ssg75
g1060
sg68
(lp1067
S'http_origin'
p1068
asbag61
(g82
g63
NtRp1069
(dp1070
g66
(dp1071
g93
g94
ssg75
g1060
sg68
(lp1072
S':'
asbag61
(g82
g63
NtRp1073
(dp1074
g66
(dp1075
sg75
g1060
sg68
(lp1076
g61
(g62
g63
NtRp1077
(dp1078
g66
(dp1079
g74
I4
ssg75
g1073
sg68
(lp1080
S'http://127.0.0.1:8000'
p1081
asbasbasbag61
(g77
g63
NtRp1082
(dp1083
g66
(dp1084
sg75
g703
sg68
(lp1085
g61
(g82
g63
NtRp1086
(dp1087
g66
(dp1088
g86
g87
ssg75
g1082
sg68
(lp1089
S'http_referer'
p1090
asbag61
(g82
g63
NtRp1091
(dp1092
g66
(dp1093
g93
g94
ssg75
g1082
sg68
(lp1094
S':'
asbag61
(g82
g63
NtRp1095
(dp1096
g66
(dp1097
sg75
g1082
sg68
(lp1098
g61
(g62
g63
NtRp1099
(dp1100
g66
(dp1101
g74
I4
ssg75
g1095
sg68
(lp1102
S'http://127.0.0.1:8000/'
p1103
asbasbasbag61
(g77
g63
NtRp1104
(dp1105
g66
(dp1106
sg75
g703
sg68
(lp1107
g61
(g82
g63
NtRp1108
(dp1109
g66
(dp1110
g86
g87
ssg75
g1104
sg68
(lp1111
S'http_user_agent'
p1112
asbag61
(g82
g63
NtRp1113
(dp1114
g66
(dp1115
g93
g94
ssg75
g1104
sg68
(lp1116
S':'
asbag61
(g82
g63
NtRp1117
(dp1118
g66
(dp1119
sg75
g1104
sg68
(lp1120
g61
(g62
g63
NtRp1121
(dp1122
g66
(dp1123
g74
I4
ssg75
g1117
sg68
(lp1124
S'Mozilla/5.0 (X11; Linux x86_64) AppleWebKit/537.4 (KHTML, like Gecko) Ubuntu/12.10 Chromium/22.0.1229.94 Chrome/22.0.1229.94 Safari/537.4'
p1125
asbasbasbag61
(g77
g63
NtRp1126
(dp1127
g66
(dp1128
sg75
g703
sg68
(lp1129
g61
(g82
g63
NtRp1130
(dp1131
g66
(dp1132
g86
g87
ssg75
g1126
sg68
(lp1133
S'http_x_requested_with'
p1134
asbag61
(g82
g63
NtRp1135
(dp1136
g66
(dp1137
g93
g94
ssg75
g1126
sg68
(lp1138
S':'
asbag61
(g82
g63
NtRp1139
(dp1140
g66
(dp1141
sg75
g1126
sg68
(lp1142
g61
(g62
g63
NtRp1143
(dp1144
g66
(dp1145
g74
I4
ssg75
g1139
sg68
(lp1146
S'XMLHttpRequest'
p1147
asbasbasbag61
(g77
g63
NtRp1148
(dp1149
g66
(dp1150
sg75
g703
sg68
(lp1151
g61
(g82
g63
NtRp1152
(dp1153
g66
(dp1154
g86
g87
ssg75
g1148
sg68
(lp1155
S'is_jython'
p1156
asbag61
(g82
g63
NtRp1157
(dp1158
g66
(dp1159
g93
g94
ssg75
g1148
sg68
(lp1160
S':'
asbag61
(g82
g63
NtRp1161
(dp1162
g66
(dp1163
sg75
g1148
sg68
(lp1164
g61
(g62
g63
NtRp1165
(dp1166
g66
(dp1167
g74
I4
ssg75
g1161
sg68
(lp1168
g862
asbasbasbag61
(g77
g63
NtRp1169
(dp1170
g66
(dp1171
sg75
g703
sg68
(lp1172
g61
(g82
g63
NtRp1173
(dp1174
g66
(dp1175
g86
g87
ssg75
g1169
sg68
(lp1176
S'is_pypy'
p1177
asbag61
(g82
g63
NtRp1178
(dp1179
g66
(dp1180
g93
g94
ssg75
g1169
sg68
(lp1181
S':'
asbag61
(g82
g63
NtRp1182
(dp1183
g66
(dp1184
sg75
g1169
sg68
(lp1185
g61
(g62
g63
NtRp1186
(dp1187
g66
(dp1188
g74
I4
ssg75
g1182
sg68
(lp1189
g862
asbasbasbag61
(g77
g63
NtRp1190
(dp1191
g66
(dp1192
sg75
g703
sg68
(lp1193
g61
(g82
g63
NtRp1194
(dp1195
g66
(dp1196
g86
g87
ssg75
g1190
sg68
(lp1197
S'local_hosts'
p1198
asbag61
(g82
g63
NtRp1199
(dp1200
g66
(dp1201
g93
g94
ssg75
g1190
sg68
(lp1202
S':'
asbag61
(g82
g63
NtRp1203
(dp1204
g66
(dp1205
sg75
g1190
sg68
(lp1206
g61
(g62
g63
NtRp1207
(dp1208
g66
(dp1209
g74
I4
ssg75
g1203
sg68
(lp1210
g61
(g70
g63
NtRp1211
(dp1212
g66
(dp1213
g74
I3
ssg75
Nsg68
(lp1214
g61
(g77
g63
NtRp1215
(dp1216
g66
(dp1217
sg75
g1211
sg68
(lp1218
g61
(g82
g63
NtRp1219
(dp1220
g66
(dp1221
sg75
g1215
sg68
(lp1222
g61
(g62
g63
NtRp1223
(dp1224
g66
(dp1225
g74
I3
ssg75
g1219
sg68
(lp1226
S'::1'
p1227
asbasbasbag61
(g77
g63
NtRp1228
(dp1229
g66
(dp1230
sg75
g1211
sg68
(lp1231
g61
(g82
g63
NtRp1232
(dp1233
g66
(dp1234
sg75
g1228
sg68
(lp1235
g61
(g62
g63
NtRp1236
(dp1237
g66
(dp1238
g74
I3
ssg75
g1232
sg68
(lp1239
S'::ffff:127.0.0.1'
p1240
asbasbasbag61
(g77
g63
NtRp1241
(dp1242
g66
(dp1243
sg75
g1211
sg68
(lp1244
g61
(g82
g63
NtRp1245
(dp1246
g66
(dp1247
sg75
g1241
sg68
(lp1248
g61
(g62
g63
NtRp1249
(dp1250
g66
(dp1251
g74
I3
ssg75
g1245
sg68
(lp1252
S'127.0.0.1'
p1253
asbasbasbag61
(g77
g63
NtRp1254
(dp1255
g66
(dp1256
sg75
g1211
sg68
(lp1257
g61
(g82
g63
NtRp1258
(dp1259
g66
(dp1260
sg75
g1254
sg68
(lp1261
g61
(g62
g63
NtRp1262
(dp1263
g66
(dp1264
g74
I3
ssg75
g1258
sg68
(lp1265
S'fernando-workstation'
p1266
asbasbasbasbasbasbasbag61
(g77
g63
NtRp1267
(dp1268
g66
(dp1269
sg75
g703
sg68
(lp1270
g61
(g82
g63
NtRp1271
(dp1272
g66
(dp1273
g86
g87
ssg75
g1267
sg68
(lp1274
S'path_info'
p1275
asbag61
(g82
g63
NtRp1276
(dp1277
g66
(dp1278
g93
g94
ssg75
g1267
sg68
(lp1279
S':'
asbag61
(g82
g63
NtRp1280
(dp1281
g66
(dp1282
sg75
g1267
sg68
(lp1283
g61
(g62
g63
NtRp1284
(dp1285
g66
(dp1286
g74
I4
ssg75
g1280
sg68
(lp1287
S'/delete/usuario/1'
p1288
asbasbasbag61
(g77
g63
NtRp1289
(dp1290
g66
(dp1291
sg75
g703
sg68
(lp1292
g61
(g82
g63
NtRp1293
(dp1294
g66
(dp1295
g86
g87
ssg75
g1289
sg68
(lp1296
S'query_string'
p1297
asbag61
(g82
g63
NtRp1298
(dp1299
g66
(dp1300
g93
g94
ssg75
g1289
sg68
(lp1301
S':'
asbag61
(g82
g63
NtRp1302
(dp1303
g66
(dp1304
sg75
g1289
sg68
(lp1305
g61
(g62
g63
NtRp1306
(dp1307
g66
(dp1308
g74
I4
ssg75
g1302
sg68
(lp1309
S''
asbasbasbag61
(g77
g63
NtRp1310
(dp1311
g66
(dp1312
sg75
g703
sg68
(lp1313
g61
(g82
g63
NtRp1314
(dp1315
g66
(dp1316
g86
g87
ssg75
g1310
sg68
(lp1317
S'remote_addr'
p1318
asbag61
(g82
g63
NtRp1319
(dp1320
g66
(dp1321
g93
g94
ssg75
g1310
sg68
(lp1322
S':'
asbag61
(g82
g63
NtRp1323
(dp1324
g66
(dp1325
sg75
g1310
sg68
(lp1326
g61
(g62
g63
NtRp1327
(dp1328
g66
(dp1329
g74
I4
ssg75
g1323
sg68
(lp1330
g254
asbasbasbag61
(g77
g63
NtRp1331
(dp1332
g66
(dp1333
sg75
g703
sg68
(lp1334
g61
(g82
g63
NtRp1335
(dp1336
g66
(dp1337
g86
g87
ssg75
g1331
sg68
(lp1338
S'remote_port'
p1339
asbag61
(g82
g63
NtRp1340
(dp1341
g66
(dp1342
g93
g94
ssg75
g1331
sg68
(lp1343
S':'
asbag61
(g82
g63
NtRp1344
(dp1345
g66
(dp1346
sg75
g1331
sg68
(lp1347
g61
(g62
g63
NtRp1348
(dp1349
g66
(dp1350
g74
I4
ssg75
g1344
sg68
(lp1351
S'41226'
p1352
asbasbasbag61
(g77
g63
NtRp1353
(dp1354
g66
(dp1355
sg75
g703
sg68
(lp1356
g61
(g82
g63
NtRp1357
(dp1358
g66
(dp1359
g86
g87
ssg75
g1353
sg68
(lp1360
S'request_method'
p1361
asbag61
(g82
g63
NtRp1362
(dp1363
g66
(dp1364
g93
g94
ssg75
g1353
sg68
(lp1365
S':'
asbag61
(g82
g63
NtRp1366
(dp1367
g66
(dp1368
sg75
g1353
sg68
(lp1369
g61
(g62
g63
NtRp1370
(dp1371
g66
(dp1372
g74
I4
ssg75
g1366
sg68
(lp1373
S'POST'
p1374
asbasbasbag61
(g77
g63
NtRp1375
(dp1376
g66
(dp1377
sg75
g703
sg68
(lp1378
g61
(g82
g63
NtRp1379
(dp1380
g66
(dp1381
g86
g87
ssg75
g1375
sg68
(lp1382
S'request_uri'
p1383
asbag61
(g82
g63
NtRp1384
(dp1385
g66
(dp1386
g93
g94
ssg75
g1375
sg68
(lp1387
S':'
asbag61
(g82
g63
NtRp1388
(dp1389
g66
(dp1390
sg75
g1375
sg68
(lp1391
g61
(g62
g63
NtRp1392
(dp1393
g66
(dp1394
g74
I4
ssg75
g1388
sg68
(lp1395
S'/projeto/initial/principal/delete/usuario/1'
p1396
asbasbasbag61
(g77
g63
NtRp1397
(dp1398
g66
(dp1399
sg75
g703
sg68
(lp1400
g61
(g82
g63
NtRp1401
(dp1402
g66
(dp1403
g86
g87
ssg75
g1397
sg68
(lp1404
S'script_name'
p1405
asbag61
(g82
g63
NtRp1406
(dp1407
g66
(dp1408
g93
g94
ssg75
g1397
sg68
(lp1409
S':'
asbag61
(g82
g63
NtRp1410
(dp1411
g66
(dp1412
sg75
g1397
sg68
(lp1413
g61
(g62
g63
NtRp1414
(dp1415
g66
(dp1416
g74
I4
ssg75
g1410
sg68
(lp1417
S''
asbasbasbag61
(g77
g63
NtRp1418
(dp1419
g66
(dp1420
sg75
g703
sg68
(lp1421
g61
(g82
g63
NtRp1422
(dp1423
g66
(dp1424
g86
g87
ssg75
g1418
sg68
(lp1425
S'server_name'
p1426
asbag61
(g82
g63
NtRp1427
(dp1428
g66
(dp1429
g93
g94
ssg75
g1418
sg68
(lp1430
S':'
asbag61
(g82
g63
NtRp1431
(dp1432
g66
(dp1433
sg75
g1418
sg68
(lp1434
g61
(g62
g63
NtRp1435
(dp1436
g66
(dp1437
g74
I4
ssg75
g1431
sg68
(lp1438
S'fernando-workstation'
p1439
asbasbasbag61
(g77
g63
NtRp1440
(dp1441
g66
(dp1442
sg75
g703
sg68
(lp1443
g61
(g82
g63
NtRp1444
(dp1445
g66
(dp1446
g86
g87
ssg75
g1440
sg68
(lp1447
S'server_port'
p1448
asbag61
(g82
g63
NtRp1449
(dp1450
g66
(dp1451
g93
g94
ssg75
g1440
sg68
(lp1452
S':'
asbag61
(g82
g63
NtRp1453
(dp1454
g66
(dp1455
sg75
g1440
sg68
(lp1456
g61
(g62
g63
NtRp1457
(dp1458
g66
(dp1459
g74
I4
ssg75
g1453
sg68
(lp1460
S'8000'
p1461
asbasbasbag61
(g77
g63
NtRp1462
(dp1463
g66
(dp1464
sg75
g703
sg68
(lp1465
g61
(g82
g63
NtRp1466
(dp1467
g66
(dp1468
g86
g87
ssg75
g1462
sg68
(lp1469
S'server_protocol'
p1470
asbag61
(g82
g63
NtRp1471
(dp1472
g66
(dp1473
g93
g94
ssg75
g1462
sg68
(lp1474
S':'
asbag61
(g82
g63
NtRp1475
(dp1476
g66
(dp1477
sg75
g1462
sg68
(lp1478
g61
(g62
g63
NtRp1479
(dp1480
g66
(dp1481
g74
I4
ssg75
g1475
sg68
(lp1482
S'HTTP/1.1'
p1483
asbasbasbag61
(g77
g63
NtRp1484
(dp1485
g66
(dp1486
sg75
g703
sg68
(lp1487
g61
(g82
g63
NtRp1488
(dp1489
g66
(dp1490
g86
g87
ssg75
g1484
sg68
(lp1491
S'server_software'
p1492
asbag61
(g82
g63
NtRp1493
(dp1494
g66
(dp1495
g93
g94
ssg75
g1484
sg68
(lp1496
S':'
asbag61
(g82
g63
NtRp1497
(dp1498
g66
(dp1499
sg75
g1484
sg68
(lp1500
g61
(g62
g63
NtRp1501
(dp1502
g66
(dp1503
g74
I4
ssg75
g1497
sg68
(lp1504
S'Rocket 1.2.6'
p1505
asbasbasbag61
(g77
g63
NtRp1506
(dp1507
g66
(dp1508
sg75
g703
sg68
(lp1509
g61
(g82
g63
NtRp1510
(dp1511
g66
(dp1512
g86
g87
ssg75
g1506
sg68
(lp1513
S'web2py_original_uri'
p1514
asbag61
(g82
g63
NtRp1515
(dp1516
g66
(dp1517
g93
g94
ssg75
g1506
sg68
(lp1518
S':'
asbag61
(g82
g63
NtRp1519
(dp1520
g66
(dp1521
sg75
g1506
sg68
(lp1522
g61
(g62
g63
NtRp1523
(dp1524
g66
(dp1525
g74
I4
ssg75
g1519
sg68
(lp1526
g1288
asbasbasbag61
(g77
g63
NtRp1527
(dp1528
g66
(dp1529
sg75
g703
sg68
(lp1530
g61
(g82
g63
NtRp1531
(dp1532
g66
(dp1533
g86
g87
ssg75
g1527
sg68
(lp1534
S'web2py_path'
p1535
asbag61
(g82
g63
NtRp1536
(dp1537
g66
(dp1538
g93
g94
ssg75
g1527
sg68
(lp1539
S':'
asbag61
(g82
g63
NtRp1540
(dp1541
g66
(dp1542
sg75
g1527
sg68
(lp1543
g61
(g62
g63
NtRp1544
(dp1545
g66
(dp1546
g74
I4
ssg75
g1540
sg68
(lp1547
g750
asbasbasbag61
(g77
g63
NtRp1548
(dp1549
g66
(dp1550
sg75
g703
sg68
(lp1551
g61
(g82
g63
NtRp1552
(dp1553
g66
(dp1554
g86
g87
ssg75
g1548
sg68
(lp1555
S'web2py_version'
p1556
asbag61
(g82
g63
NtRp1557
(dp1558
g66
(dp1559
g93
g94
ssg75
g1548
sg68
(lp1560
S':'
asbag61
(g82
g63
NtRp1561
(dp1562
g66
(dp1563
sg75
g1548
sg68
(lp1564
g61
(g62
g63
NtRp1565
(dp1566
g66
(dp1567
g74
I4
ssg75
g1561
sg68
(lp1568
g61
(g70
g63
NtRp1569
(dp1570
g66
(dp1571
g74
I3
ssg75
Nsg68
(lp1572
g61
(g77
g63
NtRp1573
(dp1574
g66
(dp1575
sg75
g1569
sg68
(lp1576
g61
(g82
g63
NtRp1577
(dp1578
g66
(dp1579
sg75
g1573
sg68
(lp1580
g61
(g62
g63
NtRp1581
(dp1582
g66
(dp1583
g74
I3
ssg75
g1577
sg68
(lp1584
S'2'
asbasbasbag61
(g77
g63
NtRp1585
(dp1586
g66
(dp1587
sg75
g1569
sg68
(lp1588
g61
(g82
g63
NtRp1589
(dp1590
g66
(dp1591
sg75
g1585
sg68
(lp1592
g61
(g62
g63
NtRp1593
(dp1594
g66
(dp1595
g74
I3
ssg75
g1589
sg68
(lp1596
S'3'
asbasbasbag61
(g77
g63
NtRp1597
(dp1598
g66
(dp1599
sg75
g1569
sg68
(lp1600
g61
(g82
g63
NtRp1601
(dp1602
g66
(dp1603
sg75
g1597
sg68
(lp1604
g61
(g62
g63
NtRp1605
(dp1606
g66
(dp1607
g74
I3
ssg75
g1601
sg68
(lp1608
S'2'
asbasbasbag61
(g77
g63
NtRp1609
(dp1610
g66
(dp1611
sg75
g1569
sg68
(lp1612
g61
(g82
g63
NtRp1613
(dp1614
g66
(dp1615
sg75
g1609
sg68
(lp1616
g61
(g62
g63
NtRp1617
(dp1618
g66
(dp1619
g74
I3
ssg75
g1613
sg68
(lp1620
S'datetime.datetime(2012, 12, 17, 15, 3, 30)'
p1621
asbasbasbag61
(g77
g63
NtRp1622
(dp1623
g66
(dp1624
sg75
g1569
sg68
(lp1625
g61
(g82
g63
NtRp1626
(dp1627
g66
(dp1628
sg75
g1622
sg68
(lp1629
g61
(g62
g63
NtRp1630
(dp1631
g66
(dp1632
g74
I3
ssg75
g1626
sg68
(lp1633
S'stable'
p1634
asbasbasbasbasbasbasbag61
(g77
g63
NtRp1635
(dp1636
g66
(dp1637
sg75
g703
sg68
(lp1638
g61
(g82
g63
NtRp1639
(dp1640
g66
(dp1641
g86
g87
ssg75
g1635
sg68
(lp1642
S'wsgi_errors'
p1643
asbag61
(g82
g63
NtRp1644
(dp1645
g66
(dp1646
g93
g94
ssg75
g1635
sg68
(lp1647
S':'
asbag61
(g82
g63
NtRp1648
(dp1649
g66
(dp1650
sg75
g1635
sg68
(lp1651
g61
(g62
g63
NtRp1652
(dp1653
g66
(dp1654
g74
I4
ssg75
g1648
sg68
(lp1655
S"<open file '<stderr>', mode 'w' at 0x7f4551837270>"
p1656
asbasbasbag61
(g77
g63
NtRp1657
(dp1658
g66
(dp1659
sg75
g703
sg68
(lp1660
g61
(g82
g63
NtRp1661
(dp1662
g66
(dp1663
g86
g87
ssg75
g1657
sg68
(lp1664
S'wsgi_file_wrapper'
p1665
asbag61
(g82
g63
NtRp1666
(dp1667
g66
(dp1668
g93
g94
ssg75
g1657
sg68
(lp1669
S':'
asbag61
(g82
g63
NtRp1670
(dp1671
g66
(dp1672
sg75
g1657
sg68
(lp1673
g61
(g62
g63
NtRp1674
(dp1675
g66
(dp1676
g74
I4
ssg75
g1670
sg68
(lp1677
S'<class wsgiref.util.FileWrapper at 0x1b4d598>'
p1678
asbasbasbag61
(g77
g63
NtRp1679
(dp1680
g66
(dp1681
sg75
g703
sg68
(lp1682
g61
(g82
g63
NtRp1683
(dp1684
g66
(dp1685
g86
g87
ssg75
g1679
sg68
(lp1686
S'wsgi_input'
p1687
asbag61
(g82
g63
NtRp1688
(dp1689
g66
(dp1690
g93
g94
ssg75
g1679
sg68
(lp1691
S':'
asbag61
(g82
g63
NtRp1692
(dp1693
g66
(dp1694
sg75
g1679
sg68
(lp1695
g61
(g62
g63
NtRp1696
(dp1697
g66
(dp1698
g74
I4
ssg75
g1692
sg68
(lp1699
S'<socket._fileobject object at 0x7f454426f8d0>'
p1700
asbasbasbag61
(g77
g63
NtRp1701
(dp1702
g66
(dp1703
sg75
g703
sg68
(lp1704
g61
(g82
g63
NtRp1705
(dp1706
g66
(dp1707
g86
g87
ssg75
g1701
sg68
(lp1708
S'wsgi_multiprocess'
p1709
asbag61
(g82
g63
NtRp1710
(dp1711
g66
(dp1712
g93
g94
ssg75
g1701
sg68
(lp1713
S':'
asbag61
(g82
g63
NtRp1714
(dp1715
g66
(dp1716
sg75
g1701
sg68
(lp1717
g61
(g62
g63
NtRp1718
(dp1719
g66
(dp1720
g74
I4
ssg75
g1714
sg68
(lp1721
g862
asbasbasbag61
(g77
g63
NtRp1722
(dp1723
g66
(dp1724
sg75
g703
sg68
(lp1725
g61
(g82
g63
NtRp1726
(dp1727
g66
(dp1728
g86
g87
ssg75
g1722
sg68
(lp1729
S'wsgi_multithread'
p1730
asbag61
(g82
g63
NtRp1731
(dp1732
g66
(dp1733
g93
g94
ssg75
g1722
sg68
(lp1734
S':'
asbag61
(g82
g63
NtRp1735
(dp1736
g66
(dp1737
sg75
g1722
sg68
(lp1738
g61
(g62
g63
NtRp1739
(dp1740
g66
(dp1741
g74
I4
ssg75
g1735
sg68
(lp1742
g104
asbasbasbag61
(g77
g63
NtRp1743
(dp1744
g66
(dp1745
sg75
g703
sg68
(lp1746
g61
(g82
g63
NtRp1747
(dp1748
g66
(dp1749
g86
g87
ssg75
g1743
sg68
(lp1750
S'wsgi_run_once'
p1751
asbag61
(g82
g63
NtRp1752
(dp1753
g66
(dp1754
g93
g94
ssg75
g1743
sg68
(lp1755
S':'
asbag61
(g82
g63
NtRp1756
(dp1757
g66
(dp1758
sg75
g1743
sg68
(lp1759
g61
(g62
g63
NtRp1760
(dp1761
g66
(dp1762
g74
I4
ssg75
g1756
sg68
(lp1763
g862
asbasbasbag61
(g77
g63
NtRp1764
(dp1765
g66
(dp1766
sg75
g703
sg68
(lp1767
g61
(g82
g63
NtRp1768
(dp1769
g66
(dp1770
g86
g87
ssg75
g1764
sg68
(lp1771
S'wsgi_url_scheme'
p1772
asbag61
(g82
g63
NtRp1773
(dp1774
g66
(dp1775
g93
g94
ssg75
g1764
sg68
(lp1776
S':'
asbag61
(g82
g63
NtRp1777
(dp1778
g66
(dp1779
sg75
g1764
sg68
(lp1780
g61
(g62
g63
NtRp1781
(dp1782
g66
(dp1783
g74
I4
ssg75
g1777
sg68
(lp1784
S'http'
p1785
asbasbasbag61
(g77
g63
NtRp1786
(dp1787
g66
(dp1788
sg75
g703
sg68
(lp1789
g61
(g82
g63
NtRp1790
(dp1791
g66
(dp1792
g86
g87
ssg75
g1786
sg68
(lp1793
S'wsgi_version'
p1794
asbag61
(g82
g63
NtRp1795
(dp1796
g66
(dp1797
g93
g94
ssg75
g1786
sg68
(lp1798
S':'
asbag61
(g82
g63
NtRp1799
(dp1800
g66
(dp1801
sg75
g1786
sg68
(lp1802
g61
(g62
g63
NtRp1803
(dp1804
g66
(dp1805
g74
I4
ssg75
g1799
sg68
(lp1806
g61
(g70
g63
NtRp1807
(dp1808
g66
(dp1809
g74
I3
ssg75
Nsg68
(lp1810
g61
(g77
g63
NtRp1811
(dp1812
g66
(dp1813
sg75
g1807
sg68
(lp1814
g61
(g82
g63
NtRp1815
(dp1816
g66
(dp1817
sg75
g1811
sg68
(lp1818
g61
(g62
g63
NtRp1819
(dp1820
g66
(dp1821
g74
I3
ssg75
g1815
sg68
(lp1822
S'1'
asbasbasbag61
(g77
g63
NtRp1823
(dp1824
g66
(dp1825
sg75
g1807
sg68
(lp1826
g61
(g82
g63
NtRp1827
(dp1828
g66
(dp1829
sg75
g1823
sg68
(lp1830
g61
(g62
g63
NtRp1831
(dp1832
g66
(dp1833
g74
I3
ssg75
g1827
sg68
(lp1834
S'0'
asbasbasbasbasbasbasbasbasbasbasbag61
(g77
g63
NtRp1835
(dp1836
g66
(dp1837
sg75
g71
sg68
(lp1838
g61
(g82
g63
NtRp1839
(dp1840
g66
(dp1841
g86
g87
ssg75
g1835
sg68
(lp1842
S'extension'
p1843
asbag61
(g82
g63
NtRp1844
(dp1845
g66
(dp1846
g93
g94
ssg75
g1835
sg68
(lp1847
S':'
asbag61
(g82
g63
NtRp1848
(dp1849
g66
(dp1850
sg75
g1835
sg68
(lp1851
g61
(g62
g63
NtRp1852
(dp1853
g66
(dp1854
g74
I5
ssg75
g1848
sg68
(lp1855
S'html'
p1856
asbasbasbag61
(g77
g63
NtRp1857
(dp1858
g66
(dp1859
sg75
g71
sg68
(lp1860
g61
(g82
g63
NtRp1861
(dp1862
g66
(dp1863
g86
g87
ssg75
g1857
sg68
(lp1864
S'folder'
p1865
asbag61
(g82
g63
NtRp1866
(dp1867
g66
(dp1868
g93
g94
ssg75
g1857
sg68
(lp1869
S':'
asbag61
(g82
g63
NtRp1870
(dp1871
g66
(dp1872
sg75
g1857
sg68
(lp1873
g61
(g62
g63
NtRp1874
(dp1875
g66
(dp1876
g74
I5
ssg75
g1870
sg68
(lp1877
S'/var/www/conferencia/applications/projeto/'
p1878
asbasbasbag61
(g77
g63
NtRp1879
(dp1880
g66
(dp1881
sg75
g71
sg68
(lp1882
g61
(g82
g63
NtRp1883
(dp1884
g66
(dp1885
g86
g87
ssg75
g1879
sg68
(lp1886
S'function'
p1887
asbag61
(g82
g63
NtRp1888
(dp1889
g66
(dp1890
g93
g94
ssg75
g1879
sg68
(lp1891
S':'
asbag61
(g82
g63
NtRp1892
(dp1893
g66
(dp1894
sg75
g1879
sg68
(lp1895
g61
(g62
g63
NtRp1896
(dp1897
g66
(dp1898
g74
I5
ssg75
g1892
sg68
(lp1899
S'principal'
p1900
asbasbasbag61
(g77
g63
NtRp1901
(dp1902
g66
(dp1903
sg75
g71
sg68
(lp1904
g61
(g82
g63
NtRp1905
(dp1906
g66
(dp1907
g86
g87
ssg75
g1901
sg68
(lp1908
S'get_vars'
p1909
asbag61
(g82
g63
NtRp1910
(dp1911
g66
(dp1912
g93
g94
ssg75
g1901
sg68
(lp1913
S':'
asbag61
(g82
g63
NtRp1914
(dp1915
g66
(dp1916
sg75
g1901
sg68
(lp1917
g61
(g62
g63
NtRp1918
(dp1919
g66
(dp1920
g74
I5
ssg75
g1914
sg68
(lp1921
g61
(g70
g63
NtRp1922
(dp1923
g66
(dp1924
g74
I4
ssg75
Nsg68
(lp1925
sbasbasbasbag61
(g77
g63
NtRp1926
(dp1927
g66
(dp1928
sg75
g71
sg68
(lp1929
g61
(g82
g63
NtRp1930
(dp1931
g66
(dp1932
g86
g87
ssg75
g1926
sg68
(lp1933
S'global_settings'
p1934
asbag61
(g82
g63
NtRp1935
(dp1936
g66
(dp1937
g93
g94
ssg75
g1926
sg68
(lp1938
S':'
asbag61
(g82
g63
NtRp1939
(dp1940
g66
(dp1941
sg75
g1926
sg68
(lp1942
g61
(g62
g63
NtRp1943
(dp1944
g66
(dp1945
g74
I5
ssg75
g1939
sg68
(lp1946
g61
(g70
g63
NtRp1947
(dp1948
g66
(dp1949
g74
I4
ssg75
Nsg68
(lp1950
g61
(g77
g63
NtRp1951
(dp1952
g66
(dp1953
sg75
g1947
sg68
(lp1954
g61
(g82
g63
NtRp1955
(dp1956
g66
(dp1957
g86
g87
ssg75
g1951
sg68
(lp1958
g715
asbag61
(g82
g63
NtRp1959
(dp1960
g66
(dp1961
g93
g94
ssg75
g1951
sg68
(lp1962
S':'
asbag61
(g82
g63
NtRp1963
(dp1964
g66
(dp1965
sg75
g1951
sg68
(lp1966
g61
(g62
g63
NtRp1967
(dp1968
g66
(dp1969
g74
I4
ssg75
g1963
sg68
(lp1970
S"set(['/var/www/conferencia/applications/projeto/'])"
p1971
asbasbasbag61
(g77
g63
NtRp1972
(dp1973
g66
(dp1974
sg75
g1947
sg68
(lp1975
g61
(g82
g63
NtRp1976
(dp1977
g66
(dp1978
g86
g87
ssg75
g1972
sg68
(lp1979
g737
asbag61
(g82
g63
NtRp1980
(dp1981
g66
(dp1982
g93
g94
ssg75
g1972
sg68
(lp1983
S':'
asbag61
(g82
g63
NtRp1984
(dp1985
g66
(dp1986
sg75
g1972
sg68
(lp1987
g61
(g62
g63
NtRp1988
(dp1989
g66
(dp1990
g74
I4
ssg75
g1984
sg68
(lp1991
g750
asbasbasbag61
(g77
g63
NtRp1992
(dp1993
g66
(dp1994
sg75
g1947
sg68
(lp1995
g61
(g82
g63
NtRp1996
(dp1997
g66
(dp1998
g86
g87
ssg75
g1992
sg68
(lp1999
g759
asbag61
(g82
g63
NtRp2000
(dp2001
g66
(dp2002
g93
g94
ssg75
g1992
sg68
(lp2003
S':'
asbag61
(g82
g63
NtRp2004
(dp2005
g66
(dp2006
sg75
g1992
sg68
(lp2007
g61
(g62
g63
NtRp2008
(dp2009
g66
(dp2010
g74
I4
ssg75
g2004
sg68
(lp2011
g61
(g70
g63
NtRp2012
(dp2013
g66
(dp2014
g74
I3
ssg75
Nsg68
(lp2015
sbasbasbasbag61
(g77
g63
NtRp2016
(dp2017
g66
(dp2018
sg75
g1947
sg68
(lp2019
g61
(g82
g63
NtRp2020
(dp2021
g66
(dp2022
g86
g87
ssg75
g2016
sg68
(lp2023
g784
asbag61
(g82
g63
NtRp2024
(dp2025
g66
(dp2026
g93
g94
ssg75
g2016
sg68
(lp2027
S':'
asbag61
(g82
g63
NtRp2028
(dp2029
g66
(dp2030
sg75
g2016
sg68
(lp2031
g61
(g62
g63
NtRp2032
(dp2033
g66
(dp2034
g74
I4
ssg75
g2028
sg68
(lp2035
S"<Values at 0x1bd6248: {'verbose': False, 'ip': '127.0.0.1', 'with_scheduler': False, 'ips': [], 'shutdown_timeout': 5, 'taskbar': False, 'port': 8000, 'maxthreads': None, 'softcron': False, 'server_name': 'fernando-workstation', 'bpython': False, 'nogui': False, 'pid_filename': 'httpserver.pid', 'extcron': False, 'runcron': False, 'run_system_tests': False, 'test': None, 'folder': '/var/www/conferencia', 'config': '', 'minthreads': None, 'winservice': '', 'shell': None, 'run': '', 'log_filename': 'httpserver.log', 'debuglevel': 30, 'args': [''], 'socket_timeout': 5, 'ssl_ca_certificate': None, 'scheduler': None, 'profiler_filename': None, 'ssl_private_key': '', 'scheduler_groups': None, 'password': '123456', 'request_queue_size': 5, 'ssl_certificate': '', 'cronjob': False, 'numthreads': None, 'quiet': False, 'interfaces': None, 'import_models': False, 'timeout': 10, 'plain': False, 'nobanner': False}>"
p2036
asbasbasbag61
(g77
g63
NtRp2037
(dp2038
g66
(dp2039
sg75
g1947
sg68
(lp2040
g61
(g82
g63
NtRp2041
(dp2042
g66
(dp2043
g86
g87
ssg75
g2037
sg68
(lp2044
g827
asbag61
(g82
g63
NtRp2045
(dp2046
g66
(dp2047
g93
g94
ssg75
g2037
sg68
(lp2048
S':'
asbag61
(g82
g63
NtRp2049
(dp2050
g66
(dp2051
sg75
g2037
sg68
(lp2052
g61
(g62
g63
NtRp2053
(dp2054
g66
(dp2055
g74
I4
ssg75
g2049
sg68
(lp2056
S'set([])'
p2057
asbasbasbag61
(g77
g63
NtRp2058
(dp2059
g66
(dp2060
sg75
g1947
sg68
(lp2061
g61
(g82
g63
NtRp2062
(dp2063
g66
(dp2064
g86
g87
ssg75
g2058
sg68
(lp2065
g849
asbag61
(g82
g63
NtRp2066
(dp2067
g66
(dp2068
g93
g94
ssg75
g2058
sg68
(lp2069
S':'
asbag61
(g82
g63
NtRp2070
(dp2071
g66
(dp2072
sg75
g2058
sg68
(lp2073
g61
(g62
g63
NtRp2074
(dp2075
g66
(dp2076
g74
I4
ssg75
g2070
sg68
(lp2077
g862
asbasbasbag61
(g77
g63
NtRp2078
(dp2079
g66
(dp2080
sg75
g1947
sg68
(lp2081
g61
(g82
g63
NtRp2082
(dp2083
g66
(dp2084
g86
g87
ssg75
g2078
sg68
(lp2085
g871
asbag61
(g82
g63
NtRp2086
(dp2087
g66
(dp2088
g93
g94
ssg75
g2078
sg68
(lp2089
S':'
asbag61
(g82
g63
NtRp2090
(dp2091
g66
(dp2092
sg75
g2078
sg68
(lp2093
g61
(g62
g63
NtRp2094
(dp2095
g66
(dp2096
g74
I4
ssg75
g2090
sg68
(lp2097
g884
asbasbasbag61
(g77
g63
NtRp2098
(dp2099
g66
(dp2100
sg75
g1947
sg68
(lp2101
g61
(g82
g63
NtRp2102
(dp2103
g66
(dp2104
g86
g87
ssg75
g2098
sg68
(lp2105
g1156
asbag61
(g82
g63
NtRp2106
(dp2107
g66
(dp2108
g93
g94
ssg75
g2098
sg68
(lp2109
S':'
asbag61
(g82
g63
NtRp2110
(dp2111
g66
(dp2112
sg75
g2098
sg68
(lp2113
g61
(g62
g63
NtRp2114
(dp2115
g66
(dp2116
g74
I4
ssg75
g2110
sg68
(lp2117
g862
asbasbasbag61
(g77
g63
NtRp2118
(dp2119
g66
(dp2120
sg75
g1947
sg68
(lp2121
g61
(g82
g63
NtRp2122
(dp2123
g66
(dp2124
g86
g87
ssg75
g2118
sg68
(lp2125
g1177
asbag61
(g82
g63
NtRp2126
(dp2127
g66
(dp2128
g93
g94
ssg75
g2118
sg68
(lp2129
S':'
asbag61
(g82
g63
NtRp2130
(dp2131
g66
(dp2132
sg75
g2118
sg68
(lp2133
g61
(g62
g63
NtRp2134
(dp2135
g66
(dp2136
g74
I4
ssg75
g2130
sg68
(lp2137
g862
asbasbasbag61
(g77
g63
NtRp2138
(dp2139
g66
(dp2140
sg75
g1947
sg68
(lp2141
g61
(g82
g63
NtRp2142
(dp2143
g66
(dp2144
g86
g87
ssg75
g2138
sg68
(lp2145
g1198
asbag61
(g82
g63
NtRp2146
(dp2147
g66
(dp2148
g93
g94
ssg75
g2138
sg68
(lp2149
S':'
asbag61
(g82
g63
NtRp2150
(dp2151
g66
(dp2152
sg75
g2138
sg68
(lp2153
g61
(g62
g63
NtRp2154
(dp2155
g66
(dp2156
g74
I4
ssg75
g2150
sg68
(lp2157
g61
(g70
g63
NtRp2158
(dp2159
g66
(dp2160
g74
I3
ssg75
Nsg68
(lp2161
g61
(g77
g63
NtRp2162
(dp2163
g66
(dp2164
sg75
g2158
sg68
(lp2165
g61
(g82
g63
NtRp2166
(dp2167
g66
(dp2168
sg75
g2162
sg68
(lp2169
g61
(g62
g63
NtRp2170
(dp2171
g66
(dp2172
g74
I3
ssg75
g2166
sg68
(lp2173
g1227
asbasbasbag61
(g77
g63
NtRp2174
(dp2175
g66
(dp2176
sg75
g2158
sg68
(lp2177
g61
(g82
g63
NtRp2178
(dp2179
g66
(dp2180
sg75
g2174
sg68
(lp2181
g61
(g62
g63
NtRp2182
(dp2183
g66
(dp2184
g74
I3
ssg75
g2178
sg68
(lp2185
g1240
asbasbasbag61
(g77
g63
NtRp2186
(dp2187
g66
(dp2188
sg75
g2158
sg68
(lp2189
g61
(g82
g63
NtRp2190
(dp2191
g66
(dp2192
sg75
g2186
sg68
(lp2193
g61
(g62
g63
NtRp2194
(dp2195
g66
(dp2196
g74
I3
ssg75
g2190
sg68
(lp2197
g1253
asbasbasbag61
(g77
g63
NtRp2198
(dp2199
g66
(dp2200
sg75
g2158
sg68
(lp2201
g61
(g82
g63
NtRp2202
(dp2203
g66
(dp2204
sg75
g2198
sg68
(lp2205
g61
(g62
g63
NtRp2206
(dp2207
g66
(dp2208
g74
I3
ssg75
g2202
sg68
(lp2209
g1266
asbasbasbasbasbasbasbag61
(g77
g63
NtRp2210
(dp2211
g66
(dp2212
sg75
g1947
sg68
(lp2213
g61
(g82
g63
NtRp2214
(dp2215
g66
(dp2216
g86
g87
ssg75
g2210
sg68
(lp2217
g1556
asbag61
(g82
g63
NtRp2218
(dp2219
g66
(dp2220
g93
g94
ssg75
g2210
sg68
(lp2221
S':'
asbag61
(g82
g63
NtRp2222
(dp2223
g66
(dp2224
sg75
g2210
sg68
(lp2225
g61
(g62
g63
NtRp2226
(dp2227
g66
(dp2228
g74
I4
ssg75
g2222
sg68
(lp2229
g61
(g70
g63
NtRp2230
(dp2231
g66
(dp2232
g74
I3
ssg75
Nsg68
(lp2233
g61
(g77
g63
NtRp2234
(dp2235
g66
(dp2236
sg75
g2230
sg68
(lp2237
g61
(g82
g63
NtRp2238
(dp2239
g66
(dp2240
sg75
g2234
sg68
(lp2241
g61
(g62
g63
NtRp2242
(dp2243
g66
(dp2244
g74
I3
ssg75
g2238
sg68
(lp2245
S'2'
asbasbasbag61
(g77
g63
NtRp2246
(dp2247
g66
(dp2248
sg75
g2230
sg68
(lp2249
g61
(g82
g63
NtRp2250
(dp2251
g66
(dp2252
sg75
g2246
sg68
(lp2253
g61
(g62
g63
NtRp2254
(dp2255
g66
(dp2256
g74
I3
ssg75
g2250
sg68
(lp2257
S'3'
asbasbasbag61
(g77
g63
NtRp2258
(dp2259
g66
(dp2260
sg75
g2230
sg68
(lp2261
g61
(g82
g63
NtRp2262
(dp2263
g66
(dp2264
sg75
g2258
sg68
(lp2265
g61
(g62
g63
NtRp2266
(dp2267
g66
(dp2268
g74
I3
ssg75
g2262
sg68
(lp2269
S'2'
asbasbasbag61
(g77
g63
NtRp2270
(dp2271
g66
(dp2272
sg75
g2230
sg68
(lp2273
g61
(g82
g63
NtRp2274
(dp2275
g66
(dp2276
sg75
g2270
sg68
(lp2277
g61
(g62
g63
NtRp2278
(dp2279
g66
(dp2280
g74
I3
ssg75
g2274
sg68
(lp2281
S'datetime.datetime(2012, 12, 17, 15, 3, 30)'
p2282
asbasbasbag61
(g77
g63
NtRp2283
(dp2284
g66
(dp2285
sg75
g2230
sg68
(lp2286
g61
(g82
g63
NtRp2287
(dp2288
g66
(dp2289
sg75
g2283
sg68
(lp2290
g61
(g62
g63
NtRp2291
(dp2292
g66
(dp2293
g74
I3
ssg75
g2287
sg68
(lp2294
g1634
asbasbasbasbasbasbasbasbasbasbasbag61
(g77
g63
NtRp2295
(dp2296
g66
(dp2297
sg75
g71
sg68
(lp2298
g61
(g82
g63
NtRp2299
(dp2300
g66
(dp2301
g86
g87
ssg75
g2295
sg68
(lp2302
S'is_https'
p2303
asbag61
(g82
g63
NtRp2304
(dp2305
g66
(dp2306
g93
g94
ssg75
g2295
sg68
(lp2307
S':'
asbag61
(g82
g63
NtRp2308
(dp2309
g66
(dp2310
sg75
g2295
sg68
(lp2311
g61
(g62
g63
NtRp2312
(dp2313
g66
(dp2314
g74
I5
ssg75
g2308
sg68
(lp2315
g862
asbasbasbag61
(g77
g63
NtRp2316
(dp2317
g66
(dp2318
sg75
g71
sg68
(lp2319
g61
(g82
g63
NtRp2320
(dp2321
g66
(dp2322
g86
g87
ssg75
g2316
sg68
(lp2323
S'is_local'
p2324
asbag61
(g82
g63
NtRp2325
(dp2326
g66
(dp2327
g93
g94
ssg75
g2316
sg68
(lp2328
S':'
asbag61
(g82
g63
NtRp2329
(dp2330
g66
(dp2331
sg75
g2316
sg68
(lp2332
g61
(g62
g63
NtRp2333
(dp2334
g66
(dp2335
g74
I5
ssg75
g2329
sg68
(lp2336
g104
asbasbasbag61
(g77
g63
NtRp2337
(dp2338
g66
(dp2339
sg75
g71
sg68
(lp2340
g61
(g82
g63
NtRp2341
(dp2342
g66
(dp2343
g86
g87
ssg75
g2337
sg68
(lp2344
S'is_restful'
p2345
asbag61
(g82
g63
NtRp2346
(dp2347
g66
(dp2348
g93
g94
ssg75
g2337
sg68
(lp2349
S':'
asbag61
(g82
g63
NtRp2350
(dp2351
g66
(dp2352
sg75
g2337
sg68
(lp2353
g61
(g62
g63
NtRp2354
(dp2355
g66
(dp2356
g74
I5
ssg75
g2350
sg68
(lp2357
g862
asbasbasbag61
(g77
g63
NtRp2358
(dp2359
g66
(dp2360
sg75
g71
sg68
(lp2361
g61
(g82
g63
NtRp2362
(dp2363
g66
(dp2364
g86
g87
ssg75
g2358
sg68
(lp2365
S'now'
p2366
asbag61
(g82
g63
NtRp2367
(dp2368
g66
(dp2369
g93
g94
ssg75
g2358
sg68
(lp2370
S':'
asbag61
(g82
g63
NtRp2371
(dp2372
g66
(dp2373
sg75
g2358
sg68
(lp2374
g61
(g62
g63
NtRp2375
(dp2376
g66
(dp2377
g74
I5
ssg75
g2371
sg68
(lp2378
S'datetime.datetime(2013, 4, 4, 9, 22, 19, 965160)'
p2379
asbasbasbag61
(g77
g63
NtRp2380
(dp2381
g66
(dp2382
sg75
g71
sg68
(lp2383
g61
(g82
g63
NtRp2384
(dp2385
g66
(dp2386
g86
g87
ssg75
g2380
sg68
(lp2387
S'post_vars'
p2388
asbag61
(g82
g63
NtRp2389
(dp2390
g66
(dp2391
g93
g94
ssg75
g2380
sg68
(lp2392
S':'
asbag61
(g82
g63
NtRp2393
(dp2394
g66
(dp2395
sg75
g2380
sg68
(lp2396
g61
(g62
g63
NtRp2397
(dp2398
g66
(dp2399
g74
I5
ssg75
g2393
sg68
(lp2400
g61
(g70
g63
NtRp2401
(dp2402
g66
(dp2403
g74
I4
ssg75
Nsg68
(lp2404
sbasbasbasbag61
(g77
g63
NtRp2405
(dp2406
g66
(dp2407
sg75
g71
sg68
(lp2408
g61
(g82
g63
NtRp2409
(dp2410
g66
(dp2411
g86
g87
ssg75
g2405
sg68
(lp2412
S'url'
p2413
asbag61
(g82
g63
NtRp2414
(dp2415
g66
(dp2416
g93
g94
ssg75
g2405
sg68
(lp2417
S':'
asbag61
(g82
g63
NtRp2418
(dp2419
g66
(dp2420
sg75
g2405
sg68
(lp2421
g61
(g62
g63
NtRp2422
(dp2423
g66
(dp2424
g74
I5
ssg75
g2418
sg68
(lp2425
g1288
asbasbasbag61
(g77
g63
NtRp2426
(dp2427
g66
(dp2428
sg75
g71
sg68
(lp2429
g61
(g82
g63
NtRp2430
(dp2431
g66
(dp2432
g86
g87
ssg75
g2426
sg68
(lp2433
S'utcnow'
p2434
asbag61
(g82
g63
NtRp2435
(dp2436
g66
(dp2437
g93
g94
ssg75
g2426
sg68
(lp2438
S':'
asbag61
(g82
g63
NtRp2439
(dp2440
g66
(dp2441
sg75
g2426
sg68
(lp2442
g61
(g62
g63
NtRp2443
(dp2444
g66
(dp2445
g74
I5
ssg75
g2439
sg68
(lp2446
S'datetime.datetime(2013, 4, 4, 12, 22, 19, 965227)'
p2447
asbasbasbag61
(g77
g63
NtRp2448
(dp2449
g66
(dp2450
sg75
g71
sg68
(lp2451
g61
(g82
g63
NtRp2452
(dp2453
g66
(dp2454
g86
g87
ssg75
g2448
sg68
(lp2455
S'uuid'
p2456
asbag61
(g82
g63
NtRp2457
(dp2458
g66
(dp2459
g93
g94
ssg75
g2448
sg68
(lp2460
S':'
asbag61
(g82
g63
NtRp2461
(dp2462
g66
(dp2463
sg75
g2448
sg68
(lp2464
g61
(g62
g63
NtRp2465
(dp2466
g66
(dp2467
g74
I5
ssg75
g2461
sg68
(lp2468
S'projeto/127.0.0.1.2013-04-04.09-22-19.d8876c7b-287c-49d5-88d9-11e867cd6afd'
p2469
asbasbasbag61
(g77
g63
NtRp2470
(dp2471
g66
(dp2472
sg75
g71
sg68
(lp2473
g61
(g82
g63
NtRp2474
(dp2475
g66
(dp2476
g86
g87
ssg75
g2470
sg68
(lp2477
S'vars'
p2478
asbag61
(g82
g63
NtRp2479
(dp2480
g66
(dp2481
g93
g94
ssg75
g2470
sg68
(lp2482
S':'
asbag61
(g82
g63
NtRp2483
(dp2484
g66
(dp2485
sg75
g2470
sg68
(lp2486
g61
(g62
g63
NtRp2487
(dp2488
g66
(dp2489
g74
I5
ssg75
g2483
sg68
(lp2490
g61
(g70
g63
NtRp2491
(dp2492
g66
(dp2493
g74
I4
ssg75
Nsg68
(lp2494
sbasbasbasbag61
(g77
g63
NtRp2495
(dp2496
g66
(dp2497
sg75
g71
sg68
(lp2498
g61
(g82
g63
NtRp2499
(dp2500
g66
(dp2501
g86
g87
ssg75
g2495
sg68
(lp2502
S'wsgi'
p2503
asbag61
(g82
g63
NtRp2504
(dp2505
g66
(dp2506
g93
g94
ssg75
g2495
sg68
(lp2507
S':'
asbag61
(g82
g63
NtRp2508
(dp2509
g66
(dp2510
sg75
g2495
sg68
(lp2511
g61
(g62
g63
NtRp2512
(dp2513
g66
(dp2514
g74
I5
ssg75
g2508
sg68
(lp2515
g61
(g70
g63
NtRp2516
(dp2517
g66
(dp2518
g74
I4
ssg75
Nsg68
(lp2519
g61
(g77
g63
NtRp2520
(dp2521
g66
(dp2522
sg75
g2516
sg68
(lp2523
g61
(g82
g63
NtRp2524
(dp2525
g66
(dp2526
g86
g87
ssg75
g2520
sg68
(lp2527
S'environ'
p2528
asbag61
(g82
g63
NtRp2529
(dp2530
g66
(dp2531
g93
g94
ssg75
g2520
sg68
(lp2532
S':'
asbag61
(g82
g63
NtRp2533
(dp2534
g66
(dp2535
sg75
g2520
sg68
(lp2536
g61
(g62
g63
NtRp2537
(dp2538
g66
(dp2539
g74
I4
ssg75
g2533
sg68
(lp2540
g61
(g70
g63
NtRp2541
(dp2542
g66
(dp2543
g74
I3
ssg75
Nsg68
(lp2544
g61
(g77
g63
NtRp2545
(dp2546
g66
(dp2547
sg75
g2541
sg68
(lp2548
g61
(g82
g63
NtRp2549
(dp2550
g66
(dp2551
g86
g87
ssg75
g2545
sg68
(lp2552
S'CONTENT_LENGTH'
p2553
asbag61
(g82
g63
NtRp2554
(dp2555
g66
(dp2556
g93
g94
ssg75
g2545
sg68
(lp2557
S':'
asbag61
(g82
g63
NtRp2558
(dp2559
g66
(dp2560
sg75
g2545
sg68
(lp2561
g61
(g62
g63
NtRp2562
(dp2563
g66
(dp2564
g74
I3
ssg75
g2558
sg68
(lp2565
S'0'
asbasbasbag61
(g77
g63
NtRp2566
(dp2567
g66
(dp2568
sg75
g2541
sg68
(lp2569
g61
(g82
g63
NtRp2570
(dp2571
g66
(dp2572
g86
g87
ssg75
g2566
sg68
(lp2573
S'HTTP_ACCEPT'
p2574
asbag61
(g82
g63
NtRp2575
(dp2576
g66
(dp2577
g93
g94
ssg75
g2566
sg68
(lp2578
S':'
asbag61
(g82
g63
NtRp2579
(dp2580
g66
(dp2581
sg75
g2566
sg68
(lp2582
g61
(g62
g63
NtRp2583
(dp2584
g66
(dp2585
g74
I3
ssg75
g2579
sg68
(lp2586
g906
asbasbasbag61
(g77
g63
NtRp2587
(dp2588
g66
(dp2589
sg75
g2541
sg68
(lp2590
g61
(g82
g63
NtRp2591
(dp2592
g66
(dp2593
g86
g87
ssg75
g2587
sg68
(lp2594
S'HTTP_ACCEPT_CHARSET'
p2595
asbag61
(g82
g63
NtRp2596
(dp2597
g66
(dp2598
g93
g94
ssg75
g2587
sg68
(lp2599
S':'
asbag61
(g82
g63
NtRp2600
(dp2601
g66
(dp2602
sg75
g2587
sg68
(lp2603
g61
(g62
g63
NtRp2604
(dp2605
g66
(dp2606
g74
I3
ssg75
g2600
sg68
(lp2607
g928
asbasbasbag61
(g77
g63
NtRp2608
(dp2609
g66
(dp2610
sg75
g2541
sg68
(lp2611
g61
(g82
g63
NtRp2612
(dp2613
g66
(dp2614
g86
g87
ssg75
g2608
sg68
(lp2615
S'HTTP_ACCEPT_ENCODING'
p2616
asbag61
(g82
g63
NtRp2617
(dp2618
g66
(dp2619
g93
g94
ssg75
g2608
sg68
(lp2620
S':'
asbag61
(g82
g63
NtRp2621
(dp2622
g66
(dp2623
sg75
g2608
sg68
(lp2624
g61
(g62
g63
NtRp2625
(dp2626
g66
(dp2627
g74
I3
ssg75
g2621
sg68
(lp2628
g950
asbasbasbag61
(g77
g63
NtRp2629
(dp2630
g66
(dp2631
sg75
g2541
sg68
(lp2632
g61
(g82
g63
NtRp2633
(dp2634
g66
(dp2635
g86
g87
ssg75
g2629
sg68
(lp2636
S'HTTP_ACCEPT_LANGUAGE'
p2637
asbag61
(g82
g63
NtRp2638
(dp2639
g66
(dp2640
g93
g94
ssg75
g2629
sg68
(lp2641
S':'
asbag61
(g82
g63
NtRp2642
(dp2643
g66
(dp2644
sg75
g2629
sg68
(lp2645
g61
(g62
g63
NtRp2646
(dp2647
g66
(dp2648
g74
I3
ssg75
g2642
sg68
(lp2649
g972
asbasbasbag61
(g77
g63
NtRp2650
(dp2651
g66
(dp2652
sg75
g2541
sg68
(lp2653
g61
(g82
g63
NtRp2654
(dp2655
g66
(dp2656
g86
g87
ssg75
g2650
sg68
(lp2657
S'HTTP_CONNECTION'
p2658
asbag61
(g82
g63
NtRp2659
(dp2660
g66
(dp2661
g93
g94
ssg75
g2650
sg68
(lp2662
S':'
asbag61
(g82
g63
NtRp2663
(dp2664
g66
(dp2665
sg75
g2650
sg68
(lp2666
g61
(g62
g63
NtRp2667
(dp2668
g66
(dp2669
g74
I3
ssg75
g2663
sg68
(lp2670
g994
asbasbasbag61
(g77
g63
NtRp2671
(dp2672
g66
(dp2673
sg75
g2541
sg68
(lp2674
g61
(g82
g63
NtRp2675
(dp2676
g66
(dp2677
g86
g87
ssg75
g2671
sg68
(lp2678
S'HTTP_CONTENT_LENGTH'
p2679
asbag61
(g82
g63
NtRp2680
(dp2681
g66
(dp2682
g93
g94
ssg75
g2671
sg68
(lp2683
S':'
asbag61
(g82
g63
NtRp2684
(dp2685
g66
(dp2686
sg75
g2671
sg68
(lp2687
g61
(g62
g63
NtRp2688
(dp2689
g66
(dp2690
g74
I3
ssg75
g2684
sg68
(lp2691
S'0'
asbasbasbag61
(g77
g63
NtRp2692
(dp2693
g66
(dp2694
sg75
g2541
sg68
(lp2695
g61
(g82
g63
NtRp2696
(dp2697
g66
(dp2698
g86
g87
ssg75
g2692
sg68
(lp2699
S'HTTP_COOKIE'
p2700
asbag61
(g82
g63
NtRp2701
(dp2702
g66
(dp2703
g93
g94
ssg75
g2692
sg68
(lp2704
S':'
asbag61
(g82
g63
NtRp2705
(dp2706
g66
(dp2707
sg75
g2692
sg68
(lp2708
g61
(g62
g63
NtRp2709
(dp2710
g66
(dp2711
g74
I3
ssg75
g2705
sg68
(lp2712
g1037
asbasbasbag61
(g77
g63
NtRp2713
(dp2714
g66
(dp2715
sg75
g2541
sg68
(lp2716
g61
(g82
g63
NtRp2717
(dp2718
g66
(dp2719
g86
g87
ssg75
g2713
sg68
(lp2720
S'HTTP_HOST'
p2721
asbag61
(g82
g63
NtRp2722
(dp2723
g66
(dp2724
g93
g94
ssg75
g2713
sg68
(lp2725
S':'
asbag61
(g82
g63
NtRp2726
(dp2727
g66
(dp2728
sg75
g2713
sg68
(lp2729
g61
(g62
g63
NtRp2730
(dp2731
g66
(dp2732
g74
I3
ssg75
g2726
sg68
(lp2733
g1059
asbasbasbag61
(g77
g63
NtRp2734
(dp2735
g66
(dp2736
sg75
g2541
sg68
(lp2737
g61
(g82
g63
NtRp2738
(dp2739
g66
(dp2740
g86
g87
ssg75
g2734
sg68
(lp2741
S'HTTP_ORIGIN'
p2742
asbag61
(g82
g63
NtRp2743
(dp2744
g66
(dp2745
g93
g94
ssg75
g2734
sg68
(lp2746
S':'
asbag61
(g82
g63
NtRp2747
(dp2748
g66
(dp2749
sg75
g2734
sg68
(lp2750
g61
(g62
g63
NtRp2751
(dp2752
g66
(dp2753
g74
I3
ssg75
g2747
sg68
(lp2754
g1081
asbasbasbag61
(g77
g63
NtRp2755
(dp2756
g66
(dp2757
sg75
g2541
sg68
(lp2758
g61
(g82
g63
NtRp2759
(dp2760
g66
(dp2761
g86
g87
ssg75
g2755
sg68
(lp2762
S'HTTP_REFERER'
p2763
asbag61
(g82
g63
NtRp2764
(dp2765
g66
(dp2766
g93
g94
ssg75
g2755
sg68
(lp2767
S':'
asbag61
(g82
g63
NtRp2768
(dp2769
g66
(dp2770
sg75
g2755
sg68
(lp2771
g61
(g62
g63
NtRp2772
(dp2773
g66
(dp2774
g74
I3
ssg75
g2768
sg68
(lp2775
g1103
asbasbasbag61
(g77
g63
NtRp2776
(dp2777
g66
(dp2778
sg75
g2541
sg68
(lp2779
g61
(g82
g63
NtRp2780
(dp2781
g66
(dp2782
g86
g87
ssg75
g2776
sg68
(lp2783
S'HTTP_USER_AGENT'
p2784
asbag61
(g82
g63
NtRp2785
(dp2786
g66
(dp2787
g93
g94
ssg75
g2776
sg68
(lp2788
S':'
asbag61
(g82
g63
NtRp2789
(dp2790
g66
(dp2791
sg75
g2776
sg68
(lp2792
g61
(g62
g63
NtRp2793
(dp2794
g66
(dp2795
g74
I3
ssg75
g2789
sg68
(lp2796
g1125
asbasbasbag61
(g77
g63
NtRp2797
(dp2798
g66
(dp2799
sg75
g2541
sg68
(lp2800
g61
(g82
g63
NtRp2801
(dp2802
g66
(dp2803
g86
g87
ssg75
g2797
sg68
(lp2804
S'HTTP_X_REQUESTED_WITH'
p2805
asbag61
(g82
g63
NtRp2806
(dp2807
g66
(dp2808
g93
g94
ssg75
g2797
sg68
(lp2809
S':'
asbag61
(g82
g63
NtRp2810
(dp2811
g66
(dp2812
sg75
g2797
sg68
(lp2813
g61
(g62
g63
NtRp2814
(dp2815
g66
(dp2816
g74
I3
ssg75
g2810
sg68
(lp2817
g1147
asbasbasbag61
(g77
g63
NtRp2818
(dp2819
g66
(dp2820
sg75
g2541
sg68
(lp2821
g61
(g82
g63
NtRp2822
(dp2823
g66
(dp2824
g86
g87
ssg75
g2818
sg68
(lp2825
S'PATH_INFO'
p2826
asbag61
(g82
g63
NtRp2827
(dp2828
g66
(dp2829
g93
g94
ssg75
g2818
sg68
(lp2830
S':'
asbag61
(g82
g63
NtRp2831
(dp2832
g66
(dp2833
sg75
g2818
sg68
(lp2834
g61
(g62
g63
NtRp2835
(dp2836
g66
(dp2837
g74
I3
ssg75
g2831
sg68
(lp2838
g1288
asbasbasbag61
(g77
g63
NtRp2839
(dp2840
g66
(dp2841
sg75
g2541
sg68
(lp2842
g61
(g82
g63
NtRp2843
(dp2844
g66
(dp2845
g86
g87
ssg75
g2839
sg68
(lp2846
S'QUERY_STRING'
p2847
asbag61
(g82
g63
NtRp2848
(dp2849
g66
(dp2850
g93
g94
ssg75
g2839
sg68
(lp2851
S':'
asbag61
(g82
g63
NtRp2852
(dp2853
g66
(dp2854
sg75
g2839
sg68
(lp2855
g61
(g62
g63
NtRp2856
(dp2857
g66
(dp2858
g74
I3
ssg75
g2852
sg68
(lp2859
S''
asbasbasbag61
(g77
g63
NtRp2860
(dp2861
g66
(dp2862
sg75
g2541
sg68
(lp2863
g61
(g82
g63
NtRp2864
(dp2865
g66
(dp2866
g86
g87
ssg75
g2860
sg68
(lp2867
S'REMOTE_ADDR'
p2868
asbag61
(g82
g63
NtRp2869
(dp2870
g66
(dp2871
g93
g94
ssg75
g2860
sg68
(lp2872
S':'
asbag61
(g82
g63
NtRp2873
(dp2874
g66
(dp2875
sg75
g2860
sg68
(lp2876
g61
(g62
g63
NtRp2877
(dp2878
g66
(dp2879
g74
I3
ssg75
g2873
sg68
(lp2880
g254
asbasbasbag61
(g77
g63
NtRp2881
(dp2882
g66
(dp2883
sg75
g2541
sg68
(lp2884
g61
(g82
g63
NtRp2885
(dp2886
g66
(dp2887
g86
g87
ssg75
g2881
sg68
(lp2888
S'REMOTE_PORT'
p2889
asbag61
(g82
g63
NtRp2890
(dp2891
g66
(dp2892
g93
g94
ssg75
g2881
sg68
(lp2893
S':'
asbag61
(g82
g63
NtRp2894
(dp2895
g66
(dp2896
sg75
g2881
sg68
(lp2897
g61
(g62
g63
NtRp2898
(dp2899
g66
(dp2900
g74
I3
ssg75
g2894
sg68
(lp2901
g1352
asbasbasbag61
(g77
g63
NtRp2902
(dp2903
g66
(dp2904
sg75
g2541
sg68
(lp2905
g61
(g82
g63
NtRp2906
(dp2907
g66
(dp2908
g86
g87
ssg75
g2902
sg68
(lp2909
S'REQUEST_METHOD'
p2910
asbag61
(g82
g63
NtRp2911
(dp2912
g66
(dp2913
g93
g94
ssg75
g2902
sg68
(lp2914
S':'
asbag61
(g82
g63
NtRp2915
(dp2916
g66
(dp2917
sg75
g2902
sg68
(lp2918
g61
(g62
g63
NtRp2919
(dp2920
g66
(dp2921
g74
I3
ssg75
g2915
sg68
(lp2922
g1374
asbasbasbag61
(g77
g63
NtRp2923
(dp2924
g66
(dp2925
sg75
g2541
sg68
(lp2926
g61
(g82
g63
NtRp2927
(dp2928
g66
(dp2929
g86
g87
ssg75
g2923
sg68
(lp2930
S'REQUEST_URI'
p2931
asbag61
(g82
g63
NtRp2932
(dp2933
g66
(dp2934
g93
g94
ssg75
g2923
sg68
(lp2935
S':'
asbag61
(g82
g63
NtRp2936
(dp2937
g66
(dp2938
sg75
g2923
sg68
(lp2939
g61
(g62
g63
NtRp2940
(dp2941
g66
(dp2942
g74
I3
ssg75
g2936
sg68
(lp2943
g1396
asbasbasbag61
(g77
g63
NtRp2944
(dp2945
g66
(dp2946
sg75
g2541
sg68
(lp2947
g61
(g82
g63
NtRp2948
(dp2949
g66
(dp2950
g86
g87
ssg75
g2944
sg68
(lp2951
S'SCRIPT_NAME'
p2952
asbag61
(g82
g63
NtRp2953
(dp2954
g66
(dp2955
g93
g94
ssg75
g2944
sg68
(lp2956
S':'
asbag61
(g82
g63
NtRp2957
(dp2958
g66
(dp2959
sg75
g2944
sg68
(lp2960
g61
(g62
g63
NtRp2961
(dp2962
g66
(dp2963
g74
I3
ssg75
g2957
sg68
(lp2964
S''
asbasbasbag61
(g77
g63
NtRp2965
(dp2966
g66
(dp2967
sg75
g2541
sg68
(lp2968
g61
(g82
g63
NtRp2969
(dp2970
g66
(dp2971
g86
g87
ssg75
g2965
sg68
(lp2972
S'SERVER_NAME'
p2973
asbag61
(g82
g63
NtRp2974
(dp2975
g66
(dp2976
g93
g94
ssg75
g2965
sg68
(lp2977
S':'
asbag61
(g82
g63
NtRp2978
(dp2979
g66
(dp2980
sg75
g2965
sg68
(lp2981
g61
(g62
g63
NtRp2982
(dp2983
g66
(dp2984
g74
I3
ssg75
g2978
sg68
(lp2985
g1439
asbasbasbag61
(g77
g63
NtRp2986
(dp2987
g66
(dp2988
sg75
g2541
sg68
(lp2989
g61
(g82
g63
NtRp2990
(dp2991
g66
(dp2992
g86
g87
ssg75
g2986
sg68
(lp2993
S'SERVER_PORT'
p2994
asbag61
(g82
g63
NtRp2995
(dp2996
g66
(dp2997
g93
g94
ssg75
g2986
sg68
(lp2998
S':'
asbag61
(g82
g63
NtRp2999
(dp3000
g66
(dp3001
sg75
g2986
sg68
(lp3002
g61
(g62
g63
NtRp3003
(dp3004
g66
(dp3005
g74
I3
ssg75
g2999
sg68
(lp3006
g1461
asbasbasbag61
(g77
g63
NtRp3007
(dp3008
g66
(dp3009
sg75
g2541
sg68
(lp3010
g61
(g82
g63
NtRp3011
(dp3012
g66
(dp3013
g86
g87
ssg75
g3007
sg68
(lp3014
S'SERVER_PROTOCOL'
p3015
asbag61
(g82
g63
NtRp3016
(dp3017
g66
(dp3018
g93
g94
ssg75
g3007
sg68
(lp3019
S':'
asbag61
(g82
g63
NtRp3020
(dp3021
g66
(dp3022
sg75
g3007
sg68
(lp3023
g61
(g62
g63
NtRp3024
(dp3025
g66
(dp3026
g74
I3
ssg75
g3020
sg68
(lp3027
g1483
asbasbasbag61
(g77
g63
NtRp3028
(dp3029
g66
(dp3030
sg75
g2541
sg68
(lp3031
g61
(g82
g63
NtRp3032
(dp3033
g66
(dp3034
g86
g87
ssg75
g3028
sg68
(lp3035
S'SERVER_SOFTWARE'
p3036
asbag61
(g82
g63
NtRp3037
(dp3038
g66
(dp3039
g93
g94
ssg75
g3028
sg68
(lp3040
S':'
asbag61
(g82
g63
NtRp3041
(dp3042
g66
(dp3043
sg75
g3028
sg68
(lp3044
g61
(g62
g63
NtRp3045
(dp3046
g66
(dp3047
g74
I3
ssg75
g3041
sg68
(lp3048
g1505
asbasbasbag61
(g77
g63
NtRp3049
(dp3050
g66
(dp3051
sg75
g2541
sg68
(lp3052
g61
(g82
g63
NtRp3053
(dp3054
g66
(dp3055
g86
g87
ssg75
g3049
sg68
(lp3056
S'WEB2PY_ORIGINAL_URI'
p3057
asbag61
(g82
g63
NtRp3058
(dp3059
g66
(dp3060
g93
g94
ssg75
g3049
sg68
(lp3061
S':'
asbag61
(g82
g63
NtRp3062
(dp3063
g66
(dp3064
sg75
g3049
sg68
(lp3065
g61
(g62
g63
NtRp3066
(dp3067
g66
(dp3068
g74
I3
ssg75
g3062
sg68
(lp3069
g1288
asbasbasbag61
(g77
g63
NtRp3070
(dp3071
g66
(dp3072
sg75
g2541
sg68
(lp3073
g61
(g82
g63
NtRp3074
(dp3075
g66
(dp3076
g86
g87
ssg75
g3070
sg68
(lp3077
S'wsgi.errors'
p3078
asbag61
(g82
g63
NtRp3079
(dp3080
g66
(dp3081
g93
g94
ssg75
g3070
sg68
(lp3082
S':'
asbag61
(g82
g63
NtRp3083
(dp3084
g66
(dp3085
sg75
g3070
sg68
(lp3086
g61
(g62
g63
NtRp3087
(dp3088
g66
(dp3089
g74
I3
ssg75
g3083
sg68
(lp3090
S"<open file '<stderr>', mode 'w' at 0x7f4551837270>"
p3091
asbasbasbag61
(g77
g63
NtRp3092
(dp3093
g66
(dp3094
sg75
g2541
sg68
(lp3095
g61
(g82
g63
NtRp3096
(dp3097
g66
(dp3098
g86
g87
ssg75
g3092
sg68
(lp3099
S'wsgi.file_wrapper'
p3100
asbag61
(g82
g63
NtRp3101
(dp3102
g66
(dp3103
g93
g94
ssg75
g3092
sg68
(lp3104
S':'
asbag61
(g82
g63
NtRp3105
(dp3106
g66
(dp3107
sg75
g3092
sg68
(lp3108
g61
(g62
g63
NtRp3109
(dp3110
g66
(dp3111
g74
I3
ssg75
g3105
sg68
(lp3112
S'<class wsgiref.util.FileWrapper at 0x1b4d598>'
p3113
asbasbasbag61
(g77
g63
NtRp3114
(dp3115
g66
(dp3116
sg75
g2541
sg68
(lp3117
g61
(g82
g63
NtRp3118
(dp3119
g66
(dp3120
g86
g87
ssg75
g3114
sg68
(lp3121
S'wsgi.input'
p3122
asbag61
(g82
g63
NtRp3123
(dp3124
g66
(dp3125
g93
g94
ssg75
g3114
sg68
(lp3126
S':'
asbag61
(g82
g63
NtRp3127
(dp3128
g66
(dp3129
sg75
g3114
sg68
(lp3130
g61
(g62
g63
NtRp3131
(dp3132
g66
(dp3133
g74
I3
ssg75
g3127
sg68
(lp3134
S"<open file '<fdopen>', mode 'w+b' at 0x7f4544126f60>"
p3135
asbasbasbag61
(g77
g63
NtRp3136
(dp3137
g66
(dp3138
sg75
g2541
sg68
(lp3139
g61
(g82
g63
NtRp3140
(dp3141
g66
(dp3142
g86
g87
ssg75
g3136
sg68
(lp3143
S'wsgi.multiprocess'
p3144
asbag61
(g82
g63
NtRp3145
(dp3146
g66
(dp3147
g93
g94
ssg75
g3136
sg68
(lp3148
S':'
asbag61
(g82
g63
NtRp3149
(dp3150
g66
(dp3151
sg75
g3136
sg68
(lp3152
g61
(g62
g63
NtRp3153
(dp3154
g66
(dp3155
g74
I3
ssg75
g3149
sg68
(lp3156
g862
asbasbasbag61
(g77
g63
NtRp3157
(dp3158
g66
(dp3159
sg75
g2541
sg68
(lp3160
g61
(g82
g63
NtRp3161
(dp3162
g66
(dp3163
g86
g87
ssg75
g3157
sg68
(lp3164
S'wsgi.multithread'
p3165
asbag61
(g82
g63
NtRp3166
(dp3167
g66
(dp3168
g93
g94
ssg75
g3157
sg68
(lp3169
S':'
asbag61
(g82
g63
NtRp3170
(dp3171
g66
(dp3172
sg75
g3157
sg68
(lp3173
g61
(g62
g63
NtRp3174
(dp3175
g66
(dp3176
g74
I3
ssg75
g3170
sg68
(lp3177
g104
asbasbasbag61
(g77
g63
NtRp3178
(dp3179
g66
(dp3180
sg75
g2541
sg68
(lp3181
g61
(g82
g63
NtRp3182
(dp3183
g66
(dp3184
g86
g87
ssg75
g3178
sg68
(lp3185
S'wsgi.run_once'
p3186
asbag61
(g82
g63
NtRp3187
(dp3188
g66
(dp3189
g93
g94
ssg75
g3178
sg68
(lp3190
S':'
asbag61
(g82
g63
NtRp3191
(dp3192
g66
(dp3193
sg75
g3178
sg68
(lp3194
g61
(g62
g63
NtRp3195
(dp3196
g66
(dp3197
g74
I3
ssg75
g3191
sg68
(lp3198
g862
asbasbasbag61
(g77
g63
NtRp3199
(dp3200
g66
(dp3201
sg75
g2541
sg68
(lp3202
g61
(g82
g63
NtRp3203
(dp3204
g66
(dp3205
g86
g87
ssg75
g3199
sg68
(lp3206
S'wsgi.url_scheme'
p3207
asbag61
(g82
g63
NtRp3208
(dp3209
g66
(dp3210
g93
g94
ssg75
g3199
sg68
(lp3211
S':'
asbag61
(g82
g63
NtRp3212
(dp3213
g66
(dp3214
sg75
g3199
sg68
(lp3215
g61
(g62
g63
NtRp3216
(dp3217
g66
(dp3218
g74
I3
ssg75
g3212
sg68
(lp3219
g1785
asbasbasbag61
(g77
g63
NtRp3220
(dp3221
g66
(dp3222
sg75
g2541
sg68
(lp3223
g61
(g82
g63
NtRp3224
(dp3225
g66
(dp3226
g86
g87
ssg75
g3220
sg68
(lp3227
S'wsgi.version'
p3228
asbag61
(g82
g63
NtRp3229
(dp3230
g66
(dp3231
g93
g94
ssg75
g3220
sg68
(lp3232
S':'
asbag61
(g82
g63
NtRp3233
(dp3234
g66
(dp3235
sg75
g3220
sg68
(lp3236
g61
(g62
g63
NtRp3237
(dp3238
g66
(dp3239
g74
I3
ssg75
g3233
sg68
(lp3240
S'1'
asbasbasbasbasbasbasbasbasbasbasbasbasbsS'frames'
p3241
(lp3242
(dp3243
S'file'
p3244
S'/var/www/conferencia/gluon/restricted.py'
p3245
sS'dump'
p3246
(dp3247
S'environment'
p3248
S"{'A': <class 'gluon.html.A'>, 'Auth': <class 'gluon.tools.Auth'>, 'B': <class 'gluon.html.B'>, 'BEAUTIFY': <class 'gluon.html.BEAUTIFY'>, 'BODY': <class 'gluon.html.BODY'>, 'BR': <class 'gluon.html.BR'>, 'BUTTON': <class 'gluon.html.BUTTON'>, 'CAT': <class 'gluon.html.CAT'>, 'CENTER': <class 'gluon.html.CENTER'>, 'CLEANUP': <class 'gluon.validators.CLEANUP'>, ...}"
p3249
sS'ccode'
p3250
S'<code object <module> at 0x7f454426f630, file "/...a/applications/projeto/models/models.py", line 1>'
p3251
ssS'lnum'
p3252
I212
sS'lines'
p3253
(dp3254
I207
S'    try:'
p3255
sI208
S'        if isinstance(code, types.CodeType):'
p3256
sI209
S'            ccode = code'
p3257
sI210
S'        else:'
p3258
sI211
S'            ccode = compile2(code, layer)'
p3259
sI212
S'        exec ccode in environment'
p3260
sI213
S'    except HTTP:'
p3261
sI214
S'        raise'
p3262
sI215
S'    except RestrictedError:'
p3263
sI216
S'        # do not encapsulate (obfuscate) the original RestrictedError'
p3264
ssS'call'
p3265
S'(code=\'usuario = db.define_table("usuario",\\n      Field...= "Membros"\\nmeetme.admin_user.label = "Admins"\\n\\n\\n\', environment={\'A\': <class \'gluon.html.A\'>, \'Auth\': <class \'gluon.tools.Auth\'>, \'B\': <class \'gluon.html.B\'>, \'BEAUTIFY\': <class \'gluon.html.BEAUTIFY\'>, \'BODY\': <class \'gluon.html.BODY\'>, \'BR\': <class \'gluon.html.BR\'>, \'BUTTON\': <class \'gluon.html.BUTTON\'>, \'CAT\': <class \'gluon.html.CAT\'>, \'CENTER\': <class \'gluon.html.CENTER\'>, \'CLEANUP\': <class \'gluon.validators.CLEANUP\'>, ...}, layer=\'/var/www/conferencia/applications/projeto/models/models.py\')'
p3266
sS'func'
p3267
S'restricted'
p3268
sa(dp3269
g3244
S'/var/www/conferencia/applications/projeto/models/models.py'
p3270
sg3246
(dp3271
S'builtinformat'
p3272
S'<built-in function format>'
p3273
ssg3252
I6
sg3253
(dp3274
I2
S'      Field("nome", notnull=True),'
p3275
sI3
S'      Field("pin", notnull=True, unique=True),'
p3276
sI4
S'      Field("email", notnull=True, unique=True),'
p3277
sI5
S'      #auth.signature'
p3278
sI6
S'      format="%(nome)s")'
p3279
sI7
S''
sI8
S''
sI9
S'meetme = db.define_table("meetme",'
p3280
sI10
S'      Field("confno", \'id\'),'
p3281
sI11
S'      Field("starttime", "datetime"),'
p3282
ssg3265
S'()'
p3283
sg3267
S'<module>'
p3284
sa(dp3285
g3244
S'/var/www/conferencia/gluon/dal.py'
p3286
sg3246
(dp3287
S'fields'
p3288
S'(<gluon.dal.Field object>, <gluon.dal.Field object>, <gluon.dal.Field object>)'
p3289
sS'self'
p3290
S'<DAL uri="postgres:pg8000://******:123456@127.0.0.1/conferencia">'
p3291
sS'args'
p3292
S"{'format': '%(nome)s'}"
p3293
sS'tablename'
p3294
S"'usuario'"
p3295
sS'table'
p3296
S'undefined'
p3297
sS'self.lazy_define_table'
p3298
S'<bound method DAL.lazy_define_table of <DAL uri=...s:pg8000://******:123456@127.0.0.1/conferencia">>'
p3299
ssg3252
I7186
sg3253
(dp3300
I7181
S'                    % (tablename,invalid_args))'
p3301
sI7182
S'        if self._lazy_tables and not tablename in self._LAZY_TABLES:'
p3302
sI7183
S'            self._LAZY_TABLES[tablename] = (tablename,fields,args)'
p3303
sI7184
S'            table = None'
p3304
sI7185
S'        else:'
p3305
sI7186
S'            table = self.lazy_define_table(tablename,*fields,**args)'
p3306
sI7187
S'        if not tablename in self.tables:'
p3307
sI7188
S'            self.tables.append(tablename)'
p3308
sI7189
S'        return table'
p3309
sI7190
S''
ssg3265
S'(self=<DAL uri="postgres:pg8000://******:123456@127.0.0.1/conferencia">, tablename=\'usuario\', *fields=(<gluon.dal.Field object>, <gluon.dal.Field object>, <gluon.dal.Field object>), **args={\'format\': \'%(nome)s\'})'
p3310
sg3267
S'define_table'
p3311
sa(dp3312
g3244
S'/var/www/conferencia/gluon/dal.py'
p3313
sg3246
(dp3314
S'polymodel'
p3315
S'None'
p3316
ssg3252
I7222
sg3253
(dp3317
I7217
S"            polymodel = args_get('polymodel',None)"
p3318
sI7218
S'            try:'
p3319
sI7219
S'                GLOBAL_LOCKER.acquire()'
p3320
sI7220
S'                self._adapter.create_table(table,migrate=migrate,'
p3321
sI7221
S'                                           fake_migrate=fake_migrate,'
p3322
sI7222
S'                                           polymodel=polymodel)'
p3323
sI7223
S'            finally:'
p3324
sI7224
S'                GLOBAL_LOCKER.release()'
p3325
sI7225
S'        else:'
p3326
sI7226
S'            table._dbt = None'
p3327
ssg3265
S'(self=<DAL uri="postgres:pg8000://******:123456@127.0.0.1/conferencia">, tablename=\'usuario\', *fields=(<gluon.dal.Field object>, <gluon.dal.Field object>, <gluon.dal.Field object>), **args={\'format\': \'%(nome)s\'})'
p3328
sg3267
S'lazy_define_table'
p3329
sa(dp3330
g3244
S'/var/www/conferencia/gluon/dal.py'
p3331
sg3246
(dp3332
S'fake_migrate'
p3333
g862
ssg3252
I963
sg3253
(dp3334
I960
S'                self.migrate_table(table,'
p3335
sI961
S'                                   sql_fields, sql_fields_old,'
p3336
sI962
S'                                   sql_fields_aux, logfile,'
p3337
sI963
S'                                   fake_migrate=fake_migrate)'
p3338
sI964
S'        self.file_close(logfile)'
p3339
sI965
S'        return query'
p3340
sI966
S''
sI967
S'    def migrate_table('
p3341
sI958
S'            self.file_close(tfile)'
p3342
sI959
S'            if sql_fields != sql_fields_old:'
p3343
ssg3265
S'(self=<gluon.dal.PostgreSQLAdapter object>, table=<Table usuario (id,nome,pin,email)>, migrate=True, fake_migrate=False, polymodel=None)'
p3344
sg3267
S'create_table'
p3345
sa(dp3346
g3244
S'/var/www/conferencia/gluon/dal.py'
p3347
sg3246
(dp3348
S'self'
p3349
S'<gluon.dal.PostgreSQLAdapter object>'
p3350
sS'self.execute'
p3351
S'<bound method PostgreSQLAdapter.execute of <gluon.dal.PostgreSQLAdapter object>>'
p3352
sS'sub_query'
p3353
S"'ALTER TABLE usuario ADD email__tmp VARCHAR(512) NOT NULL UNIQUE;'"
p3354
ssg3252
I1069
sg3253
(dp3355
I1064
S'                              % datetime.datetime.today().isoformat())'
p3356
sI1065
S"                db['_lastsql'] = '\\n'.join(query)"
p3357
sI1066
S'                for sub_query in query:'
p3358
sI1067
S"                    logfile.write(sub_query + '\\n')"
p3359
sI1068
S'                    if not fake_migrate:'
p3360
sI1069
S'                        self.execute(sub_query)'
p3361
sI1070
S'                        # Caveat: mysql, oracle and firebird do not allow multiple alter table'
p3362
sI1071
S'                        # in one transaction so we must commit partial transactions and'
p3363
sI1072
S'                        # update table._dbt after alter table.'
p3364
sI1073
S'                        if db._adapter.commit_on_alter_table:'
p3365
ssg3265
S"(self=<gluon.dal.PostgreSQLAdapter object>, table=<Table usuario (id,nome,pin,email)>, sql_fields={'email': {'length': 512, 'notnull': True, 'sortable': 4, 'sql': 'VARCHAR(512) NOT NULL UNIQUE', 'type': 'string', 'unique': True}, 'id': {'length': 512, 'notnull': False, 'sortable': 1, 'sql': 'SERIAL PRIMARY KEY', 'type': 'id', 'unique': False}, 'nome': {'length': 512, 'notnull': True, 'sortable': 2, 'sql': 'VARCHAR(512) NOT NULL', 'type': 'string', 'unique': False}, 'pin': {'length': 512, 'notnull': True, 'sortable': 3, 'sql': 'VARCHAR(512) NOT NULL UNIQUE', 'type': 'string', 'unique': True}}, sql_fields_old={'email': {'length': 512, 'notnull': False, 'sortable': 4, 'sql': 'VARCHAR(512)', 'type': 'string', 'unique': False}, 'id': {'length': 512, 'notnull': False, 'sortable': 1, 'sql': 'SERIAL PRIMARY KEY', 'type': 'id', 'unique': False}, 'nome': {'length': 512, 'notnull': True, 'sortable': 2, 'sql': 'VARCHAR(512) NOT NULL', 'type': 'string', 'unique': False}, 'pin': {'length': 512, 'notnull': True, 'sortable': 3, 'sql': 'VARCHAR(512) NOT NULL UNIQUE', 'type': 'string', 'unique': True}}, sql_fields_aux={'email': {'sql': 'VARCHAR(512) NOT NULL UNIQUE'}, 'id': {'sql': 'SERIAL PRIMARY KEY'}, 'nome': {'sql': 'VARCHAR(512) NOT NULL'}, 'pin': {'sql': 'VARCHAR(512) NOT NULL UNIQUE'}}, logfile=<gluon.portalocker.LockedFile object>, fake_migrate=False)"
p3366
sg3267
S'migrate_table'
p3367
sa(dp3368
g3244
S'/var/www/conferencia/gluon/dal.py'
p3369
sg3246
(dp3370
S'a'
S"('ALTER TABLE usuario ADD email__tmp VARCHAR(512) NOT NULL UNIQUE;',)"
p3371
sS'self'
p3372
S'<gluon.dal.PostgreSQLAdapter object>'
p3373
sS'b'
g21
sS'self.log_execute'
p3374
S'<bound method PostgreSQLAdapter.log_execute of <gluon.dal.PostgreSQLAdapter object>>'
p3375
ssg3252
I1709
sg3253
(dp3376
I1704
S'        self.db._timings.append((command,time.time()-t0))'
p3377
sI1705
S'        del self.db._timings[:-TIMINGSSIZE]'
p3378
sI1706
S'        return ret'
p3379
sI1707
S''
sI1708
S'    def execute(self, *a, **b):'
p3380
sI1709
S'        return self.log_execute(*a, **b)'
p3381
sI1710
S''
sI1711
S'    def represent(self, obj, fieldtype):'
p3382
sI1712
S'        field_is_type = fieldtype.startswith'
p3383
sI1713
S'        if isinstance(obj, CALLABLETYPES):'
p3384
ssg3265
S"(self=<gluon.dal.PostgreSQLAdapter object>, *a=('ALTER TABLE usuario ADD email__tmp VARCHAR(512) NOT NULL UNIQUE;',), **b={})"
p3385
sg3267
S'execute'
p3386
sa(dp3387
g3244
S'/var/www/conferencia/gluon/dal.py'
p3388
sg3246
(dp3389
S'a'
S"('ALTER TABLE usuario ADD email__tmp VARCHAR(512) NOT NULL UNIQUE;',)"
p3390
sS'b'
g21
sS'self'
p3391
S'<gluon.dal.PostgreSQLAdapter object>'
p3392
sS'ret'
p3393
g3297
sS'self.cursor'
p3394
S'<gluon.contrib.pg8000.dbapi.CursorWrapper object>'
p3395
sS'self.cursor.execute'
p3396
S'<bound method CursorWrapper._fn of <gluon.contrib.pg8000.dbapi.CursorWrapper object>>'
p3397
ssg3252
I1703
sg3253
(dp3398
I1698
S'        command = a[0]'
p3399
sI1699
S'        if self.db._debug:'
p3400
sI1700
S"            LOGGER.debug('SQL: %s' % command)"
p3401
sI1701
S'        self.db._lastsql = command'
p3402
sI1702
S'        t0 = time.time()'
p3403
sI1703
S'        ret = self.cursor.execute(*a, **b)'
p3404
sI1704
S'        self.db._timings.append((command,time.time()-t0))'
p3405
sI1705
S'        del self.db._timings[:-TIMINGSSIZE]'
p3406
sI1706
S'        return ret'
p3407
sI1707
S''
ssg3265
S"(self=<gluon.dal.PostgreSQLAdapter object>, *a=('ALTER TABLE usuario ADD email__tmp VARCHAR(512) NOT NULL UNIQUE;',), **b={})"
p3408
sg3267
S'log_execute'
p3409
sa(dp3410
g3244
S'/var/www/conferencia/gluon/contrib/pg8000/dbapi.py'
p3411
sg3246
(dp3412
S'self'
p3413
S'<gluon.contrib.pg8000.dbapi.CursorWrapper object>'
p3414
sS'args'
p3415
S"('ALTER TABLE usuario ADD email__tmp VARCHAR(512) NOT NULL UNIQUE;',)"
p3416
sS'fn'
p3417
S'<function execute>'
p3418
sS'kwargs'
p3419
g21
ssg3252
I246
sg3253
(dp3420
I241
S''
sI242
S'def require_open_cursor(fn):'
p3421
sI243
S'    def _fn(self, *args, **kwargs):'
p3422
sI244
S'        if self.cursor == None:'
p3423
sI245
S'            raise CursorClosedError()'
p3424
sI246
S'        return fn(self, *args, **kwargs)'
p3425
sI247
S'    return _fn'
p3426
sI248
S''
sI249
S'##'
p3427
sI250
S'# The class of object returned by the {@link #ConnectionWrapper.cursor cursor method}.'
p3428
ssg3265
S"(self=<gluon.contrib.pg8000.dbapi.CursorWrapper object>, *args=('ALTER TABLE usuario ADD email__tmp VARCHAR(512) NOT NULL UNIQUE;',), **kwargs={})"
p3429
sg3267
S'_fn'
p3430
sa(dp3431
g3244
S'/var/www/conferencia/gluon/contrib/pg8000/dbapi.py'
p3432
sg3246
(dp3433
S'self._execute'
p3434
S'<bound method CursorWrapper._execute of <gluon.contrib.pg8000.dbapi.CursorWrapper object>>'
p3435
sS'self'
p3436
S'<gluon.contrib.pg8000.dbapi.CursorWrapper object>'
p3437
sS'args'
p3438
S'()'
p3439
sS'operation'
p3440
S"'ALTER TABLE usuario ADD email__tmp VARCHAR(512) NOT NULL UNIQUE;'"
p3441
ssg3252
I317
sg3253
(dp3442
I320
S'        new_query, new_args = convert_paramstyle(paramstyle, operation, args)'
p3443
sI321
S'        try:'
p3444
sI312
S'    @require_open_cursor'
p3445
sI313
S'    def execute(self, operation, args=()):'
p3446
sI314
S'        if not self._connection.in_transaction:'
p3447
sI315
S'            self._connection.begin()'
p3448
sI316
S'        self._override_rowcount = None'
p3449
sI317
S'        self._execute(operation, args)'
p3450
sI318
S''
sI319
S'    def _execute(self, operation, args=()):'
p3451
ssg3265
S"(self=<gluon.contrib.pg8000.dbapi.CursorWrapper object>, operation='ALTER TABLE usuario ADD email__tmp VARCHAR(512) NOT NULL UNIQUE;', args=())"
p3452
sg3267
g3386
sa(dp3453
g3244
S'/var/www/conferencia/gluon/contrib/pg8000/dbapi.py'
p3454
sg3246
(dp3455
S'new_args'
p3456
S'()'
p3457
sS'self.cursor'
p3458
S'<gluon.contrib.pg8000.interface.Cursor object>'
p3459
sS'self'
p3460
S'<gluon.contrib.pg8000.dbapi.CursorWrapper object>'
p3461
sS'new_query'
p3462
S"'ALTER TABLE usuario ADD email__tmp VARCHAR(512) NOT NULL UNIQUE;'"
p3463
sS'self.cursor.execute'
p3464
S'<bound method Cursor.execute of <gluon.contrib.pg8000.interface.Cursor object>>'
p3465
ssg3252
I322
sg3253
(dp3466
I320
S'        new_query, new_args = convert_paramstyle(paramstyle, operation, args)'
p3467
sI321
S'        try:'
p3468
sI322
S'            self.cursor.execute(new_query, *new_args)'
p3469
sI323
S'        except ConnectionClosedError:'
p3470
sI324
S"            # can't rollback in this case"
p3471
sI325
S'            raise'
p3472
sI326
S'        except:'
p3473
sI317
S'        self._execute(operation, args)'
p3474
sI318
S''
sI319
S'    def _execute(self, operation, args=()):'
p3475
ssg3265
S"(self=<gluon.contrib.pg8000.dbapi.CursorWrapper object>, operation='ALTER TABLE usuario ADD email__tmp VARCHAR(512) NOT NULL UNIQUE;', args=())"
p3476
sg3267
S'_execute'
p3477
sa(dp3478
g3244
S'/var/www/conferencia/gluon/contrib/pg8000/interface.py'
p3479
sg3246
(dp3480
S'self._stmt.execute'
p3481
S'<bound method PreparedStatement.execute of <gluo...ntrib.pg8000.interface.PreparedStatement object>>'
p3482
sS'kwargs'
p3483
g21
sS'self'
p3484
S'<gluon.contrib.pg8000.interface.Cursor object>'
p3485
sS'args'
p3486
S'()'
p3487
sS'self._stmt'
p3488
S'<gluon.contrib.pg8000.interface.PreparedStatement object>'
p3489
ssg3252
I399
sg3253
(dp3490
I394
S'                ## print "SimpleQuery:", query'
p3491
sI395
S'                self._stmt = SimpleStatement(self.connection, query)'
p3492
sI396
S'            else:'
p3493
sI397
S'                # use PostgreSQL Extended Query Protocol'
p3494
sI398
S'                self._stmt = PreparedStatement(self.connection, query, statement_name="", *[{"type": type(x), "value": x} for x in args])'
p3495
sI399
S'            self._stmt.execute(*args, **kwargs)'
p3496
sI400
S'        finally:'
p3497
sI401
S'            self.connection._unnamed_prepared_statement_lock.release()'
p3498
sI402
S''
sI403
S'    ##'
p3499
ssg3265
S"(self=<gluon.contrib.pg8000.interface.Cursor object>, query='ALTER TABLE usuario ADD email__tmp VARCHAR(512) NOT NULL UNIQUE;', *args=(), **kwargs={})"
p3500
sg3267
g3386
sa(dp3501
g3244
S'/var/www/conferencia/gluon/contrib/pg8000/interface.py'
p3502
sg3246
(dp3503
S'kwargs.get'
p3504
S'<built-in method get of dict object>'
p3505
sS'args'
p3506
S'()'
p3507
sS'self.c'
p3508
S'<gluon.contrib.pg8000.protocol.Connection object>'
p3509
sS'self'
p3510
S'<gluon.contrib.pg8000.interface.PreparedStatement object>'
p3511
sS'cmd'
p3512
g3297
sS'self._row_desc'
p3513
S'None'
p3514
sS'self.c.bind'
p3515
S'<bound method Connection._fn of <gluon.contrib.pg8000.protocol.Connection object>>'
p3516
sS'self._statement_name'
p3517
S"''"
p3518
sS'self._parse_row_desc'
p3519
S'(None, [])'
p3520
sS'kwargs'
p3521
g21
sS'self._portal_name'
p3522
S"'pg8000_portal_41'"
p3523
ssg3252
I169
sg3253
(dp3524
I164
S'                self._ongoing_row_count = 0'
p3525
sI165
S'            if self._portal_name != None:'
p3526
sI166
S'                self.c.close_portal(self._portal_name)'
p3527
sI167
S'            self._command_complete = False'
p3528
sI168
S'            self._portal_name = "pg8000_portal_%s" % self._statement_number'
p3529
sI169
S'            self._row_desc, cmd = self.c.bind(self._portal_name, self._statement_name, args, self._parse_row_desc, kwargs.get("stream"))'
p3530
sI170
S'            if self._row_desc:'
p3531
sI171
S'                # We execute our cursor right away to fill up our cache.  This'
p3532
sI172
S'                # prevents the cursor from being destroyed, apparently, by a rogue'
p3533
sI173
S'                # Sync between Bind and Execute.  Since it is quite likely that'
p3534
ssg3265
S'(self=<gluon.contrib.pg8000.interface.PreparedStatement object>, *args=(), **kwargs={})'
p3535
sg3267
g3386
sa(dp3536
g3244
S'/var/www/conferencia/gluon/contrib/pg8000/protocol.py'
p3537
sg3246
(dp3538
S'self'
p3539
S'<gluon.contrib.pg8000.protocol.Connection object>'
p3540
sS'args'
p3541
S"('pg8000_portal_41', '', (), (None, []), None)"
p3542
sS'fn'
p3543
S'<function bind>'
p3544
sS'kwargs'
p3545
g21
ssg3252
I943
sg3253
(dp3546
I938
S''
sI939
S'def sync_on_error(fn):'
p3547
sI940
S'    def _fn(self, *args, **kwargs):'
p3548
sI941
S'        try:'
p3549
sI942
S'            self._sock_lock.acquire()'
p3550
sI943
S'            return fn(self, *args, **kwargs)'
p3551
sI944
S'        except:'
p3552
sI945
S'            self._sync()'
p3553
sI946
S'            raise'
p3554
sI947
S'        finally:'
p3555
ssg3265
S"(self=<gluon.contrib.pg8000.protocol.Connection object>, *args=('pg8000_portal_41', '', (), (None, []), None), **kwargs={})"
p3556
sg3267
g3430
sa(dp3557
g3244
S'/var/www/conferencia/gluon/contrib/pg8000/protocol.py'
p3558
sg3246
(dp3559
S'reader.handle_messages'
p3560
S'<bound method MessageReader.handle_messages of <gluon.contrib.pg8000.protocol.MessageReader object>>'
p3561
sS'reader'
p3562
S'<gluon.contrib.pg8000.protocol.MessageReader object>'
p3563
ssg3252
I1142
sg3253
(dp3564
I1137
S''
sI1138
S'        # Return the new row desc, since it will have the format types we'
p3565
sI1139
S'        # asked the server for'
p3566
sI1140
S'        reader.add_message(RowDescription, lambda msg: (msg, None))'
p3567
sI1141
S''
sI1142
S'        return reader.handle_messages()'
p3568
sI1143
S''
sI1144
S'    def _copy_in_response(self, copyin, fileobj, old_reader):'
p3569
sI1145
S'        if fileobj == None:'
p3570
sI1146
S'            raise CopyQueryWithoutStreamError()'
p3571
ssg3265
S"(self=<gluon.contrib.pg8000.protocol.Connection object>, portal='pg8000_portal_41', statement='', params=(), parse_data=(None, []), copy_stream=None)"
p3572
sg3267
S'bind'
p3573
sa(dp3574
g3244
S'/var/www/conferencia/gluon/contrib/pg8000/protocol.py'
p3575
sg3246
(dp3576
S'msg'
p3577
S'<gluon.contrib.pg8000.protocol.NoData object>'
p3578
sS'handler'
p3579
S'<bound method Connection._bind_nodata of <gluon.contrib.pg8000.protocol.Connection object>>'
p3580
sS'retval'
p3581
S'0'
sS'args'
p3582
S"('pg8000_portal_41', <gluon.contrib.pg8000.protocol.MessageReader object>, None)"
p3583
sS'kwargs'
p3584
g21
ssg3252
I911
sg3253
(dp3585
I906
S'            msg = self._conn._read_message()'
p3586
sI907
S'            msg_handled = False'
p3587
sI908
S'            for (msg_class, handler, args, kwargs) in self._msgs:'
p3588
sI909
S'                if isinstance(msg, msg_class):'
p3589
sI910
S'                    msg_handled = True'
p3590
sI911
S'                    retval = handler(msg, *args, **kwargs)'
p3591
sI912
S'                    if retval:'
p3592
sI913
S'                        # The handler returned a true value, meaning that the'
p3593
sI914
S'                        # message loop should be aborted.'
p3594
sI915
S'                        if exc != None:'
p3595
ssg3265
S'(self=<gluon.contrib.pg8000.protocol.MessageReader object>)'
p3596
sg3267
S'handle_messages'
p3597
sa(dp3598
g3244
S'/var/www/conferencia/gluon/contrib/pg8000/protocol.py'
p3599
sg3246
(dp3600
S'reader.handle_messages'
p3601
S'<bound method MessageReader.handle_messages of <gluon.contrib.pg8000.protocol.MessageReader object>>'
p3602
sS'reader'
p3603
S'<gluon.contrib.pg8000.protocol.MessageReader object>'
p3604
ssg3252
I1181
sg3253
(dp3605
I1184
S''
sI1185
S'    @sync_on_error'
p3606
sI1176
S'        reader.add_message(CopyOutResponse, self._copy_out_response, copy_stream, reader)'
p3607
sI1177
S'        reader.add_message(CopyInResponse, self._copy_in_response, copy_stream, reader)'
p3608
sI1178
S"        reader.add_message(CommandComplete, lambda msg, out: out.setdefault('msg', msg) and False, output)"
p3609
sI1179
S'        reader.add_message(ReadyForQuery, lambda msg: 1)'
p3610
sI1180
S'        reader.delay_raising_exception = True'
p3611
sI1181
S'        reader.handle_messages()'
p3612
sI1182
S''
sI1183
S"        old_reader.return_value((None, output['msg']))"
p3613
ssg3265
S"(self=<gluon.contrib.pg8000.protocol.Connection object>, msg=<gluon.contrib.pg8000.protocol.NoData object>, portal='pg8000_portal_41', old_reader=<gluon.contrib.pg8000.protocol.MessageReader object>, copy_stream=None)"
p3614
sg3267
S'_bind_nodata'
p3615
sa(dp3616
g3244
S'/var/www/conferencia/gluon/contrib/pg8000/protocol.py'
p3617
sg3246
(dp3618
S'exc'
p3619
S'ProgrammingError(\'ERROR\', \'23502\', \'column "email__tmp" contains null values\')'
p3620
ssg3252
I916
sg3253
(dp3621
I911
S'                    retval = handler(msg, *args, **kwargs)'
p3622
sI912
S'                    if retval:'
p3623
sI913
S'                        # The handler returned a true value, meaning that the'
p3624
sI914
S'                        # message loop should be aborted.'
p3625
sI915
S'                        if exc != None:'
p3626
sI916
S'                            raise exc'
p3627
sI917
S'                        return retval'
p3628
sI918
S'                    elif hasattr(self, "_retval"):'
p3629
sI919
S'                        # The handler told us to return -- used for non-true'
p3630
sI920
S'                        # return values'
p3631
ssg3265
S'(self=<gluon.contrib.pg8000.protocol.MessageReader object>)'
p3632
sg3267
g3597
sasS'pyver'
p3633
S'Python 2.7.3: /usr/bin/python'
p3634
sS'session'
p3635
g61
(g62
g63
NtRp3636
(dp3637
g66
(dp3638
sg68
(lp3639
g61
(g70
g63
NtRp3640
(dp3641
g66
(dp3642
g74
I5
ssg75
Nsg68
(lp3643
sbasbsS'etype'
p3644
S"<class 'gluon.contrib.pg8000.errors.ProgrammingError'>"
p3645
sS'date'
p3646
S'Thu Apr  4 09:22:20 2013'
p3647
sS'response'
p3648
g61
(g62
g63
NtRp3649
(dp3650
g66
(dp3651
sg68
(lp3652
g61
(g70
g63
NtRp3653
(dp3654
g66
(dp3655
g74
I5
ssg75
Nsg68
(lp3656
g61
(g77
g63
NtRp3657
(dp3658
g66
(dp3659
sg75
g3653
sg68
(lp3660
g61
(g82
g63
NtRp3661
(dp3662
g66
(dp3663
g86
g87
ssg75
g3657
sg68
(lp3664
g197
asbag61
(g82
g63
NtRp3665
(dp3666
g66
(dp3667
g93
g94
ssg75
g3657
sg68
(lp3668
S':'
asbag61
(g82
g63
NtRp3669
(dp3670
g66
(dp3671
sg75
g3657
sg68
(lp3672
g61
(g62
g63
NtRp3673
(dp3674
g66
(dp3675
g74
I5
ssg75
g3669
sg68
(lp3676
S'<cStringIO.StringO object at 0x7f4544292f80>'
p3677
asbasbasbag61
(g77
g63
NtRp3678
(dp3679
g66
(dp3680
sg75
g3653
sg68
(lp3681
g61
(g82
g63
NtRp3682
(dp3683
g66
(dp3684
g86
g87
ssg75
g3678
sg68
(lp3685
g285
asbag61
(g82
g63
NtRp3686
(dp3687
g66
(dp3688
g93
g94
ssg75
g3678
sg68
(lp3689
S':'
asbag61
(g82
g63
NtRp3690
(dp3691
g66
(dp3692
sg75
g3678
sg68
(lp3693
g61
(g62
g63
NtRp3694
(dp3695
g66
(dp3696
g74
I5
ssg75
g3690
sg68
(lp3697
g61
(g70
g63
NtRp3698
(dp3699
g66
(dp3700
g74
I4
ssg75
Nsg68
(lp3701
g61
(g77
g63
NtRp3702
(dp3703
g66
(dp3704
sg75
g3698
sg68
(lp3705
g61
(g82
g63
NtRp3706
(dp3707
g66
(dp3708
g86
g87
ssg75
g3702
sg68
(lp3709
S'session_id_projeto'
p3710
asbag61
(g82
g63
NtRp3711
(dp3712
g66
(dp3713
g93
g94
ssg75
g3702
sg68
(lp3714
S':'
asbag61
(g82
g63
NtRp3715
(dp3716
g66
(dp3717
sg75
g3702
sg68
(lp3718
g61
(g62
g63
NtRp3719
(dp3720
g66
(dp3721
g74
I4
ssg75
g3715
sg68
(lp3722
g517
ag61
(g70
g63
NtRp3723
(dp3724
g66
(dp3725
g74
I3
ssg75
Nsg68
(lp3726
g61
(g77
g63
NtRp3727
(dp3728
g66
(dp3729
sg75
g3723
sg68
(lp3730
g61
(g82
g63
NtRp3731
(dp3732
g66
(dp3733
g86
g87
ssg75
g3727
sg68
(lp3734
g336
asbag61
(g82
g63
NtRp3735
(dp3736
g66
(dp3737
g93
g94
ssg75
g3727
sg68
(lp3738
S':'
asbag61
(g82
g63
NtRp3739
(dp3740
g66
(dp3741
sg75
g3727
sg68
(lp3742
g61
(g62
g63
NtRp3743
(dp3744
g66
(dp3745
g74
I3
ssg75
g3739
sg68
(lp3746
S''
asbasbasbag61
(g77
g63
NtRp3747
(dp3748
g66
(dp3749
sg75
g3723
sg68
(lp3750
g61
(g82
g63
NtRp3751
(dp3752
g66
(dp3753
g86
g87
ssg75
g3747
sg68
(lp3754
g357
asbag61
(g82
g63
NtRp3755
(dp3756
g66
(dp3757
g93
g94
ssg75
g3747
sg68
(lp3758
S':'
asbag61
(g82
g63
NtRp3759
(dp3760
g66
(dp3761
sg75
g3747
sg68
(lp3762
g61
(g62
g63
NtRp3763
(dp3764
g66
(dp3765
g74
I3
ssg75
g3759
sg68
(lp3766
S''
asbasbasbag61
(g77
g63
NtRp3767
(dp3768
g66
(dp3769
sg75
g3723
sg68
(lp3770
g61
(g82
g63
NtRp3771
(dp3772
g66
(dp3773
g86
g87
ssg75
g3767
sg68
(lp3774
g378
asbag61
(g82
g63
NtRp3775
(dp3776
g66
(dp3777
g93
g94
ssg75
g3767
sg68
(lp3778
S':'
asbag61
(g82
g63
NtRp3779
(dp3780
g66
(dp3781
sg75
g3767
sg68
(lp3782
g61
(g62
g63
NtRp3783
(dp3784
g66
(dp3785
g74
I3
ssg75
g3779
sg68
(lp3786
S''
asbasbasbag61
(g77
g63
NtRp3787
(dp3788
g66
(dp3789
sg75
g3723
sg68
(lp3790
g61
(g82
g63
NtRp3791
(dp3792
g66
(dp3793
g86
g87
ssg75
g3787
sg68
(lp3794
g399
asbag61
(g82
g63
NtRp3795
(dp3796
g66
(dp3797
g93
g94
ssg75
g3787
sg68
(lp3798
S':'
asbag61
(g82
g63
NtRp3799
(dp3800
g66
(dp3801
sg75
g3787
sg68
(lp3802
g61
(g62
g63
NtRp3803
(dp3804
g66
(dp3805
g74
I3
ssg75
g3799
sg68
(lp3806
S''
asbasbasbag61
(g77
g63
NtRp3807
(dp3808
g66
(dp3809
sg75
g3723
sg68
(lp3810
g61
(g82
g63
NtRp3811
(dp3812
g66
(dp3813
g86
g87
ssg75
g3807
sg68
(lp3814
g420
asbag61
(g82
g63
NtRp3815
(dp3816
g66
(dp3817
g93
g94
ssg75
g3807
sg68
(lp3818
S':'
asbag61
(g82
g63
NtRp3819
(dp3820
g66
(dp3821
sg75
g3807
sg68
(lp3822
g61
(g62
g63
NtRp3823
(dp3824
g66
(dp3825
g74
I3
ssg75
g3819
sg68
(lp3826
S''
asbasbasbag61
(g77
g63
NtRp3827
(dp3828
g66
(dp3829
sg75
g3723
sg68
(lp3830
g61
(g82
g63
NtRp3831
(dp3832
g66
(dp3833
g86
g87
ssg75
g3827
sg68
(lp3834
g441
asbag61
(g82
g63
NtRp3835
(dp3836
g66
(dp3837
g93
g94
ssg75
g3827
sg68
(lp3838
S':'
asbag61
(g82
g63
NtRp3839
(dp3840
g66
(dp3841
sg75
g3827
sg68
(lp3842
g61
(g62
g63
NtRp3843
(dp3844
g66
(dp3845
g74
I3
ssg75
g3839
sg68
(lp3846
S'/'
asbasbasbag61
(g77
g63
NtRp3847
(dp3848
g66
(dp3849
sg75
g3723
sg68
(lp3850
g61
(g82
g63
NtRp3851
(dp3852
g66
(dp3853
g86
g87
ssg75
g3847
sg68
(lp3854
g462
asbag61
(g82
g63
NtRp3855
(dp3856
g66
(dp3857
g93
g94
ssg75
g3847
sg68
(lp3858
S':'
asbag61
(g82
g63
NtRp3859
(dp3860
g66
(dp3861
sg75
g3847
sg68
(lp3862
g61
(g62
g63
NtRp3863
(dp3864
g66
(dp3865
g74
I3
ssg75
g3859
sg68
(lp3866
S''
asbasbasbag61
(g77
g63
NtRp3867
(dp3868
g66
(dp3869
sg75
g3723
sg68
(lp3870
g61
(g82
g63
NtRp3871
(dp3872
g66
(dp3873
g86
g87
ssg75
g3867
sg68
(lp3874
g483
asbag61
(g82
g63
NtRp3875
(dp3876
g66
(dp3877
g93
g94
ssg75
g3867
sg68
(lp3878
S':'
asbag61
(g82
g63
NtRp3879
(dp3880
g66
(dp3881
sg75
g3867
sg68
(lp3882
g61
(g62
g63
NtRp3883
(dp3884
g66
(dp3885
g74
I3
ssg75
g3879
sg68
(lp3886
S''
asbasbasbasbasbasbasbasbasbasbasbag61
(g77
g63
NtRp3887
(dp3888
g66
(dp3889
sg75
g3653
sg68
(lp3890
g61
(g82
g63
NtRp3891
(dp3892
g66
(dp3893
g86
g87
ssg75
g3887
sg68
(lp3894
S'delimiters'
p3895
asbag61
(g82
g63
NtRp3896
(dp3897
g66
(dp3898
g93
g94
ssg75
g3887
sg68
(lp3899
S':'
asbag61
(g82
g63
NtRp3900
(dp3901
g66
(dp3902
sg75
g3887
sg68
(lp3903
g61
(g62
g63
NtRp3904
(dp3905
g66
(dp3906
g74
I5
ssg75
g3900
sg68
(lp3907
g61
(g70
g63
NtRp3908
(dp3909
g66
(dp3910
g74
I4
ssg75
Nsg68
(lp3911
g61
(g77
g63
NtRp3912
(dp3913
g66
(dp3914
sg75
g3908
sg68
(lp3915
g61
(g82
g63
NtRp3916
(dp3917
g66
(dp3918
sg75
g3912
sg68
(lp3919
g61
(g62
g63
NtRp3920
(dp3921
g66
(dp3922
g74
I4
ssg75
g3916
sg68
(lp3923
S'{{'
p3924
asbasbasbag61
(g77
g63
NtRp3925
(dp3926
g66
(dp3927
sg75
g3908
sg68
(lp3928
g61
(g82
g63
NtRp3929
(dp3930
g66
(dp3931
sg75
g3925
sg68
(lp3932
g61
(g62
g63
NtRp3933
(dp3934
g66
(dp3935
g74
I4
ssg75
g3929
sg68
(lp3936
S'}}'
p3937
asbasbasbasbasbasbasbag61
(g77
g63
NtRp3938
(dp3939
g66
(dp3940
sg75
g3653
sg68
(lp3941
g61
(g82
g63
NtRp3942
(dp3943
g66
(dp3944
g86
g87
ssg75
g3938
sg68
(lp3945
S'files'
p3946
asbag61
(g82
g63
NtRp3947
(dp3948
g66
(dp3949
g93
g94
ssg75
g3938
sg68
(lp3950
S':'
asbag61
(g82
g63
NtRp3951
(dp3952
g66
(dp3953
sg75
g3938
sg68
(lp3954
g61
(g62
g63
NtRp3955
(dp3956
g66
(dp3957
g74
I5
ssg75
g3951
sg68
(lp3958
g61
(g70
g63
NtRp3959
(dp3960
g66
(dp3961
g74
I4
ssg75
Nsg68
(lp3962
sbasbasbasbag61
(g77
g63
NtRp3963
(dp3964
g66
(dp3965
sg75
g3653
sg68
(lp3966
g61
(g82
g63
NtRp3967
(dp3968
g66
(dp3969
g86
g87
ssg75
g3963
sg68
(lp3970
S'flash'
p3971
asbag61
(g82
g63
NtRp3972
(dp3973
g66
(dp3974
g93
g94
ssg75
g3963
sg68
(lp3975
S':'
asbag61
(g82
g63
NtRp3976
(dp3977
g66
(dp3978
sg75
g3963
sg68
(lp3979
g61
(g62
g63
NtRp3980
(dp3981
g66
(dp3982
g74
I5
ssg75
g3976
sg68
(lp3983
S''
asbasbasbag61
(g77
g63
NtRp3984
(dp3985
g66
(dp3986
sg75
g3653
sg68
(lp3987
g61
(g82
g63
NtRp3988
(dp3989
g66
(dp3990
g86
g87
ssg75
g3984
sg68
(lp3991
S'generic_patterns'
p3992
asbag61
(g82
g63
NtRp3993
(dp3994
g66
(dp3995
g93
g94
ssg75
g3984
sg68
(lp3996
S':'
asbag61
(g82
g63
NtRp3997
(dp3998
g66
(dp3999
sg75
g3984
sg68
(lp4000
g61
(g62
g63
NtRp4001
(dp4002
g66
(dp4003
g74
I5
ssg75
g3997
sg68
(lp4004
g61
(g70
g63
NtRp4005
(dp4006
g66
(dp4007
g74
I4
ssg75
Nsg68
(lp4008
g61
(g77
g63
NtRp4009
(dp4010
g66
(dp4011
sg75
g4005
sg68
(lp4012
g61
(g82
g63
NtRp4013
(dp4014
g66
(dp4015
sg75
g4009
sg68
(lp4016
g61
(g62
g63
NtRp4017
(dp4018
g66
(dp4019
g74
I4
ssg75
g4013
sg68
(lp4020
S'*'
asbasbasbasbasbasbasbag61
(g77
g63
NtRp4021
(dp4022
g66
(dp4023
sg75
g3653
sg68
(lp4024
g61
(g82
g63
NtRp4025
(dp4026
g66
(dp4027
g86
g87
ssg75
g4021
sg68
(lp4028
S'google_analytics_id'
p4029
asbag61
(g82
g63
NtRp4030
(dp4031
g66
(dp4032
g93
g94
ssg75
g4021
sg68
(lp4033
S':'
asbag61
(g82
g63
NtRp4034
(dp4035
g66
(dp4036
sg75
g4021
sg68
(lp4037
g61
(g62
g63
NtRp4038
(dp4039
g66
(dp4040
g74
I5
ssg75
g4034
sg68
(lp4041
S'None'
p4042
asbasbasbag61
(g77
g63
NtRp4043
(dp4044
g66
(dp4045
sg75
g3653
sg68
(lp4046
g61
(g82
g63
NtRp4047
(dp4048
g66
(dp4049
g86
g87
ssg75
g4043
sg68
(lp4050
S'headers'
p4051
asbag61
(g82
g63
NtRp4052
(dp4053
g66
(dp4054
g93
g94
ssg75
g4043
sg68
(lp4055
S':'
asbag61
(g82
g63
NtRp4056
(dp4057
g66
(dp4058
sg75
g4043
sg68
(lp4059
g61
(g62
g63
NtRp4060
(dp4061
g66
(dp4062
g74
I5
ssg75
g4056
sg68
(lp4063
g61
(g70
g63
NtRp4064
(dp4065
g66
(dp4066
g74
I4
ssg75
Nsg68
(lp4067
g61
(g77
g63
NtRp4068
(dp4069
g66
(dp4070
sg75
g4064
sg68
(lp4071
g61
(g82
g63
NtRp4072
(dp4073
g66
(dp4074
g86
g87
ssg75
g4068
sg68
(lp4075
S'X-Powered-By'
p4076
asbag61
(g82
g63
NtRp4077
(dp4078
g66
(dp4079
g93
g94
ssg75
g4068
sg68
(lp4080
S':'
asbag61
(g82
g63
NtRp4081
(dp4082
g66
(dp4083
sg75
g4068
sg68
(lp4084
g61
(g62
g63
NtRp4085
(dp4086
g66
(dp4087
g74
I4
ssg75
g4081
sg68
(lp4088
S'web2py'
p4089
asbasbasbasbasbasbasbag61
(g77
g63
NtRp4090
(dp4091
g66
(dp4092
sg75
g3653
sg68
(lp4093
g61
(g82
g63
NtRp4094
(dp4095
g66
(dp4096
g86
g87
ssg75
g4090
sg68
(lp4097
S'logo'
p4098
asbag61
(g82
g63
NtRp4099
(dp4100
g66
(dp4101
g93
g94
ssg75
g4090
sg68
(lp4102
S':'
asbag61
(g82
g63
NtRp4103
(dp4104
g66
(dp4105
sg75
g4090
sg68
(lp4106
g61
(g62
g63
NtRp4107
(dp4108
g66
(dp4109
g74
I5
ssg75
g4103
sg68
(lp4110
g61
(cgluon.html
A
p4111
g63
NtRp4112
(dp4113
g66
(dp4114
S'_class'
p4115
S'brand'
p4116
sS'_href'
p4117
g1900
ssg75
Nsg68
(lp4118
g61
(cgluon.html
B
p4119
g63
NtRp4120
(dp4121
g66
(dp4122
sg75
g4112
sg68
(lp4123
S'hosts'
p4124
ag61
(cgluon.html
SPAN
p4125
g63
NtRp4126
(dp4127
g66
(dp4128
sg75
g4120
sg68
(lp4129
S'3'
asbaS''
asbacgluon.html
XML_unpickle
p4130
(S's\r\x00\x00\x00&trade;&nbsp;'
tRp4131
asbasbasbasbag61
(g77
g63
NtRp4132
(dp4133
g66
(dp4134
sg75
g3653
sg68
(lp4135
g61
(g82
g63
NtRp4136
(dp4137
g66
(dp4138
g86
g87
ssg75
g4132
sg68
(lp4139
S'menu'
p4140
asbag61
(g82
g63
NtRp4141
(dp4142
g66
(dp4143
g93
g94
ssg75
g4132
sg68
(lp4144
S':'
asbag61
(g82
g63
NtRp4145
(dp4146
g66
(dp4147
sg75
g4132
sg68
(lp4148
g61
(g62
g63
NtRp4149
(dp4150
g66
(dp4151
g74
I5
ssg75
g4145
sg68
(lp4152
g61
(g70
g63
NtRp4153
(dp4154
g66
(dp4155
g74
I4
ssg75
Nsg68
(lp4156
g61
(g77
g63
NtRp4157
(dp4158
g66
(dp4159
sg75
g4153
sg68
(lp4160
g61
(g82
g63
NtRp4161
(dp4162
g66
(dp4163
sg75
g4157
sg68
(lp4164
g61
(g62
g63
NtRp4165
(dp4166
g66
(dp4167
g74
I4
ssg75
g4161
sg68
(lp4168
g61
(g70
g63
NtRp4169
(dp4170
g66
(dp4171
g74
I3
ssg75
Nsg68
(lp4172
g61
(g77
g63
NtRp4173
(dp4174
g66
(dp4175
sg75
g4169
sg68
(lp4176
g61
(g82
g63
NtRp4177
(dp4178
g66
(dp4179
sg75
g4173
sg68
(lp4180
g61
(g62
g63
NtRp4181
(dp4182
g66
(dp4183
g74
I3
ssg75
g4177
sg68
(lp4184
cgluon.languages
lazyT_unpickle
p4185
(S't\x08\x00\x00\x00Clientes'
tRp4186
asbasbasbag61
(g77
g63
NtRp4187
(dp4188
g66
(dp4189
sg75
g4169
sg68
(lp4190
g61
(g82
g63
NtRp4191
(dp4192
g66
(dp4193
sg75
g4187
sg68
(lp4194
g61
(g62
g63
NtRp4195
(dp4196
g66
(dp4197
g74
I3
ssg75
g4191
sg68
(lp4198
g862
asbasbasbag61
(g77
g63
NtRp4199
(dp4200
g66
(dp4201
sg75
g4169
sg68
(lp4202
g61
(g82
g63
NtRp4203
(dp4204
g66
(dp4205
sg75
g4199
sg68
(lp4206
g61
(g62
g63
NtRp4207
(dp4208
g66
(dp4209
g74
I3
ssg75
g4203
sg68
(lp4210
S'/show_cliente'
p4211
asbasbasbag61
(g77
g63
NtRp4212
(dp4213
g66
(dp4214
sg75
g4169
sg68
(lp4215
g61
(g82
g63
NtRp4216
(dp4217
g66
(dp4218
sg75
g4212
sg68
(lp4219
g61
(g62
g63
NtRp4220
(dp4221
g66
(dp4222
g74
I3
ssg75
g4216
sg68
(lp4223
g61
(g70
g63
NtRp4224
(dp4225
g66
(dp4226
g74
I2
ssg75
Nsg68
(lp4227
sbasbasbasbasbasbasbasbag61
(g77
g63
NtRp4228
(dp4229
g66
(dp4230
sg75
g4153
sg68
(lp4231
g61
(g82
g63
NtRp4232
(dp4233
g66
(dp4234
sg75
g4228
sg68
(lp4235
g61
(g62
g63
NtRp4236
(dp4237
g66
(dp4238
g74
I4
ssg75
g4232
sg68
(lp4239
g61
(g70
g63
NtRp4240
(dp4241
g66
(dp4242
g74
I3
ssg75
Nsg68
(lp4243
g61
(g77
g63
NtRp4244
(dp4245
g66
(dp4246
sg75
g4240
sg68
(lp4247
g61
(g82
g63
NtRp4248
(dp4249
g66
(dp4250
sg75
g4244
sg68
(lp4251
g61
(g62
g63
NtRp4252
(dp4253
g66
(dp4254
g74
I3
ssg75
g4248
sg68
(lp4255
g4185
(S't\n\x00\x00\x00Servidores'
tRp4256
asbasbasbag61
(g77
g63
NtRp4257
(dp4258
g66
(dp4259
sg75
g4240
sg68
(lp4260
g61
(g82
g63
NtRp4261
(dp4262
g66
(dp4263
sg75
g4257
sg68
(lp4264
g61
(g62
g63
NtRp4265
(dp4266
g66
(dp4267
g74
I3
ssg75
g4261
sg68
(lp4268
g862
asbasbasbag61
(g77
g63
NtRp4269
(dp4270
g66
(dp4271
sg75
g4240
sg68
(lp4272
g61
(g82
g63
NtRp4273
(dp4274
g66
(dp4275
sg75
g4269
sg68
(lp4276
g61
(g62
g63
NtRp4277
(dp4278
g66
(dp4279
g74
I3
ssg75
g4273
sg68
(lp4280
S'/show_servidor'
p4281
asbasbasbag61
(g77
g63
NtRp4282
(dp4283
g66
(dp4284
sg75
g4240
sg68
(lp4285
g61
(g82
g63
NtRp4286
(dp4287
g66
(dp4288
sg75
g4282
sg68
(lp4289
g61
(g62
g63
NtRp4290
(dp4291
g66
(dp4292
g74
I3
ssg75
g4286
sg68
(lp4293
g61
(g70
g63
NtRp4294
(dp4295
g66
(dp4296
g74
I2
ssg75
Nsg68
(lp4297
sbasbasbasbasbasbasbasbag61
(g77
g63
NtRp4298
(dp4299
g66
(dp4300
sg75
g4153
sg68
(lp4301
g61
(g82
g63
NtRp4302
(dp4303
g66
(dp4304
sg75
g4298
sg68
(lp4305
g61
(g62
g63
NtRp4306
(dp4307
g66
(dp4308
g74
I4
ssg75
g4302
sg68
(lp4309
g61
(g70
g63
NtRp4310
(dp4311
g66
(dp4312
g74
I3
ssg75
Nsg68
(lp4313
g61
(g77
g63
NtRp4314
(dp4315
g66
(dp4316
sg75
g4310
sg68
(lp4317
g61
(g82
g63
NtRp4318
(dp4319
g66
(dp4320
sg75
g4314
sg68
(lp4321
g61
(g62
g63
NtRp4322
(dp4323
g66
(dp4324
g74
I3
ssg75
g4318
sg68
(lp4325
g4185
(S't\x07\x00\x00\x00Distros'
tRp4326
asbasbasbag61
(g77
g63
NtRp4327
(dp4328
g66
(dp4329
sg75
g4310
sg68
(lp4330
g61
(g82
g63
NtRp4331
(dp4332
g66
(dp4333
sg75
g4327
sg68
(lp4334
g61
(g62
g63
NtRp4335
(dp4336
g66
(dp4337
g74
I3
ssg75
g4331
sg68
(lp4338
g862
asbasbasbag61
(g77
g63
NtRp4339
(dp4340
g66
(dp4341
sg75
g4310
sg68
(lp4342
g61
(g82
g63
NtRp4343
(dp4344
g66
(dp4345
sg75
g4339
sg68
(lp4346
g61
(g62
g63
NtRp4347
(dp4348
g66
(dp4349
g74
I3
ssg75
g4343
sg68
(lp4350
S'/show_distro'
p4351
asbasbasbag61
(g77
g63
NtRp4352
(dp4353
g66
(dp4354
sg75
g4310
sg68
(lp4355
g61
(g82
g63
NtRp4356
(dp4357
g66
(dp4358
sg75
g4352
sg68
(lp4359
g61
(g62
g63
NtRp4360
(dp4361
g66
(dp4362
g74
I3
ssg75
g4356
sg68
(lp4363
g61
(g70
g63
NtRp4364
(dp4365
g66
(dp4366
g74
I2
ssg75
Nsg68
(lp4367
sbasbasbasbasbasbasbasbag61
(g77
g63
NtRp4368
(dp4369
g66
(dp4370
sg75
g4153
sg68
(lp4371
g61
(g82
g63
NtRp4372
(dp4373
g66
(dp4374
sg75
g4368
sg68
(lp4375
g61
(g62
g63
NtRp4376
(dp4377
g66
(dp4378
g74
I4
ssg75
g4372
sg68
(lp4379
g61
(g70
g63
NtRp4380
(dp4381
g66
(dp4382
g74
I3
ssg75
Nsg68
(lp4383
g61
(g77
g63
NtRp4384
(dp4385
g66
(dp4386
sg75
g4380
sg68
(lp4387
g61
(g82
g63
NtRp4388
(dp4389
g66
(dp4390
sg75
g4384
sg68
(lp4391
g61
(g62
g63
NtRp4392
(dp4393
g66
(dp4394
g74
I3
ssg75
g4388
sg68
(lp4395
g4185
(S's\x05\x00\x00\x00+host'
tRp4396
asbasbasbag61
(g77
g63
NtRp4397
(dp4398
g66
(dp4399
sg75
g4380
sg68
(lp4400
g61
(g82
g63
NtRp4401
(dp4402
g66
(dp4403
sg75
g4397
sg68
(lp4404
g61
(g62
g63
NtRp4405
(dp4406
g66
(dp4407
g74
I3
ssg75
g4401
sg68
(lp4408
g862
asbasbasbag61
(g77
g63
NtRp4409
(dp4410
g66
(dp4411
sg75
g4380
sg68
(lp4412
g61
(g82
g63
NtRp4413
(dp4414
g66
(dp4415
sg75
g4409
sg68
(lp4416
g61
(g62
g63
NtRp4417
(dp4418
g66
(dp4419
g74
I3
ssg75
g4413
sg68
(lp4420
S'/interface'
p4421
asbasbasbag61
(g77
g63
NtRp4422
(dp4423
g66
(dp4424
sg75
g4380
sg68
(lp4425
g61
(g82
g63
NtRp4426
(dp4427
g66
(dp4428
sg75
g4422
sg68
(lp4429
g61
(g62
g63
NtRp4430
(dp4431
g66
(dp4432
g74
I3
ssg75
g4426
sg68
(lp4433
g61
(g70
g63
NtRp4434
(dp4435
g66
(dp4436
g74
I2
ssg75
Nsg68
(lp4437
sbasbasbasbasbasbasbasbasbasbasbasbag61
(g77
g63
NtRp4438
(dp4439
g66
(dp4440
sg75
g3653
sg68
(lp4441
g61
(g82
g63
NtRp4442
(dp4443
g66
(dp4444
g86
g87
ssg75
g4438
sg68
(lp4445
S'menu2'
p4446
asbag61
(g82
g63
NtRp4447
(dp4448
g66
(dp4449
g93
g94
ssg75
g4438
sg68
(lp4450
S':'
asbag61
(g82
g63
NtRp4451
(dp4452
g66
(dp4453
sg75
g4438
sg68
(lp4454
g61
(g62
g63
NtRp4455
(dp4456
g66
(dp4457
g74
I5
ssg75
g4451
sg68
(lp4458
g61
(g70
g63
NtRp4459
(dp4460
g66
(dp4461
g74
I4
ssg75
Nsg68
(lp4462
g61
(g77
g63
NtRp4463
(dp4464
g66
(dp4465
sg75
g4459
sg68
(lp4466
g61
(g82
g63
NtRp4467
(dp4468
g66
(dp4469
sg75
g4463
sg68
(lp4470
g61
(g62
g63
NtRp4471
(dp4472
g66
(dp4473
g74
I4
ssg75
g4467
sg68
(lp4474
g61
(g70
g63
NtRp4475
(dp4476
g66
(dp4477
g74
I3
ssg75
Nsg68
(lp4478
g61
(g77
g63
NtRp4479
(dp4480
g66
(dp4481
sg75
g4475
sg68
(lp4482
g61
(g82
g63
NtRp4483
(dp4484
g66
(dp4485
sg75
g4479
sg68
(lp4486
g61
(g62
g63
NtRp4487
(dp4488
g66
(dp4489
g74
I3
ssg75
g4483
sg68
(lp4490
g61
(g4125
g63
NtRp4491
(dp4492
g66
(dp4493
g4115
S'dropdown-toggle'
p4494
ssg75
Nsg68
(lp4495
S'Admin'
p4496
asbasbasbasbag61
(g77
g63
NtRp4497
(dp4498
g66
(dp4499
sg75
g4475
sg68
(lp4500
g61
(g82
g63
NtRp4501
(dp4502
g66
(dp4503
sg75
g4497
sg68
(lp4504
g61
(g62
g63
NtRp4505
(dp4506
g66
(dp4507
g74
I3
ssg75
g4501
sg68
(lp4508
g862
asbasbasbag61
(g77
g63
NtRp4509
(dp4510
g66
(dp4511
sg75
g4475
sg68
(lp4512
g61
(g82
g63
NtRp4513
(dp4514
g66
(dp4515
sg75
g4509
sg68
(lp4516
g61
(g62
g63
NtRp4517
(dp4518
g66
(dp4519
g74
I3
ssg75
g4513
sg68
(lp4520
S'#'
asbasbasbag61
(g77
g63
NtRp4521
(dp4522
g66
(dp4523
sg75
g4475
sg68
(lp4524
g61
(g82
g63
NtRp4525
(dp4526
g66
(dp4527
sg75
g4521
sg68
(lp4528
g61
(g62
g63
NtRp4529
(dp4530
g66
(dp4531
g74
I3
ssg75
g4525
sg68
(lp4532
g61
(g70
g63
NtRp4533
(dp4534
g66
(dp4535
g74
I2
ssg75
Nsg68
(lp4536
g61
(g77
g63
NtRp4537
(dp4538
g66
(dp4539
sg75
g4533
sg68
(lp4540
g61
(g82
g63
NtRp4541
(dp4542
g66
(dp4543
sg75
g4537
sg68
(lp4544
g61
(g62
g63
NtRp4545
(dp4546
g66
(dp4547
g74
I2
ssg75
g4541
sg68
(lp4548
g61
(g70
g63
NtRp4549
(dp4550
g66
(dp4551
g74
I1
ssg75
Nsg68
(lp4552
g61
(g77
g63
NtRp4553
(dp4554
g66
(dp4555
sg75
g4549
sg68
(lp4556
g61
(g82
g63
NtRp4557
(dp4558
g66
(dp4559
sg75
g4553
sg68
(lp4560
g61
(g62
g63
NtRp4561
(dp4562
g66
(dp4563
g74
I1
ssg75
g4557
sg68
(lp4564
g4185
(S's\t\x00\x00\x00Usu\xc3\xa1rios'
tRp4565
asbasbasbag61
(g77
g63
NtRp4566
(dp4567
g66
(dp4568
sg75
g4549
sg68
(lp4569
g61
(g82
g63
NtRp4570
(dp4571
g66
(dp4572
sg75
g4566
sg68
(lp4573
g61
(g62
g63
NtRp4574
(dp4575
g66
(dp4576
g74
I1
ssg75
g4570
sg68
(lp4577
I00
asbasbasbag61
(g77
g63
NtRp4578
(dp4579
g66
(dp4580
sg75
g4549
sg68
(lp4581
g61
(g82
g63
NtRp4582
(dp4583
g66
(dp4584
sg75
g4578
sg68
(lp4585
g61
(g62
g63
NtRp4586
(dp4587
g66
(dp4588
g74
I1
ssg75
g4582
sg68
(lp4589
S'/manager/users'
p4590
asbasbasbasbasbasbasbag61
(g77
g63
NtRp4591
(dp4592
g66
(dp4593
sg75
g4533
sg68
(lp4594
g61
(g82
g63
NtRp4595
(dp4596
g66
(dp4597
sg75
g4591
sg68
(lp4598
g61
(g62
g63
NtRp4599
(dp4600
g66
(dp4601
g74
I2
ssg75
g4595
sg68
(lp4602
g61
(g70
g63
NtRp4603
(dp4604
g66
(dp4605
g74
I1
ssg75
Nsg68
(lp4606
g61
(g77
g63
NtRp4607
(dp4608
g66
(dp4609
sg75
g4603
sg68
(lp4610
g61
(g82
g63
NtRp4611
(dp4612
g66
(dp4613
sg75
g4607
sg68
(lp4614
g61
(g62
g63
NtRp4615
(dp4616
g66
(dp4617
g74
I1
ssg75
g4611
sg68
(lp4618
g4185
(S't\x06\x00\x00\x00Grupos'
tRp4619
asbasbasbag61
(g77
g63
NtRp4620
(dp4621
g66
(dp4622
sg75
g4603
sg68
(lp4623
g61
(g82
g63
NtRp4624
(dp4625
g66
(dp4626
sg75
g4620
sg68
(lp4627
g61
(g62
g63
NtRp4628
(dp4629
g66
(dp4630
g74
I1
ssg75
g4624
sg68
(lp4631
I00
asbasbasbag61
(g77
g63
NtRp4632
(dp4633
g66
(dp4634
sg75
g4603
sg68
(lp4635
g61
(g82
g63
NtRp4636
(dp4637
g66
(dp4638
sg75
g4632
sg68
(lp4639
g61
(g62
g63
NtRp4640
(dp4641
g66
(dp4642
g74
I1
ssg75
g4636
sg68
(lp4643
S'/manager/groups'
p4644
asbasbasbasbasbasbasbag61
(g77
g63
NtRp4645
(dp4646
g66
(dp4647
sg75
g4533
sg68
(lp4648
g61
(g82
g63
NtRp4649
(dp4650
g66
(dp4651
sg75
g4645
sg68
(lp4652
g61
(g62
g63
NtRp4653
(dp4654
g66
(dp4655
g74
I2
ssg75
g4649
sg68
(lp4656
g61
(g70
g63
NtRp4657
(dp4658
g66
(dp4659
g74
I1
ssg75
Nsg68
(lp4660
g61
(g77
g63
NtRp4661
(dp4662
g66
(dp4663
sg75
g4657
sg68
(lp4664
g61
(g82
g63
NtRp4665
(dp4666
g66
(dp4667
sg75
g4661
sg68
(lp4668
g61
(g62
g63
NtRp4669
(dp4670
g66
(dp4671
g74
I1
ssg75
g4665
sg68
(lp4672
g4185
(S't\x07\x00\x00\x00Membros'
tRp4673
asbasbasbag61
(g77
g63
NtRp4674
(dp4675
g66
(dp4676
sg75
g4657
sg68
(lp4677
g61
(g82
g63
NtRp4678
(dp4679
g66
(dp4680
sg75
g4674
sg68
(lp4681
g61
(g62
g63
NtRp4682
(dp4683
g66
(dp4684
g74
I1
ssg75
g4678
sg68
(lp4685
I00
asbasbasbag61
(g77
g63
NtRp4686
(dp4687
g66
(dp4688
sg75
g4657
sg68
(lp4689
g61
(g82
g63
NtRp4690
(dp4691
g66
(dp4692
sg75
g4686
sg68
(lp4693
g61
(g62
g63
NtRp4694
(dp4695
g66
(dp4696
g74
I1
ssg75
g4690
sg68
(lp4697
S'/manager/membership'
p4698
asbasbasbasbasbasbasbasbasbasbasbasbasbasbasbag61
(g77
g63
NtRp4699
(dp4700
g66
(dp4701
sg75
g4459
sg68
(lp4702
g61
(g82
g63
NtRp4703
(dp4704
g66
(dp4705
sg75
g4699
sg68
(lp4706
g61
(g62
g63
NtRp4707
(dp4708
g66
(dp4709
g74
I4
ssg75
g4703
sg68
(lp4710
g61
(g70
g63
NtRp4711
(dp4712
g66
(dp4713
g74
I3
ssg75
Nsg68
(lp4714
g61
(g77
g63
NtRp4715
(dp4716
g66
(dp4717
sg75
g4711
sg68
(lp4718
g61
(g82
g63
NtRp4719
(dp4720
g66
(dp4721
sg75
g4715
sg68
(lp4722
g61
(g62
g63
NtRp4723
(dp4724
g66
(dp4725
g74
I3
ssg75
g4719
sg68
(lp4726
g61
(g4125
g63
NtRp4727
(dp4728
g66
(dp4729
g4115
g4494
ssg75
Nsg68
(lp4730
S'Login'
p4731
asbasbasbasbag61
(g77
g63
NtRp4732
(dp4733
g66
(dp4734
sg75
g4711
sg68
(lp4735
g61
(g82
g63
NtRp4736
(dp4737
g66
(dp4738
sg75
g4732
sg68
(lp4739
g61
(g62
g63
NtRp4740
(dp4741
g66
(dp4742
g74
I3
ssg75
g4736
sg68
(lp4743
g862
asbasbasbag61
(g77
g63
NtRp4744
(dp4745
g66
(dp4746
sg75
g4711
sg68
(lp4747
g61
(g82
g63
NtRp4748
(dp4749
g66
(dp4750
sg75
g4744
sg68
(lp4751
g61
(g62
g63
NtRp4752
(dp4753
g66
(dp4754
g74
I3
ssg75
g4748
sg68
(lp4755
S'#'
asbasbasbag61
(g77
g63
NtRp4756
(dp4757
g66
(dp4758
sg75
g4711
sg68
(lp4759
g61
(g82
g63
NtRp4760
(dp4761
g66
(dp4762
sg75
g4756
sg68
(lp4763
g61
(g62
g63
NtRp4764
(dp4765
g66
(dp4766
g74
I3
ssg75
g4760
sg68
(lp4767
g61
(g70
g63
NtRp4768
(dp4769
g66
(dp4770
g74
I2
ssg75
Nsg68
(lp4771
g61
(g77
g63
NtRp4772
(dp4773
g66
(dp4774
sg75
g4768
sg68
(lp4775
g61
(g82
g63
NtRp4776
(dp4777
g66
(dp4778
sg75
g4772
sg68
(lp4779
g61
(g62
g63
NtRp4780
(dp4781
g66
(dp4782
g74
I2
ssg75
g4776
sg68
(lp4783
g61
(g70
g63
NtRp4784
(dp4785
g66
(dp4786
g74
I1
ssg75
Nsg68
(lp4787
g61
(g77
g63
NtRp4788
(dp4789
g66
(dp4790
sg75
g4784
sg68
(lp4791
g61
(g82
g63
NtRp4792
(dp4793
g66
(dp4794
sg75
g4788
sg68
(lp4795
g61
(g62
g63
NtRp4796
(dp4797
g66
(dp4798
g74
I1
ssg75
g4792
sg68
(lp4799
g4185
(S't\x06\x00\x00\x00Logout'
tRp4800
asbasbasbag61
(g77
g63
NtRp4801
(dp4802
g66
(dp4803
sg75
g4784
sg68
(lp4804
g61
(g82
g63
NtRp4805
(dp4806
g66
(dp4807
sg75
g4801
sg68
(lp4808
g61
(g62
g63
NtRp4809
(dp4810
g66
(dp4811
g74
I1
ssg75
g4805
sg68
(lp4812
I00
asbasbasbag61
(g77
g63
NtRp4813
(dp4814
g66
(dp4815
sg75
g4784
sg68
(lp4816
g61
(g82
g63
NtRp4817
(dp4818
g66
(dp4819
sg75
g4813
sg68
(lp4820
g61
(g62
g63
NtRp4821
(dp4822
g66
(dp4823
g74
I1
ssg75
g4817
sg68
(lp4824
S'/initial/user/logout'
p4825
asbasbasbasbasbasbasbasbasbasbasbasbasbasbasbasbasbasbasbag61
(g77
g63
NtRp4826
(dp4827
g66
(dp4828
sg75
g3653
sg68
(lp4829
g61
(g82
g63
NtRp4830
(dp4831
g66
(dp4832
g86
g87
ssg75
g4826
sg68
(lp4833
S'meta'
p4834
asbag61
(g82
g63
NtRp4835
(dp4836
g66
(dp4837
g93
g94
ssg75
g4826
sg68
(lp4838
S':'
asbag61
(g82
g63
NtRp4839
(dp4840
g66
(dp4841
sg75
g4826
sg68
(lp4842
g61
(g62
g63
NtRp4843
(dp4844
g66
(dp4845
g74
I5
ssg75
g4839
sg68
(lp4846
g61
(g70
g63
NtRp4847
(dp4848
g66
(dp4849
g74
I4
ssg75
Nsg68
(lp4850
g61
(g77
g63
NtRp4851
(dp4852
g66
(dp4853
sg75
g4847
sg68
(lp4854
g61
(g82
g63
NtRp4855
(dp4856
g66
(dp4857
g86
g87
ssg75
g4851
sg68
(lp4858
S'author'
p4859
asbag61
(g82
g63
NtRp4860
(dp4861
g66
(dp4862
g93
g94
ssg75
g4851
sg68
(lp4863
S':'
asbag61
(g82
g63
NtRp4864
(dp4865
g66
(dp4866
sg75
g4851
sg68
(lp4867
g61
(g62
g63
NtRp4868
(dp4869
g66
(dp4870
g74
I4
ssg75
g4864
sg68
(lp4871
S'Your Name <you@example.com>'
p4872
asbasbasbag61
(g77
g63
NtRp4873
(dp4874
g66
(dp4875
sg75
g4847
sg68
(lp4876
g61
(g82
g63
NtRp4877
(dp4878
g66
(dp4879
g86
g87
ssg75
g4873
sg68
(lp4880
S'description'
p4881
asbag61
(g82
g63
NtRp4882
(dp4883
g66
(dp4884
g93
g94
ssg75
g4873
sg68
(lp4885
S':'
asbag61
(g82
g63
NtRp4886
(dp4887
g66
(dp4888
sg75
g4873
sg68
(lp4889
g61
(g62
g63
NtRp4890
(dp4891
g66
(dp4892
g74
I4
ssg75
g4886
sg68
(lp4893
S'a cool new app'
p4894
asbasbasbag61
(g77
g63
NtRp4895
(dp4896
g66
(dp4897
sg75
g4847
sg68
(lp4898
g61
(g82
g63
NtRp4899
(dp4900
g66
(dp4901
g86
g87
ssg75
g4895
sg68
(lp4902
S'generator'
p4903
asbag61
(g82
g63
NtRp4904
(dp4905
g66
(dp4906
g93
g94
ssg75
g4895
sg68
(lp4907
S':'
asbag61
(g82
g63
NtRp4908
(dp4909
g66
(dp4910
sg75
g4895
sg68
(lp4911
g61
(g62
g63
NtRp4912
(dp4913
g66
(dp4914
g74
I4
ssg75
g4908
sg68
(lp4915
S'Web2py Web Framework'
p4916
asbasbasbag61
(g77
g63
NtRp4917
(dp4918
g66
(dp4919
sg75
g4847
sg68
(lp4920
g61
(g82
g63
NtRp4921
(dp4922
g66
(dp4923
g86
g87
ssg75
g4917
sg68
(lp4924
S'keywords'
p4925
asbag61
(g82
g63
NtRp4926
(dp4927
g66
(dp4928
g93
g94
ssg75
g4917
sg68
(lp4929
S':'
asbag61
(g82
g63
NtRp4930
(dp4931
g66
(dp4932
sg75
g4917
sg68
(lp4933
g61
(g62
g63
NtRp4934
(dp4935
g66
(dp4936
g74
I4
ssg75
g4930
sg68
(lp4937
S'web2py, python, framework'
p4938
asbasbasbasbasbasbasbag61
(g77
g63
NtRp4939
(dp4940
g66
(dp4941
sg75
g3653
sg68
(lp4942
g61
(g82
g63
NtRp4943
(dp4944
g66
(dp4945
g86
g87
ssg75
g4939
sg68
(lp4946
S'models_to_run'
p4947
asbag61
(g82
g63
NtRp4948
(dp4949
g66
(dp4950
g93
g94
ssg75
g4939
sg68
(lp4951
S':'
asbag61
(g82
g63
NtRp4952
(dp4953
g66
(dp4954
sg75
g4939
sg68
(lp4955
g61
(g62
g63
NtRp4956
(dp4957
g66
(dp4958
g74
I5
ssg75
g4952
sg68
(lp4959
g61
(g70
g63
NtRp4960
(dp4961
g66
(dp4962
g74
I4
ssg75
Nsg68
(lp4963
g61
(g77
g63
NtRp4964
(dp4965
g66
(dp4966
sg75
g4960
sg68
(lp4967
g61
(g82
g63
NtRp4968
(dp4969
g66
(dp4970
sg75
g4964
sg68
(lp4971
g61
(g62
g63
NtRp4972
(dp4973
g66
(dp4974
g74
I4
ssg75
g4968
sg68
(lp4975
S'^\\w+\\.py$'
p4976
asbasbasbag61
(g77
g63
NtRp4977
(dp4978
g66
(dp4979
sg75
g4960
sg68
(lp4980
g61
(g82
g63
NtRp4981
(dp4982
g66
(dp4983
sg75
g4977
sg68
(lp4984
g61
(g62
g63
NtRp4985
(dp4986
g66
(dp4987
g74
I4
ssg75
g4981
sg68
(lp4988
S'^initial/\\w+\\.py$'
p4989
asbasbasbag61
(g77
g63
NtRp4990
(dp4991
g66
(dp4992
sg75
g4960
sg68
(lp4993
g61
(g82
g63
NtRp4994
(dp4995
g66
(dp4996
sg75
g4990
sg68
(lp4997
g61
(g62
g63
NtRp4998
(dp4999
g66
(dp5000
g74
I4
ssg75
g4994
sg68
(lp5001
S'^initial/principal/\\w+\\.py$'
p5002
asbasbasbasbasbasbasbag61
(g77
g63
NtRp5003
(dp5004
g66
(dp5005
sg75
g3653
sg68
(lp5006
g61
(g82
g63
NtRp5007
(dp5008
g66
(dp5009
g86
g87
ssg75
g5003
sg68
(lp5010
S'postprocessing'
p5011
asbag61
(g82
g63
NtRp5012
(dp5013
g66
(dp5014
g93
g94
ssg75
g5003
sg68
(lp5015
S':'
asbag61
(g82
g63
NtRp5016
(dp5017
g66
(dp5018
sg75
g5003
sg68
(lp5019
g61
(g62
g63
NtRp5020
(dp5021
g66
(dp5022
g74
I5
ssg75
g5016
sg68
(lp5023
g61
(g70
g63
NtRp5024
(dp5025
g66
(dp5026
g74
I4
ssg75
Nsg68
(lp5027
sbasbasbasbag61
(g77
g63
NtRp5028
(dp5029
g66
(dp5030
sg75
g3653
sg68
(lp5031
g61
(g82
g63
NtRp5032
(dp5033
g66
(dp5034
g86
g87
ssg75
g5028
sg68
(lp5035
S'session_cookie_expires'
p5036
asbag61
(g82
g63
NtRp5037
(dp5038
g66
(dp5039
g93
g94
ssg75
g5028
sg68
(lp5040
S':'
asbag61
(g82
g63
NtRp5041
(dp5042
g66
(dp5043
sg75
g5028
sg68
(lp5044
g61
(g62
g63
NtRp5045
(dp5046
g66
(dp5047
g74
I5
ssg75
g5041
sg68
(lp5048
S'None'
p5049
asbasbasbag61
(g77
g63
NtRp5050
(dp5051
g66
(dp5052
sg75
g3653
sg68
(lp5053
g61
(g82
g63
NtRp5054
(dp5055
g66
(dp5056
g86
g87
ssg75
g5050
sg68
(lp5057
S'session_data_name'
p5058
asbag61
(g82
g63
NtRp5059
(dp5060
g66
(dp5061
g93
g94
ssg75
g5050
sg68
(lp5062
S':'
asbag61
(g82
g63
NtRp5063
(dp5064
g66
(dp5065
sg75
g5050
sg68
(lp5066
g61
(g62
g63
NtRp5067
(dp5068
g66
(dp5069
g74
I5
ssg75
g5063
sg68
(lp5070
S'session_data_projeto'
p5071
asbasbasbag61
(g77
g63
NtRp5072
(dp5073
g66
(dp5074
sg75
g3653
sg68
(lp5075
g61
(g82
g63
NtRp5076
(dp5077
g66
(dp5078
g86
g87
ssg75
g5072
sg68
(lp5079
S'session_file'
p5080
asbag61
(g82
g63
NtRp5081
(dp5082
g66
(dp5083
g93
g94
ssg75
g5072
sg68
(lp5084
S':'
asbag61
(g82
g63
NtRp5085
(dp5086
g66
(dp5087
sg75
g5072
sg68
(lp5088
g61
(g62
g63
NtRp5089
(dp5090
g66
(dp5091
g74
I5
ssg75
g5085
sg68
(lp5092
S"<open file '/var/www/conferencia/applications/projeto/sessions/127.0.0.1-32b58d02-0b69-424e-9fa3-773b7f2f336f', mode 'rb+' at 0x7f454426b660>"
p5093
asbasbasbag61
(g77
g63
NtRp5094
(dp5095
g66
(dp5096
sg75
g3653
sg68
(lp5097
g61
(g82
g63
NtRp5098
(dp5099
g66
(dp5100
g86
g87
ssg75
g5094
sg68
(lp5101
S'session_filename'
p5102
asbag61
(g82
g63
NtRp5103
(dp5104
g66
(dp5105
g93
g94
ssg75
g5094
sg68
(lp5106
S':'
asbag61
(g82
g63
NtRp5107
(dp5108
g66
(dp5109
sg75
g5094
sg68
(lp5110
g61
(g62
g63
NtRp5111
(dp5112
g66
(dp5113
g74
I5
ssg75
g5107
sg68
(lp5114
S'/var/www/conferencia/applications/projeto/sessions/127.0.0.1-32b58d02-0b69-424e-9fa3-773b7f2f336f'
p5115
asbasbasbag61
(g77
g63
NtRp5116
(dp5117
g66
(dp5118
sg75
g3653
sg68
(lp5119
g61
(g82
g63
NtRp5120
(dp5121
g66
(dp5122
g86
g87
ssg75
g5116
sg68
(lp5123
S'session_id'
p5124
asbag61
(g82
g63
NtRp5125
(dp5126
g66
(dp5127
g93
g94
ssg75
g5116
sg68
(lp5128
S':'
asbag61
(g82
g63
NtRp5129
(dp5130
g66
(dp5131
sg75
g5116
sg68
(lp5132
g61
(g62
g63
NtRp5133
(dp5134
g66
(dp5135
g74
I5
ssg75
g5129
sg68
(lp5136
g517
asbasbasbag61
(g77
g63
NtRp5137
(dp5138
g66
(dp5139
sg75
g3653
sg68
(lp5140
g61
(g82
g63
NtRp5141
(dp5142
g66
(dp5143
g86
g87
ssg75
g5137
sg68
(lp5144
S'session_id_name'
p5145
asbag61
(g82
g63
NtRp5146
(dp5147
g66
(dp5148
g93
g94
ssg75
g5137
sg68
(lp5149
S':'
asbag61
(g82
g63
NtRp5150
(dp5151
g66
(dp5152
sg75
g5137
sg68
(lp5153
g61
(g62
g63
NtRp5154
(dp5155
g66
(dp5156
g74
I5
ssg75
g5150
sg68
(lp5157
g3710
asbasbasbag61
(g77
g63
NtRp5158
(dp5159
g66
(dp5160
sg75
g3653
sg68
(lp5161
g61
(g82
g63
NtRp5162
(dp5163
g66
(dp5164
g86
g87
ssg75
g5158
sg68
(lp5165
S'session_locked'
p5166
asbag61
(g82
g63
NtRp5167
(dp5168
g66
(dp5169
g93
g94
ssg75
g5158
sg68
(lp5170
S':'
asbag61
(g82
g63
NtRp5171
(dp5172
g66
(dp5173
sg75
g5158
sg68
(lp5174
g61
(g62
g63
NtRp5175
(dp5176
g66
(dp5177
g74
I5
ssg75
g5171
sg68
(lp5178
g104
asbasbasbag61
(g77
g63
NtRp5179
(dp5180
g66
(dp5181
sg75
g3653
sg68
(lp5182
g61
(g82
g63
NtRp5183
(dp5184
g66
(dp5185
g86
g87
ssg75
g5179
sg68
(lp5186
S'session_new'
p5187
asbag61
(g82
g63
NtRp5188
(dp5189
g66
(dp5190
g93
g94
ssg75
g5179
sg68
(lp5191
S':'
asbag61
(g82
g63
NtRp5192
(dp5193
g66
(dp5194
sg75
g5179
sg68
(lp5195
g61
(g62
g63
NtRp5196
(dp5197
g66
(dp5198
g74
I5
ssg75
g5192
sg68
(lp5199
g862
asbasbasbag61
(g77
g63
NtRp5200
(dp5201
g66
(dp5202
sg75
g3653
sg68
(lp5203
g61
(g82
g63
NtRp5204
(dp5205
g66
(dp5206
g86
g87
ssg75
g5200
sg68
(lp5207
S'session_storage_type'
p5208
asbag61
(g82
g63
NtRp5209
(dp5210
g66
(dp5211
g93
g94
ssg75
g5200
sg68
(lp5212
S':'
asbag61
(g82
g63
NtRp5213
(dp5214
g66
(dp5215
sg75
g5200
sg68
(lp5216
g61
(g62
g63
NtRp5217
(dp5218
g66
(dp5219
g74
I5
ssg75
g5213
sg68
(lp5220
g3244
asbasbasbag61
(g77
g63
NtRp5221
(dp5222
g66
(dp5223
sg75
g3653
sg68
(lp5224
g61
(g82
g63
NtRp5225
(dp5226
g66
(dp5227
g86
g87
ssg75
g5221
sg68
(lp5228
S'status'
p5229
asbag61
(g82
g63
NtRp5230
(dp5231
g66
(dp5232
g93
g94
ssg75
g5221
sg68
(lp5233
S':'
asbag61
(g82
g63
NtRp5234
(dp5235
g66
(dp5236
sg75
g5221
sg68
(lp5237
g61
(g62
g63
NtRp5238
(dp5239
g66
(dp5240
g74
I5
ssg75
g5234
sg68
(lp5241
S'200'
p5242
asbasbasbag61
(g77
g63
NtRp5243
(dp5244
g66
(dp5245
sg75
g3653
sg68
(lp5246
g61
(g82
g63
NtRp5247
(dp5248
g66
(dp5249
g86
g87
ssg75
g5243
sg68
(lp5250
S'subtitle'
p5251
asbag61
(g82
g63
NtRp5252
(dp5253
g66
(dp5254
g93
g94
ssg75
g5243
sg68
(lp5255
S':'
asbag61
(g82
g63
NtRp5256
(dp5257
g66
(dp5258
sg75
g5243
sg68
(lp5259
g61
(g62
g63
NtRp5260
(dp5261
g66
(dp5262
g74
I5
ssg75
g5256
sg68
(lp5263
g4185
(S's\r\x00\x00\x00customize me!'
tRp5264
asbasbasbag61
(g77
g63
NtRp5265
(dp5266
g66
(dp5267
sg75
g3653
sg68
(lp5268
g61
(g82
g63
NtRp5269
(dp5270
g66
(dp5271
g86
g87
ssg75
g5265
sg68
(lp5272
S'title'
p5273
asbag61
(g82
g63
NtRp5274
(dp5275
g66
(dp5276
g93
g94
ssg75
g5265
sg68
(lp5277
S':'
asbag61
(g82
g63
NtRp5278
(dp5279
g66
(dp5280
sg75
g5265
sg68
(lp5281
g61
(g62
g63
NtRp5282
(dp5283
g66
(dp5284
g74
I5
ssg75
g5278
sg68
(lp5285
S'Projeto'
p5286
asbasbasbag61
(g77
g63
NtRp5287
(dp5288
g66
(dp5289
sg75
g3653
sg68
(lp5290
g61
(g82
g63
NtRp5291
(dp5292
g66
(dp5293
g86
g87
ssg75
g5287
sg68
(lp5294
S'view'
p5295
asbag61
(g82
g63
NtRp5296
(dp5297
g66
(dp5298
g93
g94
ssg75
g5287
sg68
(lp5299
S':'
asbag61
(g82
g63
NtRp5300
(dp5301
g66
(dp5302
sg75
g5287
sg68
(lp5303
g61
(g62
g63
NtRp5304
(dp5305
g66
(dp5306
g74
I5
ssg75
g5300
sg68
(lp5307
S'initial/principal.html'
p5308
asbasbasbasbasbsS'locals'
p5309
(dp5310
S'exc'
p5311
S'ProgrammingError(\'ERROR\', \'23502\', \'column "email__tmp" contains null values\')'
p5312
sS'msg_class'
p5313
S"<class 'gluon.contrib.pg8000.protocol.ReadyForQuery'>"
p5314
sS'self'
p5315
S'<gluon.contrib.pg8000.protocol.MessageReader object>'
p5316
sg46
S'()'
p5317
sS'handler'
p5318
S'<function <lambda>>'
p5319
sS'kwargs'
p5320
g21
sS'msg'
p5321
S'<ReadyForQuery Idle in Failed Transaction>'
p5322
sS'msg_handled'
p5323
g104
sS'retval'
p5324
S'1'
sssS'traceback'
p5325
S'Traceback (most recent call last):\n  File "/var/www/conferencia/gluon/restricted.py", line 212, in restricted\n    exec ccode in environment\n  File "/var/www/conferencia/applications/projeto/models/models.py", line 6, in <module>\n    format="%(nome)s")\n  File "/var/www/conferencia/gluon/dal.py", line 7186, in define_table\n    table = self.lazy_define_table(tablename,*fields,**args)\n  File "/var/www/conferencia/gluon/dal.py", line 7222, in lazy_define_table\n    polymodel=polymodel)\n  File "/var/www/conferencia/gluon/dal.py", line 963, in create_table\n    fake_migrate=fake_migrate)\n  File "/var/www/conferencia/gluon/dal.py", line 1069, in migrate_table\n    self.execute(sub_query)\n  File "/var/www/conferencia/gluon/dal.py", line 1709, in execute\n    return self.log_execute(*a, **b)\n  File "/var/www/conferencia/gluon/dal.py", line 1703, in log_execute\n    ret = self.cursor.execute(*a, **b)\n  File "/var/www/conferencia/gluon/contrib/pg8000/dbapi.py", line 246, in _fn\n    return fn(self, *args, **kwargs)\n  File "/var/www/conferencia/gluon/contrib/pg8000/dbapi.py", line 317, in execute\n    self._execute(operation, args)\n  File "/var/www/conferencia/gluon/contrib/pg8000/dbapi.py", line 322, in _execute\n    self.cursor.execute(new_query, *new_args)\n  File "/var/www/conferencia/gluon/contrib/pg8000/interface.py", line 399, in execute\n    self._stmt.execute(*args, **kwargs)\n  File "/var/www/conferencia/gluon/contrib/pg8000/interface.py", line 169, in execute\n    self._row_desc, cmd = self.c.bind(self._portal_name, self._statement_name, args, self._parse_row_desc, kwargs.get("stream"))\n  File "/var/www/conferencia/gluon/contrib/pg8000/protocol.py", line 943, in _fn\n    return fn(self, *args, **kwargs)\n  File "/var/www/conferencia/gluon/contrib/pg8000/protocol.py", line 1142, in bind\n    return reader.handle_messages()\n  File "/var/www/conferencia/gluon/contrib/pg8000/protocol.py", line 911, in handle_messages\n    retval = handler(msg, *args, **kwargs)\n  File "/var/www/conferencia/gluon/contrib/pg8000/protocol.py", line 1181, in _bind_nodata\n    reader.handle_messages()\n  File "/var/www/conferencia/gluon/contrib/pg8000/protocol.py", line 916, in handle_messages\n    raise exc\nProgrammingError: (\'ERROR\', \'23502\', \'column "email__tmp" contains null values\')\n'
p5326
s.