(dp1
S'output'
p2
S"<type 'exceptions.UnicodeDecodeError'> 'ascii' codec can't decode byte 0xc3 in position 11: ordinal not in range(128)"
p3
sS'layer'
p4
S'/var/www/conferencia/applications/projeto/controllers/initial.py'
p5
sS'code'
p6
S'# coding=UTF-8\n\ndef principal():\n\tresponse.title="Usu\xc3\xa1rios"\n\n\tgrid = SQLFORM.grid(db.usuario,\n\t\tuser_signature=False, searchable=True, csv=False, \n\t\tpaginate=50, details=False,  \n\t\tignore_rw = True, maxtextlength=36, \n    \t)\n\treturn response.render("initial/show_grid.html", grid=grid)\n\ndef show_cliente():\n\tresponse.title="Eventos"\n\n\tgrid = SQLFORM.grid(db.meetme, orderby=db.meetme.endtime,\n\t\tuser_signature=False, searchable=True, csv=False, \n\t\tpaginate=50, details=False,  \n\t\tignore_rw = True, maxtextlength=36,\n\t\tlinks=[lambda row: A(\'Editar\', \n    \t\t      _class=\'btn\', \n    \t\t      _title=\'Editar\', \n    \t\t      _href=URL("initial", "/edit_host", \n    \t\t      vars=dict(f=row.confno)))] \n    \t)\n\treturn response.render("initial/show_grid.html", grid=grid)\n\ndef show_servidor():\n\tresponse.title="Eventos"\n\tdata = request.now\n\n\tquery=(db.meetme.endtime > data) \n\tprint query\n\n\tgrid = SQLFORM.grid(query=query, orderby=db.meetme.endtime,\n\t\tuser_signature=False, searchable=True, editable=False,  \n\t\tpaginate=50, details=False, csv=False,\n\t\tignore_rw = True, maxtextlength=36,\n\t\tlinks=[lambda row: A(\'Editar\', \n    \t\t      _class=\'btn\', \n    \t\t      _title=\'Editar\', \n    \t\t      _href=URL("initial", "/edit_host", \n    \t\t      vars=dict(f=row.confno)))] \n    \t)\n\treturn response.render("initial/show_grid.html", grid=grid)\n\ndef interface():\n\t#adicionar\n    form = SQLFORM(db.meetme, submit_button=\'Adicionar\', \n    \t\t\tfields = [\'starttime\', \'endtime\', \'membros_user\', \n    \t\t\t\t\'admin_user\', \'gravacao\'], \n\t\t\t\tlabels = {\'starttime\':\'In\xc3\xadcio\', \'endtime\':\'Fim\', \n\t\t\t\t\'membros_user\':\'Membros\', \'admin_user\':\'Admins\', \'gravacao\':\'Grava\xc3\xa7\xc3\xa3o\'})\n   \n    if form.process().accepted:\n    \tevento = request.vars\n    \tconfno = form.vars.id\n    \temail(evento, confno)\n    \tresponse.flash = \'Inserido com sucesso\'\t\t\n    elif form.errors:\n       response.flash = \'Ops, algo n\xc3\xa3o est\xc3\xa1 correto\'\n    else:\n       response.flash = \'Insira os dados do novo host\'\n    return response.render("initial/show_form2.html", form=form)\n\ndef edit_host():\n    form = SQLFORM(db.meetme, request.vars[\'f\'], submit_button=\'Editar\')\n\n    if form.process().accepted:\n       response.flash = \'Editado com sucesso\'\n    elif form.errors:\n       response.flash = \'Ops, algo n\xc3\xa3o est\xc3\xa1 correto\'\n    else:\n       response.flash = \'Edite os dados do host\'\n\n    return response.render("initial/show_form2.html", form=form)\n\ndef email(evento, confno):\n\n\tmembros = evento.membros_user\n    \tfor a in membros:        \n   \t\t\tprint \'membro:\',a\n   \t\t\tteste = db.executesql(\'SELECT nome, email, pin FROM usuario WHERE id = %s;\' %str(a))\n   \t\t\tprint  \'select:\',teste[0][0], teste[0][1], teste[0][2]\n   \t\t\tnome = teste[0][0] #est\xc3\xa1 dando problema na envio\n   \t\t\tprint type(nome)\n   \t\t\temail = str(teste[0][1])\n   \t\t\tpin = str(teste[0][2])\n   \t\t\tprint evento.starttime, evento.endtime, confno\n   \t\t\tmail.send(\n\t\t\tto="fndiaz02@gmail.com",#variavel email\n\t\t\tsubject="Confer\xc3\xaancia",\n\t\t\tmessage="<html> %s A confer\xc3\xaancia %s acaba de ser criada e voc\xc3\xaa \xc3\xa9 um membro, seguem os dados:<br>Hor\xc3\xa1rio de In\xc3\xadcio: %s<br>Hor\xc3\xa1rio de T\xc3\xa9rmino: %s<br>Pin: %s%s</html>" % (nome, confno, evento.starttime, evento.endtime, confno, pin)\n\t\t\t)\n\n   \tadmin = evento.admin_user\n   \tfor a in admin:\n   \t\tprint \'admin:\',a\n   \t\tteste = db.executesql(\'SELECT nome, email FROM usuario WHERE id = %s;\' %str(a))\n   \t\tprint \'select:\',teste[0][0], teste[0][1]\n   \t\tprint evento.starttime, evento.endtime, confno\n\n\n\t#if auth.has_membership(\'voip\'):\n\t#\tmail.send(\n\t#\t\tto="fndiaz02@gmail.com",\n\t#\t\tsubject="host adicionado",\n\t#\t\tmessage="<html>Um novo host foi adicionado pelo usu\xc3\xa1rio %s <br>nome: %s <br>vpn: %s<br><br>\xc3\x89 preciso fazer a instala\xc3\xa7\xc3\xa3o do client zabbix e bacula</html>" % (auth.user.first_name, host.nome, host.ip_chegada,)\n\t#\t\t)\n\t#elif auth.has_membership(\'internet\'):\n\t#\tmail.send(\n\t#\t\tto="fernando@ad2.com.br",\n\t#\t\tsubject="host adicionado",\n\t#\t\tmessage="<html>Um novo host foi adicionado pelo usu\xc3\xa1rio %s <br>nome: %s <br>vpn: %s<br><br>\xc3\x89 preciso fazer a instala\xc3\xa7\xc3\xa3o do client zabbix e bacula</html>" % (auth.user.first_name, host.nome, host.ip_chegada,)\n\t#\t\t)\n\n\n@auth.requires_login()\ndef show_distro():\n\tresponse.title="Distribui\xc3\xa7\xc3\xb5es"\n\n\tdb.args=Distro.id.readable=False\n\tdb.args=Distro.img.readable=False\n\tgrid = SQLFORM.grid(Distro,\n\t\tuser_signature=True, searchable=True, csv=False,\n\t\tpaginate=50, details=False, ignore_rw = True, \n\t\tmaxtextlength=26, links_placement=\'left\',\n\t\tcreate=auth.has_membership("admin"),\n\t\teditable=auth.has_membership("admin"),\n\t\tdeletable=auth.has_membership("admin"),  \n    \tlinks = [lambda row: A(\'hosts\', \n    \t\t_class=\'btn\', \n    \t\t_title=\'ver servidores\', \n    \t\t_href=URL("initial", "/distro_host", \n    \t\tvars=dict(f=row.id, n1=\'Distros\', p1=\'show_distro\'))), \n    \tdict(header=\'\',body=lambda row: A( IMG(_src=URL("static", "images", args=(row.img) ))))]\n\t\t)\n\treturn response.render("initial/show_grid.html", grid=grid)\n\n\n@auth.requires_login()\ndef cliente_host():\n\tfiltro = request.vars[\'f\']\n\tqueryset = db(db.cliente.id == filtro)\n\trows = queryset.select()\n\tcliente = rows[0]\n\tresponse.title = cliente.nome\n\tprint cliente\n\n\tnome_ant1 = request.vars[\'n1\']\n\tfuncao_ant1 = request.vars[\'p1\']\n\tnome_atual = cliente.nome\n\n\tquery = ((db.hosts.id_cliente == filtro) & (db.distro.id == db.hosts.id_distro))\n\tlinks = [dict(header=\'\',body=lambda row: A( IMG(_src=URL("static", "images", args=(row.distro.img)) ))), \n\t lambda row: A(\'Detalhes\', \n    \t\t      _class=\'btn\', \n    \t\t      _title=\'Detalhes\', \n    \t\t      _href=URL("initial", "/detalhes_nav", \n    \t\t      vars=dict(f=row.hosts.id, c=filtro, n=cliente.nome, \n    \t\t      \t\t\tn1=\'Clientes\', p1=\'show_cliente\', p=\'cliente_host\'))),\n\t lambda row: A(\'Editar\', \n    \t\t      _class=\'btn\', \n    \t\t      _title=\'Editar\', \n    \t\t      _href=URL("initial", "/edit_host", \n    \t\t      vars=dict(f=row.hosts.id, c=filtro, n=cliente.nome, \n    \t\t      \t\tn1=\'Clientes\', p1=\'show_cliente\', p=\'cliente_host\')))]\n\tdb.hosts.id.readable=False\n\tdb.distro.img.readable=False\n\t\n\tfields = (db.hosts.id, db.hosts.id_servidor, db.hosts.id_distro, db.distro.img, \n\t\t\t  db.hosts.ip_chegada, db.hosts.porta_ssh, db.hosts.gateway)\n\theaders = {\'hosts.id\':   \'ID\',\n\t\t\t   \'hosts.id_cliente\': \'Cliente\',\n               \'hosts.id_servidor\': \'Servidor\',\n               \'hosts.id_distro\': \'Distro\',\n               \'hosts.nome\': \'Nome\',\n\t           \'hosts.servicos\': \'Servicos\'}\n\tgrid = SQLFORM.grid(query=query, fields=fields, headers=headers, csv=False,\n\t\t\t\t\t\tdetails=False, searchable=False, maxtextlength=23, links=links, \n\t\t\t\t\t\tlinks_placement=\'left\', editable=False, create=False)\n\n\treturn response.render("initial/show_grid2.html", grid=grid, nome_ant1=nome_ant1, \n\t\t\t\t\t\tfuncao_ant1=funcao_ant1, nome_atual=nome_atual)\n\n@auth.requires_login()\ndef servidor_host():\n\tfiltro = request.vars[\'f\']\n\tqueryset = db(db.servidor.id == filtro)\n\trows = queryset.select()\n\tservidor = rows[0]\n\tresponse.title = servidor.nome\n\n\tnome_ant1 = request.vars[\'n1\']\n\tfuncao_ant1 = request.vars[\'p1\']\n\tnome_atual = servidor.nome\t\n\n\tdb.distro.img.readable=False\n\tdb.hosts.id.readable=False\n\tquery = ((db.hosts.id_servidor == filtro) & (db.distro.id == db.hosts.id_distro))\n\n\tlinks = [dict(header=\'\',body=lambda row: A( IMG(_src=URL("static", "images", args=(row.distro.img)) ))), \n\t lambda row: A(\'Detalhes\', \n    \t\t      _class=\'btn\', \n    \t\t      _title=\'Detalhes\', \n    \t\t      _href=URL("initial", "/detalhes_nav", \n    \t\t      vars=dict(f=row.hosts.id, c=filtro, n=servidor.nome, \n    \t\t      \t\tn1=\'Servidores\', p1=\'show_servidor\', p=\'servidor_host\'))),\n\t lambda row: A(\'Editar\', \n    \t\t      _class=\'btn\', \n    \t\t      _title=\'Editar\', \n    \t\t      _href=URL("initial", "/edit_host", \n    \t\t      vars=dict(f=row.hosts.id, c=filtro, n=servidor.nome, \n    \t\t      \t\tn1=\'Servidores\', p1=\'show_servidor\', p=\'servidor_host\')))]\n\n\tfields = (db.hosts.id, db.hosts.id_cliente, db.hosts.id_distro, db.distro.img, \n\t\t\t\tdb.hosts.ip_chegada, db.hosts.porta_ssh, db.hosts.gateway)\n\theaders = {\'hosts.id\':   \'ID\',\n\t\t\t   \'hosts.id_cliente\': \'Cliente\',\n               \'hosts.id_servidor\': \'Servidor\',\n               \'hosts.id_distro\': \'Distro\',\n               \'hosts.nome\': \'Nome\',\n\t           \'hosts.servicos\': \'Servicos\'}\n\tgrid = SQLFORM.grid(query=query, fields=fields, headers=headers, csv=False,\n\t\t\t\t\t\tdetails=False, searchable=False, maxtextlength=23, links=links, \n\t\t\t\t\t\tlinks_placement=\'left\', editable=False, create=False)\n\n\treturn response.render("initial/show_grid2.html", grid=grid, nome_ant1=nome_ant1, \n\t\t\t\t\t\tfuncao_ant1=funcao_ant1, nome_atual=nome_atual)\n\n@auth.requires_login()\ndef distro_host():\n\tfiltro = request.vars[\'f\']\n\tqueryset = db(db.distro.id == filtro)\n\trows = queryset.select()\n\tdistro = rows[0]\n\tresponse.title = distro.nome\n\n\tnome_ant1 = request.vars[\'n1\']\n\tfuncao_ant1 = request.vars[\'p1\']\n\tnome_atual = distro.nome\t\n\t\n\tdb.hosts.id.readable=False\n\tdb.distro.img.readable=False\n\tquery = ((db.hosts.id_distro == filtro) & (db.distro.id == db.hosts.id_distro))\n\tlinks = [dict(header=\'\',body=lambda row: A( IMG(_src=URL("static", "images", args=(row.distro.img)) ))), \n\t lambda row: A(\'Detalhes\', \n    \t\t      _class=\'btn\', \n    \t\t      _title=\'Detalhes\', \n    \t\t      _href=URL("initial", "/detalhes_nav", \n    \t\t      vars=dict(f=row.hosts.id, c=filtro, n=distro.nome, \n    \t\t      \t\tn1=\'Distros\', p1=\'show_distro\', p=\'distro_host\'))),\n\t lambda row: A(\'Editar\', \n    \t\t      _class=\'btn\', \n    \t\t      _title=\'Editar\', \n    \t\t      _href=URL("initial", "/edit_host", \n    \t\t      vars=dict(f=row.hosts.id, c=filtro, n=distro.nome, \n    \t\t      \t\tn1=\'Distros\', p1=\'show_distro\', p=\'distro_host\')))]\n\n\tfields = (db.hosts.id, db.hosts.id_cliente, db.hosts.id_servidor, db.distro.img, \n\t\t\t  db.hosts.ip_chegada, db.hosts.porta_ssh, db.hosts.gateway)\n\theaders = {\'hosts.id\':   \'ID\',\n\t\t\t\t\'hosts.id_cliente\': \'Cliente\',\n               \'hosts.id_servidor\': \'Servidor\',\n               \'hosts.id_distro\': \'Distro\',\n               \'hosts.nome\': \'Nome\',\n\t           \'hosts.servicos\': \'Servicos\'}\n\tgrid = SQLFORM.grid(query=query, fields=fields, headers=headers, csv=False,\n\t\t\t\t\t\tdetails=False, searchable=False, maxtextlength=23, links=links, \n\t\t\t\t\t\tlinks_placement=\'left\', editable=False, create=False)\n\n\treturn response.render("initial/show_grid2.html", grid=grid, nome_ant1=nome_ant1, \n\t\t\t\t\t\tfuncao_ant1=funcao_ant1, nome_atual=nome_atual)\n\ndef detalhes_nav():\n\t#detalhes\n\tfiltro = request.vars[\'f\'] #id_host\n\tid_cliente = request.vars[\'c\'] #id_cliente\n\tnome_ant = request.vars[\'n\'] #nome (asterisk ou agronelli ou debian)\n\tnome_ant1 = request.vars[\'n1\'] #nome (servidores ou clientes ou distros)\n\tfuncao_ant = request.vars[\'p\'] #funcao(host_servidores)\n\tfuncao_ant1 = request.vars[\'p1\'] #funcao(show_servidores)\n\t\n\n\tquery = ((db.hosts.id == filtro) & (db.hosts.id_cliente == db.cliente.id)\n\t \t    & (db.hosts.id_servidor == db.servidor.id) \n\t \t    & (db.hosts.id_distro == db.distro.id)) \n\tdetalhes = db.hosts(query)\n\t\n\t\n\treturn response.render("initial/detalhes_host.html", detalhes=detalhes, \n\t\t\t\tid_cliente=id_cliente, funcao_ant=funcao_ant, funcao_ant1=funcao_ant1, \n\t\t\t\tnome_ant=nome_ant, nome_ant1=nome_ant1, filtro=filtro)\n\n\ndef about():\n\tfiltro = request.vars[\'f\']\n\tquery = ((db.hosts.id_servidor == filtro) & (db.distro.id == db.hosts.id_distro))\n\tfields = (db.hosts.id, db.hosts.id_cliente, db.hosts.id_distro, db.distro.img, \n\t\t\t\tdb.hosts.ip_chegada, db.hosts.porta_ssh, db.hosts.gateway)\n\theaders = {\'host.id\':   \'ID\',\n               \'host.id_servidor\': \'Servidor\',\n               \'host.id_distro\': \'Distro\',\n               \'host.nome\': \'Nome\',\n\t           \'host.servicos\': \'Servicos\'}\n\tgrid = SQLFORM.grid(query=query, fields=fields, headers=headers, csv=False,\n\t\t\t\t\t\tdetails=False, maxtextlength=23, searchable=True, editable=False, create=False)\n\n\treturn response.render("initial/teste.html", grid=grid,)\n\ndef user():\n\t#if request.args(0) == \'register\':\n    #    \tdb.auth_user.bio.writable = db.auth_user.bio.readable = False\n\treturn response.render("initial/user.html", user=auth())\n\ndef register():\n\treturn auth.register()\n\ndef login():\n        return auth.login()\n\ndef account():\n    return dict(register=auth.register(),\n                login=auth.login())\n\t\ndef download():\n\treturn response.download(request, db)\n\t\ndef detalhes_clean():\n\tfiltro = request.vars[\'f\'] #id_host\n\t\t\n\n\tquery = ((db.hosts.id == filtro) & (db.hosts.id_cliente == db.cliente.id)\n\t \t    & (db.hosts.id_servidor == db.servidor.id) \n\t \t    & (db.hosts.id_distro == db.distro.id)) \n\tdetalhes = db.hosts(query)\n\n\t\n\treturn response.render("initial/detalhes_host_clean.html", detalhes=detalhes)\n\n\n\nresponse._vars=response._caller(interface)\n'
p7
sS'snapshot'
p8
(dp9
S'exception'
p10
(dp11
S'__getslice__'
p12
S"<method-wrapper '__getslice__' of exceptions.UnicodeDecodeError object>"
p13
sS'encoding'
p14
S"'ascii'"
p15
sS'__str__'
p16
S"<method-wrapper '__str__' of exceptions.UnicodeDecodeError object>"
p17
sS'__reduce__'
p18
S'<built-in method __reduce__ of exceptions.UnicodeDecodeError object>'
p19
sS'__dict__'
p20
S'{}'
p21
sS'__sizeof__'
p22
S'<built-in method __sizeof__ of exceptions.UnicodeDecodeError object>'
p23
sS'__init__'
p24
S"<method-wrapper '__init__' of exceptions.UnicodeDecodeError object>"
p25
sS'__setattr__'
p26
S"<method-wrapper '__setattr__' of exceptions.UnicodeDecodeError object>"
p27
sS'__reduce_ex__'
p28
S'<built-in method __reduce_ex__ of exceptions.UnicodeDecodeError object>'
p29
sS'end'
p30
S'12'
p31
sS'__new__'
p32
S'<built-in method __new__ of type object>'
p33
sS'__format__'
p34
S'<built-in method __format__ of exceptions.UnicodeDecodeError object>'
p35
sS'__class__'
p36
S"<type 'exceptions.UnicodeDecodeError'>"
p37
sS'start'
p38
S'11'
p39
sS'__doc__'
p40
S"'Unicode decoding error.'"
p41
sS'object'
p42
S"'%s A confer\\xc3\\xaancia %s acaba de ser criada e voc\\xc3\\xaa...s<br>Hor\\xc3\\xa1rio de T\\xc3\\xa9rmino: %s<br>Pin: %s%s</html>'"
p43
sS'__getitem__'
p44
S"<method-wrapper '__getitem__' of exceptions.UnicodeDecodeError object>"
p45
sS'__setstate__'
p46
S'<built-in method __setstate__ of exceptions.UnicodeDecodeError object>'
p47
sS'__getattribute__'
p48
S"<method-wrapper '__getattribute__' of exceptions.UnicodeDecodeError object>"
p49
sS'args'
p50
S"('ascii', '%s A confer\\xc3\\xaancia %s acaba de ser criada e voc\\xc3\\xaa...s<br>Hor\\xc3\\xa1rio de T\\xc3\\xa9rmino: %s<br>Pin: %s%s</html>', 11, 12, 'ordinal not in range(128)')"
p51
sS'reason'
p52
S"'ordinal not in range(128)'"
p53
sS'__subclasshook__'
p54
S'<built-in method __subclasshook__ of type object>'
p55
sS'__unicode__'
p56
S'<built-in method __unicode__ of exceptions.UnicodeDecodeError object>'
p57
sS'__delattr__'
p58
S"<method-wrapper '__delattr__' of exceptions.UnicodeDecodeError object>"
p59
sS'__repr__'
p60
S"<method-wrapper '__repr__' of exceptions.UnicodeDecodeError object>"
p61
sS'__hash__'
p62
S"<method-wrapper '__hash__' of exceptions.UnicodeDecodeError object>"
p63
ssS'evalue'
p64
S"'ascii' codec can't decode byte 0xc3 in position 11: ordinal not in range(128)"
p65
sS'request'
p66
ccopy_reg
_reconstructor
p67
(cgluon.html
BEAUTIFY
p68
c__builtin__
object
p69
NtRp70
(dp71
S'attributes'
p72
(dp73
sS'components'
p74
(lp75
g67
(cgluon.html
TABLE
p76
g69
NtRp77
(dp78
g72
(dp79
S'level'
p80
I5
ssS'parent'
p81
Nsg74
(lp82
g67
(cgluon.html
TR
p83
g69
NtRp84
(dp85
g72
(dp86
sg81
g77
sg74
(lp87
g67
(cgluon.html
TD
p88
g69
NtRp89
(dp90
g72
(dp91
S'_style'
p92
S'font-weight:bold;vertical-align:top'
p93
ssg81
g84
sg74
(lp94
S'ajax'
p95
asbag67
(g88
g69
NtRp96
(dp97
g72
(dp98
S'_valign'
p99
S'top'
p100
ssg81
g84
sg74
(lp101
S':'
asbag67
(g88
g69
NtRp102
(dp103
g72
(dp104
sg81
g84
sg74
(lp105
g67
(g68
g69
NtRp106
(dp107
g72
(dp108
g80
I5
ssg81
g102
sg74
(lp109
S'False'
p110
asbasbasbag67
(g83
g69
NtRp111
(dp112
g72
(dp113
sg81
g77
sg74
(lp114
g67
(g88
g69
NtRp115
(dp116
g72
(dp117
g92
g93
ssg81
g111
sg74
(lp118
S'application'
p119
asbag67
(g88
g69
NtRp120
(dp121
g72
(dp122
g99
g100
ssg81
g111
sg74
(lp123
S':'
asbag67
(g88
g69
NtRp124
(dp125
g72
(dp126
sg81
g111
sg74
(lp127
g67
(g68
g69
NtRp128
(dp129
g72
(dp130
g80
I5
ssg81
g124
sg74
(lp131
S'projeto'
p132
asbasbasbag67
(g83
g69
NtRp133
(dp134
g72
(dp135
sg81
g77
sg74
(lp136
g67
(g88
g69
NtRp137
(dp138
g72
(dp139
g92
g93
ssg81
g133
sg74
(lp140
g50
asbag67
(g88
g69
NtRp141
(dp142
g72
(dp143
g99
g100
ssg81
g133
sg74
(lp144
S':'
asbag67
(g88
g69
NtRp145
(dp146
g72
(dp147
sg81
g133
sg74
(lp148
g67
(g68
g69
NtRp149
(dp150
g72
(dp151
g80
I5
ssg81
g145
sg74
(lp152
g67
(g76
g69
NtRp153
(dp154
g72
(dp155
g80
I4
ssg81
Nsg74
(lp156
sbasbasbasbag67
(g83
g69
NtRp157
(dp158
g72
(dp159
sg81
g77
sg74
(lp160
g67
(g88
g69
NtRp161
(dp162
g72
(dp163
g92
g93
ssg81
g157
sg74
(lp164
S'body'
p165
asbag67
(g88
g69
NtRp166
(dp167
g72
(dp168
g99
g100
ssg81
g157
sg74
(lp169
S':'
asbag67
(g88
g69
NtRp170
(dp171
g72
(dp172
sg81
g157
sg74
(lp173
g67
(g68
g69
NtRp174
(dp175
g72
(dp176
g80
I5
ssg81
g170
sg74
(lp177
S"<open file '<fdopen>', mode 'w+b' at 0x7fe9646e6300>"
p178
asbasbasbag67
(g83
g69
NtRp179
(dp180
g72
(dp181
sg81
g77
sg74
(lp182
g67
(g88
g69
NtRp183
(dp184
g72
(dp185
g92
g93
ssg81
g179
sg74
(lp186
S'cid'
p187
asbag67
(g88
g69
NtRp188
(dp189
g72
(dp190
g99
g100
ssg81
g179
sg74
(lp191
S':'
asbag67
(g88
g69
NtRp192
(dp193
g72
(dp194
sg81
g179
sg74
(lp195
g67
(g68
g69
NtRp196
(dp197
g72
(dp198
g80
I5
ssg81
g192
sg74
(lp199
S'None'
p200
asbasbasbag67
(g83
g69
NtRp201
(dp202
g72
(dp203
sg81
g77
sg74
(lp204
g67
(g88
g69
NtRp205
(dp206
g72
(dp207
g92
g93
ssg81
g201
sg74
(lp208
S'client'
p209
asbag67
(g88
g69
NtRp210
(dp211
g72
(dp212
g99
g100
ssg81
g201
sg74
(lp213
S':'
asbag67
(g88
g69
NtRp214
(dp215
g72
(dp216
sg81
g201
sg74
(lp217
g67
(g68
g69
NtRp218
(dp219
g72
(dp220
g80
I5
ssg81
g214
sg74
(lp221
S'127.0.0.1'
p222
asbasbasbag67
(g83
g69
NtRp223
(dp224
g72
(dp225
sg81
g77
sg74
(lp226
g67
(g88
g69
NtRp227
(dp228
g72
(dp229
g92
g93
ssg81
g223
sg74
(lp230
S'controller'
p231
asbag67
(g88
g69
NtRp232
(dp233
g72
(dp234
g99
g100
ssg81
g223
sg74
(lp235
S':'
asbag67
(g88
g69
NtRp236
(dp237
g72
(dp238
sg81
g223
sg74
(lp239
g67
(g68
g69
NtRp240
(dp241
g72
(dp242
g80
I5
ssg81
g236
sg74
(lp243
S'initial'
p244
asbasbasbag67
(g83
g69
NtRp245
(dp246
g72
(dp247
sg81
g77
sg74
(lp248
g67
(g88
g69
NtRp249
(dp250
g72
(dp251
g92
g93
ssg81
g245
sg74
(lp252
S'cookies'
p253
asbag67
(g88
g69
NtRp254
(dp255
g72
(dp256
g99
g100
ssg81
g245
sg74
(lp257
S':'
asbag67
(g88
g69
NtRp258
(dp259
g72
(dp260
sg81
g245
sg74
(lp261
g67
(g68
g69
NtRp262
(dp263
g72
(dp264
g80
I5
ssg81
g258
sg74
(lp265
g67
(g76
g69
NtRp266
(dp267
g72
(dp268
g80
I4
ssg81
Nsg74
(lp269
g67
(g83
g69
NtRp270
(dp271
g72
(dp272
sg81
g266
sg74
(lp273
g67
(g88
g69
NtRp274
(dp275
g72
(dp276
g92
g93
ssg81
g270
sg74
(lp277
S'session_id_admin'
p278
asbag67
(g88
g69
NtRp279
(dp280
g72
(dp281
g99
g100
ssg81
g270
sg74
(lp282
S':'
asbag67
(g88
g69
NtRp283
(dp284
g72
(dp285
sg81
g270
sg74
(lp286
g67
(g68
g69
NtRp287
(dp288
g72
(dp289
g80
I4
ssg81
g283
sg74
(lp290
S'127.0.0.1-2c683693-05a3-4f73-9979-341d9dd290ce'
p291
ag67
(g76
g69
NtRp292
(dp293
g72
(dp294
g80
I3
ssg81
Nsg74
(lp295
g67
(g83
g69
NtRp296
(dp297
g72
(dp298
sg81
g292
sg74
(lp299
g67
(g88
g69
NtRp300
(dp301
g72
(dp302
g92
g93
ssg81
g296
sg74
(lp303
S'comment'
p304
asbag67
(g88
g69
NtRp305
(dp306
g72
(dp307
g99
g100
ssg81
g296
sg74
(lp308
S':'
asbag67
(g88
g69
NtRp309
(dp310
g72
(dp311
sg81
g296
sg74
(lp312
g67
(g68
g69
NtRp313
(dp314
g72
(dp315
g80
I3
ssg81
g309
sg74
(lp316
S''
asbasbasbag67
(g83
g69
NtRp317
(dp318
g72
(dp319
sg81
g292
sg74
(lp320
g67
(g88
g69
NtRp321
(dp322
g72
(dp323
g92
g93
ssg81
g317
sg74
(lp324
S'domain'
p325
asbag67
(g88
g69
NtRp326
(dp327
g72
(dp328
g99
g100
ssg81
g317
sg74
(lp329
S':'
asbag67
(g88
g69
NtRp330
(dp331
g72
(dp332
sg81
g317
sg74
(lp333
g67
(g68
g69
NtRp334
(dp335
g72
(dp336
g80
I3
ssg81
g330
sg74
(lp337
S''
asbasbasbag67
(g83
g69
NtRp338
(dp339
g72
(dp340
sg81
g292
sg74
(lp341
g67
(g88
g69
NtRp342
(dp343
g72
(dp344
g92
g93
ssg81
g338
sg74
(lp345
S'expires'
p346
asbag67
(g88
g69
NtRp347
(dp348
g72
(dp349
g99
g100
ssg81
g338
sg74
(lp350
S':'
asbag67
(g88
g69
NtRp351
(dp352
g72
(dp353
sg81
g338
sg74
(lp354
g67
(g68
g69
NtRp355
(dp356
g72
(dp357
g80
I3
ssg81
g351
sg74
(lp358
S''
asbasbasbag67
(g83
g69
NtRp359
(dp360
g72
(dp361
sg81
g292
sg74
(lp362
g67
(g88
g69
NtRp363
(dp364
g72
(dp365
g92
g93
ssg81
g359
sg74
(lp366
S'httponly'
p367
asbag67
(g88
g69
NtRp368
(dp369
g72
(dp370
g99
g100
ssg81
g359
sg74
(lp371
S':'
asbag67
(g88
g69
NtRp372
(dp373
g72
(dp374
sg81
g359
sg74
(lp375
g67
(g68
g69
NtRp376
(dp377
g72
(dp378
g80
I3
ssg81
g372
sg74
(lp379
S''
asbasbasbag67
(g83
g69
NtRp380
(dp381
g72
(dp382
sg81
g292
sg74
(lp383
g67
(g88
g69
NtRp384
(dp385
g72
(dp386
g92
g93
ssg81
g380
sg74
(lp387
S'max-age'
p388
asbag67
(g88
g69
NtRp389
(dp390
g72
(dp391
g99
g100
ssg81
g380
sg74
(lp392
S':'
asbag67
(g88
g69
NtRp393
(dp394
g72
(dp395
sg81
g380
sg74
(lp396
g67
(g68
g69
NtRp397
(dp398
g72
(dp399
g80
I3
ssg81
g393
sg74
(lp400
S''
asbasbasbag67
(g83
g69
NtRp401
(dp402
g72
(dp403
sg81
g292
sg74
(lp404
g67
(g88
g69
NtRp405
(dp406
g72
(dp407
g92
g93
ssg81
g401
sg74
(lp408
S'path'
p409
asbag67
(g88
g69
NtRp410
(dp411
g72
(dp412
g99
g100
ssg81
g401
sg74
(lp413
S':'
asbag67
(g88
g69
NtRp414
(dp415
g72
(dp416
sg81
g401
sg74
(lp417
g67
(g68
g69
NtRp418
(dp419
g72
(dp420
g80
I3
ssg81
g414
sg74
(lp421
S''
asbasbasbag67
(g83
g69
NtRp422
(dp423
g72
(dp424
sg81
g292
sg74
(lp425
g67
(g88
g69
NtRp426
(dp427
g72
(dp428
g92
g93
ssg81
g422
sg74
(lp429
S'secure'
p430
asbag67
(g88
g69
NtRp431
(dp432
g72
(dp433
g99
g100
ssg81
g422
sg74
(lp434
S':'
asbag67
(g88
g69
NtRp435
(dp436
g72
(dp437
sg81
g422
sg74
(lp438
g67
(g68
g69
NtRp439
(dp440
g72
(dp441
g80
I3
ssg81
g435
sg74
(lp442
S''
asbasbasbag67
(g83
g69
NtRp443
(dp444
g72
(dp445
sg81
g292
sg74
(lp446
g67
(g88
g69
NtRp447
(dp448
g72
(dp449
g92
g93
ssg81
g443
sg74
(lp450
S'version'
p451
asbag67
(g88
g69
NtRp452
(dp453
g72
(dp454
g99
g100
ssg81
g443
sg74
(lp455
S':'
asbag67
(g88
g69
NtRp456
(dp457
g72
(dp458
sg81
g443
sg74
(lp459
g67
(g68
g69
NtRp460
(dp461
g72
(dp462
g80
I3
ssg81
g456
sg74
(lp463
S''
asbasbasbasbasbasbasbag67
(g83
g69
NtRp464
(dp465
g72
(dp466
sg81
g266
sg74
(lp467
g67
(g88
g69
NtRp468
(dp469
g72
(dp470
g92
g93
ssg81
g464
sg74
(lp471
S'session_id_projeto'
p472
asbag67
(g88
g69
NtRp473
(dp474
g72
(dp475
g99
g100
ssg81
g464
sg74
(lp476
S':'
asbag67
(g88
g69
NtRp477
(dp478
g72
(dp479
sg81
g464
sg74
(lp480
g67
(g68
g69
NtRp481
(dp482
g72
(dp483
g80
I4
ssg81
g477
sg74
(lp484
S'127.0.0.1-23958a81-b42b-49f4-a9e3-fd1b7fc6e898'
p485
ag67
(g76
g69
NtRp486
(dp487
g72
(dp488
g80
I3
ssg81
Nsg74
(lp489
g67
(g83
g69
NtRp490
(dp491
g72
(dp492
sg81
g486
sg74
(lp493
g67
(g88
g69
NtRp494
(dp495
g72
(dp496
g92
g93
ssg81
g490
sg74
(lp497
g304
asbag67
(g88
g69
NtRp498
(dp499
g72
(dp500
g99
g100
ssg81
g490
sg74
(lp501
S':'
asbag67
(g88
g69
NtRp502
(dp503
g72
(dp504
sg81
g490
sg74
(lp505
g67
(g68
g69
NtRp506
(dp507
g72
(dp508
g80
I3
ssg81
g502
sg74
(lp509
S''
asbasbasbag67
(g83
g69
NtRp510
(dp511
g72
(dp512
sg81
g486
sg74
(lp513
g67
(g88
g69
NtRp514
(dp515
g72
(dp516
g92
g93
ssg81
g510
sg74
(lp517
g325
asbag67
(g88
g69
NtRp518
(dp519
g72
(dp520
g99
g100
ssg81
g510
sg74
(lp521
S':'
asbag67
(g88
g69
NtRp522
(dp523
g72
(dp524
sg81
g510
sg74
(lp525
g67
(g68
g69
NtRp526
(dp527
g72
(dp528
g80
I3
ssg81
g522
sg74
(lp529
S''
asbasbasbag67
(g83
g69
NtRp530
(dp531
g72
(dp532
sg81
g486
sg74
(lp533
g67
(g88
g69
NtRp534
(dp535
g72
(dp536
g92
g93
ssg81
g530
sg74
(lp537
g346
asbag67
(g88
g69
NtRp538
(dp539
g72
(dp540
g99
g100
ssg81
g530
sg74
(lp541
S':'
asbag67
(g88
g69
NtRp542
(dp543
g72
(dp544
sg81
g530
sg74
(lp545
g67
(g68
g69
NtRp546
(dp547
g72
(dp548
g80
I3
ssg81
g542
sg74
(lp549
S''
asbasbasbag67
(g83
g69
NtRp550
(dp551
g72
(dp552
sg81
g486
sg74
(lp553
g67
(g88
g69
NtRp554
(dp555
g72
(dp556
g92
g93
ssg81
g550
sg74
(lp557
g367
asbag67
(g88
g69
NtRp558
(dp559
g72
(dp560
g99
g100
ssg81
g550
sg74
(lp561
S':'
asbag67
(g88
g69
NtRp562
(dp563
g72
(dp564
sg81
g550
sg74
(lp565
g67
(g68
g69
NtRp566
(dp567
g72
(dp568
g80
I3
ssg81
g562
sg74
(lp569
S''
asbasbasbag67
(g83
g69
NtRp570
(dp571
g72
(dp572
sg81
g486
sg74
(lp573
g67
(g88
g69
NtRp574
(dp575
g72
(dp576
g92
g93
ssg81
g570
sg74
(lp577
g388
asbag67
(g88
g69
NtRp578
(dp579
g72
(dp580
g99
g100
ssg81
g570
sg74
(lp581
S':'
asbag67
(g88
g69
NtRp582
(dp583
g72
(dp584
sg81
g570
sg74
(lp585
g67
(g68
g69
NtRp586
(dp587
g72
(dp588
g80
I3
ssg81
g582
sg74
(lp589
S''
asbasbasbag67
(g83
g69
NtRp590
(dp591
g72
(dp592
sg81
g486
sg74
(lp593
g67
(g88
g69
NtRp594
(dp595
g72
(dp596
g92
g93
ssg81
g590
sg74
(lp597
g409
asbag67
(g88
g69
NtRp598
(dp599
g72
(dp600
g99
g100
ssg81
g590
sg74
(lp601
S':'
asbag67
(g88
g69
NtRp602
(dp603
g72
(dp604
sg81
g590
sg74
(lp605
g67
(g68
g69
NtRp606
(dp607
g72
(dp608
g80
I3
ssg81
g602
sg74
(lp609
S''
asbasbasbag67
(g83
g69
NtRp610
(dp611
g72
(dp612
sg81
g486
sg74
(lp613
g67
(g88
g69
NtRp614
(dp615
g72
(dp616
g92
g93
ssg81
g610
sg74
(lp617
g430
asbag67
(g88
g69
NtRp618
(dp619
g72
(dp620
g99
g100
ssg81
g610
sg74
(lp621
S':'
asbag67
(g88
g69
NtRp622
(dp623
g72
(dp624
sg81
g610
sg74
(lp625
g67
(g68
g69
NtRp626
(dp627
g72
(dp628
g80
I3
ssg81
g622
sg74
(lp629
S''
asbasbasbag67
(g83
g69
NtRp630
(dp631
g72
(dp632
sg81
g486
sg74
(lp633
g67
(g88
g69
NtRp634
(dp635
g72
(dp636
g92
g93
ssg81
g630
sg74
(lp637
g451
asbag67
(g88
g69
NtRp638
(dp639
g72
(dp640
g99
g100
ssg81
g630
sg74
(lp641
S':'
asbag67
(g88
g69
NtRp642
(dp643
g72
(dp644
sg81
g630
sg74
(lp645
g67
(g68
g69
NtRp646
(dp647
g72
(dp648
g80
I3
ssg81
g642
sg74
(lp649
S''
asbasbasbasbasbasbasbasbasbasbasbag67
(g83
g69
NtRp650
(dp651
g72
(dp652
sg81
g77
sg74
(lp653
g67
(g88
g69
NtRp654
(dp655
g72
(dp656
g92
g93
ssg81
g650
sg74
(lp657
S'env'
p658
asbag67
(g88
g69
NtRp659
(dp660
g72
(dp661
g99
g100
ssg81
g650
sg74
(lp662
S':'
asbag67
(g88
g69
NtRp663
(dp664
g72
(dp665
sg81
g650
sg74
(lp666
g67
(g68
g69
NtRp667
(dp668
g72
(dp669
g80
I5
ssg81
g663
sg74
(lp670
g67
(g76
g69
NtRp671
(dp672
g72
(dp673
g80
I4
ssg81
Nsg74
(lp674
g67
(g83
g69
NtRp675
(dp676
g72
(dp677
sg81
g671
sg74
(lp678
g67
(g88
g69
NtRp679
(dp680
g72
(dp681
g92
g93
ssg81
g675
sg74
(lp682
S'app_folders'
p683
asbag67
(g88
g69
NtRp684
(dp685
g72
(dp686
g99
g100
ssg81
g675
sg74
(lp687
S':'
asbag67
(g88
g69
NtRp688
(dp689
g72
(dp690
sg81
g675
sg74
(lp691
g67
(g68
g69
NtRp692
(dp693
g72
(dp694
g80
I4
ssg81
g688
sg74
(lp695
S"set(['/var/www/conferencia/applications/admin/', '/var/www/conferencia/applications/projeto/'])"
p696
asbasbasbag67
(g83
g69
NtRp697
(dp698
g72
(dp699
sg81
g671
sg74
(lp700
g67
(g88
g69
NtRp701
(dp702
g72
(dp703
g92
g93
ssg81
g697
sg74
(lp704
S'applications_parent'
p705
asbag67
(g88
g69
NtRp706
(dp707
g72
(dp708
g99
g100
ssg81
g697
sg74
(lp709
S':'
asbag67
(g88
g69
NtRp710
(dp711
g72
(dp712
sg81
g697
sg74
(lp713
g67
(g68
g69
NtRp714
(dp715
g72
(dp716
g80
I4
ssg81
g710
sg74
(lp717
S'/var/www/conferencia'
p718
asbasbasbag67
(g83
g69
NtRp719
(dp720
g72
(dp721
sg81
g671
sg74
(lp722
g67
(g88
g69
NtRp723
(dp724
g72
(dp725
g92
g93
ssg81
g719
sg74
(lp726
S'cmd_args'
p727
asbag67
(g88
g69
NtRp728
(dp729
g72
(dp730
g99
g100
ssg81
g719
sg74
(lp731
S':'
asbag67
(g88
g69
NtRp732
(dp733
g72
(dp734
sg81
g719
sg74
(lp735
g67
(g68
g69
NtRp736
(dp737
g72
(dp738
g80
I4
ssg81
g732
sg74
(lp739
g67
(g76
g69
NtRp740
(dp741
g72
(dp742
g80
I3
ssg81
Nsg74
(lp743
sbasbasbasbag67
(g83
g69
NtRp744
(dp745
g72
(dp746
sg81
g671
sg74
(lp747
g67
(g88
g69
NtRp748
(dp749
g72
(dp750
g92
g93
ssg81
g744
sg74
(lp751
S'cmd_options'
p752
asbag67
(g88
g69
NtRp753
(dp754
g72
(dp755
g99
g100
ssg81
g744
sg74
(lp756
S':'
asbag67
(g88
g69
NtRp757
(dp758
g72
(dp759
sg81
g744
sg74
(lp760
g67
(g68
g69
NtRp761
(dp762
g72
(dp763
g80
I4
ssg81
g757
sg74
(lp764
S"<Values at 0x1eda248: {'verbose': False, 'ip': '127.0.0.1', 'with_scheduler': False, 'ips': [], 'shutdown_timeout': 5, 'taskbar': False, 'port': 8000, 'maxthreads': None, 'softcron': False, 'server_name': 'fernando-workstation', 'bpython': False, 'nogui': False, 'pid_filename': 'httpserver.pid', 'extcron': False, 'runcron': False, 'run_system_tests': False, 'test': None, 'folder': '/var/www/conferencia', 'config': '', 'minthreads': None, 'winservice': '', 'shell': None, 'run': '', 'log_filename': 'httpserver.log', 'debuglevel': 30, 'args': [''], 'socket_timeout': 5, 'ssl_ca_certificate': None, 'scheduler': None, 'profiler_filename': None, 'ssl_private_key': '', 'scheduler_groups': None, 'password': '123456', 'request_queue_size': 5, 'ssl_certificate': '', 'cronjob': False, 'numthreads': None, 'quiet': False, 'interfaces': None, 'import_models': False, 'timeout': 10, 'plain': False, 'nobanner': False}>"
p765
asbasbasbag67
(g83
g69
NtRp766
(dp767
g72
(dp768
sg81
g671
sg74
(lp769
g67
(g88
g69
NtRp770
(dp771
g72
(dp772
g92
g93
ssg81
g766
sg74
(lp773
S'content_length'
p774
asbag67
(g88
g69
NtRp775
(dp776
g72
(dp777
g99
g100
ssg81
g766
sg74
(lp778
S':'
asbag67
(g88
g69
NtRp779
(dp780
g72
(dp781
sg81
g766
sg74
(lp782
g67
(g68
g69
NtRp783
(dp784
g72
(dp785
g80
I4
ssg81
g779
sg74
(lp786
S'710'
p787
asbasbasbag67
(g83
g69
NtRp788
(dp789
g72
(dp790
sg81
g671
sg74
(lp791
g67
(g88
g69
NtRp792
(dp793
g72
(dp794
g92
g93
ssg81
g788
sg74
(lp795
S'content_type'
p796
asbag67
(g88
g69
NtRp797
(dp798
g72
(dp799
g99
g100
ssg81
g788
sg74
(lp800
S':'
asbag67
(g88
g69
NtRp801
(dp802
g72
(dp803
sg81
g788
sg74
(lp804
g67
(g68
g69
NtRp805
(dp806
g72
(dp807
g80
I4
ssg81
g801
sg74
(lp808
S'multipart/form-data; boundary=----WebKitFormBoundaryVBXopx2xsD3NGS0m'
p809
asbasbasbag67
(g83
g69
NtRp810
(dp811
g72
(dp812
sg81
g671
sg74
(lp813
g67
(g88
g69
NtRp814
(dp815
g72
(dp816
g92
g93
ssg81
g810
sg74
(lp817
S'db_sessions'
p818
asbag67
(g88
g69
NtRp819
(dp820
g72
(dp821
g99
g100
ssg81
g810
sg74
(lp822
S':'
asbag67
(g88
g69
NtRp823
(dp824
g72
(dp825
sg81
g810
sg74
(lp826
g67
(g68
g69
NtRp827
(dp828
g72
(dp829
g80
I4
ssg81
g823
sg74
(lp830
S'set([])'
p831
asbasbasbag67
(g83
g69
NtRp832
(dp833
g72
(dp834
sg81
g671
sg74
(lp835
g67
(g88
g69
NtRp836
(dp837
g72
(dp838
g92
g93
ssg81
g832
sg74
(lp839
S'debugging'
p840
asbag67
(g88
g69
NtRp841
(dp842
g72
(dp843
g99
g100
ssg81
g832
sg74
(lp844
S':'
asbag67
(g88
g69
NtRp845
(dp846
g72
(dp847
sg81
g832
sg74
(lp848
g67
(g68
g69
NtRp849
(dp850
g72
(dp851
g80
I4
ssg81
g845
sg74
(lp852
g110
asbasbasbag67
(g83
g69
NtRp853
(dp854
g72
(dp855
sg81
g671
sg74
(lp856
g67
(g88
g69
NtRp857
(dp858
g72
(dp859
g92
g93
ssg81
g853
sg74
(lp860
S'gluon_parent'
p861
asbag67
(g88
g69
NtRp862
(dp863
g72
(dp864
g99
g100
ssg81
g853
sg74
(lp865
S':'
asbag67
(g88
g69
NtRp866
(dp867
g72
(dp868
sg81
g853
sg74
(lp869
g67
(g68
g69
NtRp870
(dp871
g72
(dp872
g80
I4
ssg81
g866
sg74
(lp873
S'/var/www/conferencia'
p874
asbasbasbag67
(g83
g69
NtRp875
(dp876
g72
(dp877
sg81
g671
sg74
(lp878
g67
(g88
g69
NtRp879
(dp880
g72
(dp881
g92
g93
ssg81
g875
sg74
(lp882
S'http_accept'
p883
asbag67
(g88
g69
NtRp884
(dp885
g72
(dp886
g99
g100
ssg81
g875
sg74
(lp887
S':'
asbag67
(g88
g69
NtRp888
(dp889
g72
(dp890
sg81
g875
sg74
(lp891
g67
(g68
g69
NtRp892
(dp893
g72
(dp894
g80
I4
ssg81
g888
sg74
(lp895
S'text/html,application/xhtml+xml,application/xml;q=0.9,*/*;q=0.8'
p896
asbasbasbag67
(g83
g69
NtRp897
(dp898
g72
(dp899
sg81
g671
sg74
(lp900
g67
(g88
g69
NtRp901
(dp902
g72
(dp903
g92
g93
ssg81
g897
sg74
(lp904
S'http_accept_charset'
p905
asbag67
(g88
g69
NtRp906
(dp907
g72
(dp908
g99
g100
ssg81
g897
sg74
(lp909
S':'
asbag67
(g88
g69
NtRp910
(dp911
g72
(dp912
sg81
g897
sg74
(lp913
g67
(g68
g69
NtRp914
(dp915
g72
(dp916
g80
I4
ssg81
g910
sg74
(lp917
S'ISO-8859-1,utf-8;q=0.7,*;q=0.3'
p918
asbasbasbag67
(g83
g69
NtRp919
(dp920
g72
(dp921
sg81
g671
sg74
(lp922
g67
(g88
g69
NtRp923
(dp924
g72
(dp925
g92
g93
ssg81
g919
sg74
(lp926
S'http_accept_encoding'
p927
asbag67
(g88
g69
NtRp928
(dp929
g72
(dp930
g99
g100
ssg81
g919
sg74
(lp931
S':'
asbag67
(g88
g69
NtRp932
(dp933
g72
(dp934
sg81
g919
sg74
(lp935
g67
(g68
g69
NtRp936
(dp937
g72
(dp938
g80
I4
ssg81
g932
sg74
(lp939
S'gzip,deflate,sdch'
p940
asbasbasbag67
(g83
g69
NtRp941
(dp942
g72
(dp943
sg81
g671
sg74
(lp944
g67
(g88
g69
NtRp945
(dp946
g72
(dp947
g92
g93
ssg81
g941
sg74
(lp948
S'http_accept_language'
p949
asbag67
(g88
g69
NtRp950
(dp951
g72
(dp952
g99
g100
ssg81
g941
sg74
(lp953
S':'
asbag67
(g88
g69
NtRp954
(dp955
g72
(dp956
sg81
g941
sg74
(lp957
g67
(g68
g69
NtRp958
(dp959
g72
(dp960
g80
I4
ssg81
g954
sg74
(lp961
S'pt-BR,pt;q=0.8,en-US;q=0.6,en;q=0.4'
p962
asbasbasbag67
(g83
g69
NtRp963
(dp964
g72
(dp965
sg81
g671
sg74
(lp966
g67
(g88
g69
NtRp967
(dp968
g72
(dp969
g92
g93
ssg81
g963
sg74
(lp970
S'http_cache_control'
p971
asbag67
(g88
g69
NtRp972
(dp973
g72
(dp974
g99
g100
ssg81
g963
sg74
(lp975
S':'
asbag67
(g88
g69
NtRp976
(dp977
g72
(dp978
sg81
g963
sg74
(lp979
g67
(g68
g69
NtRp980
(dp981
g72
(dp982
g80
I4
ssg81
g976
sg74
(lp983
S'max-age=0'
p984
asbasbasbag67
(g83
g69
NtRp985
(dp986
g72
(dp987
sg81
g671
sg74
(lp988
g67
(g88
g69
NtRp989
(dp990
g72
(dp991
g92
g93
ssg81
g985
sg74
(lp992
S'http_connection'
p993
asbag67
(g88
g69
NtRp994
(dp995
g72
(dp996
g99
g100
ssg81
g985
sg74
(lp997
S':'
asbag67
(g88
g69
NtRp998
(dp999
g72
(dp1000
sg81
g985
sg74
(lp1001
g67
(g68
g69
NtRp1002
(dp1003
g72
(dp1004
g80
I4
ssg81
g998
sg74
(lp1005
S'keep-alive'
p1006
asbasbasbag67
(g83
g69
NtRp1007
(dp1008
g72
(dp1009
sg81
g671
sg74
(lp1010
g67
(g88
g69
NtRp1011
(dp1012
g72
(dp1013
g92
g93
ssg81
g1007
sg74
(lp1014
S'http_content_length'
p1015
asbag67
(g88
g69
NtRp1016
(dp1017
g72
(dp1018
g99
g100
ssg81
g1007
sg74
(lp1019
S':'
asbag67
(g88
g69
NtRp1020
(dp1021
g72
(dp1022
sg81
g1007
sg74
(lp1023
g67
(g68
g69
NtRp1024
(dp1025
g72
(dp1026
g80
I4
ssg81
g1020
sg74
(lp1027
g787
asbasbasbag67
(g83
g69
NtRp1028
(dp1029
g72
(dp1030
sg81
g671
sg74
(lp1031
g67
(g88
g69
NtRp1032
(dp1033
g72
(dp1034
g92
g93
ssg81
g1028
sg74
(lp1035
S'http_content_type'
p1036
asbag67
(g88
g69
NtRp1037
(dp1038
g72
(dp1039
g99
g100
ssg81
g1028
sg74
(lp1040
S':'
asbag67
(g88
g69
NtRp1041
(dp1042
g72
(dp1043
sg81
g1028
sg74
(lp1044
g67
(g68
g69
NtRp1045
(dp1046
g72
(dp1047
g80
I4
ssg81
g1041
sg74
(lp1048
g809
asbasbasbag67
(g83
g69
NtRp1049
(dp1050
g72
(dp1051
sg81
g671
sg74
(lp1052
g67
(g88
g69
NtRp1053
(dp1054
g72
(dp1055
g92
g93
ssg81
g1049
sg74
(lp1056
S'http_cookie'
p1057
asbag67
(g88
g69
NtRp1058
(dp1059
g72
(dp1060
g99
g100
ssg81
g1049
sg74
(lp1061
S':'
asbag67
(g88
g69
NtRp1062
(dp1063
g72
(dp1064
sg81
g1049
sg74
(lp1065
g67
(g68
g69
NtRp1066
(dp1067
g72
(dp1068
g80
I4
ssg81
g1062
sg74
(lp1069
S'session_id_admin=127.0.0.1-2c683693-05a3-4f73-9979-341d9dd290ce; session_id_projeto=127.0.0.1-23958a81-b42b-49f4-a9e3-fd1b7fc6e898'
p1070
asbasbasbag67
(g83
g69
NtRp1071
(dp1072
g72
(dp1073
sg81
g671
sg74
(lp1074
g67
(g88
g69
NtRp1075
(dp1076
g72
(dp1077
g92
g93
ssg81
g1071
sg74
(lp1078
S'http_host'
p1079
asbag67
(g88
g69
NtRp1080
(dp1081
g72
(dp1082
g99
g100
ssg81
g1071
sg74
(lp1083
S':'
asbag67
(g88
g69
NtRp1084
(dp1085
g72
(dp1086
sg81
g1071
sg74
(lp1087
g67
(g68
g69
NtRp1088
(dp1089
g72
(dp1090
g80
I4
ssg81
g1084
sg74
(lp1091
S'127.0.0.1:8000'
p1092
asbasbasbag67
(g83
g69
NtRp1093
(dp1094
g72
(dp1095
sg81
g671
sg74
(lp1096
g67
(g88
g69
NtRp1097
(dp1098
g72
(dp1099
g92
g93
ssg81
g1093
sg74
(lp1100
S'http_origin'
p1101
asbag67
(g88
g69
NtRp1102
(dp1103
g72
(dp1104
g99
g100
ssg81
g1093
sg74
(lp1105
S':'
asbag67
(g88
g69
NtRp1106
(dp1107
g72
(dp1108
sg81
g1093
sg74
(lp1109
g67
(g68
g69
NtRp1110
(dp1111
g72
(dp1112
g80
I4
ssg81
g1106
sg74
(lp1113
S'http://127.0.0.1:8000'
p1114
asbasbasbag67
(g83
g69
NtRp1115
(dp1116
g72
(dp1117
sg81
g671
sg74
(lp1118
g67
(g88
g69
NtRp1119
(dp1120
g72
(dp1121
g92
g93
ssg81
g1115
sg74
(lp1122
S'http_referer'
p1123
asbag67
(g88
g69
NtRp1124
(dp1125
g72
(dp1126
g99
g100
ssg81
g1115
sg74
(lp1127
S':'
asbag67
(g88
g69
NtRp1128
(dp1129
g72
(dp1130
sg81
g1115
sg74
(lp1131
g67
(g68
g69
NtRp1132
(dp1133
g72
(dp1134
g80
I4
ssg81
g1128
sg74
(lp1135
S'http://127.0.0.1:8000/interface'
p1136
asbasbasbag67
(g83
g69
NtRp1137
(dp1138
g72
(dp1139
sg81
g671
sg74
(lp1140
g67
(g88
g69
NtRp1141
(dp1142
g72
(dp1143
g92
g93
ssg81
g1137
sg74
(lp1144
S'http_user_agent'
p1145
asbag67
(g88
g69
NtRp1146
(dp1147
g72
(dp1148
g99
g100
ssg81
g1137
sg74
(lp1149
S':'
asbag67
(g88
g69
NtRp1150
(dp1151
g72
(dp1152
sg81
g1137
sg74
(lp1153
g67
(g68
g69
NtRp1154
(dp1155
g72
(dp1156
g80
I4
ssg81
g1150
sg74
(lp1157
S'Mozilla/5.0 (X11; Linux x86_64) AppleWebKit/537.4 (KHTML, like Gecko) Ubuntu/12.10 Chromium/22.0.1229.94 Chrome/22.0.1229.94 Safari/537.4'
p1158
asbasbasbag67
(g83
g69
NtRp1159
(dp1160
g72
(dp1161
sg81
g671
sg74
(lp1162
g67
(g88
g69
NtRp1163
(dp1164
g72
(dp1165
g92
g93
ssg81
g1159
sg74
(lp1166
S'is_jython'
p1167
asbag67
(g88
g69
NtRp1168
(dp1169
g72
(dp1170
g99
g100
ssg81
g1159
sg74
(lp1171
S':'
asbag67
(g88
g69
NtRp1172
(dp1173
g72
(dp1174
sg81
g1159
sg74
(lp1175
g67
(g68
g69
NtRp1176
(dp1177
g72
(dp1178
g80
I4
ssg81
g1172
sg74
(lp1179
g110
asbasbasbag67
(g83
g69
NtRp1180
(dp1181
g72
(dp1182
sg81
g671
sg74
(lp1183
g67
(g88
g69
NtRp1184
(dp1185
g72
(dp1186
g92
g93
ssg81
g1180
sg74
(lp1187
S'is_pypy'
p1188
asbag67
(g88
g69
NtRp1189
(dp1190
g72
(dp1191
g99
g100
ssg81
g1180
sg74
(lp1192
S':'
asbag67
(g88
g69
NtRp1193
(dp1194
g72
(dp1195
sg81
g1180
sg74
(lp1196
g67
(g68
g69
NtRp1197
(dp1198
g72
(dp1199
g80
I4
ssg81
g1193
sg74
(lp1200
g110
asbasbasbag67
(g83
g69
NtRp1201
(dp1202
g72
(dp1203
sg81
g671
sg74
(lp1204
g67
(g88
g69
NtRp1205
(dp1206
g72
(dp1207
g92
g93
ssg81
g1201
sg74
(lp1208
S'local_hosts'
p1209
asbag67
(g88
g69
NtRp1210
(dp1211
g72
(dp1212
g99
g100
ssg81
g1201
sg74
(lp1213
S':'
asbag67
(g88
g69
NtRp1214
(dp1215
g72
(dp1216
sg81
g1201
sg74
(lp1217
g67
(g68
g69
NtRp1218
(dp1219
g72
(dp1220
g80
I4
ssg81
g1214
sg74
(lp1221
g67
(g76
g69
NtRp1222
(dp1223
g72
(dp1224
g80
I3
ssg81
Nsg74
(lp1225
g67
(g83
g69
NtRp1226
(dp1227
g72
(dp1228
sg81
g1222
sg74
(lp1229
g67
(g88
g69
NtRp1230
(dp1231
g72
(dp1232
sg81
g1226
sg74
(lp1233
g67
(g68
g69
NtRp1234
(dp1235
g72
(dp1236
g80
I3
ssg81
g1230
sg74
(lp1237
S'::1'
p1238
asbasbasbag67
(g83
g69
NtRp1239
(dp1240
g72
(dp1241
sg81
g1222
sg74
(lp1242
g67
(g88
g69
NtRp1243
(dp1244
g72
(dp1245
sg81
g1239
sg74
(lp1246
g67
(g68
g69
NtRp1247
(dp1248
g72
(dp1249
g80
I3
ssg81
g1243
sg74
(lp1250
S'::ffff:127.0.0.1'
p1251
asbasbasbag67
(g83
g69
NtRp1252
(dp1253
g72
(dp1254
sg81
g1222
sg74
(lp1255
g67
(g88
g69
NtRp1256
(dp1257
g72
(dp1258
sg81
g1252
sg74
(lp1259
g67
(g68
g69
NtRp1260
(dp1261
g72
(dp1262
g80
I3
ssg81
g1256
sg74
(lp1263
S'127.0.0.1'
p1264
asbasbasbag67
(g83
g69
NtRp1265
(dp1266
g72
(dp1267
sg81
g1222
sg74
(lp1268
g67
(g88
g69
NtRp1269
(dp1270
g72
(dp1271
sg81
g1265
sg74
(lp1272
g67
(g68
g69
NtRp1273
(dp1274
g72
(dp1275
g80
I3
ssg81
g1269
sg74
(lp1276
S'fernando-workstation'
p1277
asbasbasbasbasbasbasbag67
(g83
g69
NtRp1278
(dp1279
g72
(dp1280
sg81
g671
sg74
(lp1281
g67
(g88
g69
NtRp1282
(dp1283
g72
(dp1284
g92
g93
ssg81
g1278
sg74
(lp1285
S'path_info'
p1286
asbag67
(g88
g69
NtRp1287
(dp1288
g72
(dp1289
g99
g100
ssg81
g1278
sg74
(lp1290
S':'
asbag67
(g88
g69
NtRp1291
(dp1292
g72
(dp1293
sg81
g1278
sg74
(lp1294
g67
(g68
g69
NtRp1295
(dp1296
g72
(dp1297
g80
I4
ssg81
g1291
sg74
(lp1298
S'/interface'
p1299
asbasbasbag67
(g83
g69
NtRp1300
(dp1301
g72
(dp1302
sg81
g671
sg74
(lp1303
g67
(g88
g69
NtRp1304
(dp1305
g72
(dp1306
g92
g93
ssg81
g1300
sg74
(lp1307
S'query_string'
p1308
asbag67
(g88
g69
NtRp1309
(dp1310
g72
(dp1311
g99
g100
ssg81
g1300
sg74
(lp1312
S':'
asbag67
(g88
g69
NtRp1313
(dp1314
g72
(dp1315
sg81
g1300
sg74
(lp1316
g67
(g68
g69
NtRp1317
(dp1318
g72
(dp1319
g80
I4
ssg81
g1313
sg74
(lp1320
S''
asbasbasbag67
(g83
g69
NtRp1321
(dp1322
g72
(dp1323
sg81
g671
sg74
(lp1324
g67
(g88
g69
NtRp1325
(dp1326
g72
(dp1327
g92
g93
ssg81
g1321
sg74
(lp1328
S'remote_addr'
p1329
asbag67
(g88
g69
NtRp1330
(dp1331
g72
(dp1332
g99
g100
ssg81
g1321
sg74
(lp1333
S':'
asbag67
(g88
g69
NtRp1334
(dp1335
g72
(dp1336
sg81
g1321
sg74
(lp1337
g67
(g68
g69
NtRp1338
(dp1339
g72
(dp1340
g80
I4
ssg81
g1334
sg74
(lp1341
g222
asbasbasbag67
(g83
g69
NtRp1342
(dp1343
g72
(dp1344
sg81
g671
sg74
(lp1345
g67
(g88
g69
NtRp1346
(dp1347
g72
(dp1348
g92
g93
ssg81
g1342
sg74
(lp1349
S'remote_port'
p1350
asbag67
(g88
g69
NtRp1351
(dp1352
g72
(dp1353
g99
g100
ssg81
g1342
sg74
(lp1354
S':'
asbag67
(g88
g69
NtRp1355
(dp1356
g72
(dp1357
sg81
g1342
sg74
(lp1358
g67
(g68
g69
NtRp1359
(dp1360
g72
(dp1361
g80
I4
ssg81
g1355
sg74
(lp1362
S'52634'
p1363
asbasbasbag67
(g83
g69
NtRp1364
(dp1365
g72
(dp1366
sg81
g671
sg74
(lp1367
g67
(g88
g69
NtRp1368
(dp1369
g72
(dp1370
g92
g93
ssg81
g1364
sg74
(lp1371
S'request_method'
p1372
asbag67
(g88
g69
NtRp1373
(dp1374
g72
(dp1375
g99
g100
ssg81
g1364
sg74
(lp1376
S':'
asbag67
(g88
g69
NtRp1377
(dp1378
g72
(dp1379
sg81
g1364
sg74
(lp1380
g67
(g68
g69
NtRp1381
(dp1382
g72
(dp1383
g80
I4
ssg81
g1377
sg74
(lp1384
S'POST'
p1385
asbasbasbag67
(g83
g69
NtRp1386
(dp1387
g72
(dp1388
sg81
g671
sg74
(lp1389
g67
(g88
g69
NtRp1390
(dp1391
g72
(dp1392
g92
g93
ssg81
g1386
sg74
(lp1393
S'request_uri'
p1394
asbag67
(g88
g69
NtRp1395
(dp1396
g72
(dp1397
g99
g100
ssg81
g1386
sg74
(lp1398
S':'
asbag67
(g88
g69
NtRp1399
(dp1400
g72
(dp1401
sg81
g1386
sg74
(lp1402
g67
(g68
g69
NtRp1403
(dp1404
g72
(dp1405
g80
I4
ssg81
g1399
sg74
(lp1406
S'/projeto/initial/interface'
p1407
asbasbasbag67
(g83
g69
NtRp1408
(dp1409
g72
(dp1410
sg81
g671
sg74
(lp1411
g67
(g88
g69
NtRp1412
(dp1413
g72
(dp1414
g92
g93
ssg81
g1408
sg74
(lp1415
S'script_name'
p1416
asbag67
(g88
g69
NtRp1417
(dp1418
g72
(dp1419
g99
g100
ssg81
g1408
sg74
(lp1420
S':'
asbag67
(g88
g69
NtRp1421
(dp1422
g72
(dp1423
sg81
g1408
sg74
(lp1424
g67
(g68
g69
NtRp1425
(dp1426
g72
(dp1427
g80
I4
ssg81
g1421
sg74
(lp1428
S''
asbasbasbag67
(g83
g69
NtRp1429
(dp1430
g72
(dp1431
sg81
g671
sg74
(lp1432
g67
(g88
g69
NtRp1433
(dp1434
g72
(dp1435
g92
g93
ssg81
g1429
sg74
(lp1436
S'server_name'
p1437
asbag67
(g88
g69
NtRp1438
(dp1439
g72
(dp1440
g99
g100
ssg81
g1429
sg74
(lp1441
S':'
asbag67
(g88
g69
NtRp1442
(dp1443
g72
(dp1444
sg81
g1429
sg74
(lp1445
g67
(g68
g69
NtRp1446
(dp1447
g72
(dp1448
g80
I4
ssg81
g1442
sg74
(lp1449
S'fernando-workstation'
p1450
asbasbasbag67
(g83
g69
NtRp1451
(dp1452
g72
(dp1453
sg81
g671
sg74
(lp1454
g67
(g88
g69
NtRp1455
(dp1456
g72
(dp1457
g92
g93
ssg81
g1451
sg74
(lp1458
S'server_port'
p1459
asbag67
(g88
g69
NtRp1460
(dp1461
g72
(dp1462
g99
g100
ssg81
g1451
sg74
(lp1463
S':'
asbag67
(g88
g69
NtRp1464
(dp1465
g72
(dp1466
sg81
g1451
sg74
(lp1467
g67
(g68
g69
NtRp1468
(dp1469
g72
(dp1470
g80
I4
ssg81
g1464
sg74
(lp1471
S'8000'
p1472
asbasbasbag67
(g83
g69
NtRp1473
(dp1474
g72
(dp1475
sg81
g671
sg74
(lp1476
g67
(g88
g69
NtRp1477
(dp1478
g72
(dp1479
g92
g93
ssg81
g1473
sg74
(lp1480
S'server_protocol'
p1481
asbag67
(g88
g69
NtRp1482
(dp1483
g72
(dp1484
g99
g100
ssg81
g1473
sg74
(lp1485
S':'
asbag67
(g88
g69
NtRp1486
(dp1487
g72
(dp1488
sg81
g1473
sg74
(lp1489
g67
(g68
g69
NtRp1490
(dp1491
g72
(dp1492
g80
I4
ssg81
g1486
sg74
(lp1493
S'HTTP/1.1'
p1494
asbasbasbag67
(g83
g69
NtRp1495
(dp1496
g72
(dp1497
sg81
g671
sg74
(lp1498
g67
(g88
g69
NtRp1499
(dp1500
g72
(dp1501
g92
g93
ssg81
g1495
sg74
(lp1502
S'server_software'
p1503
asbag67
(g88
g69
NtRp1504
(dp1505
g72
(dp1506
g99
g100
ssg81
g1495
sg74
(lp1507
S':'
asbag67
(g88
g69
NtRp1508
(dp1509
g72
(dp1510
sg81
g1495
sg74
(lp1511
g67
(g68
g69
NtRp1512
(dp1513
g72
(dp1514
g80
I4
ssg81
g1508
sg74
(lp1515
S'Rocket 1.2.6'
p1516
asbasbasbag67
(g83
g69
NtRp1517
(dp1518
g72
(dp1519
sg81
g671
sg74
(lp1520
g67
(g88
g69
NtRp1521
(dp1522
g72
(dp1523
g92
g93
ssg81
g1517
sg74
(lp1524
S'web2py_original_uri'
p1525
asbag67
(g88
g69
NtRp1526
(dp1527
g72
(dp1528
g99
g100
ssg81
g1517
sg74
(lp1529
S':'
asbag67
(g88
g69
NtRp1530
(dp1531
g72
(dp1532
sg81
g1517
sg74
(lp1533
g67
(g68
g69
NtRp1534
(dp1535
g72
(dp1536
g80
I4
ssg81
g1530
sg74
(lp1537
g1299
asbasbasbag67
(g83
g69
NtRp1538
(dp1539
g72
(dp1540
sg81
g671
sg74
(lp1541
g67
(g88
g69
NtRp1542
(dp1543
g72
(dp1544
g92
g93
ssg81
g1538
sg74
(lp1545
S'web2py_path'
p1546
asbag67
(g88
g69
NtRp1547
(dp1548
g72
(dp1549
g99
g100
ssg81
g1538
sg74
(lp1550
S':'
asbag67
(g88
g69
NtRp1551
(dp1552
g72
(dp1553
sg81
g1538
sg74
(lp1554
g67
(g68
g69
NtRp1555
(dp1556
g72
(dp1557
g80
I4
ssg81
g1551
sg74
(lp1558
g718
asbasbasbag67
(g83
g69
NtRp1559
(dp1560
g72
(dp1561
sg81
g671
sg74
(lp1562
g67
(g88
g69
NtRp1563
(dp1564
g72
(dp1565
g92
g93
ssg81
g1559
sg74
(lp1566
S'web2py_version'
p1567
asbag67
(g88
g69
NtRp1568
(dp1569
g72
(dp1570
g99
g100
ssg81
g1559
sg74
(lp1571
S':'
asbag67
(g88
g69
NtRp1572
(dp1573
g72
(dp1574
sg81
g1559
sg74
(lp1575
g67
(g68
g69
NtRp1576
(dp1577
g72
(dp1578
g80
I4
ssg81
g1572
sg74
(lp1579
g67
(g76
g69
NtRp1580
(dp1581
g72
(dp1582
g80
I3
ssg81
Nsg74
(lp1583
g67
(g83
g69
NtRp1584
(dp1585
g72
(dp1586
sg81
g1580
sg74
(lp1587
g67
(g88
g69
NtRp1588
(dp1589
g72
(dp1590
sg81
g1584
sg74
(lp1591
g67
(g68
g69
NtRp1592
(dp1593
g72
(dp1594
g80
I3
ssg81
g1588
sg74
(lp1595
S'2'
asbasbasbag67
(g83
g69
NtRp1596
(dp1597
g72
(dp1598
sg81
g1580
sg74
(lp1599
g67
(g88
g69
NtRp1600
(dp1601
g72
(dp1602
sg81
g1596
sg74
(lp1603
g67
(g68
g69
NtRp1604
(dp1605
g72
(dp1606
g80
I3
ssg81
g1600
sg74
(lp1607
S'3'
asbasbasbag67
(g83
g69
NtRp1608
(dp1609
g72
(dp1610
sg81
g1580
sg74
(lp1611
g67
(g88
g69
NtRp1612
(dp1613
g72
(dp1614
sg81
g1608
sg74
(lp1615
g67
(g68
g69
NtRp1616
(dp1617
g72
(dp1618
g80
I3
ssg81
g1612
sg74
(lp1619
S'2'
asbasbasbag67
(g83
g69
NtRp1620
(dp1621
g72
(dp1622
sg81
g1580
sg74
(lp1623
g67
(g88
g69
NtRp1624
(dp1625
g72
(dp1626
sg81
g1620
sg74
(lp1627
g67
(g68
g69
NtRp1628
(dp1629
g72
(dp1630
g80
I3
ssg81
g1624
sg74
(lp1631
S'datetime.datetime(2012, 12, 17, 15, 3, 30)'
p1632
asbasbasbag67
(g83
g69
NtRp1633
(dp1634
g72
(dp1635
sg81
g1580
sg74
(lp1636
g67
(g88
g69
NtRp1637
(dp1638
g72
(dp1639
sg81
g1633
sg74
(lp1640
g67
(g68
g69
NtRp1641
(dp1642
g72
(dp1643
g80
I3
ssg81
g1637
sg74
(lp1644
S'stable'
p1645
asbasbasbasbasbasbasbag67
(g83
g69
NtRp1646
(dp1647
g72
(dp1648
sg81
g671
sg74
(lp1649
g67
(g88
g69
NtRp1650
(dp1651
g72
(dp1652
g92
g93
ssg81
g1646
sg74
(lp1653
S'wsgi_errors'
p1654
asbag67
(g88
g69
NtRp1655
(dp1656
g72
(dp1657
g99
g100
ssg81
g1646
sg74
(lp1658
S':'
asbag67
(g88
g69
NtRp1659
(dp1660
g72
(dp1661
sg81
g1646
sg74
(lp1662
g67
(g68
g69
NtRp1663
(dp1664
g72
(dp1665
g80
I4
ssg81
g1659
sg74
(lp1666
S"<open file '<stderr>', mode 'w' at 0x7fe97984e270>"
p1667
asbasbasbag67
(g83
g69
NtRp1668
(dp1669
g72
(dp1670
sg81
g671
sg74
(lp1671
g67
(g88
g69
NtRp1672
(dp1673
g72
(dp1674
g92
g93
ssg81
g1668
sg74
(lp1675
S'wsgi_file_wrapper'
p1676
asbag67
(g88
g69
NtRp1677
(dp1678
g72
(dp1679
g99
g100
ssg81
g1668
sg74
(lp1680
S':'
asbag67
(g88
g69
NtRp1681
(dp1682
g72
(dp1683
sg81
g1668
sg74
(lp1684
g67
(g68
g69
NtRp1685
(dp1686
g72
(dp1687
g80
I4
ssg81
g1681
sg74
(lp1688
S'<class wsgiref.util.FileWrapper at 0x1e52530>'
p1689
asbasbasbag67
(g83
g69
NtRp1690
(dp1691
g72
(dp1692
sg81
g671
sg74
(lp1693
g67
(g88
g69
NtRp1694
(dp1695
g72
(dp1696
g92
g93
ssg81
g1690
sg74
(lp1697
S'wsgi_input'
p1698
asbag67
(g88
g69
NtRp1699
(dp1700
g72
(dp1701
g99
g100
ssg81
g1690
sg74
(lp1702
S':'
asbag67
(g88
g69
NtRp1703
(dp1704
g72
(dp1705
sg81
g1690
sg74
(lp1706
g67
(g68
g69
NtRp1707
(dp1708
g72
(dp1709
g80
I4
ssg81
g1703
sg74
(lp1710
S'<socket._fileobject object at 0x7fe958ef57d0>'
p1711
asbasbasbag67
(g83
g69
NtRp1712
(dp1713
g72
(dp1714
sg81
g671
sg74
(lp1715
g67
(g88
g69
NtRp1716
(dp1717
g72
(dp1718
g92
g93
ssg81
g1712
sg74
(lp1719
S'wsgi_multiprocess'
p1720
asbag67
(g88
g69
NtRp1721
(dp1722
g72
(dp1723
g99
g100
ssg81
g1712
sg74
(lp1724
S':'
asbag67
(g88
g69
NtRp1725
(dp1726
g72
(dp1727
sg81
g1712
sg74
(lp1728
g67
(g68
g69
NtRp1729
(dp1730
g72
(dp1731
g80
I4
ssg81
g1725
sg74
(lp1732
g110
asbasbasbag67
(g83
g69
NtRp1733
(dp1734
g72
(dp1735
sg81
g671
sg74
(lp1736
g67
(g88
g69
NtRp1737
(dp1738
g72
(dp1739
g92
g93
ssg81
g1733
sg74
(lp1740
S'wsgi_multithread'
p1741
asbag67
(g88
g69
NtRp1742
(dp1743
g72
(dp1744
g99
g100
ssg81
g1733
sg74
(lp1745
S':'
asbag67
(g88
g69
NtRp1746
(dp1747
g72
(dp1748
sg81
g1733
sg74
(lp1749
g67
(g68
g69
NtRp1750
(dp1751
g72
(dp1752
g80
I4
ssg81
g1746
sg74
(lp1753
S'True'
p1754
asbasbasbag67
(g83
g69
NtRp1755
(dp1756
g72
(dp1757
sg81
g671
sg74
(lp1758
g67
(g88
g69
NtRp1759
(dp1760
g72
(dp1761
g92
g93
ssg81
g1755
sg74
(lp1762
S'wsgi_run_once'
p1763
asbag67
(g88
g69
NtRp1764
(dp1765
g72
(dp1766
g99
g100
ssg81
g1755
sg74
(lp1767
S':'
asbag67
(g88
g69
NtRp1768
(dp1769
g72
(dp1770
sg81
g1755
sg74
(lp1771
g67
(g68
g69
NtRp1772
(dp1773
g72
(dp1774
g80
I4
ssg81
g1768
sg74
(lp1775
g110
asbasbasbag67
(g83
g69
NtRp1776
(dp1777
g72
(dp1778
sg81
g671
sg74
(lp1779
g67
(g88
g69
NtRp1780
(dp1781
g72
(dp1782
g92
g93
ssg81
g1776
sg74
(lp1783
S'wsgi_url_scheme'
p1784
asbag67
(g88
g69
NtRp1785
(dp1786
g72
(dp1787
g99
g100
ssg81
g1776
sg74
(lp1788
S':'
asbag67
(g88
g69
NtRp1789
(dp1790
g72
(dp1791
sg81
g1776
sg74
(lp1792
g67
(g68
g69
NtRp1793
(dp1794
g72
(dp1795
g80
I4
ssg81
g1789
sg74
(lp1796
S'http'
p1797
asbasbasbag67
(g83
g69
NtRp1798
(dp1799
g72
(dp1800
sg81
g671
sg74
(lp1801
g67
(g88
g69
NtRp1802
(dp1803
g72
(dp1804
g92
g93
ssg81
g1798
sg74
(lp1805
S'wsgi_version'
p1806
asbag67
(g88
g69
NtRp1807
(dp1808
g72
(dp1809
g99
g100
ssg81
g1798
sg74
(lp1810
S':'
asbag67
(g88
g69
NtRp1811
(dp1812
g72
(dp1813
sg81
g1798
sg74
(lp1814
g67
(g68
g69
NtRp1815
(dp1816
g72
(dp1817
g80
I4
ssg81
g1811
sg74
(lp1818
g67
(g76
g69
NtRp1819
(dp1820
g72
(dp1821
g80
I3
ssg81
Nsg74
(lp1822
g67
(g83
g69
NtRp1823
(dp1824
g72
(dp1825
sg81
g1819
sg74
(lp1826
g67
(g88
g69
NtRp1827
(dp1828
g72
(dp1829
sg81
g1823
sg74
(lp1830
g67
(g68
g69
NtRp1831
(dp1832
g72
(dp1833
g80
I3
ssg81
g1827
sg74
(lp1834
S'1'
asbasbasbag67
(g83
g69
NtRp1835
(dp1836
g72
(dp1837
sg81
g1819
sg74
(lp1838
g67
(g88
g69
NtRp1839
(dp1840
g72
(dp1841
sg81
g1835
sg74
(lp1842
g67
(g68
g69
NtRp1843
(dp1844
g72
(dp1845
g80
I3
ssg81
g1839
sg74
(lp1846
S'0'
asbasbasbasbasbasbasbasbasbasbasbag67
(g83
g69
NtRp1847
(dp1848
g72
(dp1849
sg81
g77
sg74
(lp1850
g67
(g88
g69
NtRp1851
(dp1852
g72
(dp1853
g92
g93
ssg81
g1847
sg74
(lp1854
S'extension'
p1855
asbag67
(g88
g69
NtRp1856
(dp1857
g72
(dp1858
g99
g100
ssg81
g1847
sg74
(lp1859
S':'
asbag67
(g88
g69
NtRp1860
(dp1861
g72
(dp1862
sg81
g1847
sg74
(lp1863
g67
(g68
g69
NtRp1864
(dp1865
g72
(dp1866
g80
I5
ssg81
g1860
sg74
(lp1867
S'html'
p1868
asbasbasbag67
(g83
g69
NtRp1869
(dp1870
g72
(dp1871
sg81
g77
sg74
(lp1872
g67
(g88
g69
NtRp1873
(dp1874
g72
(dp1875
g92
g93
ssg81
g1869
sg74
(lp1876
S'folder'
p1877
asbag67
(g88
g69
NtRp1878
(dp1879
g72
(dp1880
g99
g100
ssg81
g1869
sg74
(lp1881
S':'
asbag67
(g88
g69
NtRp1882
(dp1883
g72
(dp1884
sg81
g1869
sg74
(lp1885
g67
(g68
g69
NtRp1886
(dp1887
g72
(dp1888
g80
I5
ssg81
g1882
sg74
(lp1889
S'/var/www/conferencia/applications/projeto/'
p1890
asbasbasbag67
(g83
g69
NtRp1891
(dp1892
g72
(dp1893
sg81
g77
sg74
(lp1894
g67
(g88
g69
NtRp1895
(dp1896
g72
(dp1897
g92
g93
ssg81
g1891
sg74
(lp1898
S'function'
p1899
asbag67
(g88
g69
NtRp1900
(dp1901
g72
(dp1902
g99
g100
ssg81
g1891
sg74
(lp1903
S':'
asbag67
(g88
g69
NtRp1904
(dp1905
g72
(dp1906
sg81
g1891
sg74
(lp1907
g67
(g68
g69
NtRp1908
(dp1909
g72
(dp1910
g80
I5
ssg81
g1904
sg74
(lp1911
S'interface'
p1912
asbasbasbag67
(g83
g69
NtRp1913
(dp1914
g72
(dp1915
sg81
g77
sg74
(lp1916
g67
(g88
g69
NtRp1917
(dp1918
g72
(dp1919
g92
g93
ssg81
g1913
sg74
(lp1920
S'get_vars'
p1921
asbag67
(g88
g69
NtRp1922
(dp1923
g72
(dp1924
g99
g100
ssg81
g1913
sg74
(lp1925
S':'
asbag67
(g88
g69
NtRp1926
(dp1927
g72
(dp1928
sg81
g1913
sg74
(lp1929
g67
(g68
g69
NtRp1930
(dp1931
g72
(dp1932
g80
I5
ssg81
g1926
sg74
(lp1933
g67
(g76
g69
NtRp1934
(dp1935
g72
(dp1936
g80
I4
ssg81
Nsg74
(lp1937
sbasbasbasbag67
(g83
g69
NtRp1938
(dp1939
g72
(dp1940
sg81
g77
sg74
(lp1941
g67
(g88
g69
NtRp1942
(dp1943
g72
(dp1944
g92
g93
ssg81
g1938
sg74
(lp1945
S'global_settings'
p1946
asbag67
(g88
g69
NtRp1947
(dp1948
g72
(dp1949
g99
g100
ssg81
g1938
sg74
(lp1950
S':'
asbag67
(g88
g69
NtRp1951
(dp1952
g72
(dp1953
sg81
g1938
sg74
(lp1954
g67
(g68
g69
NtRp1955
(dp1956
g72
(dp1957
g80
I5
ssg81
g1951
sg74
(lp1958
g67
(g76
g69
NtRp1959
(dp1960
g72
(dp1961
g80
I4
ssg81
Nsg74
(lp1962
g67
(g83
g69
NtRp1963
(dp1964
g72
(dp1965
sg81
g1959
sg74
(lp1966
g67
(g88
g69
NtRp1967
(dp1968
g72
(dp1969
g92
g93
ssg81
g1963
sg74
(lp1970
g683
asbag67
(g88
g69
NtRp1971
(dp1972
g72
(dp1973
g99
g100
ssg81
g1963
sg74
(lp1974
S':'
asbag67
(g88
g69
NtRp1975
(dp1976
g72
(dp1977
sg81
g1963
sg74
(lp1978
g67
(g68
g69
NtRp1979
(dp1980
g72
(dp1981
g80
I4
ssg81
g1975
sg74
(lp1982
S"set(['/var/www/conferencia/applications/admin/', '/var/www/conferencia/applications/projeto/'])"
p1983
asbasbasbag67
(g83
g69
NtRp1984
(dp1985
g72
(dp1986
sg81
g1959
sg74
(lp1987
g67
(g88
g69
NtRp1988
(dp1989
g72
(dp1990
g92
g93
ssg81
g1984
sg74
(lp1991
g705
asbag67
(g88
g69
NtRp1992
(dp1993
g72
(dp1994
g99
g100
ssg81
g1984
sg74
(lp1995
S':'
asbag67
(g88
g69
NtRp1996
(dp1997
g72
(dp1998
sg81
g1984
sg74
(lp1999
g67
(g68
g69
NtRp2000
(dp2001
g72
(dp2002
g80
I4
ssg81
g1996
sg74
(lp2003
g718
asbasbasbag67
(g83
g69
NtRp2004
(dp2005
g72
(dp2006
sg81
g1959
sg74
(lp2007
g67
(g88
g69
NtRp2008
(dp2009
g72
(dp2010
g92
g93
ssg81
g2004
sg74
(lp2011
g727
asbag67
(g88
g69
NtRp2012
(dp2013
g72
(dp2014
g99
g100
ssg81
g2004
sg74
(lp2015
S':'
asbag67
(g88
g69
NtRp2016
(dp2017
g72
(dp2018
sg81
g2004
sg74
(lp2019
g67
(g68
g69
NtRp2020
(dp2021
g72
(dp2022
g80
I4
ssg81
g2016
sg74
(lp2023
g67
(g76
g69
NtRp2024
(dp2025
g72
(dp2026
g80
I3
ssg81
Nsg74
(lp2027
sbasbasbasbag67
(g83
g69
NtRp2028
(dp2029
g72
(dp2030
sg81
g1959
sg74
(lp2031
g67
(g88
g69
NtRp2032
(dp2033
g72
(dp2034
g92
g93
ssg81
g2028
sg74
(lp2035
g752
asbag67
(g88
g69
NtRp2036
(dp2037
g72
(dp2038
g99
g100
ssg81
g2028
sg74
(lp2039
S':'
asbag67
(g88
g69
NtRp2040
(dp2041
g72
(dp2042
sg81
g2028
sg74
(lp2043
g67
(g68
g69
NtRp2044
(dp2045
g72
(dp2046
g80
I4
ssg81
g2040
sg74
(lp2047
S"<Values at 0x1eda248: {'verbose': False, 'ip': '127.0.0.1', 'with_scheduler': False, 'ips': [], 'shutdown_timeout': 5, 'taskbar': False, 'port': 8000, 'maxthreads': None, 'softcron': False, 'server_name': 'fernando-workstation', 'bpython': False, 'nogui': False, 'pid_filename': 'httpserver.pid', 'extcron': False, 'runcron': False, 'run_system_tests': False, 'test': None, 'folder': '/var/www/conferencia', 'config': '', 'minthreads': None, 'winservice': '', 'shell': None, 'run': '', 'log_filename': 'httpserver.log', 'debuglevel': 30, 'args': [''], 'socket_timeout': 5, 'ssl_ca_certificate': None, 'scheduler': None, 'profiler_filename': None, 'ssl_private_key': '', 'scheduler_groups': None, 'password': '123456', 'request_queue_size': 5, 'ssl_certificate': '', 'cronjob': False, 'numthreads': None, 'quiet': False, 'interfaces': None, 'import_models': False, 'timeout': 10, 'plain': False, 'nobanner': False}>"
p2048
asbasbasbag67
(g83
g69
NtRp2049
(dp2050
g72
(dp2051
sg81
g1959
sg74
(lp2052
g67
(g88
g69
NtRp2053
(dp2054
g72
(dp2055
g92
g93
ssg81
g2049
sg74
(lp2056
g818
asbag67
(g88
g69
NtRp2057
(dp2058
g72
(dp2059
g99
g100
ssg81
g2049
sg74
(lp2060
S':'
asbag67
(g88
g69
NtRp2061
(dp2062
g72
(dp2063
sg81
g2049
sg74
(lp2064
g67
(g68
g69
NtRp2065
(dp2066
g72
(dp2067
g80
I4
ssg81
g2061
sg74
(lp2068
S'set([])'
p2069
asbasbasbag67
(g83
g69
NtRp2070
(dp2071
g72
(dp2072
sg81
g1959
sg74
(lp2073
g67
(g88
g69
NtRp2074
(dp2075
g72
(dp2076
g92
g93
ssg81
g2070
sg74
(lp2077
g840
asbag67
(g88
g69
NtRp2078
(dp2079
g72
(dp2080
g99
g100
ssg81
g2070
sg74
(lp2081
S':'
asbag67
(g88
g69
NtRp2082
(dp2083
g72
(dp2084
sg81
g2070
sg74
(lp2085
g67
(g68
g69
NtRp2086
(dp2087
g72
(dp2088
g80
I4
ssg81
g2082
sg74
(lp2089
g110
asbasbasbag67
(g83
g69
NtRp2090
(dp2091
g72
(dp2092
sg81
g1959
sg74
(lp2093
g67
(g88
g69
NtRp2094
(dp2095
g72
(dp2096
g92
g93
ssg81
g2090
sg74
(lp2097
g861
asbag67
(g88
g69
NtRp2098
(dp2099
g72
(dp2100
g99
g100
ssg81
g2090
sg74
(lp2101
S':'
asbag67
(g88
g69
NtRp2102
(dp2103
g72
(dp2104
sg81
g2090
sg74
(lp2105
g67
(g68
g69
NtRp2106
(dp2107
g72
(dp2108
g80
I4
ssg81
g2102
sg74
(lp2109
g874
asbasbasbag67
(g83
g69
NtRp2110
(dp2111
g72
(dp2112
sg81
g1959
sg74
(lp2113
g67
(g88
g69
NtRp2114
(dp2115
g72
(dp2116
g92
g93
ssg81
g2110
sg74
(lp2117
g1167
asbag67
(g88
g69
NtRp2118
(dp2119
g72
(dp2120
g99
g100
ssg81
g2110
sg74
(lp2121
S':'
asbag67
(g88
g69
NtRp2122
(dp2123
g72
(dp2124
sg81
g2110
sg74
(lp2125
g67
(g68
g69
NtRp2126
(dp2127
g72
(dp2128
g80
I4
ssg81
g2122
sg74
(lp2129
g110
asbasbasbag67
(g83
g69
NtRp2130
(dp2131
g72
(dp2132
sg81
g1959
sg74
(lp2133
g67
(g88
g69
NtRp2134
(dp2135
g72
(dp2136
g92
g93
ssg81
g2130
sg74
(lp2137
g1188
asbag67
(g88
g69
NtRp2138
(dp2139
g72
(dp2140
g99
g100
ssg81
g2130
sg74
(lp2141
S':'
asbag67
(g88
g69
NtRp2142
(dp2143
g72
(dp2144
sg81
g2130
sg74
(lp2145
g67
(g68
g69
NtRp2146
(dp2147
g72
(dp2148
g80
I4
ssg81
g2142
sg74
(lp2149
g110
asbasbasbag67
(g83
g69
NtRp2150
(dp2151
g72
(dp2152
sg81
g1959
sg74
(lp2153
g67
(g88
g69
NtRp2154
(dp2155
g72
(dp2156
g92
g93
ssg81
g2150
sg74
(lp2157
g1209
asbag67
(g88
g69
NtRp2158
(dp2159
g72
(dp2160
g99
g100
ssg81
g2150
sg74
(lp2161
S':'
asbag67
(g88
g69
NtRp2162
(dp2163
g72
(dp2164
sg81
g2150
sg74
(lp2165
g67
(g68
g69
NtRp2166
(dp2167
g72
(dp2168
g80
I4
ssg81
g2162
sg74
(lp2169
g67
(g76
g69
NtRp2170
(dp2171
g72
(dp2172
g80
I3
ssg81
Nsg74
(lp2173
g67
(g83
g69
NtRp2174
(dp2175
g72
(dp2176
sg81
g2170
sg74
(lp2177
g67
(g88
g69
NtRp2178
(dp2179
g72
(dp2180
sg81
g2174
sg74
(lp2181
g67
(g68
g69
NtRp2182
(dp2183
g72
(dp2184
g80
I3
ssg81
g2178
sg74
(lp2185
g1238
asbasbasbag67
(g83
g69
NtRp2186
(dp2187
g72
(dp2188
sg81
g2170
sg74
(lp2189
g67
(g88
g69
NtRp2190
(dp2191
g72
(dp2192
sg81
g2186
sg74
(lp2193
g67
(g68
g69
NtRp2194
(dp2195
g72
(dp2196
g80
I3
ssg81
g2190
sg74
(lp2197
g1251
asbasbasbag67
(g83
g69
NtRp2198
(dp2199
g72
(dp2200
sg81
g2170
sg74
(lp2201
g67
(g88
g69
NtRp2202
(dp2203
g72
(dp2204
sg81
g2198
sg74
(lp2205
g67
(g68
g69
NtRp2206
(dp2207
g72
(dp2208
g80
I3
ssg81
g2202
sg74
(lp2209
g1264
asbasbasbag67
(g83
g69
NtRp2210
(dp2211
g72
(dp2212
sg81
g2170
sg74
(lp2213
g67
(g88
g69
NtRp2214
(dp2215
g72
(dp2216
sg81
g2210
sg74
(lp2217
g67
(g68
g69
NtRp2218
(dp2219
g72
(dp2220
g80
I3
ssg81
g2214
sg74
(lp2221
g1277
asbasbasbasbasbasbasbag67
(g83
g69
NtRp2222
(dp2223
g72
(dp2224
sg81
g1959
sg74
(lp2225
g67
(g88
g69
NtRp2226
(dp2227
g72
(dp2228
g92
g93
ssg81
g2222
sg74
(lp2229
g1567
asbag67
(g88
g69
NtRp2230
(dp2231
g72
(dp2232
g99
g100
ssg81
g2222
sg74
(lp2233
S':'
asbag67
(g88
g69
NtRp2234
(dp2235
g72
(dp2236
sg81
g2222
sg74
(lp2237
g67
(g68
g69
NtRp2238
(dp2239
g72
(dp2240
g80
I4
ssg81
g2234
sg74
(lp2241
g67
(g76
g69
NtRp2242
(dp2243
g72
(dp2244
g80
I3
ssg81
Nsg74
(lp2245
g67
(g83
g69
NtRp2246
(dp2247
g72
(dp2248
sg81
g2242
sg74
(lp2249
g67
(g88
g69
NtRp2250
(dp2251
g72
(dp2252
sg81
g2246
sg74
(lp2253
g67
(g68
g69
NtRp2254
(dp2255
g72
(dp2256
g80
I3
ssg81
g2250
sg74
(lp2257
S'2'
asbasbasbag67
(g83
g69
NtRp2258
(dp2259
g72
(dp2260
sg81
g2242
sg74
(lp2261
g67
(g88
g69
NtRp2262
(dp2263
g72
(dp2264
sg81
g2258
sg74
(lp2265
g67
(g68
g69
NtRp2266
(dp2267
g72
(dp2268
g80
I3
ssg81
g2262
sg74
(lp2269
S'3'
asbasbasbag67
(g83
g69
NtRp2270
(dp2271
g72
(dp2272
sg81
g2242
sg74
(lp2273
g67
(g88
g69
NtRp2274
(dp2275
g72
(dp2276
sg81
g2270
sg74
(lp2277
g67
(g68
g69
NtRp2278
(dp2279
g72
(dp2280
g80
I3
ssg81
g2274
sg74
(lp2281
S'2'
asbasbasbag67
(g83
g69
NtRp2282
(dp2283
g72
(dp2284
sg81
g2242
sg74
(lp2285
g67
(g88
g69
NtRp2286
(dp2287
g72
(dp2288
sg81
g2282
sg74
(lp2289
g67
(g68
g69
NtRp2290
(dp2291
g72
(dp2292
g80
I3
ssg81
g2286
sg74
(lp2293
S'datetime.datetime(2012, 12, 17, 15, 3, 30)'
p2294
asbasbasbag67
(g83
g69
NtRp2295
(dp2296
g72
(dp2297
sg81
g2242
sg74
(lp2298
g67
(g88
g69
NtRp2299
(dp2300
g72
(dp2301
sg81
g2295
sg74
(lp2302
g67
(g68
g69
NtRp2303
(dp2304
g72
(dp2305
g80
I3
ssg81
g2299
sg74
(lp2306
g1645
asbasbasbasbasbasbasbasbasbasbasbag67
(g83
g69
NtRp2307
(dp2308
g72
(dp2309
sg81
g77
sg74
(lp2310
g67
(g88
g69
NtRp2311
(dp2312
g72
(dp2313
g92
g93
ssg81
g2307
sg74
(lp2314
S'is_https'
p2315
asbag67
(g88
g69
NtRp2316
(dp2317
g72
(dp2318
g99
g100
ssg81
g2307
sg74
(lp2319
S':'
asbag67
(g88
g69
NtRp2320
(dp2321
g72
(dp2322
sg81
g2307
sg74
(lp2323
g67
(g68
g69
NtRp2324
(dp2325
g72
(dp2326
g80
I5
ssg81
g2320
sg74
(lp2327
g110
asbasbasbag67
(g83
g69
NtRp2328
(dp2329
g72
(dp2330
sg81
g77
sg74
(lp2331
g67
(g88
g69
NtRp2332
(dp2333
g72
(dp2334
g92
g93
ssg81
g2328
sg74
(lp2335
S'is_local'
p2336
asbag67
(g88
g69
NtRp2337
(dp2338
g72
(dp2339
g99
g100
ssg81
g2328
sg74
(lp2340
S':'
asbag67
(g88
g69
NtRp2341
(dp2342
g72
(dp2343
sg81
g2328
sg74
(lp2344
g67
(g68
g69
NtRp2345
(dp2346
g72
(dp2347
g80
I5
ssg81
g2341
sg74
(lp2348
g1754
asbasbasbag67
(g83
g69
NtRp2349
(dp2350
g72
(dp2351
sg81
g77
sg74
(lp2352
g67
(g88
g69
NtRp2353
(dp2354
g72
(dp2355
g92
g93
ssg81
g2349
sg74
(lp2356
S'is_restful'
p2357
asbag67
(g88
g69
NtRp2358
(dp2359
g72
(dp2360
g99
g100
ssg81
g2349
sg74
(lp2361
S':'
asbag67
(g88
g69
NtRp2362
(dp2363
g72
(dp2364
sg81
g2349
sg74
(lp2365
g67
(g68
g69
NtRp2366
(dp2367
g72
(dp2368
g80
I5
ssg81
g2362
sg74
(lp2369
g110
asbasbasbag67
(g83
g69
NtRp2370
(dp2371
g72
(dp2372
sg81
g77
sg74
(lp2373
g67
(g88
g69
NtRp2374
(dp2375
g72
(dp2376
g92
g93
ssg81
g2370
sg74
(lp2377
S'now'
p2378
asbag67
(g88
g69
NtRp2379
(dp2380
g72
(dp2381
g99
g100
ssg81
g2370
sg74
(lp2382
S':'
asbag67
(g88
g69
NtRp2383
(dp2384
g72
(dp2385
sg81
g2370
sg74
(lp2386
g67
(g68
g69
NtRp2387
(dp2388
g72
(dp2389
g80
I5
ssg81
g2383
sg74
(lp2390
S'datetime.datetime(2013, 4, 9, 9, 53, 34, 663906)'
p2391
asbasbasbag67
(g83
g69
NtRp2392
(dp2393
g72
(dp2394
sg81
g77
sg74
(lp2395
g67
(g88
g69
NtRp2396
(dp2397
g72
(dp2398
g92
g93
ssg81
g2392
sg74
(lp2399
S'post_vars'
p2400
asbag67
(g88
g69
NtRp2401
(dp2402
g72
(dp2403
g99
g100
ssg81
g2392
sg74
(lp2404
S':'
asbag67
(g88
g69
NtRp2405
(dp2406
g72
(dp2407
sg81
g2392
sg74
(lp2408
g67
(g68
g69
NtRp2409
(dp2410
g72
(dp2411
g80
I5
ssg81
g2405
sg74
(lp2412
g67
(g76
g69
NtRp2413
(dp2414
g72
(dp2415
g80
I4
ssg81
Nsg74
(lp2416
g67
(g83
g69
NtRp2417
(dp2418
g72
(dp2419
sg81
g2413
sg74
(lp2420
g67
(g88
g69
NtRp2421
(dp2422
g72
(dp2423
g92
g93
ssg81
g2417
sg74
(lp2424
S'admin_user'
p2425
asbag67
(g88
g69
NtRp2426
(dp2427
g72
(dp2428
g99
g100
ssg81
g2417
sg74
(lp2429
S':'
asbag67
(g88
g69
NtRp2430
(dp2431
g72
(dp2432
sg81
g2417
sg74
(lp2433
g67
(g68
g69
NtRp2434
(dp2435
g72
(dp2436
g80
I4
ssg81
g2430
sg74
(lp2437
S'2'
asbasbasbag67
(g83
g69
NtRp2438
(dp2439
g72
(dp2440
sg81
g2413
sg74
(lp2441
g67
(g88
g69
NtRp2442
(dp2443
g72
(dp2444
g92
g93
ssg81
g2438
sg74
(lp2445
S'endtime'
p2446
asbag67
(g88
g69
NtRp2447
(dp2448
g72
(dp2449
g99
g100
ssg81
g2438
sg74
(lp2450
S':'
asbag67
(g88
g69
NtRp2451
(dp2452
g72
(dp2453
sg81
g2438
sg74
(lp2454
g67
(g68
g69
NtRp2455
(dp2456
g72
(dp2457
g80
I4
ssg81
g2451
sg74
(lp2458
S'2013-04-03 09:53:28'
p2459
asbasbasbag67
(g83
g69
NtRp2460
(dp2461
g72
(dp2462
sg81
g2413
sg74
(lp2463
g67
(g88
g69
NtRp2464
(dp2465
g72
(dp2466
g92
g93
ssg81
g2460
sg74
(lp2467
S'membros_user'
p2468
asbag67
(g88
g69
NtRp2469
(dp2470
g72
(dp2471
g99
g100
ssg81
g2460
sg74
(lp2472
S':'
asbag67
(g88
g69
NtRp2473
(dp2474
g72
(dp2475
sg81
g2460
sg74
(lp2476
g67
(g68
g69
NtRp2477
(dp2478
g72
(dp2479
g80
I4
ssg81
g2473
sg74
(lp2480
S'4'
asbasbasbag67
(g83
g69
NtRp2481
(dp2482
g72
(dp2483
sg81
g2413
sg74
(lp2484
g67
(g88
g69
NtRp2485
(dp2486
g72
(dp2487
g92
g93
ssg81
g2481
sg74
(lp2488
S'starttime'
p2489
asbag67
(g88
g69
NtRp2490
(dp2491
g72
(dp2492
g99
g100
ssg81
g2481
sg74
(lp2493
S':'
asbag67
(g88
g69
NtRp2494
(dp2495
g72
(dp2496
sg81
g2481
sg74
(lp2497
g67
(g68
g69
NtRp2498
(dp2499
g72
(dp2500
g80
I4
ssg81
g2494
sg74
(lp2501
S'2013-04-02 09:53:26'
p2502
asbasbasbasbasbasbasbag67
(g83
g69
NtRp2503
(dp2504
g72
(dp2505
sg81
g77
sg74
(lp2506
g67
(g88
g69
NtRp2507
(dp2508
g72
(dp2509
g92
g93
ssg81
g2503
sg74
(lp2510
S'url'
p2511
asbag67
(g88
g69
NtRp2512
(dp2513
g72
(dp2514
g99
g100
ssg81
g2503
sg74
(lp2515
S':'
asbag67
(g88
g69
NtRp2516
(dp2517
g72
(dp2518
sg81
g2503
sg74
(lp2519
g67
(g68
g69
NtRp2520
(dp2521
g72
(dp2522
g80
I5
ssg81
g2516
sg74
(lp2523
g1299
asbasbasbag67
(g83
g69
NtRp2524
(dp2525
g72
(dp2526
sg81
g77
sg74
(lp2527
g67
(g88
g69
NtRp2528
(dp2529
g72
(dp2530
g92
g93
ssg81
g2524
sg74
(lp2531
S'utcnow'
p2532
asbag67
(g88
g69
NtRp2533
(dp2534
g72
(dp2535
g99
g100
ssg81
g2524
sg74
(lp2536
S':'
asbag67
(g88
g69
NtRp2537
(dp2538
g72
(dp2539
sg81
g2524
sg74
(lp2540
g67
(g68
g69
NtRp2541
(dp2542
g72
(dp2543
g80
I5
ssg81
g2537
sg74
(lp2544
S'datetime.datetime(2013, 4, 9, 12, 53, 34, 663970)'
p2545
asbasbasbag67
(g83
g69
NtRp2546
(dp2547
g72
(dp2548
sg81
g77
sg74
(lp2549
g67
(g88
g69
NtRp2550
(dp2551
g72
(dp2552
g92
g93
ssg81
g2546
sg74
(lp2553
S'uuid'
p2554
asbag67
(g88
g69
NtRp2555
(dp2556
g72
(dp2557
g99
g100
ssg81
g2546
sg74
(lp2558
S':'
asbag67
(g88
g69
NtRp2559
(dp2560
g72
(dp2561
sg81
g2546
sg74
(lp2562
g67
(g68
g69
NtRp2563
(dp2564
g72
(dp2565
g80
I5
ssg81
g2559
sg74
(lp2566
S'projeto/127.0.0.1.2013-04-09.09-53-34.4aa0f8e5-5737-4b19-b316-8b94c3fa90b5'
p2567
asbasbasbag67
(g83
g69
NtRp2568
(dp2569
g72
(dp2570
sg81
g77
sg74
(lp2571
g67
(g88
g69
NtRp2572
(dp2573
g72
(dp2574
g92
g93
ssg81
g2568
sg74
(lp2575
S'vars'
p2576
asbag67
(g88
g69
NtRp2577
(dp2578
g72
(dp2579
g99
g100
ssg81
g2568
sg74
(lp2580
S':'
asbag67
(g88
g69
NtRp2581
(dp2582
g72
(dp2583
sg81
g2568
sg74
(lp2584
g67
(g68
g69
NtRp2585
(dp2586
g72
(dp2587
g80
I5
ssg81
g2581
sg74
(lp2588
g67
(g76
g69
NtRp2589
(dp2590
g72
(dp2591
g80
I4
ssg81
Nsg74
(lp2592
g67
(g83
g69
NtRp2593
(dp2594
g72
(dp2595
sg81
g2589
sg74
(lp2596
g67
(g88
g69
NtRp2597
(dp2598
g72
(dp2599
g92
g93
ssg81
g2593
sg74
(lp2600
g2425
asbag67
(g88
g69
NtRp2601
(dp2602
g72
(dp2603
g99
g100
ssg81
g2593
sg74
(lp2604
S':'
asbag67
(g88
g69
NtRp2605
(dp2606
g72
(dp2607
sg81
g2593
sg74
(lp2608
g67
(g68
g69
NtRp2609
(dp2610
g72
(dp2611
g80
I4
ssg81
g2605
sg74
(lp2612
S'2'
asbasbasbag67
(g83
g69
NtRp2613
(dp2614
g72
(dp2615
sg81
g2589
sg74
(lp2616
g67
(g88
g69
NtRp2617
(dp2618
g72
(dp2619
g92
g93
ssg81
g2613
sg74
(lp2620
g2446
asbag67
(g88
g69
NtRp2621
(dp2622
g72
(dp2623
g99
g100
ssg81
g2613
sg74
(lp2624
S':'
asbag67
(g88
g69
NtRp2625
(dp2626
g72
(dp2627
sg81
g2613
sg74
(lp2628
g67
(g68
g69
NtRp2629
(dp2630
g72
(dp2631
g80
I4
ssg81
g2625
sg74
(lp2632
g2459
asbasbasbag67
(g83
g69
NtRp2633
(dp2634
g72
(dp2635
sg81
g2589
sg74
(lp2636
g67
(g88
g69
NtRp2637
(dp2638
g72
(dp2639
g92
g93
ssg81
g2633
sg74
(lp2640
g2468
asbag67
(g88
g69
NtRp2641
(dp2642
g72
(dp2643
g99
g100
ssg81
g2633
sg74
(lp2644
S':'
asbag67
(g88
g69
NtRp2645
(dp2646
g72
(dp2647
sg81
g2633
sg74
(lp2648
g67
(g68
g69
NtRp2649
(dp2650
g72
(dp2651
g80
I4
ssg81
g2645
sg74
(lp2652
S'4'
asbasbasbag67
(g83
g69
NtRp2653
(dp2654
g72
(dp2655
sg81
g2589
sg74
(lp2656
g67
(g88
g69
NtRp2657
(dp2658
g72
(dp2659
g92
g93
ssg81
g2653
sg74
(lp2660
g2489
asbag67
(g88
g69
NtRp2661
(dp2662
g72
(dp2663
g99
g100
ssg81
g2653
sg74
(lp2664
S':'
asbag67
(g88
g69
NtRp2665
(dp2666
g72
(dp2667
sg81
g2653
sg74
(lp2668
g67
(g68
g69
NtRp2669
(dp2670
g72
(dp2671
g80
I4
ssg81
g2665
sg74
(lp2672
g2502
asbasbasbasbasbasbasbag67
(g83
g69
NtRp2673
(dp2674
g72
(dp2675
sg81
g77
sg74
(lp2676
g67
(g88
g69
NtRp2677
(dp2678
g72
(dp2679
g92
g93
ssg81
g2673
sg74
(lp2680
S'wsgi'
p2681
asbag67
(g88
g69
NtRp2682
(dp2683
g72
(dp2684
g99
g100
ssg81
g2673
sg74
(lp2685
S':'
asbag67
(g88
g69
NtRp2686
(dp2687
g72
(dp2688
sg81
g2673
sg74
(lp2689
g67
(g68
g69
NtRp2690
(dp2691
g72
(dp2692
g80
I5
ssg81
g2686
sg74
(lp2693
g67
(g76
g69
NtRp2694
(dp2695
g72
(dp2696
g80
I4
ssg81
Nsg74
(lp2697
g67
(g83
g69
NtRp2698
(dp2699
g72
(dp2700
sg81
g2694
sg74
(lp2701
g67
(g88
g69
NtRp2702
(dp2703
g72
(dp2704
g92
g93
ssg81
g2698
sg74
(lp2705
S'environ'
p2706
asbag67
(g88
g69
NtRp2707
(dp2708
g72
(dp2709
g99
g100
ssg81
g2698
sg74
(lp2710
S':'
asbag67
(g88
g69
NtRp2711
(dp2712
g72
(dp2713
sg81
g2698
sg74
(lp2714
g67
(g68
g69
NtRp2715
(dp2716
g72
(dp2717
g80
I4
ssg81
g2711
sg74
(lp2718
g67
(g76
g69
NtRp2719
(dp2720
g72
(dp2721
g80
I3
ssg81
Nsg74
(lp2722
g67
(g83
g69
NtRp2723
(dp2724
g72
(dp2725
sg81
g2719
sg74
(lp2726
g67
(g88
g69
NtRp2727
(dp2728
g72
(dp2729
g92
g93
ssg81
g2723
sg74
(lp2730
S'CONTENT_LENGTH'
p2731
asbag67
(g88
g69
NtRp2732
(dp2733
g72
(dp2734
g99
g100
ssg81
g2723
sg74
(lp2735
S':'
asbag67
(g88
g69
NtRp2736
(dp2737
g72
(dp2738
sg81
g2723
sg74
(lp2739
g67
(g68
g69
NtRp2740
(dp2741
g72
(dp2742
g80
I3
ssg81
g2736
sg74
(lp2743
g787
asbasbasbag67
(g83
g69
NtRp2744
(dp2745
g72
(dp2746
sg81
g2719
sg74
(lp2747
g67
(g88
g69
NtRp2748
(dp2749
g72
(dp2750
g92
g93
ssg81
g2744
sg74
(lp2751
S'CONTENT_TYPE'
p2752
asbag67
(g88
g69
NtRp2753
(dp2754
g72
(dp2755
g99
g100
ssg81
g2744
sg74
(lp2756
S':'
asbag67
(g88
g69
NtRp2757
(dp2758
g72
(dp2759
sg81
g2744
sg74
(lp2760
g67
(g68
g69
NtRp2761
(dp2762
g72
(dp2763
g80
I3
ssg81
g2757
sg74
(lp2764
g809
asbasbasbag67
(g83
g69
NtRp2765
(dp2766
g72
(dp2767
sg81
g2719
sg74
(lp2768
g67
(g88
g69
NtRp2769
(dp2770
g72
(dp2771
g92
g93
ssg81
g2765
sg74
(lp2772
S'HTTP_ACCEPT'
p2773
asbag67
(g88
g69
NtRp2774
(dp2775
g72
(dp2776
g99
g100
ssg81
g2765
sg74
(lp2777
S':'
asbag67
(g88
g69
NtRp2778
(dp2779
g72
(dp2780
sg81
g2765
sg74
(lp2781
g67
(g68
g69
NtRp2782
(dp2783
g72
(dp2784
g80
I3
ssg81
g2778
sg74
(lp2785
g896
asbasbasbag67
(g83
g69
NtRp2786
(dp2787
g72
(dp2788
sg81
g2719
sg74
(lp2789
g67
(g88
g69
NtRp2790
(dp2791
g72
(dp2792
g92
g93
ssg81
g2786
sg74
(lp2793
S'HTTP_ACCEPT_CHARSET'
p2794
asbag67
(g88
g69
NtRp2795
(dp2796
g72
(dp2797
g99
g100
ssg81
g2786
sg74
(lp2798
S':'
asbag67
(g88
g69
NtRp2799
(dp2800
g72
(dp2801
sg81
g2786
sg74
(lp2802
g67
(g68
g69
NtRp2803
(dp2804
g72
(dp2805
g80
I3
ssg81
g2799
sg74
(lp2806
g918
asbasbasbag67
(g83
g69
NtRp2807
(dp2808
g72
(dp2809
sg81
g2719
sg74
(lp2810
g67
(g88
g69
NtRp2811
(dp2812
g72
(dp2813
g92
g93
ssg81
g2807
sg74
(lp2814
S'HTTP_ACCEPT_ENCODING'
p2815
asbag67
(g88
g69
NtRp2816
(dp2817
g72
(dp2818
g99
g100
ssg81
g2807
sg74
(lp2819
S':'
asbag67
(g88
g69
NtRp2820
(dp2821
g72
(dp2822
sg81
g2807
sg74
(lp2823
g67
(g68
g69
NtRp2824
(dp2825
g72
(dp2826
g80
I3
ssg81
g2820
sg74
(lp2827
g940
asbasbasbag67
(g83
g69
NtRp2828
(dp2829
g72
(dp2830
sg81
g2719
sg74
(lp2831
g67
(g88
g69
NtRp2832
(dp2833
g72
(dp2834
g92
g93
ssg81
g2828
sg74
(lp2835
S'HTTP_ACCEPT_LANGUAGE'
p2836
asbag67
(g88
g69
NtRp2837
(dp2838
g72
(dp2839
g99
g100
ssg81
g2828
sg74
(lp2840
S':'
asbag67
(g88
g69
NtRp2841
(dp2842
g72
(dp2843
sg81
g2828
sg74
(lp2844
g67
(g68
g69
NtRp2845
(dp2846
g72
(dp2847
g80
I3
ssg81
g2841
sg74
(lp2848
g962
asbasbasbag67
(g83
g69
NtRp2849
(dp2850
g72
(dp2851
sg81
g2719
sg74
(lp2852
g67
(g88
g69
NtRp2853
(dp2854
g72
(dp2855
g92
g93
ssg81
g2849
sg74
(lp2856
S'HTTP_CACHE_CONTROL'
p2857
asbag67
(g88
g69
NtRp2858
(dp2859
g72
(dp2860
g99
g100
ssg81
g2849
sg74
(lp2861
S':'
asbag67
(g88
g69
NtRp2862
(dp2863
g72
(dp2864
sg81
g2849
sg74
(lp2865
g67
(g68
g69
NtRp2866
(dp2867
g72
(dp2868
g80
I3
ssg81
g2862
sg74
(lp2869
g984
asbasbasbag67
(g83
g69
NtRp2870
(dp2871
g72
(dp2872
sg81
g2719
sg74
(lp2873
g67
(g88
g69
NtRp2874
(dp2875
g72
(dp2876
g92
g93
ssg81
g2870
sg74
(lp2877
S'HTTP_CONNECTION'
p2878
asbag67
(g88
g69
NtRp2879
(dp2880
g72
(dp2881
g99
g100
ssg81
g2870
sg74
(lp2882
S':'
asbag67
(g88
g69
NtRp2883
(dp2884
g72
(dp2885
sg81
g2870
sg74
(lp2886
g67
(g68
g69
NtRp2887
(dp2888
g72
(dp2889
g80
I3
ssg81
g2883
sg74
(lp2890
g1006
asbasbasbag67
(g83
g69
NtRp2891
(dp2892
g72
(dp2893
sg81
g2719
sg74
(lp2894
g67
(g88
g69
NtRp2895
(dp2896
g72
(dp2897
g92
g93
ssg81
g2891
sg74
(lp2898
S'HTTP_CONTENT_LENGTH'
p2899
asbag67
(g88
g69
NtRp2900
(dp2901
g72
(dp2902
g99
g100
ssg81
g2891
sg74
(lp2903
S':'
asbag67
(g88
g69
NtRp2904
(dp2905
g72
(dp2906
sg81
g2891
sg74
(lp2907
g67
(g68
g69
NtRp2908
(dp2909
g72
(dp2910
g80
I3
ssg81
g2904
sg74
(lp2911
g787
asbasbasbag67
(g83
g69
NtRp2912
(dp2913
g72
(dp2914
sg81
g2719
sg74
(lp2915
g67
(g88
g69
NtRp2916
(dp2917
g72
(dp2918
g92
g93
ssg81
g2912
sg74
(lp2919
S'HTTP_CONTENT_TYPE'
p2920
asbag67
(g88
g69
NtRp2921
(dp2922
g72
(dp2923
g99
g100
ssg81
g2912
sg74
(lp2924
S':'
asbag67
(g88
g69
NtRp2925
(dp2926
g72
(dp2927
sg81
g2912
sg74
(lp2928
g67
(g68
g69
NtRp2929
(dp2930
g72
(dp2931
g80
I3
ssg81
g2925
sg74
(lp2932
g809
asbasbasbag67
(g83
g69
NtRp2933
(dp2934
g72
(dp2935
sg81
g2719
sg74
(lp2936
g67
(g88
g69
NtRp2937
(dp2938
g72
(dp2939
g92
g93
ssg81
g2933
sg74
(lp2940
S'HTTP_COOKIE'
p2941
asbag67
(g88
g69
NtRp2942
(dp2943
g72
(dp2944
g99
g100
ssg81
g2933
sg74
(lp2945
S':'
asbag67
(g88
g69
NtRp2946
(dp2947
g72
(dp2948
sg81
g2933
sg74
(lp2949
g67
(g68
g69
NtRp2950
(dp2951
g72
(dp2952
g80
I3
ssg81
g2946
sg74
(lp2953
g1070
asbasbasbag67
(g83
g69
NtRp2954
(dp2955
g72
(dp2956
sg81
g2719
sg74
(lp2957
g67
(g88
g69
NtRp2958
(dp2959
g72
(dp2960
g92
g93
ssg81
g2954
sg74
(lp2961
S'HTTP_HOST'
p2962
asbag67
(g88
g69
NtRp2963
(dp2964
g72
(dp2965
g99
g100
ssg81
g2954
sg74
(lp2966
S':'
asbag67
(g88
g69
NtRp2967
(dp2968
g72
(dp2969
sg81
g2954
sg74
(lp2970
g67
(g68
g69
NtRp2971
(dp2972
g72
(dp2973
g80
I3
ssg81
g2967
sg74
(lp2974
g1092
asbasbasbag67
(g83
g69
NtRp2975
(dp2976
g72
(dp2977
sg81
g2719
sg74
(lp2978
g67
(g88
g69
NtRp2979
(dp2980
g72
(dp2981
g92
g93
ssg81
g2975
sg74
(lp2982
S'HTTP_ORIGIN'
p2983
asbag67
(g88
g69
NtRp2984
(dp2985
g72
(dp2986
g99
g100
ssg81
g2975
sg74
(lp2987
S':'
asbag67
(g88
g69
NtRp2988
(dp2989
g72
(dp2990
sg81
g2975
sg74
(lp2991
g67
(g68
g69
NtRp2992
(dp2993
g72
(dp2994
g80
I3
ssg81
g2988
sg74
(lp2995
g1114
asbasbasbag67
(g83
g69
NtRp2996
(dp2997
g72
(dp2998
sg81
g2719
sg74
(lp2999
g67
(g88
g69
NtRp3000
(dp3001
g72
(dp3002
g92
g93
ssg81
g2996
sg74
(lp3003
S'HTTP_REFERER'
p3004
asbag67
(g88
g69
NtRp3005
(dp3006
g72
(dp3007
g99
g100
ssg81
g2996
sg74
(lp3008
S':'
asbag67
(g88
g69
NtRp3009
(dp3010
g72
(dp3011
sg81
g2996
sg74
(lp3012
g67
(g68
g69
NtRp3013
(dp3014
g72
(dp3015
g80
I3
ssg81
g3009
sg74
(lp3016
g1136
asbasbasbag67
(g83
g69
NtRp3017
(dp3018
g72
(dp3019
sg81
g2719
sg74
(lp3020
g67
(g88
g69
NtRp3021
(dp3022
g72
(dp3023
g92
g93
ssg81
g3017
sg74
(lp3024
S'HTTP_USER_AGENT'
p3025
asbag67
(g88
g69
NtRp3026
(dp3027
g72
(dp3028
g99
g100
ssg81
g3017
sg74
(lp3029
S':'
asbag67
(g88
g69
NtRp3030
(dp3031
g72
(dp3032
sg81
g3017
sg74
(lp3033
g67
(g68
g69
NtRp3034
(dp3035
g72
(dp3036
g80
I3
ssg81
g3030
sg74
(lp3037
g1158
asbasbasbag67
(g83
g69
NtRp3038
(dp3039
g72
(dp3040
sg81
g2719
sg74
(lp3041
g67
(g88
g69
NtRp3042
(dp3043
g72
(dp3044
g92
g93
ssg81
g3038
sg74
(lp3045
S'PATH_INFO'
p3046
asbag67
(g88
g69
NtRp3047
(dp3048
g72
(dp3049
g99
g100
ssg81
g3038
sg74
(lp3050
S':'
asbag67
(g88
g69
NtRp3051
(dp3052
g72
(dp3053
sg81
g3038
sg74
(lp3054
g67
(g68
g69
NtRp3055
(dp3056
g72
(dp3057
g80
I3
ssg81
g3051
sg74
(lp3058
g1299
asbasbasbag67
(g83
g69
NtRp3059
(dp3060
g72
(dp3061
sg81
g2719
sg74
(lp3062
g67
(g88
g69
NtRp3063
(dp3064
g72
(dp3065
g92
g93
ssg81
g3059
sg74
(lp3066
S'QUERY_STRING'
p3067
asbag67
(g88
g69
NtRp3068
(dp3069
g72
(dp3070
g99
g100
ssg81
g3059
sg74
(lp3071
S':'
asbag67
(g88
g69
NtRp3072
(dp3073
g72
(dp3074
sg81
g3059
sg74
(lp3075
g67
(g68
g69
NtRp3076
(dp3077
g72
(dp3078
g80
I3
ssg81
g3072
sg74
(lp3079
S''
asbasbasbag67
(g83
g69
NtRp3080
(dp3081
g72
(dp3082
sg81
g2719
sg74
(lp3083
g67
(g88
g69
NtRp3084
(dp3085
g72
(dp3086
g92
g93
ssg81
g3080
sg74
(lp3087
S'REMOTE_ADDR'
p3088
asbag67
(g88
g69
NtRp3089
(dp3090
g72
(dp3091
g99
g100
ssg81
g3080
sg74
(lp3092
S':'
asbag67
(g88
g69
NtRp3093
(dp3094
g72
(dp3095
sg81
g3080
sg74
(lp3096
g67
(g68
g69
NtRp3097
(dp3098
g72
(dp3099
g80
I3
ssg81
g3093
sg74
(lp3100
g222
asbasbasbag67
(g83
g69
NtRp3101
(dp3102
g72
(dp3103
sg81
g2719
sg74
(lp3104
g67
(g88
g69
NtRp3105
(dp3106
g72
(dp3107
g92
g93
ssg81
g3101
sg74
(lp3108
S'REMOTE_PORT'
p3109
asbag67
(g88
g69
NtRp3110
(dp3111
g72
(dp3112
g99
g100
ssg81
g3101
sg74
(lp3113
S':'
asbag67
(g88
g69
NtRp3114
(dp3115
g72
(dp3116
sg81
g3101
sg74
(lp3117
g67
(g68
g69
NtRp3118
(dp3119
g72
(dp3120
g80
I3
ssg81
g3114
sg74
(lp3121
g1363
asbasbasbag67
(g83
g69
NtRp3122
(dp3123
g72
(dp3124
sg81
g2719
sg74
(lp3125
g67
(g88
g69
NtRp3126
(dp3127
g72
(dp3128
g92
g93
ssg81
g3122
sg74
(lp3129
S'REQUEST_METHOD'
p3130
asbag67
(g88
g69
NtRp3131
(dp3132
g72
(dp3133
g99
g100
ssg81
g3122
sg74
(lp3134
S':'
asbag67
(g88
g69
NtRp3135
(dp3136
g72
(dp3137
sg81
g3122
sg74
(lp3138
g67
(g68
g69
NtRp3139
(dp3140
g72
(dp3141
g80
I3
ssg81
g3135
sg74
(lp3142
g1385
asbasbasbag67
(g83
g69
NtRp3143
(dp3144
g72
(dp3145
sg81
g2719
sg74
(lp3146
g67
(g88
g69
NtRp3147
(dp3148
g72
(dp3149
g92
g93
ssg81
g3143
sg74
(lp3150
S'REQUEST_URI'
p3151
asbag67
(g88
g69
NtRp3152
(dp3153
g72
(dp3154
g99
g100
ssg81
g3143
sg74
(lp3155
S':'
asbag67
(g88
g69
NtRp3156
(dp3157
g72
(dp3158
sg81
g3143
sg74
(lp3159
g67
(g68
g69
NtRp3160
(dp3161
g72
(dp3162
g80
I3
ssg81
g3156
sg74
(lp3163
g1407
asbasbasbag67
(g83
g69
NtRp3164
(dp3165
g72
(dp3166
sg81
g2719
sg74
(lp3167
g67
(g88
g69
NtRp3168
(dp3169
g72
(dp3170
g92
g93
ssg81
g3164
sg74
(lp3171
S'SCRIPT_NAME'
p3172
asbag67
(g88
g69
NtRp3173
(dp3174
g72
(dp3175
g99
g100
ssg81
g3164
sg74
(lp3176
S':'
asbag67
(g88
g69
NtRp3177
(dp3178
g72
(dp3179
sg81
g3164
sg74
(lp3180
g67
(g68
g69
NtRp3181
(dp3182
g72
(dp3183
g80
I3
ssg81
g3177
sg74
(lp3184
S''
asbasbasbag67
(g83
g69
NtRp3185
(dp3186
g72
(dp3187
sg81
g2719
sg74
(lp3188
g67
(g88
g69
NtRp3189
(dp3190
g72
(dp3191
g92
g93
ssg81
g3185
sg74
(lp3192
S'SERVER_NAME'
p3193
asbag67
(g88
g69
NtRp3194
(dp3195
g72
(dp3196
g99
g100
ssg81
g3185
sg74
(lp3197
S':'
asbag67
(g88
g69
NtRp3198
(dp3199
g72
(dp3200
sg81
g3185
sg74
(lp3201
g67
(g68
g69
NtRp3202
(dp3203
g72
(dp3204
g80
I3
ssg81
g3198
sg74
(lp3205
g1450
asbasbasbag67
(g83
g69
NtRp3206
(dp3207
g72
(dp3208
sg81
g2719
sg74
(lp3209
g67
(g88
g69
NtRp3210
(dp3211
g72
(dp3212
g92
g93
ssg81
g3206
sg74
(lp3213
S'SERVER_PORT'
p3214
asbag67
(g88
g69
NtRp3215
(dp3216
g72
(dp3217
g99
g100
ssg81
g3206
sg74
(lp3218
S':'
asbag67
(g88
g69
NtRp3219
(dp3220
g72
(dp3221
sg81
g3206
sg74
(lp3222
g67
(g68
g69
NtRp3223
(dp3224
g72
(dp3225
g80
I3
ssg81
g3219
sg74
(lp3226
g1472
asbasbasbag67
(g83
g69
NtRp3227
(dp3228
g72
(dp3229
sg81
g2719
sg74
(lp3230
g67
(g88
g69
NtRp3231
(dp3232
g72
(dp3233
g92
g93
ssg81
g3227
sg74
(lp3234
S'SERVER_PROTOCOL'
p3235
asbag67
(g88
g69
NtRp3236
(dp3237
g72
(dp3238
g99
g100
ssg81
g3227
sg74
(lp3239
S':'
asbag67
(g88
g69
NtRp3240
(dp3241
g72
(dp3242
sg81
g3227
sg74
(lp3243
g67
(g68
g69
NtRp3244
(dp3245
g72
(dp3246
g80
I3
ssg81
g3240
sg74
(lp3247
g1494
asbasbasbag67
(g83
g69
NtRp3248
(dp3249
g72
(dp3250
sg81
g2719
sg74
(lp3251
g67
(g88
g69
NtRp3252
(dp3253
g72
(dp3254
g92
g93
ssg81
g3248
sg74
(lp3255
S'SERVER_SOFTWARE'
p3256
asbag67
(g88
g69
NtRp3257
(dp3258
g72
(dp3259
g99
g100
ssg81
g3248
sg74
(lp3260
S':'
asbag67
(g88
g69
NtRp3261
(dp3262
g72
(dp3263
sg81
g3248
sg74
(lp3264
g67
(g68
g69
NtRp3265
(dp3266
g72
(dp3267
g80
I3
ssg81
g3261
sg74
(lp3268
g1516
asbasbasbag67
(g83
g69
NtRp3269
(dp3270
g72
(dp3271
sg81
g2719
sg74
(lp3272
g67
(g88
g69
NtRp3273
(dp3274
g72
(dp3275
g92
g93
ssg81
g3269
sg74
(lp3276
S'WEB2PY_ORIGINAL_URI'
p3277
asbag67
(g88
g69
NtRp3278
(dp3279
g72
(dp3280
g99
g100
ssg81
g3269
sg74
(lp3281
S':'
asbag67
(g88
g69
NtRp3282
(dp3283
g72
(dp3284
sg81
g3269
sg74
(lp3285
g67
(g68
g69
NtRp3286
(dp3287
g72
(dp3288
g80
I3
ssg81
g3282
sg74
(lp3289
g1299
asbasbasbag67
(g83
g69
NtRp3290
(dp3291
g72
(dp3292
sg81
g2719
sg74
(lp3293
g67
(g88
g69
NtRp3294
(dp3295
g72
(dp3296
g92
g93
ssg81
g3290
sg74
(lp3297
S'wsgi.errors'
p3298
asbag67
(g88
g69
NtRp3299
(dp3300
g72
(dp3301
g99
g100
ssg81
g3290
sg74
(lp3302
S':'
asbag67
(g88
g69
NtRp3303
(dp3304
g72
(dp3305
sg81
g3290
sg74
(lp3306
g67
(g68
g69
NtRp3307
(dp3308
g72
(dp3309
g80
I3
ssg81
g3303
sg74
(lp3310
S"<open file '<stderr>', mode 'w' at 0x7fe97984e270>"
p3311
asbasbasbag67
(g83
g69
NtRp3312
(dp3313
g72
(dp3314
sg81
g2719
sg74
(lp3315
g67
(g88
g69
NtRp3316
(dp3317
g72
(dp3318
g92
g93
ssg81
g3312
sg74
(lp3319
S'wsgi.file_wrapper'
p3320
asbag67
(g88
g69
NtRp3321
(dp3322
g72
(dp3323
g99
g100
ssg81
g3312
sg74
(lp3324
S':'
asbag67
(g88
g69
NtRp3325
(dp3326
g72
(dp3327
sg81
g3312
sg74
(lp3328
g67
(g68
g69
NtRp3329
(dp3330
g72
(dp3331
g80
I3
ssg81
g3325
sg74
(lp3332
S'<class wsgiref.util.FileWrapper at 0x1e52530>'
p3333
asbasbasbag67
(g83
g69
NtRp3334
(dp3335
g72
(dp3336
sg81
g2719
sg74
(lp3337
g67
(g88
g69
NtRp3338
(dp3339
g72
(dp3340
g92
g93
ssg81
g3334
sg74
(lp3341
S'wsgi.input'
p3342
asbag67
(g88
g69
NtRp3343
(dp3344
g72
(dp3345
g99
g100
ssg81
g3334
sg74
(lp3346
S':'
asbag67
(g88
g69
NtRp3347
(dp3348
g72
(dp3349
sg81
g3334
sg74
(lp3350
g67
(g68
g69
NtRp3351
(dp3352
g72
(dp3353
g80
I3
ssg81
g3347
sg74
(lp3354
S"<open file '<fdopen>', mode 'w+b' at 0x7fe9646e6300>"
p3355
asbasbasbag67
(g83
g69
NtRp3356
(dp3357
g72
(dp3358
sg81
g2719
sg74
(lp3359
g67
(g88
g69
NtRp3360
(dp3361
g72
(dp3362
g92
g93
ssg81
g3356
sg74
(lp3363
S'wsgi.multiprocess'
p3364
asbag67
(g88
g69
NtRp3365
(dp3366
g72
(dp3367
g99
g100
ssg81
g3356
sg74
(lp3368
S':'
asbag67
(g88
g69
NtRp3369
(dp3370
g72
(dp3371
sg81
g3356
sg74
(lp3372
g67
(g68
g69
NtRp3373
(dp3374
g72
(dp3375
g80
I3
ssg81
g3369
sg74
(lp3376
g110
asbasbasbag67
(g83
g69
NtRp3377
(dp3378
g72
(dp3379
sg81
g2719
sg74
(lp3380
g67
(g88
g69
NtRp3381
(dp3382
g72
(dp3383
g92
g93
ssg81
g3377
sg74
(lp3384
S'wsgi.multithread'
p3385
asbag67
(g88
g69
NtRp3386
(dp3387
g72
(dp3388
g99
g100
ssg81
g3377
sg74
(lp3389
S':'
asbag67
(g88
g69
NtRp3390
(dp3391
g72
(dp3392
sg81
g3377
sg74
(lp3393
g67
(g68
g69
NtRp3394
(dp3395
g72
(dp3396
g80
I3
ssg81
g3390
sg74
(lp3397
g1754
asbasbasbag67
(g83
g69
NtRp3398
(dp3399
g72
(dp3400
sg81
g2719
sg74
(lp3401
g67
(g88
g69
NtRp3402
(dp3403
g72
(dp3404
g92
g93
ssg81
g3398
sg74
(lp3405
S'wsgi.run_once'
p3406
asbag67
(g88
g69
NtRp3407
(dp3408
g72
(dp3409
g99
g100
ssg81
g3398
sg74
(lp3410
S':'
asbag67
(g88
g69
NtRp3411
(dp3412
g72
(dp3413
sg81
g3398
sg74
(lp3414
g67
(g68
g69
NtRp3415
(dp3416
g72
(dp3417
g80
I3
ssg81
g3411
sg74
(lp3418
g110
asbasbasbag67
(g83
g69
NtRp3419
(dp3420
g72
(dp3421
sg81
g2719
sg74
(lp3422
g67
(g88
g69
NtRp3423
(dp3424
g72
(dp3425
g92
g93
ssg81
g3419
sg74
(lp3426
S'wsgi.url_scheme'
p3427
asbag67
(g88
g69
NtRp3428
(dp3429
g72
(dp3430
g99
g100
ssg81
g3419
sg74
(lp3431
S':'
asbag67
(g88
g69
NtRp3432
(dp3433
g72
(dp3434
sg81
g3419
sg74
(lp3435
g67
(g68
g69
NtRp3436
(dp3437
g72
(dp3438
g80
I3
ssg81
g3432
sg74
(lp3439
g1797
asbasbasbag67
(g83
g69
NtRp3440
(dp3441
g72
(dp3442
sg81
g2719
sg74
(lp3443
g67
(g88
g69
NtRp3444
(dp3445
g72
(dp3446
g92
g93
ssg81
g3440
sg74
(lp3447
S'wsgi.version'
p3448
asbag67
(g88
g69
NtRp3449
(dp3450
g72
(dp3451
g99
g100
ssg81
g3440
sg74
(lp3452
S':'
asbag67
(g88
g69
NtRp3453
(dp3454
g72
(dp3455
sg81
g3440
sg74
(lp3456
g67
(g68
g69
NtRp3457
(dp3458
g72
(dp3459
g80
I3
ssg81
g3453
sg74
(lp3460
S'1'
asbasbasbasbasbasbasbasbasbasbasbasbasbsS'frames'
p3461
(lp3462
(dp3463
S'file'
p3464
S'/var/www/conferencia/gluon/restricted.py'
p3465
sS'dump'
p3466
(dp3467
S'environment'
p3468
S"{'A': <class 'gluon.html.A'>, 'Auth': <class 'gluon.tools.Auth'>, 'B': <class 'gluon.html.B'>, 'BEAUTIFY': <class 'gluon.html.BEAUTIFY'>, 'BODY': <class 'gluon.html.BODY'>, 'BR': <class 'gluon.html.BR'>, 'BUTTON': <class 'gluon.html.BUTTON'>, 'CAT': <class 'gluon.html.CAT'>, 'CENTER': <class 'gluon.html.CENTER'>, 'CLEANUP': <class 'gluon.validators.CLEANUP'>, ...}"
p3469
sS'ccode'
p3470
S'<code object <module> at 0x7fe9646b29b0, file "/...ications/projeto/controllers/initial.py", line 3>'
p3471
ssS'lnum'
p3472
I212
sS'lines'
p3473
(dp3474
I207
S'    try:'
p3475
sI208
S'        if isinstance(code, types.CodeType):'
p3476
sI209
S'            ccode = code'
p3477
sI210
S'        else:'
p3478
sI211
S'            ccode = compile2(code, layer)'
p3479
sI212
S'        exec ccode in environment'
p3480
sI213
S'    except HTTP:'
p3481
sI214
S'        raise'
p3482
sI215
S'    except RestrictedError:'
p3483
sI216
S'        # do not encapsulate (obfuscate) the original RestrictedError'
p3484
ssS'call'
p3485
S"(code='# coding=UTF-8\\n\\ndef principal():\\n\\tresponse.title...s)\\n\\n\\n\\nresponse._vars=response._caller(interface)\\n', environment={'A': <class 'gluon.html.A'>, 'Auth': <class 'gluon.tools.Auth'>, 'B': <class 'gluon.html.B'>, 'BEAUTIFY': <class 'gluon.html.BEAUTIFY'>, 'BODY': <class 'gluon.html.BODY'>, 'BR': <class 'gluon.html.BR'>, 'BUTTON': <class 'gluon.html.BUTTON'>, 'CAT': <class 'gluon.html.CAT'>, 'CENTER': <class 'gluon.html.CENTER'>, 'CLEANUP': <class 'gluon.validators.CLEANUP'>, ...}, layer='/var/www/conferencia/applications/projeto/controllers/initial.py')"
p3486
sS'func'
p3487
S'restricted'
p3488
sa(dp3489
g3464
S'/var/www/conferencia/applications/projeto/controllers/initial.py'
p3490
sg3466
(dp3491
sg3472
I343
sg3473
(dp3492
I332
S''
sI333
S'\tquery = ((db.hosts.id == filtro) & (db.hosts.id_cliente == db.cliente.id)'
p3493
sI334
S'\t \t    & (db.hosts.id_servidor == db.servidor.id)'
p3494
sI335
S'\t \t    & (db.hosts.id_distro == db.distro.id))'
p3495
sI336
S'\tdetalhes = db.hosts(query)'
p3496
sI337
S''
sI338
S''
sI339
S'\treturn response.render("initial/detalhes_host_clean.html", detalhes=detalhes)'
p3497
sI340
S''
sI341
S''
ssg3485
S'()'
p3498
sg3487
S'<module>'
p3499
sa(dp3500
g3464
S'/var/www/conferencia/gluon/globals.py'
p3501
sg3466
(dp3502
S'self'
p3503
S'undefined'
p3504
sS'f'
S'<function interface>'
p3505
ssg3472
I193
sg3473
(dp3506
I192
S'        self._vars = None'
p3507
sI193
S'        self._caller = lambda f: f()'
p3508
sI194
S'        self._view_environment = None'
p3509
sI195
S'        self._custom_commit = None'
p3510
sI196
S'        self._custom_rollback = None'
p3511
sI197
S''
sI188
S'        self.menu = []             # used by the default view layout'
p3512
sI189
S'        self.files = []            # used by web2py_ajax.html'
p3513
sI190
S'        self.generic_patterns = []  # patterns to allow generic views'
p3514
sI191
S"        self.delimiters = ('{{', '}}')"
p3515
ssg3485
S'(f=<function interface>)'
p3516
sg3487
S'<lambda>'
p3517
sa(dp3518
g3464
S'/var/www/conferencia/applications/projeto/controllers/initial.py'
p3519
sg3466
(dp3520
S'confno'
p3521
S'1083'
p3522
sS'global email'
p3523
S'<function email>'
p3524
sS'evento'
p3525
S"<Storage {'admin_user': '2', 'starttime': '2013-...3-04-03 09:53:28', '_formname': 'meetme/create'}>"
p3526
ssg3472
I58
sg3473
(dp3527
I53
S"\t\t\t\t'membros_user':'Membros', 'admin_user':'Admins', 'gravacao':'Grava\xc3\xa7\xc3\xa3o'})"
p3528
sI54
S''
sI55
S'    if form.process().accepted:'
p3529
sI56
S'    \tevento = request.vars'
p3530
sI57
S'    \tconfno = form.vars.id'
p3531
sI58
S'    \temail(evento, confno)'
p3532
sI59
S"    \tresponse.flash = 'Inserido com sucesso'"
p3533
sI60
S'    elif form.errors:'
p3534
sI61
S"       response.flash = 'Ops, algo n\xc3\xa3o est\xc3\xa1 correto'"
p3535
sI62
S'    else:'
p3536
ssg3485
S'()'
p3537
sg3487
S'interface'
p3538
sa(dp3539
g3464
S'/var/www/conferencia/applications/projeto/controllers/initial.py'
p3540
sg3466
(dp3541
S'confno'
p3542
S'1083'
p3543
sS'pin'
p3544
S"'2004'"
p3545
sS'evento'
p3546
S"<Storage {'admin_user': '2', 'starttime': '2013-...3-04-03 09:53:28', '_formname': 'meetme/create'}>"
p3547
sS'evento.endtime'
p3548
S"'2013-04-03 09:53:28'"
p3549
sS'nome'
p3550
S"u'Alexandre'"
p3551
sS'message'
p3552
g3504
sS'evento.starttime'
p3553
S"'2013-04-02 09:53:26'"
p3554
ssg3472
I93
sg3473
(dp3555
I96
S'   \tadmin = evento.admin_user'
p3556
sI97
S'   \tfor a in admin:'
p3557
sI88
S'   \t\t\tpin = str(teste[0][2])'
p3558
sI89
S'   \t\t\tprint evento.starttime, evento.endtime, confno'
p3559
sI90
S'   \t\t\tmail.send('
p3560
sI91
S'\t\t\tto="fndiaz02@gmail.com",#variavel email'
p3561
sI92
S'\t\t\tsubject="Confer\xc3\xaancia",'
p3562
sI93
S'\t\t\tmessage="<html> %s A confer\xc3\xaancia %s acaba de ser criada e voc\xc3\xaa \xc3\xa9 um membro, seguem os dados:<br>Hor\xc3\xa1rio de In\xc3\xadcio: %s<br>Hor\xc3\xa1rio de T\xc3\xa9rmino: %s<br>Pin: %s%s</html>" % (nome, confno, evento.starttime, evento.endtime, confno, pin)'
p3563
sI94
S'\t\t\t)'
p3564
sI95
S''
ssg3485
S"(evento=<Storage {'admin_user': '2', 'starttime': '2013-...3-04-03 09:53:28', '_formname': 'meetme/create'}>, confno=1083)"
p3565
sg3487
S'email'
p3566
sasS'pyver'
p3567
S'Python 2.7.3: /usr/bin/python'
p3568
sS'session'
p3569
g67
(g68
g69
NtRp3570
(dp3571
g72
(dp3572
sg74
(lp3573
g67
(g76
g69
NtRp3574
(dp3575
g72
(dp3576
g80
I5
ssg81
Nsg74
(lp3577
sbasbsS'etype'
p3578
S"<type 'exceptions.UnicodeDecodeError'>"
p3579
sS'date'
p3580
S'Tue Apr  9 09:53:34 2013'
p3581
sS'response'
p3582
g67
(g68
g69
NtRp3583
(dp3584
g72
(dp3585
sg74
(lp3586
g67
(g76
g69
NtRp3587
(dp3588
g72
(dp3589
g80
I5
ssg81
Nsg74
(lp3590
g67
(g83
g69
NtRp3591
(dp3592
g72
(dp3593
sg81
g3587
sg74
(lp3594
g67
(g88
g69
NtRp3595
(dp3596
g72
(dp3597
g92
g93
ssg81
g3591
sg74
(lp3598
g165
asbag67
(g88
g69
NtRp3599
(dp3600
g72
(dp3601
g99
g100
ssg81
g3591
sg74
(lp3602
S':'
asbag67
(g88
g69
NtRp3603
(dp3604
g72
(dp3605
sg81
g3591
sg74
(lp3606
g67
(g68
g69
NtRp3607
(dp3608
g72
(dp3609
g80
I5
ssg81
g3603
sg74
(lp3610
S'<cStringIO.StringO object at 0x7fe958d03dc0>'
p3611
asbasbasbag67
(g83
g69
NtRp3612
(dp3613
g72
(dp3614
sg81
g3587
sg74
(lp3615
g67
(g88
g69
NtRp3616
(dp3617
g72
(dp3618
g92
g93
ssg81
g3612
sg74
(lp3619
g253
asbag67
(g88
g69
NtRp3620
(dp3621
g72
(dp3622
g99
g100
ssg81
g3612
sg74
(lp3623
S':'
asbag67
(g88
g69
NtRp3624
(dp3625
g72
(dp3626
sg81
g3612
sg74
(lp3627
g67
(g68
g69
NtRp3628
(dp3629
g72
(dp3630
g80
I5
ssg81
g3624
sg74
(lp3631
g67
(g76
g69
NtRp3632
(dp3633
g72
(dp3634
g80
I4
ssg81
Nsg74
(lp3635
g67
(g83
g69
NtRp3636
(dp3637
g72
(dp3638
sg81
g3632
sg74
(lp3639
g67
(g88
g69
NtRp3640
(dp3641
g72
(dp3642
g92
g93
ssg81
g3636
sg74
(lp3643
S'session_id_projeto'
p3644
asbag67
(g88
g69
NtRp3645
(dp3646
g72
(dp3647
g99
g100
ssg81
g3636
sg74
(lp3648
S':'
asbag67
(g88
g69
NtRp3649
(dp3650
g72
(dp3651
sg81
g3636
sg74
(lp3652
g67
(g68
g69
NtRp3653
(dp3654
g72
(dp3655
g80
I4
ssg81
g3649
sg74
(lp3656
g485
ag67
(g76
g69
NtRp3657
(dp3658
g72
(dp3659
g80
I3
ssg81
Nsg74
(lp3660
g67
(g83
g69
NtRp3661
(dp3662
g72
(dp3663
sg81
g3657
sg74
(lp3664
g67
(g88
g69
NtRp3665
(dp3666
g72
(dp3667
g92
g93
ssg81
g3661
sg74
(lp3668
g304
asbag67
(g88
g69
NtRp3669
(dp3670
g72
(dp3671
g99
g100
ssg81
g3661
sg74
(lp3672
S':'
asbag67
(g88
g69
NtRp3673
(dp3674
g72
(dp3675
sg81
g3661
sg74
(lp3676
g67
(g68
g69
NtRp3677
(dp3678
g72
(dp3679
g80
I3
ssg81
g3673
sg74
(lp3680
S''
asbasbasbag67
(g83
g69
NtRp3681
(dp3682
g72
(dp3683
sg81
g3657
sg74
(lp3684
g67
(g88
g69
NtRp3685
(dp3686
g72
(dp3687
g92
g93
ssg81
g3681
sg74
(lp3688
g325
asbag67
(g88
g69
NtRp3689
(dp3690
g72
(dp3691
g99
g100
ssg81
g3681
sg74
(lp3692
S':'
asbag67
(g88
g69
NtRp3693
(dp3694
g72
(dp3695
sg81
g3681
sg74
(lp3696
g67
(g68
g69
NtRp3697
(dp3698
g72
(dp3699
g80
I3
ssg81
g3693
sg74
(lp3700
S''
asbasbasbag67
(g83
g69
NtRp3701
(dp3702
g72
(dp3703
sg81
g3657
sg74
(lp3704
g67
(g88
g69
NtRp3705
(dp3706
g72
(dp3707
g92
g93
ssg81
g3701
sg74
(lp3708
g346
asbag67
(g88
g69
NtRp3709
(dp3710
g72
(dp3711
g99
g100
ssg81
g3701
sg74
(lp3712
S':'
asbag67
(g88
g69
NtRp3713
(dp3714
g72
(dp3715
sg81
g3701
sg74
(lp3716
g67
(g68
g69
NtRp3717
(dp3718
g72
(dp3719
g80
I3
ssg81
g3713
sg74
(lp3720
S''
asbasbasbag67
(g83
g69
NtRp3721
(dp3722
g72
(dp3723
sg81
g3657
sg74
(lp3724
g67
(g88
g69
NtRp3725
(dp3726
g72
(dp3727
g92
g93
ssg81
g3721
sg74
(lp3728
g367
asbag67
(g88
g69
NtRp3729
(dp3730
g72
(dp3731
g99
g100
ssg81
g3721
sg74
(lp3732
S':'
asbag67
(g88
g69
NtRp3733
(dp3734
g72
(dp3735
sg81
g3721
sg74
(lp3736
g67
(g68
g69
NtRp3737
(dp3738
g72
(dp3739
g80
I3
ssg81
g3733
sg74
(lp3740
S''
asbasbasbag67
(g83
g69
NtRp3741
(dp3742
g72
(dp3743
sg81
g3657
sg74
(lp3744
g67
(g88
g69
NtRp3745
(dp3746
g72
(dp3747
g92
g93
ssg81
g3741
sg74
(lp3748
g388
asbag67
(g88
g69
NtRp3749
(dp3750
g72
(dp3751
g99
g100
ssg81
g3741
sg74
(lp3752
S':'
asbag67
(g88
g69
NtRp3753
(dp3754
g72
(dp3755
sg81
g3741
sg74
(lp3756
g67
(g68
g69
NtRp3757
(dp3758
g72
(dp3759
g80
I3
ssg81
g3753
sg74
(lp3760
S''
asbasbasbag67
(g83
g69
NtRp3761
(dp3762
g72
(dp3763
sg81
g3657
sg74
(lp3764
g67
(g88
g69
NtRp3765
(dp3766
g72
(dp3767
g92
g93
ssg81
g3761
sg74
(lp3768
g409
asbag67
(g88
g69
NtRp3769
(dp3770
g72
(dp3771
g99
g100
ssg81
g3761
sg74
(lp3772
S':'
asbag67
(g88
g69
NtRp3773
(dp3774
g72
(dp3775
sg81
g3761
sg74
(lp3776
g67
(g68
g69
NtRp3777
(dp3778
g72
(dp3779
g80
I3
ssg81
g3773
sg74
(lp3780
S'/'
asbasbasbag67
(g83
g69
NtRp3781
(dp3782
g72
(dp3783
sg81
g3657
sg74
(lp3784
g67
(g88
g69
NtRp3785
(dp3786
g72
(dp3787
g92
g93
ssg81
g3781
sg74
(lp3788
g430
asbag67
(g88
g69
NtRp3789
(dp3790
g72
(dp3791
g99
g100
ssg81
g3781
sg74
(lp3792
S':'
asbag67
(g88
g69
NtRp3793
(dp3794
g72
(dp3795
sg81
g3781
sg74
(lp3796
g67
(g68
g69
NtRp3797
(dp3798
g72
(dp3799
g80
I3
ssg81
g3793
sg74
(lp3800
S''
asbasbasbag67
(g83
g69
NtRp3801
(dp3802
g72
(dp3803
sg81
g3657
sg74
(lp3804
g67
(g88
g69
NtRp3805
(dp3806
g72
(dp3807
g92
g93
ssg81
g3801
sg74
(lp3808
g451
asbag67
(g88
g69
NtRp3809
(dp3810
g72
(dp3811
g99
g100
ssg81
g3801
sg74
(lp3812
S':'
asbag67
(g88
g69
NtRp3813
(dp3814
g72
(dp3815
sg81
g3801
sg74
(lp3816
g67
(g68
g69
NtRp3817
(dp3818
g72
(dp3819
g80
I3
ssg81
g3813
sg74
(lp3820
S''
asbasbasbasbasbasbasbasbasbasbasbag67
(g83
g69
NtRp3821
(dp3822
g72
(dp3823
sg81
g3587
sg74
(lp3824
g67
(g88
g69
NtRp3825
(dp3826
g72
(dp3827
g92
g93
ssg81
g3821
sg74
(lp3828
S'delimiters'
p3829
asbag67
(g88
g69
NtRp3830
(dp3831
g72
(dp3832
g99
g100
ssg81
g3821
sg74
(lp3833
S':'
asbag67
(g88
g69
NtRp3834
(dp3835
g72
(dp3836
sg81
g3821
sg74
(lp3837
g67
(g68
g69
NtRp3838
(dp3839
g72
(dp3840
g80
I5
ssg81
g3834
sg74
(lp3841
g67
(g76
g69
NtRp3842
(dp3843
g72
(dp3844
g80
I4
ssg81
Nsg74
(lp3845
g67
(g83
g69
NtRp3846
(dp3847
g72
(dp3848
sg81
g3842
sg74
(lp3849
g67
(g88
g69
NtRp3850
(dp3851
g72
(dp3852
sg81
g3846
sg74
(lp3853
g67
(g68
g69
NtRp3854
(dp3855
g72
(dp3856
g80
I4
ssg81
g3850
sg74
(lp3857
S'{{'
p3858
asbasbasbag67
(g83
g69
NtRp3859
(dp3860
g72
(dp3861
sg81
g3842
sg74
(lp3862
g67
(g88
g69
NtRp3863
(dp3864
g72
(dp3865
sg81
g3859
sg74
(lp3866
g67
(g68
g69
NtRp3867
(dp3868
g72
(dp3869
g80
I4
ssg81
g3863
sg74
(lp3870
S'}}'
p3871
asbasbasbasbasbasbasbag67
(g83
g69
NtRp3872
(dp3873
g72
(dp3874
sg81
g3587
sg74
(lp3875
g67
(g88
g69
NtRp3876
(dp3877
g72
(dp3878
g92
g93
ssg81
g3872
sg74
(lp3879
S'files'
p3880
asbag67
(g88
g69
NtRp3881
(dp3882
g72
(dp3883
g99
g100
ssg81
g3872
sg74
(lp3884
S':'
asbag67
(g88
g69
NtRp3885
(dp3886
g72
(dp3887
sg81
g3872
sg74
(lp3888
g67
(g68
g69
NtRp3889
(dp3890
g72
(dp3891
g80
I5
ssg81
g3885
sg74
(lp3892
g67
(g76
g69
NtRp3893
(dp3894
g72
(dp3895
g80
I4
ssg81
Nsg74
(lp3896
sbasbasbasbag67
(g83
g69
NtRp3897
(dp3898
g72
(dp3899
sg81
g3587
sg74
(lp3900
g67
(g88
g69
NtRp3901
(dp3902
g72
(dp3903
g92
g93
ssg81
g3897
sg74
(lp3904
S'flash'
p3905
asbag67
(g88
g69
NtRp3906
(dp3907
g72
(dp3908
g99
g100
ssg81
g3897
sg74
(lp3909
S':'
asbag67
(g88
g69
NtRp3910
(dp3911
g72
(dp3912
sg81
g3897
sg74
(lp3913
g67
(g68
g69
NtRp3914
(dp3915
g72
(dp3916
g80
I5
ssg81
g3910
sg74
(lp3917
cgluon.languages
lazyT_unpickle
p3918
(S's\x08\x00\x00\x00Success!'
tRp3919
asbasbasbag67
(g83
g69
NtRp3920
(dp3921
g72
(dp3922
sg81
g3587
sg74
(lp3923
g67
(g88
g69
NtRp3924
(dp3925
g72
(dp3926
g92
g93
ssg81
g3920
sg74
(lp3927
S'generic_patterns'
p3928
asbag67
(g88
g69
NtRp3929
(dp3930
g72
(dp3931
g99
g100
ssg81
g3920
sg74
(lp3932
S':'
asbag67
(g88
g69
NtRp3933
(dp3934
g72
(dp3935
sg81
g3920
sg74
(lp3936
g67
(g68
g69
NtRp3937
(dp3938
g72
(dp3939
g80
I5
ssg81
g3933
sg74
(lp3940
g67
(g76
g69
NtRp3941
(dp3942
g72
(dp3943
g80
I4
ssg81
Nsg74
(lp3944
g67
(g83
g69
NtRp3945
(dp3946
g72
(dp3947
sg81
g3941
sg74
(lp3948
g67
(g88
g69
NtRp3949
(dp3950
g72
(dp3951
sg81
g3945
sg74
(lp3952
g67
(g68
g69
NtRp3953
(dp3954
g72
(dp3955
g80
I4
ssg81
g3949
sg74
(lp3956
S'*'
asbasbasbasbasbasbasbag67
(g83
g69
NtRp3957
(dp3958
g72
(dp3959
sg81
g3587
sg74
(lp3960
g67
(g88
g69
NtRp3961
(dp3962
g72
(dp3963
g92
g93
ssg81
g3957
sg74
(lp3964
S'google_analytics_id'
p3965
asbag67
(g88
g69
NtRp3966
(dp3967
g72
(dp3968
g99
g100
ssg81
g3957
sg74
(lp3969
S':'
asbag67
(g88
g69
NtRp3970
(dp3971
g72
(dp3972
sg81
g3957
sg74
(lp3973
g67
(g68
g69
NtRp3974
(dp3975
g72
(dp3976
g80
I5
ssg81
g3970
sg74
(lp3977
S'None'
p3978
asbasbasbag67
(g83
g69
NtRp3979
(dp3980
g72
(dp3981
sg81
g3587
sg74
(lp3982
g67
(g88
g69
NtRp3983
(dp3984
g72
(dp3985
g92
g93
ssg81
g3979
sg74
(lp3986
S'headers'
p3987
asbag67
(g88
g69
NtRp3988
(dp3989
g72
(dp3990
g99
g100
ssg81
g3979
sg74
(lp3991
S':'
asbag67
(g88
g69
NtRp3992
(dp3993
g72
(dp3994
sg81
g3979
sg74
(lp3995
g67
(g68
g69
NtRp3996
(dp3997
g72
(dp3998
g80
I5
ssg81
g3992
sg74
(lp3999
g67
(g76
g69
NtRp4000
(dp4001
g72
(dp4002
g80
I4
ssg81
Nsg74
(lp4003
g67
(g83
g69
NtRp4004
(dp4005
g72
(dp4006
sg81
g4000
sg74
(lp4007
g67
(g88
g69
NtRp4008
(dp4009
g72
(dp4010
g92
g93
ssg81
g4004
sg74
(lp4011
S'X-Powered-By'
p4012
asbag67
(g88
g69
NtRp4013
(dp4014
g72
(dp4015
g99
g100
ssg81
g4004
sg74
(lp4016
S':'
asbag67
(g88
g69
NtRp4017
(dp4018
g72
(dp4019
sg81
g4004
sg74
(lp4020
g67
(g68
g69
NtRp4021
(dp4022
g72
(dp4023
g80
I4
ssg81
g4017
sg74
(lp4024
S'web2py'
p4025
asbasbasbasbasbasbasbag67
(g83
g69
NtRp4026
(dp4027
g72
(dp4028
sg81
g3587
sg74
(lp4029
g67
(g88
g69
NtRp4030
(dp4031
g72
(dp4032
g92
g93
ssg81
g4026
sg74
(lp4033
S'logo'
p4034
asbag67
(g88
g69
NtRp4035
(dp4036
g72
(dp4037
g99
g100
ssg81
g4026
sg74
(lp4038
S':'
asbag67
(g88
g69
NtRp4039
(dp4040
g72
(dp4041
sg81
g4026
sg74
(lp4042
g67
(g68
g69
NtRp4043
(dp4044
g72
(dp4045
g80
I5
ssg81
g4039
sg74
(lp4046
g67
(cgluon.html
A
p4047
g69
NtRp4048
(dp4049
g72
(dp4050
S'_class'
p4051
S'brand'
p4052
sS'_href'
p4053
S'principal'
p4054
ssg81
Nsg74
(lp4055
g67
(cgluon.html
B
p4056
g69
NtRp4057
(dp4058
g72
(dp4059
sg81
g4048
sg74
(lp4060
S'hosts'
p4061
ag67
(cgluon.html
SPAN
p4062
g69
NtRp4063
(dp4064
g72
(dp4065
sg81
g4057
sg74
(lp4066
S'3'
asbaS''
asbacgluon.html
XML_unpickle
p4067
(S's\r\x00\x00\x00&trade;&nbsp;'
tRp4068
asbasbasbasbag67
(g83
g69
NtRp4069
(dp4070
g72
(dp4071
sg81
g3587
sg74
(lp4072
g67
(g88
g69
NtRp4073
(dp4074
g72
(dp4075
g92
g93
ssg81
g4069
sg74
(lp4076
S'menu'
p4077
asbag67
(g88
g69
NtRp4078
(dp4079
g72
(dp4080
g99
g100
ssg81
g4069
sg74
(lp4081
S':'
asbag67
(g88
g69
NtRp4082
(dp4083
g72
(dp4084
sg81
g4069
sg74
(lp4085
g67
(g68
g69
NtRp4086
(dp4087
g72
(dp4088
g80
I5
ssg81
g4082
sg74
(lp4089
g67
(g76
g69
NtRp4090
(dp4091
g72
(dp4092
g80
I4
ssg81
Nsg74
(lp4093
g67
(g83
g69
NtRp4094
(dp4095
g72
(dp4096
sg81
g4090
sg74
(lp4097
g67
(g88
g69
NtRp4098
(dp4099
g72
(dp4100
sg81
g4094
sg74
(lp4101
g67
(g68
g69
NtRp4102
(dp4103
g72
(dp4104
g80
I4
ssg81
g4098
sg74
(lp4105
g67
(g76
g69
NtRp4106
(dp4107
g72
(dp4108
g80
I3
ssg81
Nsg74
(lp4109
g67
(g83
g69
NtRp4110
(dp4111
g72
(dp4112
sg81
g4106
sg74
(lp4113
g67
(g88
g69
NtRp4114
(dp4115
g72
(dp4116
sg81
g4110
sg74
(lp4117
g67
(g68
g69
NtRp4118
(dp4119
g72
(dp4120
g80
I3
ssg81
g4114
sg74
(lp4121
g3918
(S't\x08\x00\x00\x00Clientes'
tRp4122
asbasbasbag67
(g83
g69
NtRp4123
(dp4124
g72
(dp4125
sg81
g4106
sg74
(lp4126
g67
(g88
g69
NtRp4127
(dp4128
g72
(dp4129
sg81
g4123
sg74
(lp4130
g67
(g68
g69
NtRp4131
(dp4132
g72
(dp4133
g80
I3
ssg81
g4127
sg74
(lp4134
g110
asbasbasbag67
(g83
g69
NtRp4135
(dp4136
g72
(dp4137
sg81
g4106
sg74
(lp4138
g67
(g88
g69
NtRp4139
(dp4140
g72
(dp4141
sg81
g4135
sg74
(lp4142
g67
(g68
g69
NtRp4143
(dp4144
g72
(dp4145
g80
I3
ssg81
g4139
sg74
(lp4146
S'/show_cliente'
p4147
asbasbasbag67
(g83
g69
NtRp4148
(dp4149
g72
(dp4150
sg81
g4106
sg74
(lp4151
g67
(g88
g69
NtRp4152
(dp4153
g72
(dp4154
sg81
g4148
sg74
(lp4155
g67
(g68
g69
NtRp4156
(dp4157
g72
(dp4158
g80
I3
ssg81
g4152
sg74
(lp4159
g67
(g76
g69
NtRp4160
(dp4161
g72
(dp4162
g80
I2
ssg81
Nsg74
(lp4163
sbasbasbasbasbasbasbasbag67
(g83
g69
NtRp4164
(dp4165
g72
(dp4166
sg81
g4090
sg74
(lp4167
g67
(g88
g69
NtRp4168
(dp4169
g72
(dp4170
sg81
g4164
sg74
(lp4171
g67
(g68
g69
NtRp4172
(dp4173
g72
(dp4174
g80
I4
ssg81
g4168
sg74
(lp4175
g67
(g76
g69
NtRp4176
(dp4177
g72
(dp4178
g80
I3
ssg81
Nsg74
(lp4179
g67
(g83
g69
NtRp4180
(dp4181
g72
(dp4182
sg81
g4176
sg74
(lp4183
g67
(g88
g69
NtRp4184
(dp4185
g72
(dp4186
sg81
g4180
sg74
(lp4187
g67
(g68
g69
NtRp4188
(dp4189
g72
(dp4190
g80
I3
ssg81
g4184
sg74
(lp4191
g3918
(S't\n\x00\x00\x00Servidores'
tRp4192
asbasbasbag67
(g83
g69
NtRp4193
(dp4194
g72
(dp4195
sg81
g4176
sg74
(lp4196
g67
(g88
g69
NtRp4197
(dp4198
g72
(dp4199
sg81
g4193
sg74
(lp4200
g67
(g68
g69
NtRp4201
(dp4202
g72
(dp4203
g80
I3
ssg81
g4197
sg74
(lp4204
g110
asbasbasbag67
(g83
g69
NtRp4205
(dp4206
g72
(dp4207
sg81
g4176
sg74
(lp4208
g67
(g88
g69
NtRp4209
(dp4210
g72
(dp4211
sg81
g4205
sg74
(lp4212
g67
(g68
g69
NtRp4213
(dp4214
g72
(dp4215
g80
I3
ssg81
g4209
sg74
(lp4216
S'/show_servidor'
p4217
asbasbasbag67
(g83
g69
NtRp4218
(dp4219
g72
(dp4220
sg81
g4176
sg74
(lp4221
g67
(g88
g69
NtRp4222
(dp4223
g72
(dp4224
sg81
g4218
sg74
(lp4225
g67
(g68
g69
NtRp4226
(dp4227
g72
(dp4228
g80
I3
ssg81
g4222
sg74
(lp4229
g67
(g76
g69
NtRp4230
(dp4231
g72
(dp4232
g80
I2
ssg81
Nsg74
(lp4233
sbasbasbasbasbasbasbasbag67
(g83
g69
NtRp4234
(dp4235
g72
(dp4236
sg81
g4090
sg74
(lp4237
g67
(g88
g69
NtRp4238
(dp4239
g72
(dp4240
sg81
g4234
sg74
(lp4241
g67
(g68
g69
NtRp4242
(dp4243
g72
(dp4244
g80
I4
ssg81
g4238
sg74
(lp4245
g67
(g76
g69
NtRp4246
(dp4247
g72
(dp4248
g80
I3
ssg81
Nsg74
(lp4249
g67
(g83
g69
NtRp4250
(dp4251
g72
(dp4252
sg81
g4246
sg74
(lp4253
g67
(g88
g69
NtRp4254
(dp4255
g72
(dp4256
sg81
g4250
sg74
(lp4257
g67
(g68
g69
NtRp4258
(dp4259
g72
(dp4260
g80
I3
ssg81
g4254
sg74
(lp4261
g3918
(S't\x07\x00\x00\x00Distros'
tRp4262
asbasbasbag67
(g83
g69
NtRp4263
(dp4264
g72
(dp4265
sg81
g4246
sg74
(lp4266
g67
(g88
g69
NtRp4267
(dp4268
g72
(dp4269
sg81
g4263
sg74
(lp4270
g67
(g68
g69
NtRp4271
(dp4272
g72
(dp4273
g80
I3
ssg81
g4267
sg74
(lp4274
g110
asbasbasbag67
(g83
g69
NtRp4275
(dp4276
g72
(dp4277
sg81
g4246
sg74
(lp4278
g67
(g88
g69
NtRp4279
(dp4280
g72
(dp4281
sg81
g4275
sg74
(lp4282
g67
(g68
g69
NtRp4283
(dp4284
g72
(dp4285
g80
I3
ssg81
g4279
sg74
(lp4286
S'/show_distro'
p4287
asbasbasbag67
(g83
g69
NtRp4288
(dp4289
g72
(dp4290
sg81
g4246
sg74
(lp4291
g67
(g88
g69
NtRp4292
(dp4293
g72
(dp4294
sg81
g4288
sg74
(lp4295
g67
(g68
g69
NtRp4296
(dp4297
g72
(dp4298
g80
I3
ssg81
g4292
sg74
(lp4299
g67
(g76
g69
NtRp4300
(dp4301
g72
(dp4302
g80
I2
ssg81
Nsg74
(lp4303
sbasbasbasbasbasbasbasbag67
(g83
g69
NtRp4304
(dp4305
g72
(dp4306
sg81
g4090
sg74
(lp4307
g67
(g88
g69
NtRp4308
(dp4309
g72
(dp4310
sg81
g4304
sg74
(lp4311
g67
(g68
g69
NtRp4312
(dp4313
g72
(dp4314
g80
I4
ssg81
g4308
sg74
(lp4315
g67
(g76
g69
NtRp4316
(dp4317
g72
(dp4318
g80
I3
ssg81
Nsg74
(lp4319
g67
(g83
g69
NtRp4320
(dp4321
g72
(dp4322
sg81
g4316
sg74
(lp4323
g67
(g88
g69
NtRp4324
(dp4325
g72
(dp4326
sg81
g4320
sg74
(lp4327
g67
(g68
g69
NtRp4328
(dp4329
g72
(dp4330
g80
I3
ssg81
g4324
sg74
(lp4331
g3918
(S's\x05\x00\x00\x00+host'
tRp4332
asbasbasbag67
(g83
g69
NtRp4333
(dp4334
g72
(dp4335
sg81
g4316
sg74
(lp4336
g67
(g88
g69
NtRp4337
(dp4338
g72
(dp4339
sg81
g4333
sg74
(lp4340
g67
(g68
g69
NtRp4341
(dp4342
g72
(dp4343
g80
I3
ssg81
g4337
sg74
(lp4344
g110
asbasbasbag67
(g83
g69
NtRp4345
(dp4346
g72
(dp4347
sg81
g4316
sg74
(lp4348
g67
(g88
g69
NtRp4349
(dp4350
g72
(dp4351
sg81
g4345
sg74
(lp4352
g67
(g68
g69
NtRp4353
(dp4354
g72
(dp4355
g80
I3
ssg81
g4349
sg74
(lp4356
S'/interface'
p4357
asbasbasbag67
(g83
g69
NtRp4358
(dp4359
g72
(dp4360
sg81
g4316
sg74
(lp4361
g67
(g88
g69
NtRp4362
(dp4363
g72
(dp4364
sg81
g4358
sg74
(lp4365
g67
(g68
g69
NtRp4366
(dp4367
g72
(dp4368
g80
I3
ssg81
g4362
sg74
(lp4369
g67
(g76
g69
NtRp4370
(dp4371
g72
(dp4372
g80
I2
ssg81
Nsg74
(lp4373
sbasbasbasbasbasbasbasbasbasbasbasbag67
(g83
g69
NtRp4374
(dp4375
g72
(dp4376
sg81
g3587
sg74
(lp4377
g67
(g88
g69
NtRp4378
(dp4379
g72
(dp4380
g92
g93
ssg81
g4374
sg74
(lp4381
S'menu2'
p4382
asbag67
(g88
g69
NtRp4383
(dp4384
g72
(dp4385
g99
g100
ssg81
g4374
sg74
(lp4386
S':'
asbag67
(g88
g69
NtRp4387
(dp4388
g72
(dp4389
sg81
g4374
sg74
(lp4390
g67
(g68
g69
NtRp4391
(dp4392
g72
(dp4393
g80
I5
ssg81
g4387
sg74
(lp4394
g67
(g76
g69
NtRp4395
(dp4396
g72
(dp4397
g80
I4
ssg81
Nsg74
(lp4398
g67
(g83
g69
NtRp4399
(dp4400
g72
(dp4401
sg81
g4395
sg74
(lp4402
g67
(g88
g69
NtRp4403
(dp4404
g72
(dp4405
sg81
g4399
sg74
(lp4406
g67
(g68
g69
NtRp4407
(dp4408
g72
(dp4409
g80
I4
ssg81
g4403
sg74
(lp4410
g67
(g76
g69
NtRp4411
(dp4412
g72
(dp4413
g80
I3
ssg81
Nsg74
(lp4414
g67
(g83
g69
NtRp4415
(dp4416
g72
(dp4417
sg81
g4411
sg74
(lp4418
g67
(g88
g69
NtRp4419
(dp4420
g72
(dp4421
sg81
g4415
sg74
(lp4422
g67
(g68
g69
NtRp4423
(dp4424
g72
(dp4425
g80
I3
ssg81
g4419
sg74
(lp4426
g67
(g4062
g69
NtRp4427
(dp4428
g72
(dp4429
g4051
S'dropdown-toggle'
p4430
ssg81
Nsg74
(lp4431
S'Admin'
p4432
asbasbasbasbag67
(g83
g69
NtRp4433
(dp4434
g72
(dp4435
sg81
g4411
sg74
(lp4436
g67
(g88
g69
NtRp4437
(dp4438
g72
(dp4439
sg81
g4433
sg74
(lp4440
g67
(g68
g69
NtRp4441
(dp4442
g72
(dp4443
g80
I3
ssg81
g4437
sg74
(lp4444
g110
asbasbasbag67
(g83
g69
NtRp4445
(dp4446
g72
(dp4447
sg81
g4411
sg74
(lp4448
g67
(g88
g69
NtRp4449
(dp4450
g72
(dp4451
sg81
g4445
sg74
(lp4452
g67
(g68
g69
NtRp4453
(dp4454
g72
(dp4455
g80
I3
ssg81
g4449
sg74
(lp4456
S'#'
asbasbasbag67
(g83
g69
NtRp4457
(dp4458
g72
(dp4459
sg81
g4411
sg74
(lp4460
g67
(g88
g69
NtRp4461
(dp4462
g72
(dp4463
sg81
g4457
sg74
(lp4464
g67
(g68
g69
NtRp4465
(dp4466
g72
(dp4467
g80
I3
ssg81
g4461
sg74
(lp4468
g67
(g76
g69
NtRp4469
(dp4470
g72
(dp4471
g80
I2
ssg81
Nsg74
(lp4472
g67
(g83
g69
NtRp4473
(dp4474
g72
(dp4475
sg81
g4469
sg74
(lp4476
g67
(g88
g69
NtRp4477
(dp4478
g72
(dp4479
sg81
g4473
sg74
(lp4480
g67
(g68
g69
NtRp4481
(dp4482
g72
(dp4483
g80
I2
ssg81
g4477
sg74
(lp4484
g67
(g76
g69
NtRp4485
(dp4486
g72
(dp4487
g80
I1
ssg81
Nsg74
(lp4488
g67
(g83
g69
NtRp4489
(dp4490
g72
(dp4491
sg81
g4485
sg74
(lp4492
g67
(g88
g69
NtRp4493
(dp4494
g72
(dp4495
sg81
g4489
sg74
(lp4496
g67
(g68
g69
NtRp4497
(dp4498
g72
(dp4499
g80
I1
ssg81
g4493
sg74
(lp4500
g3918
(S's\t\x00\x00\x00Usu\xc3\xa1rios'
tRp4501
asbasbasbag67
(g83
g69
NtRp4502
(dp4503
g72
(dp4504
sg81
g4485
sg74
(lp4505
g67
(g88
g69
NtRp4506
(dp4507
g72
(dp4508
sg81
g4502
sg74
(lp4509
g67
(g68
g69
NtRp4510
(dp4511
g72
(dp4512
g80
I1
ssg81
g4506
sg74
(lp4513
I00
asbasbasbag67
(g83
g69
NtRp4514
(dp4515
g72
(dp4516
sg81
g4485
sg74
(lp4517
g67
(g88
g69
NtRp4518
(dp4519
g72
(dp4520
sg81
g4514
sg74
(lp4521
g67
(g68
g69
NtRp4522
(dp4523
g72
(dp4524
g80
I1
ssg81
g4518
sg74
(lp4525
S'/manager/users'
p4526
asbasbasbasbasbasbasbag67
(g83
g69
NtRp4527
(dp4528
g72
(dp4529
sg81
g4469
sg74
(lp4530
g67
(g88
g69
NtRp4531
(dp4532
g72
(dp4533
sg81
g4527
sg74
(lp4534
g67
(g68
g69
NtRp4535
(dp4536
g72
(dp4537
g80
I2
ssg81
g4531
sg74
(lp4538
g67
(g76
g69
NtRp4539
(dp4540
g72
(dp4541
g80
I1
ssg81
Nsg74
(lp4542
g67
(g83
g69
NtRp4543
(dp4544
g72
(dp4545
sg81
g4539
sg74
(lp4546
g67
(g88
g69
NtRp4547
(dp4548
g72
(dp4549
sg81
g4543
sg74
(lp4550
g67
(g68
g69
NtRp4551
(dp4552
g72
(dp4553
g80
I1
ssg81
g4547
sg74
(lp4554
g3918
(S't\x06\x00\x00\x00Grupos'
tRp4555
asbasbasbag67
(g83
g69
NtRp4556
(dp4557
g72
(dp4558
sg81
g4539
sg74
(lp4559
g67
(g88
g69
NtRp4560
(dp4561
g72
(dp4562
sg81
g4556
sg74
(lp4563
g67
(g68
g69
NtRp4564
(dp4565
g72
(dp4566
g80
I1
ssg81
g4560
sg74
(lp4567
I00
asbasbasbag67
(g83
g69
NtRp4568
(dp4569
g72
(dp4570
sg81
g4539
sg74
(lp4571
g67
(g88
g69
NtRp4572
(dp4573
g72
(dp4574
sg81
g4568
sg74
(lp4575
g67
(g68
g69
NtRp4576
(dp4577
g72
(dp4578
g80
I1
ssg81
g4572
sg74
(lp4579
S'/manager/groups'
p4580
asbasbasbasbasbasbasbag67
(g83
g69
NtRp4581
(dp4582
g72
(dp4583
sg81
g4469
sg74
(lp4584
g67
(g88
g69
NtRp4585
(dp4586
g72
(dp4587
sg81
g4581
sg74
(lp4588
g67
(g68
g69
NtRp4589
(dp4590
g72
(dp4591
g80
I2
ssg81
g4585
sg74
(lp4592
g67
(g76
g69
NtRp4593
(dp4594
g72
(dp4595
g80
I1
ssg81
Nsg74
(lp4596
g67
(g83
g69
NtRp4597
(dp4598
g72
(dp4599
sg81
g4593
sg74
(lp4600
g67
(g88
g69
NtRp4601
(dp4602
g72
(dp4603
sg81
g4597
sg74
(lp4604
g67
(g68
g69
NtRp4605
(dp4606
g72
(dp4607
g80
I1
ssg81
g4601
sg74
(lp4608
g3918
(S't\x07\x00\x00\x00Membros'
tRp4609
asbasbasbag67
(g83
g69
NtRp4610
(dp4611
g72
(dp4612
sg81
g4593
sg74
(lp4613
g67
(g88
g69
NtRp4614
(dp4615
g72
(dp4616
sg81
g4610
sg74
(lp4617
g67
(g68
g69
NtRp4618
(dp4619
g72
(dp4620
g80
I1
ssg81
g4614
sg74
(lp4621
I00
asbasbasbag67
(g83
g69
NtRp4622
(dp4623
g72
(dp4624
sg81
g4593
sg74
(lp4625
g67
(g88
g69
NtRp4626
(dp4627
g72
(dp4628
sg81
g4622
sg74
(lp4629
g67
(g68
g69
NtRp4630
(dp4631
g72
(dp4632
g80
I1
ssg81
g4626
sg74
(lp4633
S'/manager/membership'
p4634
asbasbasbasbasbasbasbasbasbasbasbasbasbasbasbag67
(g83
g69
NtRp4635
(dp4636
g72
(dp4637
sg81
g4395
sg74
(lp4638
g67
(g88
g69
NtRp4639
(dp4640
g72
(dp4641
sg81
g4635
sg74
(lp4642
g67
(g68
g69
NtRp4643
(dp4644
g72
(dp4645
g80
I4
ssg81
g4639
sg74
(lp4646
g67
(g76
g69
NtRp4647
(dp4648
g72
(dp4649
g80
I3
ssg81
Nsg74
(lp4650
g67
(g83
g69
NtRp4651
(dp4652
g72
(dp4653
sg81
g4647
sg74
(lp4654
g67
(g88
g69
NtRp4655
(dp4656
g72
(dp4657
sg81
g4651
sg74
(lp4658
g67
(g68
g69
NtRp4659
(dp4660
g72
(dp4661
g80
I3
ssg81
g4655
sg74
(lp4662
g67
(g4062
g69
NtRp4663
(dp4664
g72
(dp4665
g4051
g4430
ssg81
Nsg74
(lp4666
S'Login'
p4667
asbasbasbasbag67
(g83
g69
NtRp4668
(dp4669
g72
(dp4670
sg81
g4647
sg74
(lp4671
g67
(g88
g69
NtRp4672
(dp4673
g72
(dp4674
sg81
g4668
sg74
(lp4675
g67
(g68
g69
NtRp4676
(dp4677
g72
(dp4678
g80
I3
ssg81
g4672
sg74
(lp4679
g110
asbasbasbag67
(g83
g69
NtRp4680
(dp4681
g72
(dp4682
sg81
g4647
sg74
(lp4683
g67
(g88
g69
NtRp4684
(dp4685
g72
(dp4686
sg81
g4680
sg74
(lp4687
g67
(g68
g69
NtRp4688
(dp4689
g72
(dp4690
g80
I3
ssg81
g4684
sg74
(lp4691
S'#'
asbasbasbag67
(g83
g69
NtRp4692
(dp4693
g72
(dp4694
sg81
g4647
sg74
(lp4695
g67
(g88
g69
NtRp4696
(dp4697
g72
(dp4698
sg81
g4692
sg74
(lp4699
g67
(g68
g69
NtRp4700
(dp4701
g72
(dp4702
g80
I3
ssg81
g4696
sg74
(lp4703
g67
(g76
g69
NtRp4704
(dp4705
g72
(dp4706
g80
I2
ssg81
Nsg74
(lp4707
g67
(g83
g69
NtRp4708
(dp4709
g72
(dp4710
sg81
g4704
sg74
(lp4711
g67
(g88
g69
NtRp4712
(dp4713
g72
(dp4714
sg81
g4708
sg74
(lp4715
g67
(g68
g69
NtRp4716
(dp4717
g72
(dp4718
g80
I2
ssg81
g4712
sg74
(lp4719
g67
(g76
g69
NtRp4720
(dp4721
g72
(dp4722
g80
I1
ssg81
Nsg74
(lp4723
g67
(g83
g69
NtRp4724
(dp4725
g72
(dp4726
sg81
g4720
sg74
(lp4727
g67
(g88
g69
NtRp4728
(dp4729
g72
(dp4730
sg81
g4724
sg74
(lp4731
g67
(g68
g69
NtRp4732
(dp4733
g72
(dp4734
g80
I1
ssg81
g4728
sg74
(lp4735
g3918
(S't\x06\x00\x00\x00Logout'
tRp4736
asbasbasbag67
(g83
g69
NtRp4737
(dp4738
g72
(dp4739
sg81
g4720
sg74
(lp4740
g67
(g88
g69
NtRp4741
(dp4742
g72
(dp4743
sg81
g4737
sg74
(lp4744
g67
(g68
g69
NtRp4745
(dp4746
g72
(dp4747
g80
I1
ssg81
g4741
sg74
(lp4748
I00
asbasbasbag67
(g83
g69
NtRp4749
(dp4750
g72
(dp4751
sg81
g4720
sg74
(lp4752
g67
(g88
g69
NtRp4753
(dp4754
g72
(dp4755
sg81
g4749
sg74
(lp4756
g67
(g68
g69
NtRp4757
(dp4758
g72
(dp4759
g80
I1
ssg81
g4753
sg74
(lp4760
S'/initial/user/logout'
p4761
asbasbasbasbasbasbasbasbasbasbasbasbasbasbasbasbasbasbasbag67
(g83
g69
NtRp4762
(dp4763
g72
(dp4764
sg81
g3587
sg74
(lp4765
g67
(g88
g69
NtRp4766
(dp4767
g72
(dp4768
g92
g93
ssg81
g4762
sg74
(lp4769
S'meta'
p4770
asbag67
(g88
g69
NtRp4771
(dp4772
g72
(dp4773
g99
g100
ssg81
g4762
sg74
(lp4774
S':'
asbag67
(g88
g69
NtRp4775
(dp4776
g72
(dp4777
sg81
g4762
sg74
(lp4778
g67
(g68
g69
NtRp4779
(dp4780
g72
(dp4781
g80
I5
ssg81
g4775
sg74
(lp4782
g67
(g76
g69
NtRp4783
(dp4784
g72
(dp4785
g80
I4
ssg81
Nsg74
(lp4786
g67
(g83
g69
NtRp4787
(dp4788
g72
(dp4789
sg81
g4783
sg74
(lp4790
g67
(g88
g69
NtRp4791
(dp4792
g72
(dp4793
g92
g93
ssg81
g4787
sg74
(lp4794
S'author'
p4795
asbag67
(g88
g69
NtRp4796
(dp4797
g72
(dp4798
g99
g100
ssg81
g4787
sg74
(lp4799
S':'
asbag67
(g88
g69
NtRp4800
(dp4801
g72
(dp4802
sg81
g4787
sg74
(lp4803
g67
(g68
g69
NtRp4804
(dp4805
g72
(dp4806
g80
I4
ssg81
g4800
sg74
(lp4807
S'Your Name <you@example.com>'
p4808
asbasbasbag67
(g83
g69
NtRp4809
(dp4810
g72
(dp4811
sg81
g4783
sg74
(lp4812
g67
(g88
g69
NtRp4813
(dp4814
g72
(dp4815
g92
g93
ssg81
g4809
sg74
(lp4816
S'description'
p4817
asbag67
(g88
g69
NtRp4818
(dp4819
g72
(dp4820
g99
g100
ssg81
g4809
sg74
(lp4821
S':'
asbag67
(g88
g69
NtRp4822
(dp4823
g72
(dp4824
sg81
g4809
sg74
(lp4825
g67
(g68
g69
NtRp4826
(dp4827
g72
(dp4828
g80
I4
ssg81
g4822
sg74
(lp4829
S'a cool new app'
p4830
asbasbasbag67
(g83
g69
NtRp4831
(dp4832
g72
(dp4833
sg81
g4783
sg74
(lp4834
g67
(g88
g69
NtRp4835
(dp4836
g72
(dp4837
g92
g93
ssg81
g4831
sg74
(lp4838
S'generator'
p4839
asbag67
(g88
g69
NtRp4840
(dp4841
g72
(dp4842
g99
g100
ssg81
g4831
sg74
(lp4843
S':'
asbag67
(g88
g69
NtRp4844
(dp4845
g72
(dp4846
sg81
g4831
sg74
(lp4847
g67
(g68
g69
NtRp4848
(dp4849
g72
(dp4850
g80
I4
ssg81
g4844
sg74
(lp4851
S'Web2py Web Framework'
p4852
asbasbasbag67
(g83
g69
NtRp4853
(dp4854
g72
(dp4855
sg81
g4783
sg74
(lp4856
g67
(g88
g69
NtRp4857
(dp4858
g72
(dp4859
g92
g93
ssg81
g4853
sg74
(lp4860
S'keywords'
p4861
asbag67
(g88
g69
NtRp4862
(dp4863
g72
(dp4864
g99
g100
ssg81
g4853
sg74
(lp4865
S':'
asbag67
(g88
g69
NtRp4866
(dp4867
g72
(dp4868
sg81
g4853
sg74
(lp4869
g67
(g68
g69
NtRp4870
(dp4871
g72
(dp4872
g80
I4
ssg81
g4866
sg74
(lp4873
S'web2py, python, framework'
p4874
asbasbasbasbasbasbasbag67
(g83
g69
NtRp4875
(dp4876
g72
(dp4877
sg81
g3587
sg74
(lp4878
g67
(g88
g69
NtRp4879
(dp4880
g72
(dp4881
g92
g93
ssg81
g4875
sg74
(lp4882
S'models_to_run'
p4883
asbag67
(g88
g69
NtRp4884
(dp4885
g72
(dp4886
g99
g100
ssg81
g4875
sg74
(lp4887
S':'
asbag67
(g88
g69
NtRp4888
(dp4889
g72
(dp4890
sg81
g4875
sg74
(lp4891
g67
(g68
g69
NtRp4892
(dp4893
g72
(dp4894
g80
I5
ssg81
g4888
sg74
(lp4895
g67
(g76
g69
NtRp4896
(dp4897
g72
(dp4898
g80
I4
ssg81
Nsg74
(lp4899
g67
(g83
g69
NtRp4900
(dp4901
g72
(dp4902
sg81
g4896
sg74
(lp4903
g67
(g88
g69
NtRp4904
(dp4905
g72
(dp4906
sg81
g4900
sg74
(lp4907
g67
(g68
g69
NtRp4908
(dp4909
g72
(dp4910
g80
I4
ssg81
g4904
sg74
(lp4911
S'^\\w+\\.py$'
p4912
asbasbasbag67
(g83
g69
NtRp4913
(dp4914
g72
(dp4915
sg81
g4896
sg74
(lp4916
g67
(g88
g69
NtRp4917
(dp4918
g72
(dp4919
sg81
g4913
sg74
(lp4920
g67
(g68
g69
NtRp4921
(dp4922
g72
(dp4923
g80
I4
ssg81
g4917
sg74
(lp4924
S'^initial/\\w+\\.py$'
p4925
asbasbasbag67
(g83
g69
NtRp4926
(dp4927
g72
(dp4928
sg81
g4896
sg74
(lp4929
g67
(g88
g69
NtRp4930
(dp4931
g72
(dp4932
sg81
g4926
sg74
(lp4933
g67
(g68
g69
NtRp4934
(dp4935
g72
(dp4936
g80
I4
ssg81
g4930
sg74
(lp4937
S'^initial/interface/\\w+\\.py$'
p4938
asbasbasbasbasbasbasbag67
(g83
g69
NtRp4939
(dp4940
g72
(dp4941
sg81
g3587
sg74
(lp4942
g67
(g88
g69
NtRp4943
(dp4944
g72
(dp4945
g92
g93
ssg81
g4939
sg74
(lp4946
S'postprocessing'
p4947
asbag67
(g88
g69
NtRp4948
(dp4949
g72
(dp4950
g99
g100
ssg81
g4939
sg74
(lp4951
S':'
asbag67
(g88
g69
NtRp4952
(dp4953
g72
(dp4954
sg81
g4939
sg74
(lp4955
g67
(g68
g69
NtRp4956
(dp4957
g72
(dp4958
g80
I5
ssg81
g4952
sg74
(lp4959
g67
(g76
g69
NtRp4960
(dp4961
g72
(dp4962
g80
I4
ssg81
Nsg74
(lp4963
sbasbasbasbag67
(g83
g69
NtRp4964
(dp4965
g72
(dp4966
sg81
g3587
sg74
(lp4967
g67
(g88
g69
NtRp4968
(dp4969
g72
(dp4970
g92
g93
ssg81
g4964
sg74
(lp4971
S'session_cookie_expires'
p4972
asbag67
(g88
g69
NtRp4973
(dp4974
g72
(dp4975
g99
g100
ssg81
g4964
sg74
(lp4976
S':'
asbag67
(g88
g69
NtRp4977
(dp4978
g72
(dp4979
sg81
g4964
sg74
(lp4980
g67
(g68
g69
NtRp4981
(dp4982
g72
(dp4983
g80
I5
ssg81
g4977
sg74
(lp4984
S'None'
p4985
asbasbasbag67
(g83
g69
NtRp4986
(dp4987
g72
(dp4988
sg81
g3587
sg74
(lp4989
g67
(g88
g69
NtRp4990
(dp4991
g72
(dp4992
g92
g93
ssg81
g4986
sg74
(lp4993
S'session_data_name'
p4994
asbag67
(g88
g69
NtRp4995
(dp4996
g72
(dp4997
g99
g100
ssg81
g4986
sg74
(lp4998
S':'
asbag67
(g88
g69
NtRp4999
(dp5000
g72
(dp5001
sg81
g4986
sg74
(lp5002
g67
(g68
g69
NtRp5003
(dp5004
g72
(dp5005
g80
I5
ssg81
g4999
sg74
(lp5006
S'session_data_projeto'
p5007
asbasbasbag67
(g83
g69
NtRp5008
(dp5009
g72
(dp5010
sg81
g3587
sg74
(lp5011
g67
(g88
g69
NtRp5012
(dp5013
g72
(dp5014
g92
g93
ssg81
g5008
sg74
(lp5015
S'session_file'
p5016
asbag67
(g88
g69
NtRp5017
(dp5018
g72
(dp5019
g99
g100
ssg81
g5008
sg74
(lp5020
S':'
asbag67
(g88
g69
NtRp5021
(dp5022
g72
(dp5023
sg81
g5008
sg74
(lp5024
g67
(g68
g69
NtRp5025
(dp5026
g72
(dp5027
g80
I5
ssg81
g5021
sg74
(lp5028
S"<open file '/var/www/conferencia/applications/projeto/sessions/127.0.0.1-23958a81-b42b-49f4-a9e3-fd1b7fc6e898', mode 'rb+' at 0x7fe9646e6420>"
p5029
asbasbasbag67
(g83
g69
NtRp5030
(dp5031
g72
(dp5032
sg81
g3587
sg74
(lp5033
g67
(g88
g69
NtRp5034
(dp5035
g72
(dp5036
g92
g93
ssg81
g5030
sg74
(lp5037
S'session_filename'
p5038
asbag67
(g88
g69
NtRp5039
(dp5040
g72
(dp5041
g99
g100
ssg81
g5030
sg74
(lp5042
S':'
asbag67
(g88
g69
NtRp5043
(dp5044
g72
(dp5045
sg81
g5030
sg74
(lp5046
g67
(g68
g69
NtRp5047
(dp5048
g72
(dp5049
g80
I5
ssg81
g5043
sg74
(lp5050
S'/var/www/conferencia/applications/projeto/sessions/127.0.0.1-23958a81-b42b-49f4-a9e3-fd1b7fc6e898'
p5051
asbasbasbag67
(g83
g69
NtRp5052
(dp5053
g72
(dp5054
sg81
g3587
sg74
(lp5055
g67
(g88
g69
NtRp5056
(dp5057
g72
(dp5058
g92
g93
ssg81
g5052
sg74
(lp5059
S'session_id'
p5060
asbag67
(g88
g69
NtRp5061
(dp5062
g72
(dp5063
g99
g100
ssg81
g5052
sg74
(lp5064
S':'
asbag67
(g88
g69
NtRp5065
(dp5066
g72
(dp5067
sg81
g5052
sg74
(lp5068
g67
(g68
g69
NtRp5069
(dp5070
g72
(dp5071
g80
I5
ssg81
g5065
sg74
(lp5072
g485
asbasbasbag67
(g83
g69
NtRp5073
(dp5074
g72
(dp5075
sg81
g3587
sg74
(lp5076
g67
(g88
g69
NtRp5077
(dp5078
g72
(dp5079
g92
g93
ssg81
g5073
sg74
(lp5080
S'session_id_name'
p5081
asbag67
(g88
g69
NtRp5082
(dp5083
g72
(dp5084
g99
g100
ssg81
g5073
sg74
(lp5085
S':'
asbag67
(g88
g69
NtRp5086
(dp5087
g72
(dp5088
sg81
g5073
sg74
(lp5089
g67
(g68
g69
NtRp5090
(dp5091
g72
(dp5092
g80
I5
ssg81
g5086
sg74
(lp5093
g3644
asbasbasbag67
(g83
g69
NtRp5094
(dp5095
g72
(dp5096
sg81
g3587
sg74
(lp5097
g67
(g88
g69
NtRp5098
(dp5099
g72
(dp5100
g92
g93
ssg81
g5094
sg74
(lp5101
S'session_locked'
p5102
asbag67
(g88
g69
NtRp5103
(dp5104
g72
(dp5105
g99
g100
ssg81
g5094
sg74
(lp5106
S':'
asbag67
(g88
g69
NtRp5107
(dp5108
g72
(dp5109
sg81
g5094
sg74
(lp5110
g67
(g68
g69
NtRp5111
(dp5112
g72
(dp5113
g80
I5
ssg81
g5107
sg74
(lp5114
g1754
asbasbasbag67
(g83
g69
NtRp5115
(dp5116
g72
(dp5117
sg81
g3587
sg74
(lp5118
g67
(g88
g69
NtRp5119
(dp5120
g72
(dp5121
g92
g93
ssg81
g5115
sg74
(lp5122
S'session_new'
p5123
asbag67
(g88
g69
NtRp5124
(dp5125
g72
(dp5126
g99
g100
ssg81
g5115
sg74
(lp5127
S':'
asbag67
(g88
g69
NtRp5128
(dp5129
g72
(dp5130
sg81
g5115
sg74
(lp5131
g67
(g68
g69
NtRp5132
(dp5133
g72
(dp5134
g80
I5
ssg81
g5128
sg74
(lp5135
g110
asbasbasbag67
(g83
g69
NtRp5136
(dp5137
g72
(dp5138
sg81
g3587
sg74
(lp5139
g67
(g88
g69
NtRp5140
(dp5141
g72
(dp5142
g92
g93
ssg81
g5136
sg74
(lp5143
S'session_storage_type'
p5144
asbag67
(g88
g69
NtRp5145
(dp5146
g72
(dp5147
g99
g100
ssg81
g5136
sg74
(lp5148
S':'
asbag67
(g88
g69
NtRp5149
(dp5150
g72
(dp5151
sg81
g5136
sg74
(lp5152
g67
(g68
g69
NtRp5153
(dp5154
g72
(dp5155
g80
I5
ssg81
g5149
sg74
(lp5156
g3464
asbasbasbag67
(g83
g69
NtRp5157
(dp5158
g72
(dp5159
sg81
g3587
sg74
(lp5160
g67
(g88
g69
NtRp5161
(dp5162
g72
(dp5163
g92
g93
ssg81
g5157
sg74
(lp5164
S'status'
p5165
asbag67
(g88
g69
NtRp5166
(dp5167
g72
(dp5168
g99
g100
ssg81
g5157
sg74
(lp5169
S':'
asbag67
(g88
g69
NtRp5170
(dp5171
g72
(dp5172
sg81
g5157
sg74
(lp5173
g67
(g68
g69
NtRp5174
(dp5175
g72
(dp5176
g80
I5
ssg81
g5170
sg74
(lp5177
S'200'
p5178
asbasbasbag67
(g83
g69
NtRp5179
(dp5180
g72
(dp5181
sg81
g3587
sg74
(lp5182
g67
(g88
g69
NtRp5183
(dp5184
g72
(dp5185
g92
g93
ssg81
g5179
sg74
(lp5186
S'subtitle'
p5187
asbag67
(g88
g69
NtRp5188
(dp5189
g72
(dp5190
g99
g100
ssg81
g5179
sg74
(lp5191
S':'
asbag67
(g88
g69
NtRp5192
(dp5193
g72
(dp5194
sg81
g5179
sg74
(lp5195
g67
(g68
g69
NtRp5196
(dp5197
g72
(dp5198
g80
I5
ssg81
g5192
sg74
(lp5199
g3918
(S's\r\x00\x00\x00customize me!'
tRp5200
asbasbasbag67
(g83
g69
NtRp5201
(dp5202
g72
(dp5203
sg81
g3587
sg74
(lp5204
g67
(g88
g69
NtRp5205
(dp5206
g72
(dp5207
g92
g93
ssg81
g5201
sg74
(lp5208
S'title'
p5209
asbag67
(g88
g69
NtRp5210
(dp5211
g72
(dp5212
g99
g100
ssg81
g5201
sg74
(lp5213
S':'
asbag67
(g88
g69
NtRp5214
(dp5215
g72
(dp5216
sg81
g5201
sg74
(lp5217
g67
(g68
g69
NtRp5218
(dp5219
g72
(dp5220
g80
I5
ssg81
g5214
sg74
(lp5221
S'Projeto'
p5222
asbasbasbag67
(g83
g69
NtRp5223
(dp5224
g72
(dp5225
sg81
g3587
sg74
(lp5226
g67
(g88
g69
NtRp5227
(dp5228
g72
(dp5229
g92
g93
ssg81
g5223
sg74
(lp5230
S'view'
p5231
asbag67
(g88
g69
NtRp5232
(dp5233
g72
(dp5234
g99
g100
ssg81
g5223
sg74
(lp5235
S':'
asbag67
(g88
g69
NtRp5236
(dp5237
g72
(dp5238
sg81
g5223
sg74
(lp5239
g67
(g68
g69
NtRp5240
(dp5241
g72
(dp5242
g80
I5
ssg81
g5236
sg74
(lp5243
S'initial/interface.html'
p5244
asbasbasbasbasbsS'locals'
p5245
(dp5246
S'a'
S"'4'"
p5247
sS'confno'
p5248
S'1083'
p5249
sS'pin'
p5250
S"'2004'"
p5251
sS'evento'
p5252
S"<Storage {'admin_user': '2', 'starttime': '2013-...3-04-03 09:53:28', '_formname': 'meetme/create'}>"
p5253
sS'nome'
p5254
S"u'Alexandre'"
p5255
sS'membros'
p5256
S"'4'"
p5257
sS'teste'
p5258
S"((u'Alexandre', u'alexandre@ad2.com.br', u'2004'),)"
p5259
sg3566
S"'alexandre@ad2.com.br'"
p5260
sssS'traceback'
p5261
S'Traceback (most recent call last):\n  File "/var/www/conferencia/gluon/restricted.py", line 212, in restricted\n    exec ccode in environment\n  File "/var/www/conferencia/applications/projeto/controllers/initial.py", line 343, in <module>\n  File "/var/www/conferencia/gluon/globals.py", line 193, in <lambda>\n    self._caller = lambda f: f()\n  File "/var/www/conferencia/applications/projeto/controllers/initial.py", line 58, in interface\n    email(evento, confno)\n  File "/var/www/conferencia/applications/projeto/controllers/initial.py", line 93, in email\n    message="<html> %s A confer\xc3\xaancia %s acaba de ser criada e voc\xc3\xaa \xc3\xa9 um membro, seguem os dados:<br>Hor\xc3\xa1rio de In\xc3\xadcio: %s<br>Hor\xc3\xa1rio de T\xc3\xa9rmino: %s<br>Pin: %s%s</html>" % (nome, confno, evento.starttime, evento.endtime, confno, pin)\nUnicodeDecodeError: \'ascii\' codec can\'t decode byte 0xc3 in position 11: ordinal not in range(128)\n'
p5262
s.