(dp1
S'output'
p2
S"<type 'exceptions.UnboundLocalError'> local variable 'mes' referenced before assignment"
p3
sS'layer'
p4
S'/var/www/gravacao/applications/projeto/controllers/initial.py'
p5
sS'code'
p6
S'# coding=UTF-8\nimport datetime, os, commands\n\ndef principal():\n\n\tnow = datetime.datetime.now()\n\tano = now.year\n\tlista=[]\n\tfor i in range(12):\n\t\tlista.append(ano)\n\t\tano = ano - 1\n\n\tform = SQLFORM.factory(\n    \t\tField(\'mes\', requires=IS_IN_SET([\'01\', \'02\', \'03\', \'04\', \'05\', \'06\', \'07\', \'08\', \'09\', \'10\', \'11\', \'12\'])),\n    \t\tField("ano", requires=IS_IN_SET(lista)),\n    \t\tformstyle="divs",\n    \t\t)\n\n\tif form.process().accepted:\n\t\tano = form.vars.ano\n\t\tmes = form.vars.mes\n\t\tlista_pastas = commands.getoutput("ls /var/spool/asterisk/monitor | grep %s%s" %(ano, mes))\n\t\tprint lista_pastas\n\t\tif lista_pastas == \'\': ##erro busca nao encontradaa\n\t\t\tprint \'vazio\'\n\t\t\tsession.flash = \'Busca n\xc3\xa3o encontrada\'\n    \t\tredirect(URL("initial", "/principal"))\n    \telse:\t\n\t\t\tprint \'asda\'\n\t\t\tarq = commands.getoutput("ls /var/spool/asterisk/monitor/temp_grava -laR | grep -v ^[.dlt] | grep -v ^$ | wc -l")\n\t\t\ttabela = [mes, ano, arq]\n\t\t\tprint tabela\n\t\t\tprint \'aaa\'\t\t\n\n\treturn response.render("initial/show_form2.html", form=form)\n\n\n\ndef agenda():\n\tresponse.title = "Relatorio de ligacoes"\n\n\tcdr = db.executesql("SELECT calldate, origem, src, dst, duration, disposition, userfield, uniqueid  from cdr WHERE calldate like \'%2013-05%\';")\n\n    # define header and footers:\n\thead = THEAD(TR(TH("Data",_width="20%"), \n                    TH("O",_width="12%"),\n                    TH("Src",_width="14%"),\n                    TH("Dst",_width="14%"),\n                    TH("D",_width="10%"),\n                    TH("S",_width="12%"),\n                    TH("U",_width="18%"), \n                    _bgcolor="#A0A0A0"))\n\tfoot = TFOOT(TR(TH("Data",_width="20%"), \n                    TH("O",_width="12%"),\n                    TH("Src",_width="14%"),\n                    TH("Dst",_width="14%"),\n                    TH("D",_width="10%"),\n                    TH("S",_width="12%"),\n                    TH("U",_width="18%"),\n                    _bgcolor="#E0E0E0"))\n    \n    # create several rows:\n\trows = []\n\ti=0\n\tfor row in cdr:\n\t\tcol = i % 2 and "#F0F0F0" or "#FFFFFF"\n\t\tcol2="#000000"\n\t\ti=i+1\n\t\t#print i\n\t\trows.append(TR(TD(row[0]),\n                       TD(row[1]),\n                       TD(row[2]),\n                       TD(row[3]),\n                       TD(row[4]),\n                       TD(row[5]),\n                       TD(row[7]),\n                       _bgcolor=col))  \n\n    # make the table object\n\tbody = TBODY(*rows)\n\t#print body\n\ttable = TABLE(*[head,foot, body], \n                  _border="5", _align="center", _width="100%")\n\n\tfrom gluon.contrib.pyfpdf import FPDF, HTMLMixin\n\n\t# define our FPDF class (move to modules if it is reused  frequently)\n\tclass MyFPDF(FPDF, HTMLMixin):\n\t\tdef header(self):\n\t\t\tself.set_font(\'Arial\',\'B\',15)\n\t\t\tself.cell(0,10, response.title ,1,0,\'C\')\n\t\t\tself.ln(20)\n\t\t\t\n               \n\t\tdef footer(self):\n\t\t\tself.set_y(-15)\n\t\t\tself.set_font(\'Arial\',\'I\',8)\n\t\t\ttxt = \'Pag. %s de %s\' % (self.page_no(), self.alias_nb_pages())\n\t\t\tself.cell(0,10,txt,0,0,\'C\')\n                    \n\tpdf=MyFPDF()\n\t# first page:\n\tpdf.add_page()\n\tpdf.write_html(str(XML(table, sanitize=False)))\n\t#response.headers[\'Content-Type\']=\'application/agenda/principal\'\n\treturn pdf.output(name=\'pdf/relatorio.pdf\', dest=\'F\')\n\n\n\ndef agenda_particular():\n\tresponse.title="Particular"\n\tif session.aut == \'0\':\n\t\tfuncao = request.vars[\'f\']\n\t\tredirect(URL("redireciona", "/%s" %(funcao)))\n\t\n\tprint \'agenda particular\'\n\tquery = ((db.agenda.ramal == session.ramal) & (db.agenda.particular == \'V\'))\n\t#print query\n\n\tdb.agenda.id.readable=False\n\tdb.agenda.particular.readable=False\n\tdb.agenda.ramal.readable=False\n\tfields = (db.agenda.id, db.agenda.empresa, db.agenda.telefone, \n\t\t\t\tdb.agenda.contato, db.agenda.dep, db.agenda.particular, db.agenda.ramal)\n\t#headers = {\'hosts.id\':   \'ID\',\n\t#           \'hosts.servicos\': \'Servicos\'}\n\tlinks=[lambda row: A(\'Discar\', \n   \t\t\t      _class=\'btn\', \n   \t\t\t      _title=\'Discar\', \n   \t\t    \t  _href=URL("initial", "/ligacao", \n   \t\t      \tvars=dict(n=row.telefone, e=row.empresa, f=\'agenda_particular\'))),\n\t\t\t\tlambda row: A(\'Editar\', \n   \t\t      \t_class=\'btn\', \n   \t\t      \t_title=\'Editar\', \n   \t\t      \t_href=URL("initial", "/edit", \n   \t\t      \tvars=dict(f=row.id)))] \n   \n\tgrid = SQLFORM.grid(query=query, fields=fields, csv=False,\n\t\t\t\t\tdetails=False, searchable=True, deletable=True, editable=False, \n\t\t\t\t\tcreate=False, links=links, user_signature=False, orderby=db.agenda.empresa)\n\n\treturn response.render("initial/show_grid.html", grid=grid)\n\n\ndef ligacao():\n\ttelefone = request.vars[\'n\']\n\tempresa = request.vars[\'e\']\n\tramal = str(session.ramal)\n\tramal_fis = str(session.ramal_fis)\n\ttecnologia = str(session.tecnologia)\n\tfuncao = request.vars[\'f\']\n\tif funcao == \'agenda\':\n\t\tparticular = \'F\'\n\tif funcao == \'agenda_particular\':\n\t\tparticular = \'T\'\n\n\tf = open(\'/tmp/pytext\',\'w\')\n\tf.write(\'Channel: %s/%s\\n\' %(tecnologia, ramal_fis))\n\tf = open(\'/tmp/pytext\',\'a\')\n\tf.write(\'Context: ramais\\n\')\n\tf = open(\'/tmp/pytext\',\'a\')\n\tf.write(\'Extension: %s\\n\' %(telefone))\n\tf = open(\'/tmp/pytext\',\'a\')\n\tf.write(\'Callerid: agenda\\nMaxRetries: 1\\nRetryTime: 30\\nWaitTime: 60\')\n\tf.close()\n\n\tnow = str(datetime.datetime.now())\n\tnow=now.split(\'.\')[0]\n\tteste = db.executesql("INSERT INTO agenda_lg (ramal, telefone, empresa, datetime, particular) VALUES(\'%s\', \'%s\', \'%s\', \'%s\', \'%s\');" %(ramal, telefone, empresa, now, particular))\n\tprint teste\n\tprint \'Liga\xc3\xa7\xc3\xa3o do ramal %s para n\xc3\xbamero %s\' %(str(session.ramal), telefone)\n\n\tsession.flash = "Liga\xc3\xa7\xc3\xa3o do ramal %s para n\xc3\xbamero %s" %(str(session.ramal), telefone)\n\tredirect(URL("initial", "/%s" %(funcao)))\n\n\ndef redireciona():\n\tif session.aut != \'0\':\n\t\tfuncao = request.vars[\'f\']\n\t\tredirect(URL("initial", "/%s" %(funcao)))\n\t\t#redirect(URL("initial", "/permissao?f=%s" %(funcao)))\n\telse:\n\t\tprint \'ramal %s nao esta logado (redireciona)\' %(session.aut)\n\t\tsession.flash = "Fa\xc3\xa7a o login"\n\t\tredirect(URL("initial", "/log_in"))\n\ndef permissao():\n\t#permissao add\n\tif session.permissao == 0:\n\t\tredirect(URL("initial", "/addition2"))\n\telse:\n\t\tredirect(URL("initial", "/addition"))\n\n\ndef addition():\n\n    form = SQLFORM(db.agenda, submit_button=\'Adicionar\', \n    \t\tfields = [\'empresa\', \'telefone\', \'contato\', \'dep\', \'particular\', \'ramal\'], \n\t\t\tlabels = {\'empresa\':\'Empresa\', \'telefone\':\'Telefone\', \n\t\t\t\t\t\t\'contato\':\'Contato\', \'dep\':\'Departamento\', \n\t\t\t\t\t\t\'particular\':\'Particular\', \'ramal\':\'Ramal\'},)\n    form.vars.ramal = session.ramal\n\n    response.title="Contato"\n    if session.permissao == 0:\n\t\tredirect(URL("initial", "/addition2"))\n    if session.aut == \'0\':\n\t\tfuncao = request.vars[\'f\']\n\t\tredirect(URL("redireciona", "/%s" %(funcao)))\n\n\n    if form.process().accepted:\n    \t#evento = request.vars\n    \t#confno = form.vars.id\n    \t#email(evento, confno)\n    \tresponse.flash = \'Inserido com sucesso\'\n    \tprint form.vars.particular\n    \tif form.vars.particular == True:\n    \t\tredirect(URL("initial", "/agenda_particular"))\n    \telse:\n    \t\tredirect(URL("initial", "/agenda"))\t\t\t\n    elif form.errors:\n    \tresponse.flash = \'Ops, algo n\xc3\xa3o est\xc3\xa1 correto\'\n    else:\n    \tresponse.flash = \'Insira os dados do formul\xc3\xa1rio\'\n    return response.render("initial/show_form2.html", form=form)\n\ndef addition2():\n\t\n    form = SQLFORM(db.agenda, submit_button=\'Adicionar\', \n    \t\tfields = [\'empresa\', \'telefone\', \'contato\', \'dep\', \'ramal\'], \n\t\t\tlabels = {\'empresa\':\'Empresa\', \'telefone\':\'Telefone\', \n\t\t\t\t\t\t\'contato\':\'Contato\', \'dep\':\'Departamento\', \n\t\t\t\t\t\t\'ramal\':\'Ramal\'},)\n    form.vars.ramal = session.ramal\n    form.vars.particular = True\n\n    response.title="Contato"\n    if session.aut == \'0\':\n\t\tfuncao = request.vars[\'f\']\n\t\tredirect(URL("redireciona", "/%s" %(funcao)))\n\n    if form.process().accepted:\n    \t#evento = request.vars\n    \t#confno = form.vars.id\n    \t#email(evento, confno)\n    \tresponse.flash = \'Inserido com sucesso\'\n    \tprint form.vars.particular\n    \tif form.vars.particular == True:\n    \t\tredirect(URL("initial", "/agenda_particular"))\n    \telse:\n    \t\tredirect(URL("initial", "/agenda"))\t\t\t\n    elif form.errors:\n    \tresponse.flash = \'Ops, algo n\xc3\xa3o est\xc3\xa1 correto\'\n    else:\n    \tresponse.flash = \'Insira os dados do formul\xc3\xa1rio\'\n    return response.render("initial/show_form2.html", form=form)\n\n\ndef edit():\n    form = SQLFORM(db.agenda, request.vars[\'f\'], submit_button=\'Editar\')\n\n    if form.process().accepted:\n       response.flash = \'Editado com sucesso\'\n    elif form.errors:\n       response.flash = \'Ops, algo n\xc3\xa3o est\xc3\xa1 correto\'\n    else:\n       response.flash = \'Edite os dados do formul\xc3\xa1rio\'\n\n    return response.render("initial/show_form2.html", form=form)\n\n\ndef log_in():\n\t#adicionar\n    form = SQLFORM.factory(\n    \t\tField("ramal", requires = IS_NOT_EMPTY(error_message=\n\t\t\t\t\t\tT("valor n\xc3\xa3o pode ser nulo"))),\n    \t\tField("senha", "password"),\n    \t\tformstyle="divs",\n    \t\t)\n\n    response.title="login"\n    if form.process().accepted:\n    \tramal_dig = form.vars.ramal\n    \tsenha_dig = form.vars.senha\n    \tprint \'ramal digitado:%s  senha digitada:%s\' %(ramal_dig, senha_dig) \n    \tteste = db.executesql("SELECT v.ramal_virtual, v.nome, f.username, p.agenda_senha, f.tecnologia, p.agenda_nivel FROM ramal_virtual v LEFT JOIN ramal f ON v.username_ramalfisico = f.username INNER JOIN permissao p ON v.id_ramalvirtual = p.id_ramalvirtual WHERE v.ramal_virtual = %s;" %(ramal_dig))\n    \tprint \'busca sql: %s\' %str(teste)\n\n    \tif teste == ():\n    \t\tprint "ramal incorreto"\n    \t\tresponse.flash = \'Ramal incorreto\'\n    \telse:\n    \t\tusuario=teste[0][1]\n    \t\tsenha=teste[0][3]\n\n    \t\tprint \'usuario senha\'\n    \t\tprint session.ramal, usuario, session.ramal_fis, senha\n    \t   \t#if ramal_dig == ramal:\n    \t\t#\tprint "ramal ok"\n    \t\tif senha_dig == senha:\n    \t\t\tprint "senha ok"\n    \t\t\tsession.ramal=teste[0][0]\n    \t\t\tsession.ramal_fis=teste[0][2]\n    \t\t\tsession.tecnologia=teste[0][4]\n    \t\t\tsession.permissao=teste[0][5]\n    \t\t\tprint \'permissao %s\' %(session.permissao)\n    \t\t\tsession.aut=session.ramal\n\n    \t\t\tprint\'login efetuado %s (log_in)\' %(session.ramal)\n    \t\t\tsession.flash = \'Bem Vindo %s\' %(usuario)\n    \t\t\tredirect(URL("initial", "/principal"))\n    \t\telse:\n    \t\t\tprint \'senha incorreta\'\n    \t\t\tresponse.flash = \'Senha incorreta\'\t\n    return response.render("initial/show_form.html", form=form)\n\n\ndef log_out():\n\tsession.aut=\'0\'\n\tsession.ramal=\'0\'\n\tsession.ramal_fis=\'0\'\n\tsession.tecnologia=\'0\'\n\tprint session.aut\n\tprint "logout (log_out)"\n\tredirect(URL("initial", "/log_in"))\n\n\n\n\n\n\n\n\n\n\n\n\n\n\ndef email(evento, confno):\n\n\tmembros = evento.membros_user\n    \tfor a in membros:        \n   \t\t\tprint \'membro:\',a\n   \t\t\tteste = db.executesql(\'SELECT nome, email, pin FROM usuario WHERE id = %s;\' %str(a))\n   \t\t\tprint  \'select:\',teste[0][0], teste[0][1], teste[0][2]\n   \t\t\tnome = teste[0][0] #est\xc3\xa1 dando problema no envio\n   \t\t\temail = str(teste[0][1])\n   \t\t\tpin = str(teste[0][2])\n   \t\t\tprint type(email)\n   \t\t\tprint evento.starttime, evento.endtime, confno\n   \t\t\tmail.send(\n\t\t\tto="fndiaz02@gmail.com",#variavel email\n\t\t\tsubject="Confer\xc3\xaancia",\n\t\t\tmessage="<html>A confer\xc3\xaancia %s acaba de ser criada e voc\xc3\xaa \xc3\xa9 um membro, seguem os dados:<br>Hor\xc3\xa1rio de In\xc3\xadcio: %s<br>Hor\xc3\xa1rio de T\xc3\xa9rmino: %s<br>Pin: %s%s</html>" % (nome, confno, evento.starttime, evento.endtime, confno, pin)\n\t\t\t)\n\n   \tadmin = evento.admin_user\n   \tfor a in admin:\n   \t\tprint \'admin:\',a\n   \t\tteste = db.executesql(\'SELECT nome, email FROM usuario WHERE id = %s;\' %str(a))\n   \t\tprint \'select:\',teste[0][0], teste[0][1]\n   \t\tprint evento.starttime, evento.endtime, confno\n\n\n\t#if auth.has_membership(\'voip\'):\n\t#\tmail.send(\n\t#\t\tto="fndiaz02@gmail.com",\n\t#\t\tsubject="host adicionado",\n\t#\t\tmessage="<html>Um novo host foi adicionado pelo usu\xc3\xa1rio %s <br>nome: %s <br>vpn: %s<br><br>\xc3\x89 preciso fazer a instala\xc3\xa7\xc3\xa3o do client zabbix e bacula</html>" % (auth.user.first_name, host.nome, host.ip_chegada,)\n\t#\t\t)\n\t#elif auth.has_membership(\'internet\'):\n\t#\tmail.send(\n\t#\t\tto="fernando@ad2.com.br",\n\t#\t\tsubject="host adicionado",\n\t#\t\tmessage="<html>Um novo host foi adicionado pelo usu\xc3\xa1rio %s <br>nome: %s <br>vpn: %s<br><br>\xc3\x89 preciso fazer a instala\xc3\xa7\xc3\xa3o do client zabbix e bacula</html>" % (auth.user.first_name, host.nome, host.ip_chegada,)\n\t#\t\t)\n\n\n@auth.requires_login()\ndef cliente_host():\n\tfiltro = request.vars[\'f\']\n\tqueryset = db(db.cliente.id == filtro)\n\trows = queryset.select()\n\tcliente = rows[0]\n\tresponse.title = cliente.nome\n\tprint cliente\n\n\tnome_ant1 = request.vars[\'n1\']\n\tfuncao_ant1 = request.vars[\'p1\']\n\tnome_atual = cliente.nome\n\n\tquery = ((db.hosts.id_cliente == filtro) & (db.distro.id == db.hosts.id_distro))\n\tlinks = [dict(header=\'\',body=lambda row: A( IMG(_src=URL("static", "images", args=(row.distro.img)) ))), \n\t lambda row: A(\'Detalhes\', \n    \t\t      _class=\'btn\', \n    \t\t      _title=\'Detalhes\', \n    \t\t      _href=URL("initial", "/detalhes_nav", \n    \t\t      vars=dict(f=row.hosts.id, c=filtro, n=cliente.nome, \n    \t\t      \t\t\tn1=\'Clientes\', p1=\'show_cliente\', p=\'cliente_host\'))),\n\t lambda row: A(\'Editar\', \n    \t\t      _class=\'btn\', \n    \t\t      _title=\'Editar\', \n    \t\t      _href=URL("initial", "/edit_host", \n    \t\t      vars=dict(f=row.hosts.id, c=filtro, n=cliente.nome, \n    \t\t      \t\tn1=\'Clientes\', p1=\'show_cliente\', p=\'cliente_host\')))]\n\tdb.hosts.id.readable=False\n\tdb.distro.img.readable=False\n\t\n\tfields = (db.hosts.id, db.hosts.id_servidor, db.hosts.id_distro, db.distro.img, \n\t\t\t  db.hosts.ip_chegada, db.hosts.porta_ssh, db.hosts.gateway)\n\theaders = {\'hosts.id\':   \'ID\',\n\t\t\t   \'hosts.id_cliente\': \'Cliente\',\n               \'hosts.id_servidor\': \'Servidor\',\n               \'hosts.id_distro\': \'Distro\',\n               \'hosts.nome\': \'Nome\',\n\t           \'hosts.servicos\': \'Servicos\'}\n\tgrid = SQLFORM.grid(query=query, fields=fields, headers=headers, csv=False,\n\t\t\t\t\t\tdetails=False, searchable=False, maxtextlength=23, links=links, \n\t\t\t\t\t\tlinks_placement=\'left\', editable=False, create=False)\n\n\treturn response.render("initial/show_grid2.html", grid=grid, nome_ant1=nome_ant1, \n\t\t\t\t\t\tfuncao_ant1=funcao_ant1, nome_atual=nome_atual)\n\n@auth.requires_login()\ndef servidor_host():\n\tfiltro = request.vars[\'f\']\n\tqueryset = db(db.servidor.id == filtro)\n\trows = queryset.select()\n\tservidor = rows[0]\n\tresponse.title = servidor.nome\n\n\tnome_ant1 = request.vars[\'n1\']\n\tfuncao_ant1 = request.vars[\'p1\']\n\tnome_atual = servidor.nome\t\n\n\tdb.distro.img.readable=False\n\tdb.hosts.id.readable=False\n\tquery = ((db.hosts.id_servidor == filtro) & (db.distro.id == db.hosts.id_distro))\n\n\tlinks = [dict(header=\'\',body=lambda row: A( IMG(_src=URL("static", "images", args=(row.distro.img)) ))), \n\t lambda row: A(\'Detalhes\', \n    \t\t      _class=\'btn\', \n    \t\t      _title=\'Detalhes\', \n    \t\t      _href=URL("initial", "/detalhes_nav", \n    \t\t      vars=dict(f=row.hosts.id, c=filtro, n=servidor.nome, \n    \t\t      \t\tn1=\'Servidores\', p1=\'show_servidor\', p=\'servidor_host\'))),\n\t lambda row: A(\'Editar\', \n    \t\t      _class=\'btn\', \n    \t\t      _title=\'Editar\', \n    \t\t      _href=URL("initial", "/edit_host", \n    \t\t      vars=dict(f=row.hosts.id, c=filtro, n=servidor.nome, \n    \t\t      \t\tn1=\'Servidores\', p1=\'show_servidor\', p=\'servidor_host\')))]\n\n\tfields = (db.hosts.id, db.hosts.id_cliente, db.hosts.id_distro, db.distro.img, \n\t\t\t\tdb.hosts.ip_chegada, db.hosts.porta_ssh, db.hosts.gateway)\n\theaders = {\'hosts.id\':   \'ID\',\n\t\t\t   \'hosts.id_cliente\': \'Cliente\',\n               \'hosts.id_servidor\': \'Servidor\',\n               \'hosts.id_distro\': \'Distro\',\n               \'hosts.nome\': \'Nome\',\n\t           \'hosts.servicos\': \'Servicos\'}\n\tgrid = SQLFORM.grid(query=query, fields=fields, headers=headers, csv=False,\n\t\t\t\t\t\tdetails=False, searchable=False, maxtextlength=23, links=links, \n\t\t\t\t\t\tlinks_placement=\'left\', editable=False, create=False)\n\n\treturn response.render("initial/show_grid2.html", grid=grid, nome_ant1=nome_ant1, \n\t\t\t\t\t\tfuncao_ant1=funcao_ant1, nome_atual=nome_atual)\n\n@auth.requires_login()\ndef distro_host():\n\tform = SQLFORM.factory(\n    \t\tField(\'mes\', requires=IS_IN_SET([\'01\', \'02\', \'03\', \'04\', \'05\', \'06\', \'07\', \'08\', \'09\', \'10\', \'11\', \'12\'])),\n    \t\tField("ano", requires=IS_IN_SET([\'2007\', \'2008\', \'2009\', \'2010\', \'2011\', \'2012\', \'2013\'])),\n    \t\tformstyle="divs",\n    \t\t)\n\n\tif form.process().accepted:\n\t\tano = form.vars.ano\n\t\tmes = form.vars.mes\n\t\tprint ano, mes\n\t\tlista_pastas = commands.getoutput("ls /var/spool/asterisk/monitor | grep %s%s" %(ano, mes))\n\t\tprint lista_pastas\n\n\t\tf = open(\'pastas_grav\',\'w\')\n\t\tf.write(lista_pastas)\n\t\tf = open(\'pastas_grav\', \'r\')\n\t\tpastas = f.readlines()\n\t\tprint pastas\n\n\t\tcommands.getoutput("mkdir /var/spool/asterisk/monitor/temp_grava")\n\t\tfor pasta in pastas:\n\t\t\tpasta=pasta.split(\'\\n\')[0]\n\t\t\tprint \'copiando pasta :%s:\' %(pasta)\n\t\t\tsaida_cp = os.system("cp -r /var/spool/asterisk/monitor/%s /var/spool/asterisk/monitor/temp_grava" %(pasta))\n\t\t\tprint \'saida cp:%s\' %(saida_cp)\n\n\t\tos.system("zip -r /var/spool/asterisk/monitor/temp_grava.zip /var/spool/asterisk/monitor/temp_grava")\n\t\t\n\t\t\n\n\n\t\tif lista_pastas == \'\': ##erro busca nao encontradaa\n\t\t\tprint \'vazio\'\n\n\treturn response.render("initial/show_form2.html", form=form)\n\ndef detalhes_nav():\n\t#detalhes\n\tfiltro = request.vars[\'f\'] #id_host\n\tid_cliente = request.vars[\'c\'] #id_cliente\n\tnome_ant = request.vars[\'n\'] #nome (asterisk ou agronelli ou debian)\n\tnome_ant1 = request.vars[\'n1\'] #nome (servidores ou clientes ou distros)\n\tfuncao_ant = request.vars[\'p\'] #funcao(host_servidores)\n\tfuncao_ant1 = request.vars[\'p1\'] #funcao(show_servidores)\n\t\n\n\tquery = ((db.hosts.id == filtro) & (db.hosts.id_cliente == db.cliente.id)\n\t \t    & (db.hosts.id_servidor == db.servidor.id) \n\t \t    & (db.hosts.id_distro == db.distro.id)) \n\tdetalhes = db.hosts(query)\n\t\n\t\n\treturn response.render("initial/detalhes_host.html", detalhes=detalhes, \n\t\t\t\tid_cliente=id_cliente, funcao_ant=funcao_ant, funcao_ant1=funcao_ant1, \n\t\t\t\tnome_ant=nome_ant, nome_ant1=nome_ant1, filtro=filtro)\n\n\ndef user():\n\t#if request.args(0) == \'register\':\n    #    \tdb.auth_user.bio.writable = db.auth_user.bio.readable = False\n\treturn response.render("initial/user.html", user=auth())\n\ndef register():\n\treturn auth.register()\n\ndef login():\n        return auth.login()\n\ndef account():\n    return dict(register=auth.register(),\n                login=auth.login())\n\t\ndef download():\n\treturn response.download(request, db)\n\n\n\n\t\n\n\n\n\nresponse._vars=response._caller(principal)\n'
p7
sS'snapshot'
p8
(dp9
S'exception'
p10
(dp11
S'__hash__'
p12
S"<method-wrapper '__hash__' of exceptions.UnboundLocalError object>"
p13
sS'__setattr__'
p14
S"<method-wrapper '__setattr__' of exceptions.UnboundLocalError object>"
p15
sS'__reduce_ex__'
p16
S'<built-in method __reduce_ex__ of exceptions.UnboundLocalError object>'
p17
sS'__getslice__'
p18
S"<method-wrapper '__getslice__' of exceptions.UnboundLocalError object>"
p19
sS'__getitem__'
p20
S"<method-wrapper '__getitem__' of exceptions.UnboundLocalError object>"
p21
sS'__setstate__'
p22
S'<built-in method __setstate__ of exceptions.UnboundLocalError object>'
p23
sS'args'
p24
S'("local variable \'mes\' referenced before assignment",)'
p25
sS'__reduce__'
p26
S'<built-in method __reduce__ of exceptions.UnboundLocalError object>'
p27
sS'__str__'
p28
S"<method-wrapper '__str__' of exceptions.UnboundLocalError object>"
p29
sS'__format__'
p30
S'<built-in method __format__ of exceptions.UnboundLocalError object>'
p31
sS'__getattribute__'
p32
S"<method-wrapper '__getattribute__' of exceptions.UnboundLocalError object>"
p33
sS'__class__'
p34
S"<type 'exceptions.UnboundLocalError'>"
p35
sS'__unicode__'
p36
S'<built-in method __unicode__ of exceptions.UnboundLocalError object>'
p37
sS'__delattr__'
p38
S"<method-wrapper '__delattr__' of exceptions.UnboundLocalError object>"
p39
sS'__subclasshook__'
p40
S'<built-in method __subclasshook__ of type object>'
p41
sS'__repr__'
p42
S"<method-wrapper '__repr__' of exceptions.UnboundLocalError object>"
p43
sS'__dict__'
p44
S'{}'
p45
sS'__sizeof__'
p46
S'<built-in method __sizeof__ of exceptions.UnboundLocalError object>'
p47
sS'__doc__'
p48
S"'Local name referenced but not bound to a value.'"
p49
sS'__init__'
p50
S"<method-wrapper '__init__' of exceptions.UnboundLocalError object>"
p51
sS'__new__'
p52
S'<built-in method __new__ of type object>'
p53
ssS'evalue'
p54
S"local variable 'mes' referenced before assignment"
p55
sS'request'
p56
ccopy_reg
_reconstructor
p57
(cgluon.html
BEAUTIFY
p58
c__builtin__
object
p59
NtRp60
(dp61
S'attributes'
p62
(dp63
sS'components'
p64
(lp65
g57
(cgluon.html
TABLE
p66
g59
NtRp67
(dp68
g62
(dp69
S'level'
p70
I5
ssS'parent'
p71
Nsg64
(lp72
g57
(cgluon.html
TR
p73
g59
NtRp74
(dp75
g62
(dp76
sg71
g67
sg64
(lp77
g57
(cgluon.html
TD
p78
g59
NtRp79
(dp80
g62
(dp81
S'_style'
p82
S'font-weight:bold;vertical-align:top'
p83
ssg71
g74
sg64
(lp84
S'ajax'
p85
asbag57
(g78
g59
NtRp86
(dp87
g62
(dp88
S'_valign'
p89
S'top'
p90
ssg71
g74
sg64
(lp91
S':'
asbag57
(g78
g59
NtRp92
(dp93
g62
(dp94
sg71
g74
sg64
(lp95
g57
(g58
g59
NtRp96
(dp97
g62
(dp98
g70
I5
ssg71
g92
sg64
(lp99
S'False'
p100
asbasbasbag57
(g73
g59
NtRp101
(dp102
g62
(dp103
sg71
g67
sg64
(lp104
g57
(g78
g59
NtRp105
(dp106
g62
(dp107
g82
g83
ssg71
g101
sg64
(lp108
S'application'
p109
asbag57
(g78
g59
NtRp110
(dp111
g62
(dp112
g89
g90
ssg71
g101
sg64
(lp113
S':'
asbag57
(g78
g59
NtRp114
(dp115
g62
(dp116
sg71
g101
sg64
(lp117
g57
(g58
g59
NtRp118
(dp119
g62
(dp120
g70
I5
ssg71
g114
sg64
(lp121
S'projeto'
p122
asbasbasbag57
(g73
g59
NtRp123
(dp124
g62
(dp125
sg71
g67
sg64
(lp126
g57
(g78
g59
NtRp127
(dp128
g62
(dp129
g82
g83
ssg71
g123
sg64
(lp130
g24
asbag57
(g78
g59
NtRp131
(dp132
g62
(dp133
g89
g90
ssg71
g123
sg64
(lp134
S':'
asbag57
(g78
g59
NtRp135
(dp136
g62
(dp137
sg71
g123
sg64
(lp138
g57
(g58
g59
NtRp139
(dp140
g62
(dp141
g70
I5
ssg71
g135
sg64
(lp142
g57
(g66
g59
NtRp143
(dp144
g62
(dp145
g70
I4
ssg71
Nsg64
(lp146
sbasbasbasbag57
(g73
g59
NtRp147
(dp148
g62
(dp149
sg71
g67
sg64
(lp150
g57
(g78
g59
NtRp151
(dp152
g62
(dp153
g82
g83
ssg71
g147
sg64
(lp154
S'body'
p155
asbag57
(g78
g59
NtRp156
(dp157
g62
(dp158
g89
g90
ssg71
g147
sg64
(lp159
S':'
asbag57
(g78
g59
NtRp160
(dp161
g62
(dp162
sg71
g147
sg64
(lp163
g57
(g58
g59
NtRp164
(dp165
g62
(dp166
g70
I5
ssg71
g160
sg64
(lp167
S'<cStringIO.StringO object at 0x7fdfe0426c70>'
p168
asbasbasbag57
(g73
g59
NtRp169
(dp170
g62
(dp171
sg71
g67
sg64
(lp172
g57
(g78
g59
NtRp173
(dp174
g62
(dp175
g82
g83
ssg71
g169
sg64
(lp176
S'cid'
p177
asbag57
(g78
g59
NtRp178
(dp179
g62
(dp180
g89
g90
ssg71
g169
sg64
(lp181
S':'
asbag57
(g78
g59
NtRp182
(dp183
g62
(dp184
sg71
g169
sg64
(lp185
g57
(g58
g59
NtRp186
(dp187
g62
(dp188
g70
I5
ssg71
g182
sg64
(lp189
S'None'
p190
asbasbasbag57
(g73
g59
NtRp191
(dp192
g62
(dp193
sg71
g67
sg64
(lp194
g57
(g78
g59
NtRp195
(dp196
g62
(dp197
g82
g83
ssg71
g191
sg64
(lp198
S'client'
p199
asbag57
(g78
g59
NtRp200
(dp201
g62
(dp202
g89
g90
ssg71
g191
sg64
(lp203
S':'
asbag57
(g78
g59
NtRp204
(dp205
g62
(dp206
sg71
g191
sg64
(lp207
g57
(g58
g59
NtRp208
(dp209
g62
(dp210
g70
I5
ssg71
g204
sg64
(lp211
S'127.0.0.1'
p212
asbasbasbag57
(g73
g59
NtRp213
(dp214
g62
(dp215
sg71
g67
sg64
(lp216
g57
(g78
g59
NtRp217
(dp218
g62
(dp219
g82
g83
ssg71
g213
sg64
(lp220
S'controller'
p221
asbag57
(g78
g59
NtRp222
(dp223
g62
(dp224
g89
g90
ssg71
g213
sg64
(lp225
S':'
asbag57
(g78
g59
NtRp226
(dp227
g62
(dp228
sg71
g213
sg64
(lp229
g57
(g58
g59
NtRp230
(dp231
g62
(dp232
g70
I5
ssg71
g226
sg64
(lp233
S'initial'
p234
asbasbasbag57
(g73
g59
NtRp235
(dp236
g62
(dp237
sg71
g67
sg64
(lp238
g57
(g78
g59
NtRp239
(dp240
g62
(dp241
g82
g83
ssg71
g235
sg64
(lp242
S'cookies'
p243
asbag57
(g78
g59
NtRp244
(dp245
g62
(dp246
g89
g90
ssg71
g235
sg64
(lp247
S':'
asbag57
(g78
g59
NtRp248
(dp249
g62
(dp250
sg71
g235
sg64
(lp251
g57
(g58
g59
NtRp252
(dp253
g62
(dp254
g70
I5
ssg71
g248
sg64
(lp255
g57
(g66
g59
NtRp256
(dp257
g62
(dp258
g70
I4
ssg71
Nsg64
(lp259
g57
(g73
g59
NtRp260
(dp261
g62
(dp262
sg71
g256
sg64
(lp263
g57
(g78
g59
NtRp264
(dp265
g62
(dp266
g82
g83
ssg71
g260
sg64
(lp267
S'session_id_admin'
p268
asbag57
(g78
g59
NtRp269
(dp270
g62
(dp271
g89
g90
ssg71
g260
sg64
(lp272
S':'
asbag57
(g78
g59
NtRp273
(dp274
g62
(dp275
sg71
g260
sg64
(lp276
g57
(g58
g59
NtRp277
(dp278
g62
(dp279
g70
I4
ssg71
g273
sg64
(lp280
S'127.0.0.1-6e083638-340b-4f1d-82de-f572646dc094'
p281
ag57
(g66
g59
NtRp282
(dp283
g62
(dp284
g70
I3
ssg71
Nsg64
(lp285
g57
(g73
g59
NtRp286
(dp287
g62
(dp288
sg71
g282
sg64
(lp289
g57
(g78
g59
NtRp290
(dp291
g62
(dp292
g82
g83
ssg71
g286
sg64
(lp293
S'comment'
p294
asbag57
(g78
g59
NtRp295
(dp296
g62
(dp297
g89
g90
ssg71
g286
sg64
(lp298
S':'
asbag57
(g78
g59
NtRp299
(dp300
g62
(dp301
sg71
g286
sg64
(lp302
g57
(g58
g59
NtRp303
(dp304
g62
(dp305
g70
I3
ssg71
g299
sg64
(lp306
S''
asbasbasbag57
(g73
g59
NtRp307
(dp308
g62
(dp309
sg71
g282
sg64
(lp310
g57
(g78
g59
NtRp311
(dp312
g62
(dp313
g82
g83
ssg71
g307
sg64
(lp314
S'domain'
p315
asbag57
(g78
g59
NtRp316
(dp317
g62
(dp318
g89
g90
ssg71
g307
sg64
(lp319
S':'
asbag57
(g78
g59
NtRp320
(dp321
g62
(dp322
sg71
g307
sg64
(lp323
g57
(g58
g59
NtRp324
(dp325
g62
(dp326
g70
I3
ssg71
g320
sg64
(lp327
S''
asbasbasbag57
(g73
g59
NtRp328
(dp329
g62
(dp330
sg71
g282
sg64
(lp331
g57
(g78
g59
NtRp332
(dp333
g62
(dp334
g82
g83
ssg71
g328
sg64
(lp335
S'expires'
p336
asbag57
(g78
g59
NtRp337
(dp338
g62
(dp339
g89
g90
ssg71
g328
sg64
(lp340
S':'
asbag57
(g78
g59
NtRp341
(dp342
g62
(dp343
sg71
g328
sg64
(lp344
g57
(g58
g59
NtRp345
(dp346
g62
(dp347
g70
I3
ssg71
g341
sg64
(lp348
S''
asbasbasbag57
(g73
g59
NtRp349
(dp350
g62
(dp351
sg71
g282
sg64
(lp352
g57
(g78
g59
NtRp353
(dp354
g62
(dp355
g82
g83
ssg71
g349
sg64
(lp356
S'httponly'
p357
asbag57
(g78
g59
NtRp358
(dp359
g62
(dp360
g89
g90
ssg71
g349
sg64
(lp361
S':'
asbag57
(g78
g59
NtRp362
(dp363
g62
(dp364
sg71
g349
sg64
(lp365
g57
(g58
g59
NtRp366
(dp367
g62
(dp368
g70
I3
ssg71
g362
sg64
(lp369
S''
asbasbasbag57
(g73
g59
NtRp370
(dp371
g62
(dp372
sg71
g282
sg64
(lp373
g57
(g78
g59
NtRp374
(dp375
g62
(dp376
g82
g83
ssg71
g370
sg64
(lp377
S'max-age'
p378
asbag57
(g78
g59
NtRp379
(dp380
g62
(dp381
g89
g90
ssg71
g370
sg64
(lp382
S':'
asbag57
(g78
g59
NtRp383
(dp384
g62
(dp385
sg71
g370
sg64
(lp386
g57
(g58
g59
NtRp387
(dp388
g62
(dp389
g70
I3
ssg71
g383
sg64
(lp390
S''
asbasbasbag57
(g73
g59
NtRp391
(dp392
g62
(dp393
sg71
g282
sg64
(lp394
g57
(g78
g59
NtRp395
(dp396
g62
(dp397
g82
g83
ssg71
g391
sg64
(lp398
S'path'
p399
asbag57
(g78
g59
NtRp400
(dp401
g62
(dp402
g89
g90
ssg71
g391
sg64
(lp403
S':'
asbag57
(g78
g59
NtRp404
(dp405
g62
(dp406
sg71
g391
sg64
(lp407
g57
(g58
g59
NtRp408
(dp409
g62
(dp410
g70
I3
ssg71
g404
sg64
(lp411
S''
asbasbasbag57
(g73
g59
NtRp412
(dp413
g62
(dp414
sg71
g282
sg64
(lp415
g57
(g78
g59
NtRp416
(dp417
g62
(dp418
g82
g83
ssg71
g412
sg64
(lp419
S'secure'
p420
asbag57
(g78
g59
NtRp421
(dp422
g62
(dp423
g89
g90
ssg71
g412
sg64
(lp424
S':'
asbag57
(g78
g59
NtRp425
(dp426
g62
(dp427
sg71
g412
sg64
(lp428
g57
(g58
g59
NtRp429
(dp430
g62
(dp431
g70
I3
ssg71
g425
sg64
(lp432
S''
asbasbasbag57
(g73
g59
NtRp433
(dp434
g62
(dp435
sg71
g282
sg64
(lp436
g57
(g78
g59
NtRp437
(dp438
g62
(dp439
g82
g83
ssg71
g433
sg64
(lp440
S'version'
p441
asbag57
(g78
g59
NtRp442
(dp443
g62
(dp444
g89
g90
ssg71
g433
sg64
(lp445
S':'
asbag57
(g78
g59
NtRp446
(dp447
g62
(dp448
sg71
g433
sg64
(lp449
g57
(g58
g59
NtRp450
(dp451
g62
(dp452
g70
I3
ssg71
g446
sg64
(lp453
S''
asbasbasbasbasbasbasbag57
(g73
g59
NtRp454
(dp455
g62
(dp456
sg71
g256
sg64
(lp457
g57
(g78
g59
NtRp458
(dp459
g62
(dp460
g82
g83
ssg71
g454
sg64
(lp461
S'session_id_projeto'
p462
asbag57
(g78
g59
NtRp463
(dp464
g62
(dp465
g89
g90
ssg71
g454
sg64
(lp466
S':'
asbag57
(g78
g59
NtRp467
(dp468
g62
(dp469
sg71
g454
sg64
(lp470
g57
(g58
g59
NtRp471
(dp472
g62
(dp473
g70
I4
ssg71
g467
sg64
(lp474
S'127.0.0.1-f700f0c3-fb08-41bb-8821-1f508a8fa4ec'
p475
ag57
(g66
g59
NtRp476
(dp477
g62
(dp478
g70
I3
ssg71
Nsg64
(lp479
g57
(g73
g59
NtRp480
(dp481
g62
(dp482
sg71
g476
sg64
(lp483
g57
(g78
g59
NtRp484
(dp485
g62
(dp486
g82
g83
ssg71
g480
sg64
(lp487
g294
asbag57
(g78
g59
NtRp488
(dp489
g62
(dp490
g89
g90
ssg71
g480
sg64
(lp491
S':'
asbag57
(g78
g59
NtRp492
(dp493
g62
(dp494
sg71
g480
sg64
(lp495
g57
(g58
g59
NtRp496
(dp497
g62
(dp498
g70
I3
ssg71
g492
sg64
(lp499
S''
asbasbasbag57
(g73
g59
NtRp500
(dp501
g62
(dp502
sg71
g476
sg64
(lp503
g57
(g78
g59
NtRp504
(dp505
g62
(dp506
g82
g83
ssg71
g500
sg64
(lp507
g315
asbag57
(g78
g59
NtRp508
(dp509
g62
(dp510
g89
g90
ssg71
g500
sg64
(lp511
S':'
asbag57
(g78
g59
NtRp512
(dp513
g62
(dp514
sg71
g500
sg64
(lp515
g57
(g58
g59
NtRp516
(dp517
g62
(dp518
g70
I3
ssg71
g512
sg64
(lp519
S''
asbasbasbag57
(g73
g59
NtRp520
(dp521
g62
(dp522
sg71
g476
sg64
(lp523
g57
(g78
g59
NtRp524
(dp525
g62
(dp526
g82
g83
ssg71
g520
sg64
(lp527
g336
asbag57
(g78
g59
NtRp528
(dp529
g62
(dp530
g89
g90
ssg71
g520
sg64
(lp531
S':'
asbag57
(g78
g59
NtRp532
(dp533
g62
(dp534
sg71
g520
sg64
(lp535
g57
(g58
g59
NtRp536
(dp537
g62
(dp538
g70
I3
ssg71
g532
sg64
(lp539
S''
asbasbasbag57
(g73
g59
NtRp540
(dp541
g62
(dp542
sg71
g476
sg64
(lp543
g57
(g78
g59
NtRp544
(dp545
g62
(dp546
g82
g83
ssg71
g540
sg64
(lp547
g357
asbag57
(g78
g59
NtRp548
(dp549
g62
(dp550
g89
g90
ssg71
g540
sg64
(lp551
S':'
asbag57
(g78
g59
NtRp552
(dp553
g62
(dp554
sg71
g540
sg64
(lp555
g57
(g58
g59
NtRp556
(dp557
g62
(dp558
g70
I3
ssg71
g552
sg64
(lp559
S''
asbasbasbag57
(g73
g59
NtRp560
(dp561
g62
(dp562
sg71
g476
sg64
(lp563
g57
(g78
g59
NtRp564
(dp565
g62
(dp566
g82
g83
ssg71
g560
sg64
(lp567
g378
asbag57
(g78
g59
NtRp568
(dp569
g62
(dp570
g89
g90
ssg71
g560
sg64
(lp571
S':'
asbag57
(g78
g59
NtRp572
(dp573
g62
(dp574
sg71
g560
sg64
(lp575
g57
(g58
g59
NtRp576
(dp577
g62
(dp578
g70
I3
ssg71
g572
sg64
(lp579
S''
asbasbasbag57
(g73
g59
NtRp580
(dp581
g62
(dp582
sg71
g476
sg64
(lp583
g57
(g78
g59
NtRp584
(dp585
g62
(dp586
g82
g83
ssg71
g580
sg64
(lp587
g399
asbag57
(g78
g59
NtRp588
(dp589
g62
(dp590
g89
g90
ssg71
g580
sg64
(lp591
S':'
asbag57
(g78
g59
NtRp592
(dp593
g62
(dp594
sg71
g580
sg64
(lp595
g57
(g58
g59
NtRp596
(dp597
g62
(dp598
g70
I3
ssg71
g592
sg64
(lp599
S''
asbasbasbag57
(g73
g59
NtRp600
(dp601
g62
(dp602
sg71
g476
sg64
(lp603
g57
(g78
g59
NtRp604
(dp605
g62
(dp606
g82
g83
ssg71
g600
sg64
(lp607
g420
asbag57
(g78
g59
NtRp608
(dp609
g62
(dp610
g89
g90
ssg71
g600
sg64
(lp611
S':'
asbag57
(g78
g59
NtRp612
(dp613
g62
(dp614
sg71
g600
sg64
(lp615
g57
(g58
g59
NtRp616
(dp617
g62
(dp618
g70
I3
ssg71
g612
sg64
(lp619
S''
asbasbasbag57
(g73
g59
NtRp620
(dp621
g62
(dp622
sg71
g476
sg64
(lp623
g57
(g78
g59
NtRp624
(dp625
g62
(dp626
g82
g83
ssg71
g620
sg64
(lp627
g441
asbag57
(g78
g59
NtRp628
(dp629
g62
(dp630
g89
g90
ssg71
g620
sg64
(lp631
S':'
asbag57
(g78
g59
NtRp632
(dp633
g62
(dp634
sg71
g620
sg64
(lp635
g57
(g58
g59
NtRp636
(dp637
g62
(dp638
g70
I3
ssg71
g632
sg64
(lp639
S''
asbasbasbasbasbasbasbasbasbasbasbag57
(g73
g59
NtRp640
(dp641
g62
(dp642
sg71
g67
sg64
(lp643
g57
(g78
g59
NtRp644
(dp645
g62
(dp646
g82
g83
ssg71
g640
sg64
(lp647
S'env'
p648
asbag57
(g78
g59
NtRp649
(dp650
g62
(dp651
g89
g90
ssg71
g640
sg64
(lp652
S':'
asbag57
(g78
g59
NtRp653
(dp654
g62
(dp655
sg71
g640
sg64
(lp656
g57
(g58
g59
NtRp657
(dp658
g62
(dp659
g70
I5
ssg71
g653
sg64
(lp660
g57
(g66
g59
NtRp661
(dp662
g62
(dp663
g70
I4
ssg71
Nsg64
(lp664
g57
(g73
g59
NtRp665
(dp666
g62
(dp667
sg71
g661
sg64
(lp668
g57
(g78
g59
NtRp669
(dp670
g62
(dp671
g82
g83
ssg71
g665
sg64
(lp672
S'app_folders'
p673
asbag57
(g78
g59
NtRp674
(dp675
g62
(dp676
g89
g90
ssg71
g665
sg64
(lp677
S':'
asbag57
(g78
g59
NtRp678
(dp679
g62
(dp680
sg71
g665
sg64
(lp681
g57
(g58
g59
NtRp682
(dp683
g62
(dp684
g70
I4
ssg71
g678
sg64
(lp685
S"set(['/var/www/gravacao/applications/projeto/', '/var/www/gravacao/applications/admin/'])"
p686
asbasbasbag57
(g73
g59
NtRp687
(dp688
g62
(dp689
sg71
g661
sg64
(lp690
g57
(g78
g59
NtRp691
(dp692
g62
(dp693
g82
g83
ssg71
g687
sg64
(lp694
S'applications_parent'
p695
asbag57
(g78
g59
NtRp696
(dp697
g62
(dp698
g89
g90
ssg71
g687
sg64
(lp699
S':'
asbag57
(g78
g59
NtRp700
(dp701
g62
(dp702
sg71
g687
sg64
(lp703
g57
(g58
g59
NtRp704
(dp705
g62
(dp706
g70
I4
ssg71
g700
sg64
(lp707
S'/var/www/gravacao'
p708
asbasbasbag57
(g73
g59
NtRp709
(dp710
g62
(dp711
sg71
g661
sg64
(lp712
g57
(g78
g59
NtRp713
(dp714
g62
(dp715
g82
g83
ssg71
g709
sg64
(lp716
S'cmd_args'
p717
asbag57
(g78
g59
NtRp718
(dp719
g62
(dp720
g89
g90
ssg71
g709
sg64
(lp721
S':'
asbag57
(g78
g59
NtRp722
(dp723
g62
(dp724
sg71
g709
sg64
(lp725
g57
(g58
g59
NtRp726
(dp727
g62
(dp728
g70
I4
ssg71
g722
sg64
(lp729
g57
(g66
g59
NtRp730
(dp731
g62
(dp732
g70
I3
ssg71
Nsg64
(lp733
sbasbasbasbag57
(g73
g59
NtRp734
(dp735
g62
(dp736
sg71
g661
sg64
(lp737
g57
(g78
g59
NtRp738
(dp739
g62
(dp740
g82
g83
ssg71
g734
sg64
(lp741
S'cmd_options'
p742
asbag57
(g78
g59
NtRp743
(dp744
g62
(dp745
g89
g90
ssg71
g734
sg64
(lp746
S':'
asbag57
(g78
g59
NtRp747
(dp748
g62
(dp749
sg71
g734
sg64
(lp750
g57
(g58
g59
NtRp751
(dp752
g62
(dp753
g70
I4
ssg71
g747
sg64
(lp754
S"<Values at 0x32c52d8: {'verbose': False, 'ip': '127.0.0.1', 'with_scheduler': False, 'ips': [], 'shutdown_timeout': 5, 'taskbar': False, 'port': 8000, 'maxthreads': None, 'softcron': False, 'server_name': 'fernando-workstation', 'bpython': False, 'nogui': False, 'pid_filename': 'httpserver.pid', 'extcron': False, 'runcron': False, 'run_system_tests': False, 'test': None, 'folder': '/var/www/gravacao', 'config': '', 'minthreads': None, 'winservice': '', 'shell': None, 'run': '', 'log_filename': 'httpserver.log', 'debuglevel': 30, 'args': [''], 'socket_timeout': 5, 'ssl_ca_certificate': None, 'scheduler': None, 'profiler_filename': None, 'ssl_private_key': '', 'scheduler_groups': None, 'password': '123456', 'request_queue_size': 5, 'ssl_certificate': '', 'cronjob': False, 'numthreads': None, 'quiet': False, 'interfaces': None, 'import_models': False, 'timeout': 10, 'plain': False, 'nobanner': False}>"
p755
asbasbasbag57
(g73
g59
NtRp756
(dp757
g62
(dp758
sg71
g661
sg64
(lp759
g57
(g78
g59
NtRp760
(dp761
g62
(dp762
g82
g83
ssg71
g756
sg64
(lp763
S'db_sessions'
p764
asbag57
(g78
g59
NtRp765
(dp766
g62
(dp767
g89
g90
ssg71
g756
sg64
(lp768
S':'
asbag57
(g78
g59
NtRp769
(dp770
g62
(dp771
sg71
g756
sg64
(lp772
g57
(g58
g59
NtRp773
(dp774
g62
(dp775
g70
I4
ssg71
g769
sg64
(lp776
S'set([])'
p777
asbasbasbag57
(g73
g59
NtRp778
(dp779
g62
(dp780
sg71
g661
sg64
(lp781
g57
(g78
g59
NtRp782
(dp783
g62
(dp784
g82
g83
ssg71
g778
sg64
(lp785
S'debugging'
p786
asbag57
(g78
g59
NtRp787
(dp788
g62
(dp789
g89
g90
ssg71
g778
sg64
(lp790
S':'
asbag57
(g78
g59
NtRp791
(dp792
g62
(dp793
sg71
g778
sg64
(lp794
g57
(g58
g59
NtRp795
(dp796
g62
(dp797
g70
I4
ssg71
g791
sg64
(lp798
g100
asbasbasbag57
(g73
g59
NtRp799
(dp800
g62
(dp801
sg71
g661
sg64
(lp802
g57
(g78
g59
NtRp803
(dp804
g62
(dp805
g82
g83
ssg71
g799
sg64
(lp806
S'gluon_parent'
p807
asbag57
(g78
g59
NtRp808
(dp809
g62
(dp810
g89
g90
ssg71
g799
sg64
(lp811
S':'
asbag57
(g78
g59
NtRp812
(dp813
g62
(dp814
sg71
g799
sg64
(lp815
g57
(g58
g59
NtRp816
(dp817
g62
(dp818
g70
I4
ssg71
g812
sg64
(lp819
S'/var/www/gravacao'
p820
asbasbasbag57
(g73
g59
NtRp821
(dp822
g62
(dp823
sg71
g661
sg64
(lp824
g57
(g78
g59
NtRp825
(dp826
g62
(dp827
g82
g83
ssg71
g821
sg64
(lp828
S'http_accept'
p829
asbag57
(g78
g59
NtRp830
(dp831
g62
(dp832
g89
g90
ssg71
g821
sg64
(lp833
S':'
asbag57
(g78
g59
NtRp834
(dp835
g62
(dp836
sg71
g821
sg64
(lp837
g57
(g58
g59
NtRp838
(dp839
g62
(dp840
g70
I4
ssg71
g834
sg64
(lp841
S'text/html,application/xhtml+xml,application/xml;q=0.9,*/*;q=0.8'
p842
asbasbasbag57
(g73
g59
NtRp843
(dp844
g62
(dp845
sg71
g661
sg64
(lp846
g57
(g78
g59
NtRp847
(dp848
g62
(dp849
g82
g83
ssg71
g843
sg64
(lp850
S'http_accept_charset'
p851
asbag57
(g78
g59
NtRp852
(dp853
g62
(dp854
g89
g90
ssg71
g843
sg64
(lp855
S':'
asbag57
(g78
g59
NtRp856
(dp857
g62
(dp858
sg71
g843
sg64
(lp859
g57
(g58
g59
NtRp860
(dp861
g62
(dp862
g70
I4
ssg71
g856
sg64
(lp863
S'ISO-8859-1,utf-8;q=0.7,*;q=0.3'
p864
asbasbasbag57
(g73
g59
NtRp865
(dp866
g62
(dp867
sg71
g661
sg64
(lp868
g57
(g78
g59
NtRp869
(dp870
g62
(dp871
g82
g83
ssg71
g865
sg64
(lp872
S'http_accept_encoding'
p873
asbag57
(g78
g59
NtRp874
(dp875
g62
(dp876
g89
g90
ssg71
g865
sg64
(lp877
S':'
asbag57
(g78
g59
NtRp878
(dp879
g62
(dp880
sg71
g865
sg64
(lp881
g57
(g58
g59
NtRp882
(dp883
g62
(dp884
g70
I4
ssg71
g878
sg64
(lp885
S'gzip,deflate,sdch'
p886
asbasbasbag57
(g73
g59
NtRp887
(dp888
g62
(dp889
sg71
g661
sg64
(lp890
g57
(g78
g59
NtRp891
(dp892
g62
(dp893
g82
g83
ssg71
g887
sg64
(lp894
S'http_accept_language'
p895
asbag57
(g78
g59
NtRp896
(dp897
g62
(dp898
g89
g90
ssg71
g887
sg64
(lp899
S':'
asbag57
(g78
g59
NtRp900
(dp901
g62
(dp902
sg71
g887
sg64
(lp903
g57
(g58
g59
NtRp904
(dp905
g62
(dp906
g70
I4
ssg71
g900
sg64
(lp907
S'pt-BR,pt;q=0.8,en-US;q=0.6,en;q=0.4'
p908
asbasbasbag57
(g73
g59
NtRp909
(dp910
g62
(dp911
sg71
g661
sg64
(lp912
g57
(g78
g59
NtRp913
(dp914
g62
(dp915
g82
g83
ssg71
g909
sg64
(lp916
S'http_cache_control'
p917
asbag57
(g78
g59
NtRp918
(dp919
g62
(dp920
g89
g90
ssg71
g909
sg64
(lp921
S':'
asbag57
(g78
g59
NtRp922
(dp923
g62
(dp924
sg71
g909
sg64
(lp925
g57
(g58
g59
NtRp926
(dp927
g62
(dp928
g70
I4
ssg71
g922
sg64
(lp929
S'max-age=0'
p930
asbasbasbag57
(g73
g59
NtRp931
(dp932
g62
(dp933
sg71
g661
sg64
(lp934
g57
(g78
g59
NtRp935
(dp936
g62
(dp937
g82
g83
ssg71
g931
sg64
(lp938
S'http_connection'
p939
asbag57
(g78
g59
NtRp940
(dp941
g62
(dp942
g89
g90
ssg71
g931
sg64
(lp943
S':'
asbag57
(g78
g59
NtRp944
(dp945
g62
(dp946
sg71
g931
sg64
(lp947
g57
(g58
g59
NtRp948
(dp949
g62
(dp950
g70
I4
ssg71
g944
sg64
(lp951
S'keep-alive'
p952
asbasbasbag57
(g73
g59
NtRp953
(dp954
g62
(dp955
sg71
g661
sg64
(lp956
g57
(g78
g59
NtRp957
(dp958
g62
(dp959
g82
g83
ssg71
g953
sg64
(lp960
S'http_cookie'
p961
asbag57
(g78
g59
NtRp962
(dp963
g62
(dp964
g89
g90
ssg71
g953
sg64
(lp965
S':'
asbag57
(g78
g59
NtRp966
(dp967
g62
(dp968
sg71
g953
sg64
(lp969
g57
(g58
g59
NtRp970
(dp971
g62
(dp972
g70
I4
ssg71
g966
sg64
(lp973
S'session_id_admin=127.0.0.1-6e083638-340b-4f1d-82de-f572646dc094; session_id_projeto=127.0.0.1-f700f0c3-fb08-41bb-8821-1f508a8fa4ec'
p974
asbasbasbag57
(g73
g59
NtRp975
(dp976
g62
(dp977
sg71
g661
sg64
(lp978
g57
(g78
g59
NtRp979
(dp980
g62
(dp981
g82
g83
ssg71
g975
sg64
(lp982
S'http_host'
p983
asbag57
(g78
g59
NtRp984
(dp985
g62
(dp986
g89
g90
ssg71
g975
sg64
(lp987
S':'
asbag57
(g78
g59
NtRp988
(dp989
g62
(dp990
sg71
g975
sg64
(lp991
g57
(g58
g59
NtRp992
(dp993
g62
(dp994
g70
I4
ssg71
g988
sg64
(lp995
S'127.0.0.1:8000'
p996
asbasbasbag57
(g73
g59
NtRp997
(dp998
g62
(dp999
sg71
g661
sg64
(lp1000
g57
(g78
g59
NtRp1001
(dp1002
g62
(dp1003
g82
g83
ssg71
g997
sg64
(lp1004
S'http_referer'
p1005
asbag57
(g78
g59
NtRp1006
(dp1007
g62
(dp1008
g89
g90
ssg71
g997
sg64
(lp1009
S':'
asbag57
(g78
g59
NtRp1010
(dp1011
g62
(dp1012
sg71
g997
sg64
(lp1013
g57
(g58
g59
NtRp1014
(dp1015
g62
(dp1016
g70
I4
ssg71
g1010
sg64
(lp1017
S'http://127.0.0.1:8000/'
p1018
asbasbasbag57
(g73
g59
NtRp1019
(dp1020
g62
(dp1021
sg71
g661
sg64
(lp1022
g57
(g78
g59
NtRp1023
(dp1024
g62
(dp1025
g82
g83
ssg71
g1019
sg64
(lp1026
S'http_user_agent'
p1027
asbag57
(g78
g59
NtRp1028
(dp1029
g62
(dp1030
g89
g90
ssg71
g1019
sg64
(lp1031
S':'
asbag57
(g78
g59
NtRp1032
(dp1033
g62
(dp1034
sg71
g1019
sg64
(lp1035
g57
(g58
g59
NtRp1036
(dp1037
g62
(dp1038
g70
I4
ssg71
g1032
sg64
(lp1039
S'Mozilla/5.0 (X11; Linux x86_64) AppleWebKit/537.4 (KHTML, like Gecko) Ubuntu/12.10 Chromium/22.0.1229.94 Chrome/22.0.1229.94 Safari/537.4'
p1040
asbasbasbag57
(g73
g59
NtRp1041
(dp1042
g62
(dp1043
sg71
g661
sg64
(lp1044
g57
(g78
g59
NtRp1045
(dp1046
g62
(dp1047
g82
g83
ssg71
g1041
sg64
(lp1048
S'is_jython'
p1049
asbag57
(g78
g59
NtRp1050
(dp1051
g62
(dp1052
g89
g90
ssg71
g1041
sg64
(lp1053
S':'
asbag57
(g78
g59
NtRp1054
(dp1055
g62
(dp1056
sg71
g1041
sg64
(lp1057
g57
(g58
g59
NtRp1058
(dp1059
g62
(dp1060
g70
I4
ssg71
g1054
sg64
(lp1061
g100
asbasbasbag57
(g73
g59
NtRp1062
(dp1063
g62
(dp1064
sg71
g661
sg64
(lp1065
g57
(g78
g59
NtRp1066
(dp1067
g62
(dp1068
g82
g83
ssg71
g1062
sg64
(lp1069
S'is_pypy'
p1070
asbag57
(g78
g59
NtRp1071
(dp1072
g62
(dp1073
g89
g90
ssg71
g1062
sg64
(lp1074
S':'
asbag57
(g78
g59
NtRp1075
(dp1076
g62
(dp1077
sg71
g1062
sg64
(lp1078
g57
(g58
g59
NtRp1079
(dp1080
g62
(dp1081
g70
I4
ssg71
g1075
sg64
(lp1082
g100
asbasbasbag57
(g73
g59
NtRp1083
(dp1084
g62
(dp1085
sg71
g661
sg64
(lp1086
g57
(g78
g59
NtRp1087
(dp1088
g62
(dp1089
g82
g83
ssg71
g1083
sg64
(lp1090
S'local_hosts'
p1091
asbag57
(g78
g59
NtRp1092
(dp1093
g62
(dp1094
g89
g90
ssg71
g1083
sg64
(lp1095
S':'
asbag57
(g78
g59
NtRp1096
(dp1097
g62
(dp1098
sg71
g1083
sg64
(lp1099
g57
(g58
g59
NtRp1100
(dp1101
g62
(dp1102
g70
I4
ssg71
g1096
sg64
(lp1103
g57
(g66
g59
NtRp1104
(dp1105
g62
(dp1106
g70
I3
ssg71
Nsg64
(lp1107
g57
(g73
g59
NtRp1108
(dp1109
g62
(dp1110
sg71
g1104
sg64
(lp1111
g57
(g78
g59
NtRp1112
(dp1113
g62
(dp1114
sg71
g1108
sg64
(lp1115
g57
(g58
g59
NtRp1116
(dp1117
g62
(dp1118
g70
I3
ssg71
g1112
sg64
(lp1119
S'::1'
p1120
asbasbasbag57
(g73
g59
NtRp1121
(dp1122
g62
(dp1123
sg71
g1104
sg64
(lp1124
g57
(g78
g59
NtRp1125
(dp1126
g62
(dp1127
sg71
g1121
sg64
(lp1128
g57
(g58
g59
NtRp1129
(dp1130
g62
(dp1131
g70
I3
ssg71
g1125
sg64
(lp1132
S'::ffff:127.0.0.1'
p1133
asbasbasbag57
(g73
g59
NtRp1134
(dp1135
g62
(dp1136
sg71
g1104
sg64
(lp1137
g57
(g78
g59
NtRp1138
(dp1139
g62
(dp1140
sg71
g1134
sg64
(lp1141
g57
(g58
g59
NtRp1142
(dp1143
g62
(dp1144
g70
I3
ssg71
g1138
sg64
(lp1145
S'127.0.0.1'
p1146
asbasbasbag57
(g73
g59
NtRp1147
(dp1148
g62
(dp1149
sg71
g1104
sg64
(lp1150
g57
(g78
g59
NtRp1151
(dp1152
g62
(dp1153
sg71
g1147
sg64
(lp1154
g57
(g58
g59
NtRp1155
(dp1156
g62
(dp1157
g70
I3
ssg71
g1151
sg64
(lp1158
S'fernando-workstation'
p1159
asbasbasbasbasbasbasbag57
(g73
g59
NtRp1160
(dp1161
g62
(dp1162
sg71
g661
sg64
(lp1163
g57
(g78
g59
NtRp1164
(dp1165
g62
(dp1166
g82
g83
ssg71
g1160
sg64
(lp1167
S'path_info'
p1168
asbag57
(g78
g59
NtRp1169
(dp1170
g62
(dp1171
g89
g90
ssg71
g1160
sg64
(lp1172
S':'
asbag57
(g78
g59
NtRp1173
(dp1174
g62
(dp1175
sg71
g1160
sg64
(lp1176
g57
(g58
g59
NtRp1177
(dp1178
g62
(dp1179
g70
I4
ssg71
g1173
sg64
(lp1180
S'/principal'
p1181
asbasbasbag57
(g73
g59
NtRp1182
(dp1183
g62
(dp1184
sg71
g661
sg64
(lp1185
g57
(g78
g59
NtRp1186
(dp1187
g62
(dp1188
g82
g83
ssg71
g1182
sg64
(lp1189
S'query_string'
p1190
asbag57
(g78
g59
NtRp1191
(dp1192
g62
(dp1193
g89
g90
ssg71
g1182
sg64
(lp1194
S':'
asbag57
(g78
g59
NtRp1195
(dp1196
g62
(dp1197
sg71
g1182
sg64
(lp1198
g57
(g58
g59
NtRp1199
(dp1200
g62
(dp1201
g70
I4
ssg71
g1195
sg64
(lp1202
S''
asbasbasbag57
(g73
g59
NtRp1203
(dp1204
g62
(dp1205
sg71
g661
sg64
(lp1206
g57
(g78
g59
NtRp1207
(dp1208
g62
(dp1209
g82
g83
ssg71
g1203
sg64
(lp1210
S'remote_addr'
p1211
asbag57
(g78
g59
NtRp1212
(dp1213
g62
(dp1214
g89
g90
ssg71
g1203
sg64
(lp1215
S':'
asbag57
(g78
g59
NtRp1216
(dp1217
g62
(dp1218
sg71
g1203
sg64
(lp1219
g57
(g58
g59
NtRp1220
(dp1221
g62
(dp1222
g70
I4
ssg71
g1216
sg64
(lp1223
g212
asbasbasbag57
(g73
g59
NtRp1224
(dp1225
g62
(dp1226
sg71
g661
sg64
(lp1227
g57
(g78
g59
NtRp1228
(dp1229
g62
(dp1230
g82
g83
ssg71
g1224
sg64
(lp1231
S'remote_port'
p1232
asbag57
(g78
g59
NtRp1233
(dp1234
g62
(dp1235
g89
g90
ssg71
g1224
sg64
(lp1236
S':'
asbag57
(g78
g59
NtRp1237
(dp1238
g62
(dp1239
sg71
g1224
sg64
(lp1240
g57
(g58
g59
NtRp1241
(dp1242
g62
(dp1243
g70
I4
ssg71
g1237
sg64
(lp1244
S'44837'
p1245
asbasbasbag57
(g73
g59
NtRp1246
(dp1247
g62
(dp1248
sg71
g661
sg64
(lp1249
g57
(g78
g59
NtRp1250
(dp1251
g62
(dp1252
g82
g83
ssg71
g1246
sg64
(lp1253
S'request_method'
p1254
asbag57
(g78
g59
NtRp1255
(dp1256
g62
(dp1257
g89
g90
ssg71
g1246
sg64
(lp1258
S':'
asbag57
(g78
g59
NtRp1259
(dp1260
g62
(dp1261
sg71
g1246
sg64
(lp1262
g57
(g58
g59
NtRp1263
(dp1264
g62
(dp1265
g70
I4
ssg71
g1259
sg64
(lp1266
S'GET'
p1267
asbasbasbag57
(g73
g59
NtRp1268
(dp1269
g62
(dp1270
sg71
g661
sg64
(lp1271
g57
(g78
g59
NtRp1272
(dp1273
g62
(dp1274
g82
g83
ssg71
g1268
sg64
(lp1275
S'request_uri'
p1276
asbag57
(g78
g59
NtRp1277
(dp1278
g62
(dp1279
g89
g90
ssg71
g1268
sg64
(lp1280
S':'
asbag57
(g78
g59
NtRp1281
(dp1282
g62
(dp1283
sg71
g1268
sg64
(lp1284
g57
(g58
g59
NtRp1285
(dp1286
g62
(dp1287
g70
I4
ssg71
g1281
sg64
(lp1288
S'/projeto/initial/principal'
p1289
asbasbasbag57
(g73
g59
NtRp1290
(dp1291
g62
(dp1292
sg71
g661
sg64
(lp1293
g57
(g78
g59
NtRp1294
(dp1295
g62
(dp1296
g82
g83
ssg71
g1290
sg64
(lp1297
S'script_name'
p1298
asbag57
(g78
g59
NtRp1299
(dp1300
g62
(dp1301
g89
g90
ssg71
g1290
sg64
(lp1302
S':'
asbag57
(g78
g59
NtRp1303
(dp1304
g62
(dp1305
sg71
g1290
sg64
(lp1306
g57
(g58
g59
NtRp1307
(dp1308
g62
(dp1309
g70
I4
ssg71
g1303
sg64
(lp1310
S''
asbasbasbag57
(g73
g59
NtRp1311
(dp1312
g62
(dp1313
sg71
g661
sg64
(lp1314
g57
(g78
g59
NtRp1315
(dp1316
g62
(dp1317
g82
g83
ssg71
g1311
sg64
(lp1318
S'server_name'
p1319
asbag57
(g78
g59
NtRp1320
(dp1321
g62
(dp1322
g89
g90
ssg71
g1311
sg64
(lp1323
S':'
asbag57
(g78
g59
NtRp1324
(dp1325
g62
(dp1326
sg71
g1311
sg64
(lp1327
g57
(g58
g59
NtRp1328
(dp1329
g62
(dp1330
g70
I4
ssg71
g1324
sg64
(lp1331
S'fernando-workstation'
p1332
asbasbasbag57
(g73
g59
NtRp1333
(dp1334
g62
(dp1335
sg71
g661
sg64
(lp1336
g57
(g78
g59
NtRp1337
(dp1338
g62
(dp1339
g82
g83
ssg71
g1333
sg64
(lp1340
S'server_port'
p1341
asbag57
(g78
g59
NtRp1342
(dp1343
g62
(dp1344
g89
g90
ssg71
g1333
sg64
(lp1345
S':'
asbag57
(g78
g59
NtRp1346
(dp1347
g62
(dp1348
sg71
g1333
sg64
(lp1349
g57
(g58
g59
NtRp1350
(dp1351
g62
(dp1352
g70
I4
ssg71
g1346
sg64
(lp1353
S'8000'
p1354
asbasbasbag57
(g73
g59
NtRp1355
(dp1356
g62
(dp1357
sg71
g661
sg64
(lp1358
g57
(g78
g59
NtRp1359
(dp1360
g62
(dp1361
g82
g83
ssg71
g1355
sg64
(lp1362
S'server_protocol'
p1363
asbag57
(g78
g59
NtRp1364
(dp1365
g62
(dp1366
g89
g90
ssg71
g1355
sg64
(lp1367
S':'
asbag57
(g78
g59
NtRp1368
(dp1369
g62
(dp1370
sg71
g1355
sg64
(lp1371
g57
(g58
g59
NtRp1372
(dp1373
g62
(dp1374
g70
I4
ssg71
g1368
sg64
(lp1375
S'HTTP/1.1'
p1376
asbasbasbag57
(g73
g59
NtRp1377
(dp1378
g62
(dp1379
sg71
g661
sg64
(lp1380
g57
(g78
g59
NtRp1381
(dp1382
g62
(dp1383
g82
g83
ssg71
g1377
sg64
(lp1384
S'server_software'
p1385
asbag57
(g78
g59
NtRp1386
(dp1387
g62
(dp1388
g89
g90
ssg71
g1377
sg64
(lp1389
S':'
asbag57
(g78
g59
NtRp1390
(dp1391
g62
(dp1392
sg71
g1377
sg64
(lp1393
g57
(g58
g59
NtRp1394
(dp1395
g62
(dp1396
g70
I4
ssg71
g1390
sg64
(lp1397
S'Rocket 1.2.6'
p1398
asbasbasbag57
(g73
g59
NtRp1399
(dp1400
g62
(dp1401
sg71
g661
sg64
(lp1402
g57
(g78
g59
NtRp1403
(dp1404
g62
(dp1405
g82
g83
ssg71
g1399
sg64
(lp1406
S'web2py_original_uri'
p1407
asbag57
(g78
g59
NtRp1408
(dp1409
g62
(dp1410
g89
g90
ssg71
g1399
sg64
(lp1411
S':'
asbag57
(g78
g59
NtRp1412
(dp1413
g62
(dp1414
sg71
g1399
sg64
(lp1415
g57
(g58
g59
NtRp1416
(dp1417
g62
(dp1418
g70
I4
ssg71
g1412
sg64
(lp1419
g1181
asbasbasbag57
(g73
g59
NtRp1420
(dp1421
g62
(dp1422
sg71
g661
sg64
(lp1423
g57
(g78
g59
NtRp1424
(dp1425
g62
(dp1426
g82
g83
ssg71
g1420
sg64
(lp1427
S'web2py_path'
p1428
asbag57
(g78
g59
NtRp1429
(dp1430
g62
(dp1431
g89
g90
ssg71
g1420
sg64
(lp1432
S':'
asbag57
(g78
g59
NtRp1433
(dp1434
g62
(dp1435
sg71
g1420
sg64
(lp1436
g57
(g58
g59
NtRp1437
(dp1438
g62
(dp1439
g70
I4
ssg71
g1433
sg64
(lp1440
g708
asbasbasbag57
(g73
g59
NtRp1441
(dp1442
g62
(dp1443
sg71
g661
sg64
(lp1444
g57
(g78
g59
NtRp1445
(dp1446
g62
(dp1447
g82
g83
ssg71
g1441
sg64
(lp1448
S'web2py_version'
p1449
asbag57
(g78
g59
NtRp1450
(dp1451
g62
(dp1452
g89
g90
ssg71
g1441
sg64
(lp1453
S':'
asbag57
(g78
g59
NtRp1454
(dp1455
g62
(dp1456
sg71
g1441
sg64
(lp1457
g57
(g58
g59
NtRp1458
(dp1459
g62
(dp1460
g70
I4
ssg71
g1454
sg64
(lp1461
g57
(g66
g59
NtRp1462
(dp1463
g62
(dp1464
g70
I3
ssg71
Nsg64
(lp1465
g57
(g73
g59
NtRp1466
(dp1467
g62
(dp1468
sg71
g1462
sg64
(lp1469
g57
(g78
g59
NtRp1470
(dp1471
g62
(dp1472
sg71
g1466
sg64
(lp1473
g57
(g58
g59
NtRp1474
(dp1475
g62
(dp1476
g70
I3
ssg71
g1470
sg64
(lp1477
S'2'
asbasbasbag57
(g73
g59
NtRp1478
(dp1479
g62
(dp1480
sg71
g1462
sg64
(lp1481
g57
(g78
g59
NtRp1482
(dp1483
g62
(dp1484
sg71
g1478
sg64
(lp1485
g57
(g58
g59
NtRp1486
(dp1487
g62
(dp1488
g70
I3
ssg71
g1482
sg64
(lp1489
S'3'
asbasbasbag57
(g73
g59
NtRp1490
(dp1491
g62
(dp1492
sg71
g1462
sg64
(lp1493
g57
(g78
g59
NtRp1494
(dp1495
g62
(dp1496
sg71
g1490
sg64
(lp1497
g57
(g58
g59
NtRp1498
(dp1499
g62
(dp1500
g70
I3
ssg71
g1494
sg64
(lp1501
S'2'
asbasbasbag57
(g73
g59
NtRp1502
(dp1503
g62
(dp1504
sg71
g1462
sg64
(lp1505
g57
(g78
g59
NtRp1506
(dp1507
g62
(dp1508
sg71
g1502
sg64
(lp1509
g57
(g58
g59
NtRp1510
(dp1511
g62
(dp1512
g70
I3
ssg71
g1506
sg64
(lp1513
S'datetime.datetime(2012, 12, 17, 15, 3, 30)'
p1514
asbasbasbag57
(g73
g59
NtRp1515
(dp1516
g62
(dp1517
sg71
g1462
sg64
(lp1518
g57
(g78
g59
NtRp1519
(dp1520
g62
(dp1521
sg71
g1515
sg64
(lp1522
g57
(g58
g59
NtRp1523
(dp1524
g62
(dp1525
g70
I3
ssg71
g1519
sg64
(lp1526
S'stable'
p1527
asbasbasbasbasbasbasbag57
(g73
g59
NtRp1528
(dp1529
g62
(dp1530
sg71
g661
sg64
(lp1531
g57
(g78
g59
NtRp1532
(dp1533
g62
(dp1534
g82
g83
ssg71
g1528
sg64
(lp1535
S'wsgi_errors'
p1536
asbag57
(g78
g59
NtRp1537
(dp1538
g62
(dp1539
g89
g90
ssg71
g1528
sg64
(lp1540
S':'
asbag57
(g78
g59
NtRp1541
(dp1542
g62
(dp1543
sg71
g1528
sg64
(lp1544
g57
(g58
g59
NtRp1545
(dp1546
g62
(dp1547
g70
I4
ssg71
g1541
sg64
(lp1548
S"<open file '<stderr>', mode 'w' at 0x7fdffc865270>"
p1549
asbasbasbag57
(g73
g59
NtRp1550
(dp1551
g62
(dp1552
sg71
g661
sg64
(lp1553
g57
(g78
g59
NtRp1554
(dp1555
g62
(dp1556
g82
g83
ssg71
g1550
sg64
(lp1557
S'wsgi_file_wrapper'
p1558
asbag57
(g78
g59
NtRp1559
(dp1560
g62
(dp1561
g89
g90
ssg71
g1550
sg64
(lp1562
S':'
asbag57
(g78
g59
NtRp1563
(dp1564
g62
(dp1565
sg71
g1550
sg64
(lp1566
g57
(g58
g59
NtRp1567
(dp1568
g62
(dp1569
g70
I4
ssg71
g1563
sg64
(lp1570
S'<class wsgiref.util.FileWrapper at 0x324c4c8>'
p1571
asbasbasbag57
(g73
g59
NtRp1572
(dp1573
g62
(dp1574
sg71
g661
sg64
(lp1575
g57
(g78
g59
NtRp1576
(dp1577
g62
(dp1578
g82
g83
ssg71
g1572
sg64
(lp1579
S'wsgi_input'
p1580
asbag57
(g78
g59
NtRp1581
(dp1582
g62
(dp1583
g89
g90
ssg71
g1572
sg64
(lp1584
S':'
asbag57
(g78
g59
NtRp1585
(dp1586
g62
(dp1587
sg71
g1572
sg64
(lp1588
g57
(g58
g59
NtRp1589
(dp1590
g62
(dp1591
g70
I4
ssg71
g1585
sg64
(lp1592
S'<socket._fileobject object at 0x7fdfd842f3d0>'
p1593
asbasbasbag57
(g73
g59
NtRp1594
(dp1595
g62
(dp1596
sg71
g661
sg64
(lp1597
g57
(g78
g59
NtRp1598
(dp1599
g62
(dp1600
g82
g83
ssg71
g1594
sg64
(lp1601
S'wsgi_multiprocess'
p1602
asbag57
(g78
g59
NtRp1603
(dp1604
g62
(dp1605
g89
g90
ssg71
g1594
sg64
(lp1606
S':'
asbag57
(g78
g59
NtRp1607
(dp1608
g62
(dp1609
sg71
g1594
sg64
(lp1610
g57
(g58
g59
NtRp1611
(dp1612
g62
(dp1613
g70
I4
ssg71
g1607
sg64
(lp1614
g100
asbasbasbag57
(g73
g59
NtRp1615
(dp1616
g62
(dp1617
sg71
g661
sg64
(lp1618
g57
(g78
g59
NtRp1619
(dp1620
g62
(dp1621
g82
g83
ssg71
g1615
sg64
(lp1622
S'wsgi_multithread'
p1623
asbag57
(g78
g59
NtRp1624
(dp1625
g62
(dp1626
g89
g90
ssg71
g1615
sg64
(lp1627
S':'
asbag57
(g78
g59
NtRp1628
(dp1629
g62
(dp1630
sg71
g1615
sg64
(lp1631
g57
(g58
g59
NtRp1632
(dp1633
g62
(dp1634
g70
I4
ssg71
g1628
sg64
(lp1635
S'True'
p1636
asbasbasbag57
(g73
g59
NtRp1637
(dp1638
g62
(dp1639
sg71
g661
sg64
(lp1640
g57
(g78
g59
NtRp1641
(dp1642
g62
(dp1643
g82
g83
ssg71
g1637
sg64
(lp1644
S'wsgi_run_once'
p1645
asbag57
(g78
g59
NtRp1646
(dp1647
g62
(dp1648
g89
g90
ssg71
g1637
sg64
(lp1649
S':'
asbag57
(g78
g59
NtRp1650
(dp1651
g62
(dp1652
sg71
g1637
sg64
(lp1653
g57
(g58
g59
NtRp1654
(dp1655
g62
(dp1656
g70
I4
ssg71
g1650
sg64
(lp1657
g100
asbasbasbag57
(g73
g59
NtRp1658
(dp1659
g62
(dp1660
sg71
g661
sg64
(lp1661
g57
(g78
g59
NtRp1662
(dp1663
g62
(dp1664
g82
g83
ssg71
g1658
sg64
(lp1665
S'wsgi_url_scheme'
p1666
asbag57
(g78
g59
NtRp1667
(dp1668
g62
(dp1669
g89
g90
ssg71
g1658
sg64
(lp1670
S':'
asbag57
(g78
g59
NtRp1671
(dp1672
g62
(dp1673
sg71
g1658
sg64
(lp1674
g57
(g58
g59
NtRp1675
(dp1676
g62
(dp1677
g70
I4
ssg71
g1671
sg64
(lp1678
S'http'
p1679
asbasbasbag57
(g73
g59
NtRp1680
(dp1681
g62
(dp1682
sg71
g661
sg64
(lp1683
g57
(g78
g59
NtRp1684
(dp1685
g62
(dp1686
g82
g83
ssg71
g1680
sg64
(lp1687
S'wsgi_version'
p1688
asbag57
(g78
g59
NtRp1689
(dp1690
g62
(dp1691
g89
g90
ssg71
g1680
sg64
(lp1692
S':'
asbag57
(g78
g59
NtRp1693
(dp1694
g62
(dp1695
sg71
g1680
sg64
(lp1696
g57
(g58
g59
NtRp1697
(dp1698
g62
(dp1699
g70
I4
ssg71
g1693
sg64
(lp1700
g57
(g66
g59
NtRp1701
(dp1702
g62
(dp1703
g70
I3
ssg71
Nsg64
(lp1704
g57
(g73
g59
NtRp1705
(dp1706
g62
(dp1707
sg71
g1701
sg64
(lp1708
g57
(g78
g59
NtRp1709
(dp1710
g62
(dp1711
sg71
g1705
sg64
(lp1712
g57
(g58
g59
NtRp1713
(dp1714
g62
(dp1715
g70
I3
ssg71
g1709
sg64
(lp1716
S'1'
asbasbasbag57
(g73
g59
NtRp1717
(dp1718
g62
(dp1719
sg71
g1701
sg64
(lp1720
g57
(g78
g59
NtRp1721
(dp1722
g62
(dp1723
sg71
g1717
sg64
(lp1724
g57
(g58
g59
NtRp1725
(dp1726
g62
(dp1727
g70
I3
ssg71
g1721
sg64
(lp1728
S'0'
asbasbasbasbasbasbasbasbasbasbasbag57
(g73
g59
NtRp1729
(dp1730
g62
(dp1731
sg71
g67
sg64
(lp1732
g57
(g78
g59
NtRp1733
(dp1734
g62
(dp1735
g82
g83
ssg71
g1729
sg64
(lp1736
S'extension'
p1737
asbag57
(g78
g59
NtRp1738
(dp1739
g62
(dp1740
g89
g90
ssg71
g1729
sg64
(lp1741
S':'
asbag57
(g78
g59
NtRp1742
(dp1743
g62
(dp1744
sg71
g1729
sg64
(lp1745
g57
(g58
g59
NtRp1746
(dp1747
g62
(dp1748
g70
I5
ssg71
g1742
sg64
(lp1749
S'html'
p1750
asbasbasbag57
(g73
g59
NtRp1751
(dp1752
g62
(dp1753
sg71
g67
sg64
(lp1754
g57
(g78
g59
NtRp1755
(dp1756
g62
(dp1757
g82
g83
ssg71
g1751
sg64
(lp1758
S'folder'
p1759
asbag57
(g78
g59
NtRp1760
(dp1761
g62
(dp1762
g89
g90
ssg71
g1751
sg64
(lp1763
S':'
asbag57
(g78
g59
NtRp1764
(dp1765
g62
(dp1766
sg71
g1751
sg64
(lp1767
g57
(g58
g59
NtRp1768
(dp1769
g62
(dp1770
g70
I5
ssg71
g1764
sg64
(lp1771
S'/var/www/gravacao/applications/projeto/'
p1772
asbasbasbag57
(g73
g59
NtRp1773
(dp1774
g62
(dp1775
sg71
g67
sg64
(lp1776
g57
(g78
g59
NtRp1777
(dp1778
g62
(dp1779
g82
g83
ssg71
g1773
sg64
(lp1780
S'function'
p1781
asbag57
(g78
g59
NtRp1782
(dp1783
g62
(dp1784
g89
g90
ssg71
g1773
sg64
(lp1785
S':'
asbag57
(g78
g59
NtRp1786
(dp1787
g62
(dp1788
sg71
g1773
sg64
(lp1789
g57
(g58
g59
NtRp1790
(dp1791
g62
(dp1792
g70
I5
ssg71
g1786
sg64
(lp1793
S'principal'
p1794
asbasbasbag57
(g73
g59
NtRp1795
(dp1796
g62
(dp1797
sg71
g67
sg64
(lp1798
g57
(g78
g59
NtRp1799
(dp1800
g62
(dp1801
g82
g83
ssg71
g1795
sg64
(lp1802
S'get_vars'
p1803
asbag57
(g78
g59
NtRp1804
(dp1805
g62
(dp1806
g89
g90
ssg71
g1795
sg64
(lp1807
S':'
asbag57
(g78
g59
NtRp1808
(dp1809
g62
(dp1810
sg71
g1795
sg64
(lp1811
g57
(g58
g59
NtRp1812
(dp1813
g62
(dp1814
g70
I5
ssg71
g1808
sg64
(lp1815
g57
(g66
g59
NtRp1816
(dp1817
g62
(dp1818
g70
I4
ssg71
Nsg64
(lp1819
sbasbasbasbag57
(g73
g59
NtRp1820
(dp1821
g62
(dp1822
sg71
g67
sg64
(lp1823
g57
(g78
g59
NtRp1824
(dp1825
g62
(dp1826
g82
g83
ssg71
g1820
sg64
(lp1827
S'global_settings'
p1828
asbag57
(g78
g59
NtRp1829
(dp1830
g62
(dp1831
g89
g90
ssg71
g1820
sg64
(lp1832
S':'
asbag57
(g78
g59
NtRp1833
(dp1834
g62
(dp1835
sg71
g1820
sg64
(lp1836
g57
(g58
g59
NtRp1837
(dp1838
g62
(dp1839
g70
I5
ssg71
g1833
sg64
(lp1840
g57
(g66
g59
NtRp1841
(dp1842
g62
(dp1843
g70
I4
ssg71
Nsg64
(lp1844
g57
(g73
g59
NtRp1845
(dp1846
g62
(dp1847
sg71
g1841
sg64
(lp1848
g57
(g78
g59
NtRp1849
(dp1850
g62
(dp1851
g82
g83
ssg71
g1845
sg64
(lp1852
g673
asbag57
(g78
g59
NtRp1853
(dp1854
g62
(dp1855
g89
g90
ssg71
g1845
sg64
(lp1856
S':'
asbag57
(g78
g59
NtRp1857
(dp1858
g62
(dp1859
sg71
g1845
sg64
(lp1860
g57
(g58
g59
NtRp1861
(dp1862
g62
(dp1863
g70
I4
ssg71
g1857
sg64
(lp1864
S"set(['/var/www/gravacao/applications/projeto/', '/var/www/gravacao/applications/admin/'])"
p1865
asbasbasbag57
(g73
g59
NtRp1866
(dp1867
g62
(dp1868
sg71
g1841
sg64
(lp1869
g57
(g78
g59
NtRp1870
(dp1871
g62
(dp1872
g82
g83
ssg71
g1866
sg64
(lp1873
g695
asbag57
(g78
g59
NtRp1874
(dp1875
g62
(dp1876
g89
g90
ssg71
g1866
sg64
(lp1877
S':'
asbag57
(g78
g59
NtRp1878
(dp1879
g62
(dp1880
sg71
g1866
sg64
(lp1881
g57
(g58
g59
NtRp1882
(dp1883
g62
(dp1884
g70
I4
ssg71
g1878
sg64
(lp1885
g708
asbasbasbag57
(g73
g59
NtRp1886
(dp1887
g62
(dp1888
sg71
g1841
sg64
(lp1889
g57
(g78
g59
NtRp1890
(dp1891
g62
(dp1892
g82
g83
ssg71
g1886
sg64
(lp1893
g717
asbag57
(g78
g59
NtRp1894
(dp1895
g62
(dp1896
g89
g90
ssg71
g1886
sg64
(lp1897
S':'
asbag57
(g78
g59
NtRp1898
(dp1899
g62
(dp1900
sg71
g1886
sg64
(lp1901
g57
(g58
g59
NtRp1902
(dp1903
g62
(dp1904
g70
I4
ssg71
g1898
sg64
(lp1905
g57
(g66
g59
NtRp1906
(dp1907
g62
(dp1908
g70
I3
ssg71
Nsg64
(lp1909
sbasbasbasbag57
(g73
g59
NtRp1910
(dp1911
g62
(dp1912
sg71
g1841
sg64
(lp1913
g57
(g78
g59
NtRp1914
(dp1915
g62
(dp1916
g82
g83
ssg71
g1910
sg64
(lp1917
g742
asbag57
(g78
g59
NtRp1918
(dp1919
g62
(dp1920
g89
g90
ssg71
g1910
sg64
(lp1921
S':'
asbag57
(g78
g59
NtRp1922
(dp1923
g62
(dp1924
sg71
g1910
sg64
(lp1925
g57
(g58
g59
NtRp1926
(dp1927
g62
(dp1928
g70
I4
ssg71
g1922
sg64
(lp1929
S"<Values at 0x32c52d8: {'verbose': False, 'ip': '127.0.0.1', 'with_scheduler': False, 'ips': [], 'shutdown_timeout': 5, 'taskbar': False, 'port': 8000, 'maxthreads': None, 'softcron': False, 'server_name': 'fernando-workstation', 'bpython': False, 'nogui': False, 'pid_filename': 'httpserver.pid', 'extcron': False, 'runcron': False, 'run_system_tests': False, 'test': None, 'folder': '/var/www/gravacao', 'config': '', 'minthreads': None, 'winservice': '', 'shell': None, 'run': '', 'log_filename': 'httpserver.log', 'debuglevel': 30, 'args': [''], 'socket_timeout': 5, 'ssl_ca_certificate': None, 'scheduler': None, 'profiler_filename': None, 'ssl_private_key': '', 'scheduler_groups': None, 'password': '123456', 'request_queue_size': 5, 'ssl_certificate': '', 'cronjob': False, 'numthreads': None, 'quiet': False, 'interfaces': None, 'import_models': False, 'timeout': 10, 'plain': False, 'nobanner': False}>"
p1930
asbasbasbag57
(g73
g59
NtRp1931
(dp1932
g62
(dp1933
sg71
g1841
sg64
(lp1934
g57
(g78
g59
NtRp1935
(dp1936
g62
(dp1937
g82
g83
ssg71
g1931
sg64
(lp1938
g764
asbag57
(g78
g59
NtRp1939
(dp1940
g62
(dp1941
g89
g90
ssg71
g1931
sg64
(lp1942
S':'
asbag57
(g78
g59
NtRp1943
(dp1944
g62
(dp1945
sg71
g1931
sg64
(lp1946
g57
(g58
g59
NtRp1947
(dp1948
g62
(dp1949
g70
I4
ssg71
g1943
sg64
(lp1950
S'set([])'
p1951
asbasbasbag57
(g73
g59
NtRp1952
(dp1953
g62
(dp1954
sg71
g1841
sg64
(lp1955
g57
(g78
g59
NtRp1956
(dp1957
g62
(dp1958
g82
g83
ssg71
g1952
sg64
(lp1959
g786
asbag57
(g78
g59
NtRp1960
(dp1961
g62
(dp1962
g89
g90
ssg71
g1952
sg64
(lp1963
S':'
asbag57
(g78
g59
NtRp1964
(dp1965
g62
(dp1966
sg71
g1952
sg64
(lp1967
g57
(g58
g59
NtRp1968
(dp1969
g62
(dp1970
g70
I4
ssg71
g1964
sg64
(lp1971
g100
asbasbasbag57
(g73
g59
NtRp1972
(dp1973
g62
(dp1974
sg71
g1841
sg64
(lp1975
g57
(g78
g59
NtRp1976
(dp1977
g62
(dp1978
g82
g83
ssg71
g1972
sg64
(lp1979
g807
asbag57
(g78
g59
NtRp1980
(dp1981
g62
(dp1982
g89
g90
ssg71
g1972
sg64
(lp1983
S':'
asbag57
(g78
g59
NtRp1984
(dp1985
g62
(dp1986
sg71
g1972
sg64
(lp1987
g57
(g58
g59
NtRp1988
(dp1989
g62
(dp1990
g70
I4
ssg71
g1984
sg64
(lp1991
g820
asbasbasbag57
(g73
g59
NtRp1992
(dp1993
g62
(dp1994
sg71
g1841
sg64
(lp1995
g57
(g78
g59
NtRp1996
(dp1997
g62
(dp1998
g82
g83
ssg71
g1992
sg64
(lp1999
g1049
asbag57
(g78
g59
NtRp2000
(dp2001
g62
(dp2002
g89
g90
ssg71
g1992
sg64
(lp2003
S':'
asbag57
(g78
g59
NtRp2004
(dp2005
g62
(dp2006
sg71
g1992
sg64
(lp2007
g57
(g58
g59
NtRp2008
(dp2009
g62
(dp2010
g70
I4
ssg71
g2004
sg64
(lp2011
g100
asbasbasbag57
(g73
g59
NtRp2012
(dp2013
g62
(dp2014
sg71
g1841
sg64
(lp2015
g57
(g78
g59
NtRp2016
(dp2017
g62
(dp2018
g82
g83
ssg71
g2012
sg64
(lp2019
g1070
asbag57
(g78
g59
NtRp2020
(dp2021
g62
(dp2022
g89
g90
ssg71
g2012
sg64
(lp2023
S':'
asbag57
(g78
g59
NtRp2024
(dp2025
g62
(dp2026
sg71
g2012
sg64
(lp2027
g57
(g58
g59
NtRp2028
(dp2029
g62
(dp2030
g70
I4
ssg71
g2024
sg64
(lp2031
g100
asbasbasbag57
(g73
g59
NtRp2032
(dp2033
g62
(dp2034
sg71
g1841
sg64
(lp2035
g57
(g78
g59
NtRp2036
(dp2037
g62
(dp2038
g82
g83
ssg71
g2032
sg64
(lp2039
g1091
asbag57
(g78
g59
NtRp2040
(dp2041
g62
(dp2042
g89
g90
ssg71
g2032
sg64
(lp2043
S':'
asbag57
(g78
g59
NtRp2044
(dp2045
g62
(dp2046
sg71
g2032
sg64
(lp2047
g57
(g58
g59
NtRp2048
(dp2049
g62
(dp2050
g70
I4
ssg71
g2044
sg64
(lp2051
g57
(g66
g59
NtRp2052
(dp2053
g62
(dp2054
g70
I3
ssg71
Nsg64
(lp2055
g57
(g73
g59
NtRp2056
(dp2057
g62
(dp2058
sg71
g2052
sg64
(lp2059
g57
(g78
g59
NtRp2060
(dp2061
g62
(dp2062
sg71
g2056
sg64
(lp2063
g57
(g58
g59
NtRp2064
(dp2065
g62
(dp2066
g70
I3
ssg71
g2060
sg64
(lp2067
g1120
asbasbasbag57
(g73
g59
NtRp2068
(dp2069
g62
(dp2070
sg71
g2052
sg64
(lp2071
g57
(g78
g59
NtRp2072
(dp2073
g62
(dp2074
sg71
g2068
sg64
(lp2075
g57
(g58
g59
NtRp2076
(dp2077
g62
(dp2078
g70
I3
ssg71
g2072
sg64
(lp2079
g1133
asbasbasbag57
(g73
g59
NtRp2080
(dp2081
g62
(dp2082
sg71
g2052
sg64
(lp2083
g57
(g78
g59
NtRp2084
(dp2085
g62
(dp2086
sg71
g2080
sg64
(lp2087
g57
(g58
g59
NtRp2088
(dp2089
g62
(dp2090
g70
I3
ssg71
g2084
sg64
(lp2091
g1146
asbasbasbag57
(g73
g59
NtRp2092
(dp2093
g62
(dp2094
sg71
g2052
sg64
(lp2095
g57
(g78
g59
NtRp2096
(dp2097
g62
(dp2098
sg71
g2092
sg64
(lp2099
g57
(g58
g59
NtRp2100
(dp2101
g62
(dp2102
g70
I3
ssg71
g2096
sg64
(lp2103
g1159
asbasbasbasbasbasbasbag57
(g73
g59
NtRp2104
(dp2105
g62
(dp2106
sg71
g1841
sg64
(lp2107
g57
(g78
g59
NtRp2108
(dp2109
g62
(dp2110
g82
g83
ssg71
g2104
sg64
(lp2111
g1449
asbag57
(g78
g59
NtRp2112
(dp2113
g62
(dp2114
g89
g90
ssg71
g2104
sg64
(lp2115
S':'
asbag57
(g78
g59
NtRp2116
(dp2117
g62
(dp2118
sg71
g2104
sg64
(lp2119
g57
(g58
g59
NtRp2120
(dp2121
g62
(dp2122
g70
I4
ssg71
g2116
sg64
(lp2123
g57
(g66
g59
NtRp2124
(dp2125
g62
(dp2126
g70
I3
ssg71
Nsg64
(lp2127
g57
(g73
g59
NtRp2128
(dp2129
g62
(dp2130
sg71
g2124
sg64
(lp2131
g57
(g78
g59
NtRp2132
(dp2133
g62
(dp2134
sg71
g2128
sg64
(lp2135
g57
(g58
g59
NtRp2136
(dp2137
g62
(dp2138
g70
I3
ssg71
g2132
sg64
(lp2139
S'2'
asbasbasbag57
(g73
g59
NtRp2140
(dp2141
g62
(dp2142
sg71
g2124
sg64
(lp2143
g57
(g78
g59
NtRp2144
(dp2145
g62
(dp2146
sg71
g2140
sg64
(lp2147
g57
(g58
g59
NtRp2148
(dp2149
g62
(dp2150
g70
I3
ssg71
g2144
sg64
(lp2151
S'3'
asbasbasbag57
(g73
g59
NtRp2152
(dp2153
g62
(dp2154
sg71
g2124
sg64
(lp2155
g57
(g78
g59
NtRp2156
(dp2157
g62
(dp2158
sg71
g2152
sg64
(lp2159
g57
(g58
g59
NtRp2160
(dp2161
g62
(dp2162
g70
I3
ssg71
g2156
sg64
(lp2163
S'2'
asbasbasbag57
(g73
g59
NtRp2164
(dp2165
g62
(dp2166
sg71
g2124
sg64
(lp2167
g57
(g78
g59
NtRp2168
(dp2169
g62
(dp2170
sg71
g2164
sg64
(lp2171
g57
(g58
g59
NtRp2172
(dp2173
g62
(dp2174
g70
I3
ssg71
g2168
sg64
(lp2175
S'datetime.datetime(2012, 12, 17, 15, 3, 30)'
p2176
asbasbasbag57
(g73
g59
NtRp2177
(dp2178
g62
(dp2179
sg71
g2124
sg64
(lp2180
g57
(g78
g59
NtRp2181
(dp2182
g62
(dp2183
sg71
g2177
sg64
(lp2184
g57
(g58
g59
NtRp2185
(dp2186
g62
(dp2187
g70
I3
ssg71
g2181
sg64
(lp2188
g1527
asbasbasbasbasbasbasbasbasbasbasbag57
(g73
g59
NtRp2189
(dp2190
g62
(dp2191
sg71
g67
sg64
(lp2192
g57
(g78
g59
NtRp2193
(dp2194
g62
(dp2195
g82
g83
ssg71
g2189
sg64
(lp2196
S'is_https'
p2197
asbag57
(g78
g59
NtRp2198
(dp2199
g62
(dp2200
g89
g90
ssg71
g2189
sg64
(lp2201
S':'
asbag57
(g78
g59
NtRp2202
(dp2203
g62
(dp2204
sg71
g2189
sg64
(lp2205
g57
(g58
g59
NtRp2206
(dp2207
g62
(dp2208
g70
I5
ssg71
g2202
sg64
(lp2209
g100
asbasbasbag57
(g73
g59
NtRp2210
(dp2211
g62
(dp2212
sg71
g67
sg64
(lp2213
g57
(g78
g59
NtRp2214
(dp2215
g62
(dp2216
g82
g83
ssg71
g2210
sg64
(lp2217
S'is_local'
p2218
asbag57
(g78
g59
NtRp2219
(dp2220
g62
(dp2221
g89
g90
ssg71
g2210
sg64
(lp2222
S':'
asbag57
(g78
g59
NtRp2223
(dp2224
g62
(dp2225
sg71
g2210
sg64
(lp2226
g57
(g58
g59
NtRp2227
(dp2228
g62
(dp2229
g70
I5
ssg71
g2223
sg64
(lp2230
g1636
asbasbasbag57
(g73
g59
NtRp2231
(dp2232
g62
(dp2233
sg71
g67
sg64
(lp2234
g57
(g78
g59
NtRp2235
(dp2236
g62
(dp2237
g82
g83
ssg71
g2231
sg64
(lp2238
S'is_restful'
p2239
asbag57
(g78
g59
NtRp2240
(dp2241
g62
(dp2242
g89
g90
ssg71
g2231
sg64
(lp2243
S':'
asbag57
(g78
g59
NtRp2244
(dp2245
g62
(dp2246
sg71
g2231
sg64
(lp2247
g57
(g58
g59
NtRp2248
(dp2249
g62
(dp2250
g70
I5
ssg71
g2244
sg64
(lp2251
g100
asbasbasbag57
(g73
g59
NtRp2252
(dp2253
g62
(dp2254
sg71
g67
sg64
(lp2255
g57
(g78
g59
NtRp2256
(dp2257
g62
(dp2258
g82
g83
ssg71
g2252
sg64
(lp2259
S'now'
p2260
asbag57
(g78
g59
NtRp2261
(dp2262
g62
(dp2263
g89
g90
ssg71
g2252
sg64
(lp2264
S':'
asbag57
(g78
g59
NtRp2265
(dp2266
g62
(dp2267
sg71
g2252
sg64
(lp2268
g57
(g58
g59
NtRp2269
(dp2270
g62
(dp2271
g70
I5
ssg71
g2265
sg64
(lp2272
S'datetime.datetime(2013, 5, 15, 10, 44, 37, 616837)'
p2273
asbasbasbag57
(g73
g59
NtRp2274
(dp2275
g62
(dp2276
sg71
g67
sg64
(lp2277
g57
(g78
g59
NtRp2278
(dp2279
g62
(dp2280
g82
g83
ssg71
g2274
sg64
(lp2281
S'post_vars'
p2282
asbag57
(g78
g59
NtRp2283
(dp2284
g62
(dp2285
g89
g90
ssg71
g2274
sg64
(lp2286
S':'
asbag57
(g78
g59
NtRp2287
(dp2288
g62
(dp2289
sg71
g2274
sg64
(lp2290
g57
(g58
g59
NtRp2291
(dp2292
g62
(dp2293
g70
I5
ssg71
g2287
sg64
(lp2294
g57
(g66
g59
NtRp2295
(dp2296
g62
(dp2297
g70
I4
ssg71
Nsg64
(lp2298
sbasbasbasbag57
(g73
g59
NtRp2299
(dp2300
g62
(dp2301
sg71
g67
sg64
(lp2302
g57
(g78
g59
NtRp2303
(dp2304
g62
(dp2305
g82
g83
ssg71
g2299
sg64
(lp2306
S'url'
p2307
asbag57
(g78
g59
NtRp2308
(dp2309
g62
(dp2310
g89
g90
ssg71
g2299
sg64
(lp2311
S':'
asbag57
(g78
g59
NtRp2312
(dp2313
g62
(dp2314
sg71
g2299
sg64
(lp2315
g57
(g58
g59
NtRp2316
(dp2317
g62
(dp2318
g70
I5
ssg71
g2312
sg64
(lp2319
g1181
asbasbasbag57
(g73
g59
NtRp2320
(dp2321
g62
(dp2322
sg71
g67
sg64
(lp2323
g57
(g78
g59
NtRp2324
(dp2325
g62
(dp2326
g82
g83
ssg71
g2320
sg64
(lp2327
S'utcnow'
p2328
asbag57
(g78
g59
NtRp2329
(dp2330
g62
(dp2331
g89
g90
ssg71
g2320
sg64
(lp2332
S':'
asbag57
(g78
g59
NtRp2333
(dp2334
g62
(dp2335
sg71
g2320
sg64
(lp2336
g57
(g58
g59
NtRp2337
(dp2338
g62
(dp2339
g70
I5
ssg71
g2333
sg64
(lp2340
S'datetime.datetime(2013, 5, 15, 13, 44, 37, 616885)'
p2341
asbasbasbag57
(g73
g59
NtRp2342
(dp2343
g62
(dp2344
sg71
g67
sg64
(lp2345
g57
(g78
g59
NtRp2346
(dp2347
g62
(dp2348
g82
g83
ssg71
g2342
sg64
(lp2349
S'uuid'
p2350
asbag57
(g78
g59
NtRp2351
(dp2352
g62
(dp2353
g89
g90
ssg71
g2342
sg64
(lp2354
S':'
asbag57
(g78
g59
NtRp2355
(dp2356
g62
(dp2357
sg71
g2342
sg64
(lp2358
g57
(g58
g59
NtRp2359
(dp2360
g62
(dp2361
g70
I5
ssg71
g2355
sg64
(lp2362
S'projeto/127.0.0.1.2013-05-15.10-44-37.17ebb85b-6036-426a-9071-228f8bc0d3b3'
p2363
asbasbasbag57
(g73
g59
NtRp2364
(dp2365
g62
(dp2366
sg71
g67
sg64
(lp2367
g57
(g78
g59
NtRp2368
(dp2369
g62
(dp2370
g82
g83
ssg71
g2364
sg64
(lp2371
S'vars'
p2372
asbag57
(g78
g59
NtRp2373
(dp2374
g62
(dp2375
g89
g90
ssg71
g2364
sg64
(lp2376
S':'
asbag57
(g78
g59
NtRp2377
(dp2378
g62
(dp2379
sg71
g2364
sg64
(lp2380
g57
(g58
g59
NtRp2381
(dp2382
g62
(dp2383
g70
I5
ssg71
g2377
sg64
(lp2384
g57
(g66
g59
NtRp2385
(dp2386
g62
(dp2387
g70
I4
ssg71
Nsg64
(lp2388
sbasbasbasbag57
(g73
g59
NtRp2389
(dp2390
g62
(dp2391
sg71
g67
sg64
(lp2392
g57
(g78
g59
NtRp2393
(dp2394
g62
(dp2395
g82
g83
ssg71
g2389
sg64
(lp2396
S'wsgi'
p2397
asbag57
(g78
g59
NtRp2398
(dp2399
g62
(dp2400
g89
g90
ssg71
g2389
sg64
(lp2401
S':'
asbag57
(g78
g59
NtRp2402
(dp2403
g62
(dp2404
sg71
g2389
sg64
(lp2405
g57
(g58
g59
NtRp2406
(dp2407
g62
(dp2408
g70
I5
ssg71
g2402
sg64
(lp2409
g57
(g66
g59
NtRp2410
(dp2411
g62
(dp2412
g70
I4
ssg71
Nsg64
(lp2413
g57
(g73
g59
NtRp2414
(dp2415
g62
(dp2416
sg71
g2410
sg64
(lp2417
g57
(g78
g59
NtRp2418
(dp2419
g62
(dp2420
g82
g83
ssg71
g2414
sg64
(lp2421
S'environ'
p2422
asbag57
(g78
g59
NtRp2423
(dp2424
g62
(dp2425
g89
g90
ssg71
g2414
sg64
(lp2426
S':'
asbag57
(g78
g59
NtRp2427
(dp2428
g62
(dp2429
sg71
g2414
sg64
(lp2430
g57
(g58
g59
NtRp2431
(dp2432
g62
(dp2433
g70
I4
ssg71
g2427
sg64
(lp2434
g57
(g66
g59
NtRp2435
(dp2436
g62
(dp2437
g70
I3
ssg71
Nsg64
(lp2438
g57
(g73
g59
NtRp2439
(dp2440
g62
(dp2441
sg71
g2435
sg64
(lp2442
g57
(g78
g59
NtRp2443
(dp2444
g62
(dp2445
g82
g83
ssg71
g2439
sg64
(lp2446
S'HTTP_ACCEPT'
p2447
asbag57
(g78
g59
NtRp2448
(dp2449
g62
(dp2450
g89
g90
ssg71
g2439
sg64
(lp2451
S':'
asbag57
(g78
g59
NtRp2452
(dp2453
g62
(dp2454
sg71
g2439
sg64
(lp2455
g57
(g58
g59
NtRp2456
(dp2457
g62
(dp2458
g70
I3
ssg71
g2452
sg64
(lp2459
g842
asbasbasbag57
(g73
g59
NtRp2460
(dp2461
g62
(dp2462
sg71
g2435
sg64
(lp2463
g57
(g78
g59
NtRp2464
(dp2465
g62
(dp2466
g82
g83
ssg71
g2460
sg64
(lp2467
S'HTTP_ACCEPT_CHARSET'
p2468
asbag57
(g78
g59
NtRp2469
(dp2470
g62
(dp2471
g89
g90
ssg71
g2460
sg64
(lp2472
S':'
asbag57
(g78
g59
NtRp2473
(dp2474
g62
(dp2475
sg71
g2460
sg64
(lp2476
g57
(g58
g59
NtRp2477
(dp2478
g62
(dp2479
g70
I3
ssg71
g2473
sg64
(lp2480
g864
asbasbasbag57
(g73
g59
NtRp2481
(dp2482
g62
(dp2483
sg71
g2435
sg64
(lp2484
g57
(g78
g59
NtRp2485
(dp2486
g62
(dp2487
g82
g83
ssg71
g2481
sg64
(lp2488
S'HTTP_ACCEPT_ENCODING'
p2489
asbag57
(g78
g59
NtRp2490
(dp2491
g62
(dp2492
g89
g90
ssg71
g2481
sg64
(lp2493
S':'
asbag57
(g78
g59
NtRp2494
(dp2495
g62
(dp2496
sg71
g2481
sg64
(lp2497
g57
(g58
g59
NtRp2498
(dp2499
g62
(dp2500
g70
I3
ssg71
g2494
sg64
(lp2501
g886
asbasbasbag57
(g73
g59
NtRp2502
(dp2503
g62
(dp2504
sg71
g2435
sg64
(lp2505
g57
(g78
g59
NtRp2506
(dp2507
g62
(dp2508
g82
g83
ssg71
g2502
sg64
(lp2509
S'HTTP_ACCEPT_LANGUAGE'
p2510
asbag57
(g78
g59
NtRp2511
(dp2512
g62
(dp2513
g89
g90
ssg71
g2502
sg64
(lp2514
S':'
asbag57
(g78
g59
NtRp2515
(dp2516
g62
(dp2517
sg71
g2502
sg64
(lp2518
g57
(g58
g59
NtRp2519
(dp2520
g62
(dp2521
g70
I3
ssg71
g2515
sg64
(lp2522
g908
asbasbasbag57
(g73
g59
NtRp2523
(dp2524
g62
(dp2525
sg71
g2435
sg64
(lp2526
g57
(g78
g59
NtRp2527
(dp2528
g62
(dp2529
g82
g83
ssg71
g2523
sg64
(lp2530
S'HTTP_CACHE_CONTROL'
p2531
asbag57
(g78
g59
NtRp2532
(dp2533
g62
(dp2534
g89
g90
ssg71
g2523
sg64
(lp2535
S':'
asbag57
(g78
g59
NtRp2536
(dp2537
g62
(dp2538
sg71
g2523
sg64
(lp2539
g57
(g58
g59
NtRp2540
(dp2541
g62
(dp2542
g70
I3
ssg71
g2536
sg64
(lp2543
g930
asbasbasbag57
(g73
g59
NtRp2544
(dp2545
g62
(dp2546
sg71
g2435
sg64
(lp2547
g57
(g78
g59
NtRp2548
(dp2549
g62
(dp2550
g82
g83
ssg71
g2544
sg64
(lp2551
S'HTTP_CONNECTION'
p2552
asbag57
(g78
g59
NtRp2553
(dp2554
g62
(dp2555
g89
g90
ssg71
g2544
sg64
(lp2556
S':'
asbag57
(g78
g59
NtRp2557
(dp2558
g62
(dp2559
sg71
g2544
sg64
(lp2560
g57
(g58
g59
NtRp2561
(dp2562
g62
(dp2563
g70
I3
ssg71
g2557
sg64
(lp2564
g952
asbasbasbag57
(g73
g59
NtRp2565
(dp2566
g62
(dp2567
sg71
g2435
sg64
(lp2568
g57
(g78
g59
NtRp2569
(dp2570
g62
(dp2571
g82
g83
ssg71
g2565
sg64
(lp2572
S'HTTP_COOKIE'
p2573
asbag57
(g78
g59
NtRp2574
(dp2575
g62
(dp2576
g89
g90
ssg71
g2565
sg64
(lp2577
S':'
asbag57
(g78
g59
NtRp2578
(dp2579
g62
(dp2580
sg71
g2565
sg64
(lp2581
g57
(g58
g59
NtRp2582
(dp2583
g62
(dp2584
g70
I3
ssg71
g2578
sg64
(lp2585
g974
asbasbasbag57
(g73
g59
NtRp2586
(dp2587
g62
(dp2588
sg71
g2435
sg64
(lp2589
g57
(g78
g59
NtRp2590
(dp2591
g62
(dp2592
g82
g83
ssg71
g2586
sg64
(lp2593
S'HTTP_HOST'
p2594
asbag57
(g78
g59
NtRp2595
(dp2596
g62
(dp2597
g89
g90
ssg71
g2586
sg64
(lp2598
S':'
asbag57
(g78
g59
NtRp2599
(dp2600
g62
(dp2601
sg71
g2586
sg64
(lp2602
g57
(g58
g59
NtRp2603
(dp2604
g62
(dp2605
g70
I3
ssg71
g2599
sg64
(lp2606
g996
asbasbasbag57
(g73
g59
NtRp2607
(dp2608
g62
(dp2609
sg71
g2435
sg64
(lp2610
g57
(g78
g59
NtRp2611
(dp2612
g62
(dp2613
g82
g83
ssg71
g2607
sg64
(lp2614
S'HTTP_REFERER'
p2615
asbag57
(g78
g59
NtRp2616
(dp2617
g62
(dp2618
g89
g90
ssg71
g2607
sg64
(lp2619
S':'
asbag57
(g78
g59
NtRp2620
(dp2621
g62
(dp2622
sg71
g2607
sg64
(lp2623
g57
(g58
g59
NtRp2624
(dp2625
g62
(dp2626
g70
I3
ssg71
g2620
sg64
(lp2627
g1018
asbasbasbag57
(g73
g59
NtRp2628
(dp2629
g62
(dp2630
sg71
g2435
sg64
(lp2631
g57
(g78
g59
NtRp2632
(dp2633
g62
(dp2634
g82
g83
ssg71
g2628
sg64
(lp2635
S'HTTP_USER_AGENT'
p2636
asbag57
(g78
g59
NtRp2637
(dp2638
g62
(dp2639
g89
g90
ssg71
g2628
sg64
(lp2640
S':'
asbag57
(g78
g59
NtRp2641
(dp2642
g62
(dp2643
sg71
g2628
sg64
(lp2644
g57
(g58
g59
NtRp2645
(dp2646
g62
(dp2647
g70
I3
ssg71
g2641
sg64
(lp2648
g1040
asbasbasbag57
(g73
g59
NtRp2649
(dp2650
g62
(dp2651
sg71
g2435
sg64
(lp2652
g57
(g78
g59
NtRp2653
(dp2654
g62
(dp2655
g82
g83
ssg71
g2649
sg64
(lp2656
S'PATH_INFO'
p2657
asbag57
(g78
g59
NtRp2658
(dp2659
g62
(dp2660
g89
g90
ssg71
g2649
sg64
(lp2661
S':'
asbag57
(g78
g59
NtRp2662
(dp2663
g62
(dp2664
sg71
g2649
sg64
(lp2665
g57
(g58
g59
NtRp2666
(dp2667
g62
(dp2668
g70
I3
ssg71
g2662
sg64
(lp2669
g1181
asbasbasbag57
(g73
g59
NtRp2670
(dp2671
g62
(dp2672
sg71
g2435
sg64
(lp2673
g57
(g78
g59
NtRp2674
(dp2675
g62
(dp2676
g82
g83
ssg71
g2670
sg64
(lp2677
S'QUERY_STRING'
p2678
asbag57
(g78
g59
NtRp2679
(dp2680
g62
(dp2681
g89
g90
ssg71
g2670
sg64
(lp2682
S':'
asbag57
(g78
g59
NtRp2683
(dp2684
g62
(dp2685
sg71
g2670
sg64
(lp2686
g57
(g58
g59
NtRp2687
(dp2688
g62
(dp2689
g70
I3
ssg71
g2683
sg64
(lp2690
S''
asbasbasbag57
(g73
g59
NtRp2691
(dp2692
g62
(dp2693
sg71
g2435
sg64
(lp2694
g57
(g78
g59
NtRp2695
(dp2696
g62
(dp2697
g82
g83
ssg71
g2691
sg64
(lp2698
S'REMOTE_ADDR'
p2699
asbag57
(g78
g59
NtRp2700
(dp2701
g62
(dp2702
g89
g90
ssg71
g2691
sg64
(lp2703
S':'
asbag57
(g78
g59
NtRp2704
(dp2705
g62
(dp2706
sg71
g2691
sg64
(lp2707
g57
(g58
g59
NtRp2708
(dp2709
g62
(dp2710
g70
I3
ssg71
g2704
sg64
(lp2711
g212
asbasbasbag57
(g73
g59
NtRp2712
(dp2713
g62
(dp2714
sg71
g2435
sg64
(lp2715
g57
(g78
g59
NtRp2716
(dp2717
g62
(dp2718
g82
g83
ssg71
g2712
sg64
(lp2719
S'REMOTE_PORT'
p2720
asbag57
(g78
g59
NtRp2721
(dp2722
g62
(dp2723
g89
g90
ssg71
g2712
sg64
(lp2724
S':'
asbag57
(g78
g59
NtRp2725
(dp2726
g62
(dp2727
sg71
g2712
sg64
(lp2728
g57
(g58
g59
NtRp2729
(dp2730
g62
(dp2731
g70
I3
ssg71
g2725
sg64
(lp2732
g1245
asbasbasbag57
(g73
g59
NtRp2733
(dp2734
g62
(dp2735
sg71
g2435
sg64
(lp2736
g57
(g78
g59
NtRp2737
(dp2738
g62
(dp2739
g82
g83
ssg71
g2733
sg64
(lp2740
S'REQUEST_METHOD'
p2741
asbag57
(g78
g59
NtRp2742
(dp2743
g62
(dp2744
g89
g90
ssg71
g2733
sg64
(lp2745
S':'
asbag57
(g78
g59
NtRp2746
(dp2747
g62
(dp2748
sg71
g2733
sg64
(lp2749
g57
(g58
g59
NtRp2750
(dp2751
g62
(dp2752
g70
I3
ssg71
g2746
sg64
(lp2753
g1267
asbasbasbag57
(g73
g59
NtRp2754
(dp2755
g62
(dp2756
sg71
g2435
sg64
(lp2757
g57
(g78
g59
NtRp2758
(dp2759
g62
(dp2760
g82
g83
ssg71
g2754
sg64
(lp2761
S'REQUEST_URI'
p2762
asbag57
(g78
g59
NtRp2763
(dp2764
g62
(dp2765
g89
g90
ssg71
g2754
sg64
(lp2766
S':'
asbag57
(g78
g59
NtRp2767
(dp2768
g62
(dp2769
sg71
g2754
sg64
(lp2770
g57
(g58
g59
NtRp2771
(dp2772
g62
(dp2773
g70
I3
ssg71
g2767
sg64
(lp2774
g1289
asbasbasbag57
(g73
g59
NtRp2775
(dp2776
g62
(dp2777
sg71
g2435
sg64
(lp2778
g57
(g78
g59
NtRp2779
(dp2780
g62
(dp2781
g82
g83
ssg71
g2775
sg64
(lp2782
S'SCRIPT_NAME'
p2783
asbag57
(g78
g59
NtRp2784
(dp2785
g62
(dp2786
g89
g90
ssg71
g2775
sg64
(lp2787
S':'
asbag57
(g78
g59
NtRp2788
(dp2789
g62
(dp2790
sg71
g2775
sg64
(lp2791
g57
(g58
g59
NtRp2792
(dp2793
g62
(dp2794
g70
I3
ssg71
g2788
sg64
(lp2795
S''
asbasbasbag57
(g73
g59
NtRp2796
(dp2797
g62
(dp2798
sg71
g2435
sg64
(lp2799
g57
(g78
g59
NtRp2800
(dp2801
g62
(dp2802
g82
g83
ssg71
g2796
sg64
(lp2803
S'SERVER_NAME'
p2804
asbag57
(g78
g59
NtRp2805
(dp2806
g62
(dp2807
g89
g90
ssg71
g2796
sg64
(lp2808
S':'
asbag57
(g78
g59
NtRp2809
(dp2810
g62
(dp2811
sg71
g2796
sg64
(lp2812
g57
(g58
g59
NtRp2813
(dp2814
g62
(dp2815
g70
I3
ssg71
g2809
sg64
(lp2816
g1332
asbasbasbag57
(g73
g59
NtRp2817
(dp2818
g62
(dp2819
sg71
g2435
sg64
(lp2820
g57
(g78
g59
NtRp2821
(dp2822
g62
(dp2823
g82
g83
ssg71
g2817
sg64
(lp2824
S'SERVER_PORT'
p2825
asbag57
(g78
g59
NtRp2826
(dp2827
g62
(dp2828
g89
g90
ssg71
g2817
sg64
(lp2829
S':'
asbag57
(g78
g59
NtRp2830
(dp2831
g62
(dp2832
sg71
g2817
sg64
(lp2833
g57
(g58
g59
NtRp2834
(dp2835
g62
(dp2836
g70
I3
ssg71
g2830
sg64
(lp2837
g1354
asbasbasbag57
(g73
g59
NtRp2838
(dp2839
g62
(dp2840
sg71
g2435
sg64
(lp2841
g57
(g78
g59
NtRp2842
(dp2843
g62
(dp2844
g82
g83
ssg71
g2838
sg64
(lp2845
S'SERVER_PROTOCOL'
p2846
asbag57
(g78
g59
NtRp2847
(dp2848
g62
(dp2849
g89
g90
ssg71
g2838
sg64
(lp2850
S':'
asbag57
(g78
g59
NtRp2851
(dp2852
g62
(dp2853
sg71
g2838
sg64
(lp2854
g57
(g58
g59
NtRp2855
(dp2856
g62
(dp2857
g70
I3
ssg71
g2851
sg64
(lp2858
g1376
asbasbasbag57
(g73
g59
NtRp2859
(dp2860
g62
(dp2861
sg71
g2435
sg64
(lp2862
g57
(g78
g59
NtRp2863
(dp2864
g62
(dp2865
g82
g83
ssg71
g2859
sg64
(lp2866
S'SERVER_SOFTWARE'
p2867
asbag57
(g78
g59
NtRp2868
(dp2869
g62
(dp2870
g89
g90
ssg71
g2859
sg64
(lp2871
S':'
asbag57
(g78
g59
NtRp2872
(dp2873
g62
(dp2874
sg71
g2859
sg64
(lp2875
g57
(g58
g59
NtRp2876
(dp2877
g62
(dp2878
g70
I3
ssg71
g2872
sg64
(lp2879
g1398
asbasbasbag57
(g73
g59
NtRp2880
(dp2881
g62
(dp2882
sg71
g2435
sg64
(lp2883
g57
(g78
g59
NtRp2884
(dp2885
g62
(dp2886
g82
g83
ssg71
g2880
sg64
(lp2887
S'WEB2PY_ORIGINAL_URI'
p2888
asbag57
(g78
g59
NtRp2889
(dp2890
g62
(dp2891
g89
g90
ssg71
g2880
sg64
(lp2892
S':'
asbag57
(g78
g59
NtRp2893
(dp2894
g62
(dp2895
sg71
g2880
sg64
(lp2896
g57
(g58
g59
NtRp2897
(dp2898
g62
(dp2899
g70
I3
ssg71
g2893
sg64
(lp2900
g1181
asbasbasbag57
(g73
g59
NtRp2901
(dp2902
g62
(dp2903
sg71
g2435
sg64
(lp2904
g57
(g78
g59
NtRp2905
(dp2906
g62
(dp2907
g82
g83
ssg71
g2901
sg64
(lp2908
S'wsgi.errors'
p2909
asbag57
(g78
g59
NtRp2910
(dp2911
g62
(dp2912
g89
g90
ssg71
g2901
sg64
(lp2913
S':'
asbag57
(g78
g59
NtRp2914
(dp2915
g62
(dp2916
sg71
g2901
sg64
(lp2917
g57
(g58
g59
NtRp2918
(dp2919
g62
(dp2920
g70
I3
ssg71
g2914
sg64
(lp2921
S"<open file '<stderr>', mode 'w' at 0x7fdffc865270>"
p2922
asbasbasbag57
(g73
g59
NtRp2923
(dp2924
g62
(dp2925
sg71
g2435
sg64
(lp2926
g57
(g78
g59
NtRp2927
(dp2928
g62
(dp2929
g82
g83
ssg71
g2923
sg64
(lp2930
S'wsgi.file_wrapper'
p2931
asbag57
(g78
g59
NtRp2932
(dp2933
g62
(dp2934
g89
g90
ssg71
g2923
sg64
(lp2935
S':'
asbag57
(g78
g59
NtRp2936
(dp2937
g62
(dp2938
sg71
g2923
sg64
(lp2939
g57
(g58
g59
NtRp2940
(dp2941
g62
(dp2942
g70
I3
ssg71
g2936
sg64
(lp2943
S'<class wsgiref.util.FileWrapper at 0x324c4c8>'
p2944
asbasbasbag57
(g73
g59
NtRp2945
(dp2946
g62
(dp2947
sg71
g2435
sg64
(lp2948
g57
(g78
g59
NtRp2949
(dp2950
g62
(dp2951
g82
g83
ssg71
g2945
sg64
(lp2952
S'wsgi.input'
p2953
asbag57
(g78
g59
NtRp2954
(dp2955
g62
(dp2956
g89
g90
ssg71
g2945
sg64
(lp2957
S':'
asbag57
(g78
g59
NtRp2958
(dp2959
g62
(dp2960
sg71
g2945
sg64
(lp2961
g57
(g58
g59
NtRp2962
(dp2963
g62
(dp2964
g70
I3
ssg71
g2958
sg64
(lp2965
S'<cStringIO.StringO object at 0x7fdfe0426c70>'
p2966
asbasbasbag57
(g73
g59
NtRp2967
(dp2968
g62
(dp2969
sg71
g2435
sg64
(lp2970
g57
(g78
g59
NtRp2971
(dp2972
g62
(dp2973
g82
g83
ssg71
g2967
sg64
(lp2974
S'wsgi.multiprocess'
p2975
asbag57
(g78
g59
NtRp2976
(dp2977
g62
(dp2978
g89
g90
ssg71
g2967
sg64
(lp2979
S':'
asbag57
(g78
g59
NtRp2980
(dp2981
g62
(dp2982
sg71
g2967
sg64
(lp2983
g57
(g58
g59
NtRp2984
(dp2985
g62
(dp2986
g70
I3
ssg71
g2980
sg64
(lp2987
g100
asbasbasbag57
(g73
g59
NtRp2988
(dp2989
g62
(dp2990
sg71
g2435
sg64
(lp2991
g57
(g78
g59
NtRp2992
(dp2993
g62
(dp2994
g82
g83
ssg71
g2988
sg64
(lp2995
S'wsgi.multithread'
p2996
asbag57
(g78
g59
NtRp2997
(dp2998
g62
(dp2999
g89
g90
ssg71
g2988
sg64
(lp3000
S':'
asbag57
(g78
g59
NtRp3001
(dp3002
g62
(dp3003
sg71
g2988
sg64
(lp3004
g57
(g58
g59
NtRp3005
(dp3006
g62
(dp3007
g70
I3
ssg71
g3001
sg64
(lp3008
g1636
asbasbasbag57
(g73
g59
NtRp3009
(dp3010
g62
(dp3011
sg71
g2435
sg64
(lp3012
g57
(g78
g59
NtRp3013
(dp3014
g62
(dp3015
g82
g83
ssg71
g3009
sg64
(lp3016
S'wsgi.run_once'
p3017
asbag57
(g78
g59
NtRp3018
(dp3019
g62
(dp3020
g89
g90
ssg71
g3009
sg64
(lp3021
S':'
asbag57
(g78
g59
NtRp3022
(dp3023
g62
(dp3024
sg71
g3009
sg64
(lp3025
g57
(g58
g59
NtRp3026
(dp3027
g62
(dp3028
g70
I3
ssg71
g3022
sg64
(lp3029
g100
asbasbasbag57
(g73
g59
NtRp3030
(dp3031
g62
(dp3032
sg71
g2435
sg64
(lp3033
g57
(g78
g59
NtRp3034
(dp3035
g62
(dp3036
g82
g83
ssg71
g3030
sg64
(lp3037
S'wsgi.url_scheme'
p3038
asbag57
(g78
g59
NtRp3039
(dp3040
g62
(dp3041
g89
g90
ssg71
g3030
sg64
(lp3042
S':'
asbag57
(g78
g59
NtRp3043
(dp3044
g62
(dp3045
sg71
g3030
sg64
(lp3046
g57
(g58
g59
NtRp3047
(dp3048
g62
(dp3049
g70
I3
ssg71
g3043
sg64
(lp3050
g1679
asbasbasbag57
(g73
g59
NtRp3051
(dp3052
g62
(dp3053
sg71
g2435
sg64
(lp3054
g57
(g78
g59
NtRp3055
(dp3056
g62
(dp3057
g82
g83
ssg71
g3051
sg64
(lp3058
S'wsgi.version'
p3059
asbag57
(g78
g59
NtRp3060
(dp3061
g62
(dp3062
g89
g90
ssg71
g3051
sg64
(lp3063
S':'
asbag57
(g78
g59
NtRp3064
(dp3065
g62
(dp3066
sg71
g3051
sg64
(lp3067
g57
(g58
g59
NtRp3068
(dp3069
g62
(dp3070
g70
I3
ssg71
g3064
sg64
(lp3071
S'1'
asbasbasbasbasbasbasbasbasbasbasbasbasbsS'frames'
p3072
(lp3073
(dp3074
S'file'
p3075
S'/var/www/gravacao/gluon/restricted.py'
p3076
sS'dump'
p3077
(dp3078
S'environment'
p3079
S"{'A': <class 'gluon.html.A'>, 'Auth': <class 'gluon.tools.Auth'>, 'B': <class 'gluon.html.B'>, 'BEAUTIFY': <class 'gluon.html.BEAUTIFY'>, 'BODY': <class 'gluon.html.BODY'>, 'BR': <class 'gluon.html.BR'>, 'BUTTON': <class 'gluon.html.BUTTON'>, 'CAT': <class 'gluon.html.CAT'>, 'CENTER': <class 'gluon.html.CENTER'>, 'CLEANUP': <class 'gluon.validators.CLEANUP'>, ...}"
p3080
sS'ccode'
p3081
S'<code object <module> at 0x7fdfccdcf830, file "/...ications/projeto/controllers/initial.py", line 2>'
p3082
ssS'lnum'
p3083
I212
sS'lines'
p3084
(dp3085
I207
S'    try:'
p3086
sI208
S'        if isinstance(code, types.CodeType):'
p3087
sI209
S'            ccode = code'
p3088
sI210
S'        else:'
p3089
sI211
S'            ccode = compile2(code, layer)'
p3090
sI212
S'        exec ccode in environment'
p3091
sI213
S'    except HTTP:'
p3092
sI214
S'        raise'
p3093
sI215
S'    except RestrictedError:'
p3094
sI216
S'        # do not encapsulate (obfuscate) the original RestrictedError'
p3095
ssS'call'
p3096
S"(code='# coding=UTF-8\\nimport datetime, os, commands\\n\\nde...\\t\\n\\n\\n\\n\\nresponse._vars=response._caller(principal)\\n', environment={'A': <class 'gluon.html.A'>, 'Auth': <class 'gluon.tools.Auth'>, 'B': <class 'gluon.html.B'>, 'BEAUTIFY': <class 'gluon.html.BEAUTIFY'>, 'BODY': <class 'gluon.html.BODY'>, 'BR': <class 'gluon.html.BR'>, 'BUTTON': <class 'gluon.html.BUTTON'>, 'CAT': <class 'gluon.html.CAT'>, 'CENTER': <class 'gluon.html.CENTER'>, 'CLEANUP': <class 'gluon.validators.CLEANUP'>, ...}, layer='/var/www/gravacao/applications/projeto/controllers/initial.py')"
p3097
sS'func'
p3098
S'restricted'
p3099
sa(dp3100
g3075
S'/var/www/gravacao/applications/projeto/controllers/initial.py'
p3101
sg3077
(dp3102
sg3083
I555
sg3084
(dp3103
I544
S''
sI545
S'def download():'
p3104
sI546
S'\treturn response.download(request, db)'
p3105
sI547
S''
sI548
S''
sI549
S''
sI550
S''
sI551
S''
sI552
S''
sI553
S''
ssg3096
S'()'
p3106
sg3098
S'<module>'
p3107
sa(dp3108
g3075
S'/var/www/gravacao/gluon/globals.py'
p3109
sg3077
(dp3110
S'self'
p3111
S'undefined'
p3112
sS'f'
S'<function principal>'
p3113
ssg3083
I193
sg3084
(dp3114
I192
S'        self._vars = None'
p3115
sI193
S'        self._caller = lambda f: f()'
p3116
sI194
S'        self._view_environment = None'
p3117
sI195
S'        self._custom_commit = None'
p3118
sI196
S'        self._custom_rollback = None'
p3119
sI197
S''
sI188
S'        self.menu = []             # used by the default view layout'
p3120
sI189
S'        self.files = []            # used by web2py_ajax.html'
p3121
sI190
S'        self.generic_patterns = []  # patterns to allow generic views'
p3122
sI191
S"        self.delimiters = ('{{', '}}')"
p3123
ssg3096
S'(f=<function principal>)'
p3124
sg3098
S'<lambda>'
p3125
sa(dp3126
g3075
S'/var/www/gravacao/applications/projeto/controllers/initial.py'
p3127
sg3077
(dp3128
S'tabela'
p3129
g3112
sS'ano'
p3130
S'2001'
p3131
sS'mes'
p3132
g3112
sS'arq'
p3133
S"'ls: imposs\\xc3\\xadvel acessar /var/spool/asterisk/moni...mp_grava: Arquivo ou diret\\xc3\\xb3rio n\\xc3\\xa3o encontrado\\n0'"
p3134
ssg3083
I31
sg3084
(dp3135
I32
S'\t\t\tprint tabela'
p3136
sI33
S"\t\t\tprint 'aaa'"
p3137
sI34
S''
sI35
S'\treturn response.render("initial/show_form2.html", form=form)'
p3138
sI26
S"\t\t\tsession.flash = 'Busca n\xc3\xa3o encontrada'"
p3139
sI27
S'    \t\tredirect(URL("initial", "/principal"))'
p3140
sI28
S'    \telse:'
p3141
sI29
S"\t\t\tprint 'asda'"
p3142
sI30
S'\t\t\tarq = commands.getoutput("ls /var/spool/asterisk/monitor/temp_grava -laR | grep -v ^[.dlt] | grep -v ^$ | wc -l")'
p3143
sI31
S'\t\t\ttabela = [mes, ano, arq]'
p3144
ssg3096
S'()'
p3145
sg3098
S'principal'
p3146
sasS'pyver'
p3147
S'Python 2.7.3: /usr/bin/python'
p3148
sS'session'
p3149
g57
(g58
g59
NtRp3150
(dp3151
g62
(dp3152
sg64
(lp3153
g57
(g66
g59
NtRp3154
(dp3155
g62
(dp3156
g70
I5
ssg71
Nsg64
(lp3157
g57
(g73
g59
NtRp3158
(dp3159
g62
(dp3160
sg71
g3154
sg64
(lp3161
g57
(g78
g59
NtRp3162
(dp3163
g62
(dp3164
g82
g83
ssg71
g3158
sg64
(lp3165
S'aut'
p3166
asbag57
(g78
g59
NtRp3167
(dp3168
g62
(dp3169
g89
g90
ssg71
g3158
sg64
(lp3170
S':'
asbag57
(g78
g59
NtRp3171
(dp3172
g62
(dp3173
sg71
g3158
sg64
(lp3174
g57
(g58
g59
NtRp3175
(dp3176
g62
(dp3177
g70
I5
ssg71
g3171
sg64
(lp3178
S'0'
asbasbasbag57
(g73
g59
NtRp3179
(dp3180
g62
(dp3181
sg71
g3154
sg64
(lp3182
g57
(g78
g59
NtRp3183
(dp3184
g62
(dp3185
g82
g83
ssg71
g3179
sg64
(lp3186
S'flash'
p3187
asbag57
(g78
g59
NtRp3188
(dp3189
g62
(dp3190
g89
g90
ssg71
g3179
sg64
(lp3191
S':'
asbag57
(g78
g59
NtRp3192
(dp3193
g62
(dp3194
sg71
g3179
sg64
(lp3195
g57
(g58
g59
NtRp3196
(dp3197
g62
(dp3198
g70
I5
ssg71
g3192
sg64
(lp3199
S'None'
p3200
asbasbasbag57
(g73
g59
NtRp3201
(dp3202
g62
(dp3203
sg71
g3154
sg64
(lp3204
g57
(g78
g59
NtRp3205
(dp3206
g62
(dp3207
g82
g83
ssg71
g3201
sg64
(lp3208
S'ramal'
p3209
asbag57
(g78
g59
NtRp3210
(dp3211
g62
(dp3212
g89
g90
ssg71
g3201
sg64
(lp3213
S':'
asbag57
(g78
g59
NtRp3214
(dp3215
g62
(dp3216
sg71
g3201
sg64
(lp3217
g57
(g58
g59
NtRp3218
(dp3219
g62
(dp3220
g70
I5
ssg71
g3214
sg64
(lp3221
S'0'
asbasbasbag57
(g73
g59
NtRp3222
(dp3223
g62
(dp3224
sg71
g3154
sg64
(lp3225
g57
(g78
g59
NtRp3226
(dp3227
g62
(dp3228
g82
g83
ssg71
g3222
sg64
(lp3229
S'ramal_fis'
p3230
asbag57
(g78
g59
NtRp3231
(dp3232
g62
(dp3233
g89
g90
ssg71
g3222
sg64
(lp3234
S':'
asbag57
(g78
g59
NtRp3235
(dp3236
g62
(dp3237
sg71
g3222
sg64
(lp3238
g57
(g58
g59
NtRp3239
(dp3240
g62
(dp3241
g70
I5
ssg71
g3235
sg64
(lp3242
S'0'
asbasbasbag57
(g73
g59
NtRp3243
(dp3244
g62
(dp3245
sg71
g3154
sg64
(lp3246
g57
(g78
g59
NtRp3247
(dp3248
g62
(dp3249
g82
g83
ssg71
g3243
sg64
(lp3250
S'tecnologia'
p3251
asbag57
(g78
g59
NtRp3252
(dp3253
g62
(dp3254
g89
g90
ssg71
g3243
sg64
(lp3255
S':'
asbag57
(g78
g59
NtRp3256
(dp3257
g62
(dp3258
sg71
g3243
sg64
(lp3259
g57
(g58
g59
NtRp3260
(dp3261
g62
(dp3262
g70
I5
ssg71
g3256
sg64
(lp3263
S'0'
asbasbasbasbasbsS'etype'
p3264
S"<type 'exceptions.UnboundLocalError'>"
p3265
sS'date'
p3266
S'Wed May 15 10:44:37 2013'
p3267
sS'response'
p3268
g57
(g58
g59
NtRp3269
(dp3270
g62
(dp3271
sg64
(lp3272
g57
(g66
g59
NtRp3273
(dp3274
g62
(dp3275
g70
I5
ssg71
Nsg64
(lp3276
g57
(g73
g59
NtRp3277
(dp3278
g62
(dp3279
sg71
g3273
sg64
(lp3280
g57
(g78
g59
NtRp3281
(dp3282
g62
(dp3283
g82
g83
ssg71
g3277
sg64
(lp3284
g155
asbag57
(g78
g59
NtRp3285
(dp3286
g62
(dp3287
g89
g90
ssg71
g3277
sg64
(lp3288
S':'
asbag57
(g78
g59
NtRp3289
(dp3290
g62
(dp3291
sg71
g3277
sg64
(lp3292
g57
(g58
g59
NtRp3293
(dp3294
g62
(dp3295
g70
I5
ssg71
g3289
sg64
(lp3296
S'<cStringIO.StringO object at 0x7fdfe0426880>'
p3297
asbasbasbag57
(g73
g59
NtRp3298
(dp3299
g62
(dp3300
sg71
g3273
sg64
(lp3301
g57
(g78
g59
NtRp3302
(dp3303
g62
(dp3304
g82
g83
ssg71
g3298
sg64
(lp3305
g243
asbag57
(g78
g59
NtRp3306
(dp3307
g62
(dp3308
g89
g90
ssg71
g3298
sg64
(lp3309
S':'
asbag57
(g78
g59
NtRp3310
(dp3311
g62
(dp3312
sg71
g3298
sg64
(lp3313
g57
(g58
g59
NtRp3314
(dp3315
g62
(dp3316
g70
I5
ssg71
g3310
sg64
(lp3317
g57
(g66
g59
NtRp3318
(dp3319
g62
(dp3320
g70
I4
ssg71
Nsg64
(lp3321
g57
(g73
g59
NtRp3322
(dp3323
g62
(dp3324
sg71
g3318
sg64
(lp3325
g57
(g78
g59
NtRp3326
(dp3327
g62
(dp3328
g82
g83
ssg71
g3322
sg64
(lp3329
S'session_id_projeto'
p3330
asbag57
(g78
g59
NtRp3331
(dp3332
g62
(dp3333
g89
g90
ssg71
g3322
sg64
(lp3334
S':'
asbag57
(g78
g59
NtRp3335
(dp3336
g62
(dp3337
sg71
g3322
sg64
(lp3338
g57
(g58
g59
NtRp3339
(dp3340
g62
(dp3341
g70
I4
ssg71
g3335
sg64
(lp3342
g475
ag57
(g66
g59
NtRp3343
(dp3344
g62
(dp3345
g70
I3
ssg71
Nsg64
(lp3346
g57
(g73
g59
NtRp3347
(dp3348
g62
(dp3349
sg71
g3343
sg64
(lp3350
g57
(g78
g59
NtRp3351
(dp3352
g62
(dp3353
g82
g83
ssg71
g3347
sg64
(lp3354
g294
asbag57
(g78
g59
NtRp3355
(dp3356
g62
(dp3357
g89
g90
ssg71
g3347
sg64
(lp3358
S':'
asbag57
(g78
g59
NtRp3359
(dp3360
g62
(dp3361
sg71
g3347
sg64
(lp3362
g57
(g58
g59
NtRp3363
(dp3364
g62
(dp3365
g70
I3
ssg71
g3359
sg64
(lp3366
S''
asbasbasbag57
(g73
g59
NtRp3367
(dp3368
g62
(dp3369
sg71
g3343
sg64
(lp3370
g57
(g78
g59
NtRp3371
(dp3372
g62
(dp3373
g82
g83
ssg71
g3367
sg64
(lp3374
g315
asbag57
(g78
g59
NtRp3375
(dp3376
g62
(dp3377
g89
g90
ssg71
g3367
sg64
(lp3378
S':'
asbag57
(g78
g59
NtRp3379
(dp3380
g62
(dp3381
sg71
g3367
sg64
(lp3382
g57
(g58
g59
NtRp3383
(dp3384
g62
(dp3385
g70
I3
ssg71
g3379
sg64
(lp3386
S''
asbasbasbag57
(g73
g59
NtRp3387
(dp3388
g62
(dp3389
sg71
g3343
sg64
(lp3390
g57
(g78
g59
NtRp3391
(dp3392
g62
(dp3393
g82
g83
ssg71
g3387
sg64
(lp3394
g336
asbag57
(g78
g59
NtRp3395
(dp3396
g62
(dp3397
g89
g90
ssg71
g3387
sg64
(lp3398
S':'
asbag57
(g78
g59
NtRp3399
(dp3400
g62
(dp3401
sg71
g3387
sg64
(lp3402
g57
(g58
g59
NtRp3403
(dp3404
g62
(dp3405
g70
I3
ssg71
g3399
sg64
(lp3406
S''
asbasbasbag57
(g73
g59
NtRp3407
(dp3408
g62
(dp3409
sg71
g3343
sg64
(lp3410
g57
(g78
g59
NtRp3411
(dp3412
g62
(dp3413
g82
g83
ssg71
g3407
sg64
(lp3414
g357
asbag57
(g78
g59
NtRp3415
(dp3416
g62
(dp3417
g89
g90
ssg71
g3407
sg64
(lp3418
S':'
asbag57
(g78
g59
NtRp3419
(dp3420
g62
(dp3421
sg71
g3407
sg64
(lp3422
g57
(g58
g59
NtRp3423
(dp3424
g62
(dp3425
g70
I3
ssg71
g3419
sg64
(lp3426
S''
asbasbasbag57
(g73
g59
NtRp3427
(dp3428
g62
(dp3429
sg71
g3343
sg64
(lp3430
g57
(g78
g59
NtRp3431
(dp3432
g62
(dp3433
g82
g83
ssg71
g3427
sg64
(lp3434
g378
asbag57
(g78
g59
NtRp3435
(dp3436
g62
(dp3437
g89
g90
ssg71
g3427
sg64
(lp3438
S':'
asbag57
(g78
g59
NtRp3439
(dp3440
g62
(dp3441
sg71
g3427
sg64
(lp3442
g57
(g58
g59
NtRp3443
(dp3444
g62
(dp3445
g70
I3
ssg71
g3439
sg64
(lp3446
S''
asbasbasbag57
(g73
g59
NtRp3447
(dp3448
g62
(dp3449
sg71
g3343
sg64
(lp3450
g57
(g78
g59
NtRp3451
(dp3452
g62
(dp3453
g82
g83
ssg71
g3447
sg64
(lp3454
g399
asbag57
(g78
g59
NtRp3455
(dp3456
g62
(dp3457
g89
g90
ssg71
g3447
sg64
(lp3458
S':'
asbag57
(g78
g59
NtRp3459
(dp3460
g62
(dp3461
sg71
g3447
sg64
(lp3462
g57
(g58
g59
NtRp3463
(dp3464
g62
(dp3465
g70
I3
ssg71
g3459
sg64
(lp3466
S'/'
asbasbasbag57
(g73
g59
NtRp3467
(dp3468
g62
(dp3469
sg71
g3343
sg64
(lp3470
g57
(g78
g59
NtRp3471
(dp3472
g62
(dp3473
g82
g83
ssg71
g3467
sg64
(lp3474
g420
asbag57
(g78
g59
NtRp3475
(dp3476
g62
(dp3477
g89
g90
ssg71
g3467
sg64
(lp3478
S':'
asbag57
(g78
g59
NtRp3479
(dp3480
g62
(dp3481
sg71
g3467
sg64
(lp3482
g57
(g58
g59
NtRp3483
(dp3484
g62
(dp3485
g70
I3
ssg71
g3479
sg64
(lp3486
S''
asbasbasbag57
(g73
g59
NtRp3487
(dp3488
g62
(dp3489
sg71
g3343
sg64
(lp3490
g57
(g78
g59
NtRp3491
(dp3492
g62
(dp3493
g82
g83
ssg71
g3487
sg64
(lp3494
g441
asbag57
(g78
g59
NtRp3495
(dp3496
g62
(dp3497
g89
g90
ssg71
g3487
sg64
(lp3498
S':'
asbag57
(g78
g59
NtRp3499
(dp3500
g62
(dp3501
sg71
g3487
sg64
(lp3502
g57
(g58
g59
NtRp3503
(dp3504
g62
(dp3505
g70
I3
ssg71
g3499
sg64
(lp3506
S''
asbasbasbasbasbasbasbasbasbasbasbag57
(g73
g59
NtRp3507
(dp3508
g62
(dp3509
sg71
g3273
sg64
(lp3510
g57
(g78
g59
NtRp3511
(dp3512
g62
(dp3513
g82
g83
ssg71
g3507
sg64
(lp3514
S'delimiters'
p3515
asbag57
(g78
g59
NtRp3516
(dp3517
g62
(dp3518
g89
g90
ssg71
g3507
sg64
(lp3519
S':'
asbag57
(g78
g59
NtRp3520
(dp3521
g62
(dp3522
sg71
g3507
sg64
(lp3523
g57
(g58
g59
NtRp3524
(dp3525
g62
(dp3526
g70
I5
ssg71
g3520
sg64
(lp3527
g57
(g66
g59
NtRp3528
(dp3529
g62
(dp3530
g70
I4
ssg71
Nsg64
(lp3531
g57
(g73
g59
NtRp3532
(dp3533
g62
(dp3534
sg71
g3528
sg64
(lp3535
g57
(g78
g59
NtRp3536
(dp3537
g62
(dp3538
sg71
g3532
sg64
(lp3539
g57
(g58
g59
NtRp3540
(dp3541
g62
(dp3542
g70
I4
ssg71
g3536
sg64
(lp3543
S'{{'
p3544
asbasbasbag57
(g73
g59
NtRp3545
(dp3546
g62
(dp3547
sg71
g3528
sg64
(lp3548
g57
(g78
g59
NtRp3549
(dp3550
g62
(dp3551
sg71
g3545
sg64
(lp3552
g57
(g58
g59
NtRp3553
(dp3554
g62
(dp3555
g70
I4
ssg71
g3549
sg64
(lp3556
S'}}'
p3557
asbasbasbasbasbasbasbag57
(g73
g59
NtRp3558
(dp3559
g62
(dp3560
sg71
g3273
sg64
(lp3561
g57
(g78
g59
NtRp3562
(dp3563
g62
(dp3564
g82
g83
ssg71
g3558
sg64
(lp3565
S'files'
p3566
asbag57
(g78
g59
NtRp3567
(dp3568
g62
(dp3569
g89
g90
ssg71
g3558
sg64
(lp3570
S':'
asbag57
(g78
g59
NtRp3571
(dp3572
g62
(dp3573
sg71
g3558
sg64
(lp3574
g57
(g58
g59
NtRp3575
(dp3576
g62
(dp3577
g70
I5
ssg71
g3571
sg64
(lp3578
g57
(g66
g59
NtRp3579
(dp3580
g62
(dp3581
g70
I4
ssg71
Nsg64
(lp3582
sbasbasbasbag57
(g73
g59
NtRp3583
(dp3584
g62
(dp3585
sg71
g3273
sg64
(lp3586
g57
(g78
g59
NtRp3587
(dp3588
g62
(dp3589
g82
g83
ssg71
g3583
sg64
(lp3590
S'flash'
p3591
asbag57
(g78
g59
NtRp3592
(dp3593
g62
(dp3594
g89
g90
ssg71
g3583
sg64
(lp3595
S':'
asbag57
(g78
g59
NtRp3596
(dp3597
g62
(dp3598
sg71
g3583
sg64
(lp3599
g57
(g58
g59
NtRp3600
(dp3601
g62
(dp3602
g70
I5
ssg71
g3596
sg64
(lp3603
S''
asbasbasbag57
(g73
g59
NtRp3604
(dp3605
g62
(dp3606
sg71
g3273
sg64
(lp3607
g57
(g78
g59
NtRp3608
(dp3609
g62
(dp3610
g82
g83
ssg71
g3604
sg64
(lp3611
S'generic_patterns'
p3612
asbag57
(g78
g59
NtRp3613
(dp3614
g62
(dp3615
g89
g90
ssg71
g3604
sg64
(lp3616
S':'
asbag57
(g78
g59
NtRp3617
(dp3618
g62
(dp3619
sg71
g3604
sg64
(lp3620
g57
(g58
g59
NtRp3621
(dp3622
g62
(dp3623
g70
I5
ssg71
g3617
sg64
(lp3624
g57
(g66
g59
NtRp3625
(dp3626
g62
(dp3627
g70
I4
ssg71
Nsg64
(lp3628
g57
(g73
g59
NtRp3629
(dp3630
g62
(dp3631
sg71
g3625
sg64
(lp3632
g57
(g78
g59
NtRp3633
(dp3634
g62
(dp3635
sg71
g3629
sg64
(lp3636
g57
(g58
g59
NtRp3637
(dp3638
g62
(dp3639
g70
I4
ssg71
g3633
sg64
(lp3640
S'*'
asbasbasbasbasbasbasbag57
(g73
g59
NtRp3641
(dp3642
g62
(dp3643
sg71
g3273
sg64
(lp3644
g57
(g78
g59
NtRp3645
(dp3646
g62
(dp3647
g82
g83
ssg71
g3641
sg64
(lp3648
S'google_analytics_id'
p3649
asbag57
(g78
g59
NtRp3650
(dp3651
g62
(dp3652
g89
g90
ssg71
g3641
sg64
(lp3653
S':'
asbag57
(g78
g59
NtRp3654
(dp3655
g62
(dp3656
sg71
g3641
sg64
(lp3657
g57
(g58
g59
NtRp3658
(dp3659
g62
(dp3660
g70
I5
ssg71
g3654
sg64
(lp3661
S'None'
p3662
asbasbasbag57
(g73
g59
NtRp3663
(dp3664
g62
(dp3665
sg71
g3273
sg64
(lp3666
g57
(g78
g59
NtRp3667
(dp3668
g62
(dp3669
g82
g83
ssg71
g3663
sg64
(lp3670
S'headers'
p3671
asbag57
(g78
g59
NtRp3672
(dp3673
g62
(dp3674
g89
g90
ssg71
g3663
sg64
(lp3675
S':'
asbag57
(g78
g59
NtRp3676
(dp3677
g62
(dp3678
sg71
g3663
sg64
(lp3679
g57
(g58
g59
NtRp3680
(dp3681
g62
(dp3682
g70
I5
ssg71
g3676
sg64
(lp3683
g57
(g66
g59
NtRp3684
(dp3685
g62
(dp3686
g70
I4
ssg71
Nsg64
(lp3687
g57
(g73
g59
NtRp3688
(dp3689
g62
(dp3690
sg71
g3684
sg64
(lp3691
g57
(g78
g59
NtRp3692
(dp3693
g62
(dp3694
g82
g83
ssg71
g3688
sg64
(lp3695
S'X-Powered-By'
p3696
asbag57
(g78
g59
NtRp3697
(dp3698
g62
(dp3699
g89
g90
ssg71
g3688
sg64
(lp3700
S':'
asbag57
(g78
g59
NtRp3701
(dp3702
g62
(dp3703
sg71
g3688
sg64
(lp3704
g57
(g58
g59
NtRp3705
(dp3706
g62
(dp3707
g70
I4
ssg71
g3701
sg64
(lp3708
S'web2py'
p3709
asbasbasbasbasbasbasbag57
(g73
g59
NtRp3710
(dp3711
g62
(dp3712
sg71
g3273
sg64
(lp3713
g57
(g78
g59
NtRp3714
(dp3715
g62
(dp3716
g82
g83
ssg71
g3710
sg64
(lp3717
S'logo'
p3718
asbag57
(g78
g59
NtRp3719
(dp3720
g62
(dp3721
g89
g90
ssg71
g3710
sg64
(lp3722
S':'
asbag57
(g78
g59
NtRp3723
(dp3724
g62
(dp3725
sg71
g3710
sg64
(lp3726
g57
(g58
g59
NtRp3727
(dp3728
g62
(dp3729
g70
I5
ssg71
g3723
sg64
(lp3730
g57
(cgluon.html
A
p3731
g59
NtRp3732
(dp3733
g62
(dp3734
S'_class'
p3735
S'brand'
p3736
sS'_href'
p3737
g3146
ssg71
Nsg64
(lp3738
g57
(cgluon.html
B
p3739
g59
NtRp3740
(dp3741
g62
(dp3742
sg71
g3732
sg64
(lp3743
S''
ag57
(cgluon.html
SPAN
p3744
g59
NtRp3745
(dp3746
g62
(dp3747
sg71
g3740
sg64
(lp3748
S'Agenda'
p3749
asbaS''
asbacgluon.html
XML_unpickle
p3750
(S's\r\x00\x00\x00&trade;&nbsp;'
tRp3751
asbasbasbasbag57
(g73
g59
NtRp3752
(dp3753
g62
(dp3754
sg71
g3273
sg64
(lp3755
g57
(g78
g59
NtRp3756
(dp3757
g62
(dp3758
g82
g83
ssg71
g3752
sg64
(lp3759
S'menu'
p3760
asbag57
(g78
g59
NtRp3761
(dp3762
g62
(dp3763
g89
g90
ssg71
g3752
sg64
(lp3764
S':'
asbag57
(g78
g59
NtRp3765
(dp3766
g62
(dp3767
sg71
g3752
sg64
(lp3768
g57
(g58
g59
NtRp3769
(dp3770
g62
(dp3771
g70
I5
ssg71
g3765
sg64
(lp3772
g57
(g66
g59
NtRp3773
(dp3774
g62
(dp3775
g70
I4
ssg71
Nsg64
(lp3776
g57
(g73
g59
NtRp3777
(dp3778
g62
(dp3779
sg71
g3773
sg64
(lp3780
g57
(g78
g59
NtRp3781
(dp3782
g62
(dp3783
sg71
g3777
sg64
(lp3784
g57
(g58
g59
NtRp3785
(dp3786
g62
(dp3787
g70
I4
ssg71
g3781
sg64
(lp3788
g57
(g66
g59
NtRp3789
(dp3790
g62
(dp3791
g70
I3
ssg71
Nsg64
(lp3792
g57
(g73
g59
NtRp3793
(dp3794
g62
(dp3795
sg71
g3789
sg64
(lp3796
g57
(g78
g59
NtRp3797
(dp3798
g62
(dp3799
sg71
g3793
sg64
(lp3800
g57
(g58
g59
NtRp3801
(dp3802
g62
(dp3803
g70
I3
ssg71
g3797
sg64
(lp3804
cgluon.languages
lazyT_unpickle
p3805
(S't\x06\x00\x00\x00Global'
tRp3806
asbasbasbag57
(g73
g59
NtRp3807
(dp3808
g62
(dp3809
sg71
g3789
sg64
(lp3810
g57
(g78
g59
NtRp3811
(dp3812
g62
(dp3813
sg71
g3807
sg64
(lp3814
g57
(g58
g59
NtRp3815
(dp3816
g62
(dp3817
g70
I3
ssg71
g3811
sg64
(lp3818
g100
asbasbasbag57
(g73
g59
NtRp3819
(dp3820
g62
(dp3821
sg71
g3789
sg64
(lp3822
g57
(g78
g59
NtRp3823
(dp3824
g62
(dp3825
sg71
g3819
sg64
(lp3826
g57
(g58
g59
NtRp3827
(dp3828
g62
(dp3829
g70
I3
ssg71
g3823
sg64
(lp3830
S'/agenda'
p3831
asbasbasbag57
(g73
g59
NtRp3832
(dp3833
g62
(dp3834
sg71
g3789
sg64
(lp3835
g57
(g78
g59
NtRp3836
(dp3837
g62
(dp3838
sg71
g3832
sg64
(lp3839
g57
(g58
g59
NtRp3840
(dp3841
g62
(dp3842
g70
I3
ssg71
g3836
sg64
(lp3843
g57
(g66
g59
NtRp3844
(dp3845
g62
(dp3846
g70
I2
ssg71
Nsg64
(lp3847
sbasbasbasbasbasbasbasbag57
(g73
g59
NtRp3848
(dp3849
g62
(dp3850
sg71
g3773
sg64
(lp3851
g57
(g78
g59
NtRp3852
(dp3853
g62
(dp3854
sg71
g3848
sg64
(lp3855
g57
(g58
g59
NtRp3856
(dp3857
g62
(dp3858
g70
I4
ssg71
g3852
sg64
(lp3859
g57
(g66
g59
NtRp3860
(dp3861
g62
(dp3862
g70
I3
ssg71
Nsg64
(lp3863
g57
(g73
g59
NtRp3864
(dp3865
g62
(dp3866
sg71
g3860
sg64
(lp3867
g57
(g78
g59
NtRp3868
(dp3869
g62
(dp3870
sg71
g3864
sg64
(lp3871
g57
(g58
g59
NtRp3872
(dp3873
g62
(dp3874
g70
I3
ssg71
g3868
sg64
(lp3875
g3805
(S't\n\x00\x00\x00Particular'
tRp3876
asbasbasbag57
(g73
g59
NtRp3877
(dp3878
g62
(dp3879
sg71
g3860
sg64
(lp3880
g57
(g78
g59
NtRp3881
(dp3882
g62
(dp3883
sg71
g3877
sg64
(lp3884
g57
(g58
g59
NtRp3885
(dp3886
g62
(dp3887
g70
I3
ssg71
g3881
sg64
(lp3888
g100
asbasbasbag57
(g73
g59
NtRp3889
(dp3890
g62
(dp3891
sg71
g3860
sg64
(lp3892
g57
(g78
g59
NtRp3893
(dp3894
g62
(dp3895
sg71
g3889
sg64
(lp3896
g57
(g58
g59
NtRp3897
(dp3898
g62
(dp3899
g70
I3
ssg71
g3893
sg64
(lp3900
S'/redireciona?f=agenda_particular'
p3901
asbasbasbag57
(g73
g59
NtRp3902
(dp3903
g62
(dp3904
sg71
g3860
sg64
(lp3905
g57
(g78
g59
NtRp3906
(dp3907
g62
(dp3908
sg71
g3902
sg64
(lp3909
g57
(g58
g59
NtRp3910
(dp3911
g62
(dp3912
g70
I3
ssg71
g3906
sg64
(lp3913
g57
(g66
g59
NtRp3914
(dp3915
g62
(dp3916
g70
I2
ssg71
Nsg64
(lp3917
sbasbasbasbasbasbasbasbag57
(g73
g59
NtRp3918
(dp3919
g62
(dp3920
sg71
g3773
sg64
(lp3921
g57
(g78
g59
NtRp3922
(dp3923
g62
(dp3924
sg71
g3918
sg64
(lp3925
g57
(g58
g59
NtRp3926
(dp3927
g62
(dp3928
g70
I4
ssg71
g3922
sg64
(lp3929
g57
(g66
g59
NtRp3930
(dp3931
g62
(dp3932
g70
I3
ssg71
Nsg64
(lp3933
g57
(g73
g59
NtRp3934
(dp3935
g62
(dp3936
sg71
g3930
sg64
(lp3937
g57
(g78
g59
NtRp3938
(dp3939
g62
(dp3940
sg71
g3934
sg64
(lp3941
g57
(g58
g59
NtRp3942
(dp3943
g62
(dp3944
g70
I3
ssg71
g3938
sg64
(lp3945
g3805
(S's\x08\x00\x00\x00+contato'
tRp3946
asbasbasbag57
(g73
g59
NtRp3947
(dp3948
g62
(dp3949
sg71
g3930
sg64
(lp3950
g57
(g78
g59
NtRp3951
(dp3952
g62
(dp3953
sg71
g3947
sg64
(lp3954
g57
(g58
g59
NtRp3955
(dp3956
g62
(dp3957
g70
I3
ssg71
g3951
sg64
(lp3958
g100
asbasbasbag57
(g73
g59
NtRp3959
(dp3960
g62
(dp3961
sg71
g3930
sg64
(lp3962
g57
(g78
g59
NtRp3963
(dp3964
g62
(dp3965
sg71
g3959
sg64
(lp3966
g57
(g58
g59
NtRp3967
(dp3968
g62
(dp3969
g70
I3
ssg71
g3963
sg64
(lp3970
S'/permissao'
p3971
asbasbasbag57
(g73
g59
NtRp3972
(dp3973
g62
(dp3974
sg71
g3930
sg64
(lp3975
g57
(g78
g59
NtRp3976
(dp3977
g62
(dp3978
sg71
g3972
sg64
(lp3979
g57
(g58
g59
NtRp3980
(dp3981
g62
(dp3982
g70
I3
ssg71
g3976
sg64
(lp3983
g57
(g66
g59
NtRp3984
(dp3985
g62
(dp3986
g70
I2
ssg71
Nsg64
(lp3987
sbasbasbasbasbasbasbasbasbasbasbasbag57
(g73
g59
NtRp3988
(dp3989
g62
(dp3990
sg71
g3273
sg64
(lp3991
g57
(g78
g59
NtRp3992
(dp3993
g62
(dp3994
g82
g83
ssg71
g3988
sg64
(lp3995
S'menu2'
p3996
asbag57
(g78
g59
NtRp3997
(dp3998
g62
(dp3999
g89
g90
ssg71
g3988
sg64
(lp4000
S':'
asbag57
(g78
g59
NtRp4001
(dp4002
g62
(dp4003
sg71
g3988
sg64
(lp4004
g57
(g58
g59
NtRp4005
(dp4006
g62
(dp4007
g70
I5
ssg71
g4001
sg64
(lp4008
g57
(g66
g59
NtRp4009
(dp4010
g62
(dp4011
g70
I4
ssg71
Nsg64
(lp4012
g57
(g73
g59
NtRp4013
(dp4014
g62
(dp4015
sg71
g4009
sg64
(lp4016
g57
(g78
g59
NtRp4017
(dp4018
g62
(dp4019
sg71
g4013
sg64
(lp4020
g57
(g58
g59
NtRp4021
(dp4022
g62
(dp4023
g70
I4
ssg71
g4017
sg64
(lp4024
g57
(g66
g59
NtRp4025
(dp4026
g62
(dp4027
g70
I3
ssg71
Nsg64
(lp4028
g57
(g73
g59
NtRp4029
(dp4030
g62
(dp4031
sg71
g4025
sg64
(lp4032
g57
(g78
g59
NtRp4033
(dp4034
g62
(dp4035
sg71
g4029
sg64
(lp4036
g57
(g58
g59
NtRp4037
(dp4038
g62
(dp4039
g70
I3
ssg71
g4033
sg64
(lp4040
g57
(g3744
g59
NtRp4041
(dp4042
g62
(dp4043
g3735
S'dropdown-toggle'
p4044
ssg71
Nsg64
(lp4045
S'Login'
p4046
asbasbasbasbag57
(g73
g59
NtRp4047
(dp4048
g62
(dp4049
sg71
g4025
sg64
(lp4050
g57
(g78
g59
NtRp4051
(dp4052
g62
(dp4053
sg71
g4047
sg64
(lp4054
g57
(g58
g59
NtRp4055
(dp4056
g62
(dp4057
g70
I3
ssg71
g4051
sg64
(lp4058
g100
asbasbasbag57
(g73
g59
NtRp4059
(dp4060
g62
(dp4061
sg71
g4025
sg64
(lp4062
g57
(g78
g59
NtRp4063
(dp4064
g62
(dp4065
sg71
g4059
sg64
(lp4066
g57
(g58
g59
NtRp4067
(dp4068
g62
(dp4069
g70
I3
ssg71
g4063
sg64
(lp4070
S'#'
asbasbasbag57
(g73
g59
NtRp4071
(dp4072
g62
(dp4073
sg71
g4025
sg64
(lp4074
g57
(g78
g59
NtRp4075
(dp4076
g62
(dp4077
sg71
g4071
sg64
(lp4078
g57
(g58
g59
NtRp4079
(dp4080
g62
(dp4081
g70
I3
ssg71
g4075
sg64
(lp4082
g57
(g66
g59
NtRp4083
(dp4084
g62
(dp4085
g70
I2
ssg71
Nsg64
(lp4086
g57
(g73
g59
NtRp4087
(dp4088
g62
(dp4089
sg71
g4083
sg64
(lp4090
g57
(g78
g59
NtRp4091
(dp4092
g62
(dp4093
sg71
g4087
sg64
(lp4094
g57
(g58
g59
NtRp4095
(dp4096
g62
(dp4097
g70
I2
ssg71
g4091
sg64
(lp4098
g57
(g66
g59
NtRp4099
(dp4100
g62
(dp4101
g70
I1
ssg71
Nsg64
(lp4102
g57
(g73
g59
NtRp4103
(dp4104
g62
(dp4105
sg71
g4099
sg64
(lp4106
g57
(g78
g59
NtRp4107
(dp4108
g62
(dp4109
sg71
g4103
sg64
(lp4110
g57
(g58
g59
NtRp4111
(dp4112
g62
(dp4113
g70
I1
ssg71
g4107
sg64
(lp4114
g3805
(S't\x06\x00\x00\x00Logout'
tRp4115
asbasbasbag57
(g73
g59
NtRp4116
(dp4117
g62
(dp4118
sg71
g4099
sg64
(lp4119
g57
(g78
g59
NtRp4120
(dp4121
g62
(dp4122
sg71
g4116
sg64
(lp4123
g57
(g58
g59
NtRp4124
(dp4125
g62
(dp4126
g70
I1
ssg71
g4120
sg64
(lp4127
I00
asbasbasbag57
(g73
g59
NtRp4128
(dp4129
g62
(dp4130
sg71
g4099
sg64
(lp4131
g57
(g78
g59
NtRp4132
(dp4133
g62
(dp4134
sg71
g4128
sg64
(lp4135
g57
(g58
g59
NtRp4136
(dp4137
g62
(dp4138
g70
I1
ssg71
g4132
sg64
(lp4139
S'/log_out'
p4140
asbasbasbasbasbasbasbasbasbasbasbasbasbasbasbasbasbasbasbag57
(g73
g59
NtRp4141
(dp4142
g62
(dp4143
sg71
g3273
sg64
(lp4144
g57
(g78
g59
NtRp4145
(dp4146
g62
(dp4147
g82
g83
ssg71
g4141
sg64
(lp4148
S'meta'
p4149
asbag57
(g78
g59
NtRp4150
(dp4151
g62
(dp4152
g89
g90
ssg71
g4141
sg64
(lp4153
S':'
asbag57
(g78
g59
NtRp4154
(dp4155
g62
(dp4156
sg71
g4141
sg64
(lp4157
g57
(g58
g59
NtRp4158
(dp4159
g62
(dp4160
g70
I5
ssg71
g4154
sg64
(lp4161
g57
(g66
g59
NtRp4162
(dp4163
g62
(dp4164
g70
I4
ssg71
Nsg64
(lp4165
g57
(g73
g59
NtRp4166
(dp4167
g62
(dp4168
sg71
g4162
sg64
(lp4169
g57
(g78
g59
NtRp4170
(dp4171
g62
(dp4172
g82
g83
ssg71
g4166
sg64
(lp4173
S'author'
p4174
asbag57
(g78
g59
NtRp4175
(dp4176
g62
(dp4177
g89
g90
ssg71
g4166
sg64
(lp4178
S':'
asbag57
(g78
g59
NtRp4179
(dp4180
g62
(dp4181
sg71
g4166
sg64
(lp4182
g57
(g58
g59
NtRp4183
(dp4184
g62
(dp4185
g70
I4
ssg71
g4179
sg64
(lp4186
S'Your Name <you@example.com>'
p4187
asbasbasbag57
(g73
g59
NtRp4188
(dp4189
g62
(dp4190
sg71
g4162
sg64
(lp4191
g57
(g78
g59
NtRp4192
(dp4193
g62
(dp4194
g82
g83
ssg71
g4188
sg64
(lp4195
S'description'
p4196
asbag57
(g78
g59
NtRp4197
(dp4198
g62
(dp4199
g89
g90
ssg71
g4188
sg64
(lp4200
S':'
asbag57
(g78
g59
NtRp4201
(dp4202
g62
(dp4203
sg71
g4188
sg64
(lp4204
g57
(g58
g59
NtRp4205
(dp4206
g62
(dp4207
g70
I4
ssg71
g4201
sg64
(lp4208
S'a cool new app'
p4209
asbasbasbag57
(g73
g59
NtRp4210
(dp4211
g62
(dp4212
sg71
g4162
sg64
(lp4213
g57
(g78
g59
NtRp4214
(dp4215
g62
(dp4216
g82
g83
ssg71
g4210
sg64
(lp4217
S'generator'
p4218
asbag57
(g78
g59
NtRp4219
(dp4220
g62
(dp4221
g89
g90
ssg71
g4210
sg64
(lp4222
S':'
asbag57
(g78
g59
NtRp4223
(dp4224
g62
(dp4225
sg71
g4210
sg64
(lp4226
g57
(g58
g59
NtRp4227
(dp4228
g62
(dp4229
g70
I4
ssg71
g4223
sg64
(lp4230
S'Web2py Web Framework'
p4231
asbasbasbag57
(g73
g59
NtRp4232
(dp4233
g62
(dp4234
sg71
g4162
sg64
(lp4235
g57
(g78
g59
NtRp4236
(dp4237
g62
(dp4238
g82
g83
ssg71
g4232
sg64
(lp4239
S'keywords'
p4240
asbag57
(g78
g59
NtRp4241
(dp4242
g62
(dp4243
g89
g90
ssg71
g4232
sg64
(lp4244
S':'
asbag57
(g78
g59
NtRp4245
(dp4246
g62
(dp4247
sg71
g4232
sg64
(lp4248
g57
(g58
g59
NtRp4249
(dp4250
g62
(dp4251
g70
I4
ssg71
g4245
sg64
(lp4252
S'web2py, python, framework'
p4253
asbasbasbasbasbasbasbag57
(g73
g59
NtRp4254
(dp4255
g62
(dp4256
sg71
g3273
sg64
(lp4257
g57
(g78
g59
NtRp4258
(dp4259
g62
(dp4260
g82
g83
ssg71
g4254
sg64
(lp4261
S'models_to_run'
p4262
asbag57
(g78
g59
NtRp4263
(dp4264
g62
(dp4265
g89
g90
ssg71
g4254
sg64
(lp4266
S':'
asbag57
(g78
g59
NtRp4267
(dp4268
g62
(dp4269
sg71
g4254
sg64
(lp4270
g57
(g58
g59
NtRp4271
(dp4272
g62
(dp4273
g70
I5
ssg71
g4267
sg64
(lp4274
g57
(g66
g59
NtRp4275
(dp4276
g62
(dp4277
g70
I4
ssg71
Nsg64
(lp4278
g57
(g73
g59
NtRp4279
(dp4280
g62
(dp4281
sg71
g4275
sg64
(lp4282
g57
(g78
g59
NtRp4283
(dp4284
g62
(dp4285
sg71
g4279
sg64
(lp4286
g57
(g58
g59
NtRp4287
(dp4288
g62
(dp4289
g70
I4
ssg71
g4283
sg64
(lp4290
S'^\\w+\\.py$'
p4291
asbasbasbag57
(g73
g59
NtRp4292
(dp4293
g62
(dp4294
sg71
g4275
sg64
(lp4295
g57
(g78
g59
NtRp4296
(dp4297
g62
(dp4298
sg71
g4292
sg64
(lp4299
g57
(g58
g59
NtRp4300
(dp4301
g62
(dp4302
g70
I4
ssg71
g4296
sg64
(lp4303
S'^initial/\\w+\\.py$'
p4304
asbasbasbag57
(g73
g59
NtRp4305
(dp4306
g62
(dp4307
sg71
g4275
sg64
(lp4308
g57
(g78
g59
NtRp4309
(dp4310
g62
(dp4311
sg71
g4305
sg64
(lp4312
g57
(g58
g59
NtRp4313
(dp4314
g62
(dp4315
g70
I4
ssg71
g4309
sg64
(lp4316
S'^initial/principal/\\w+\\.py$'
p4317
asbasbasbasbasbasbasbag57
(g73
g59
NtRp4318
(dp4319
g62
(dp4320
sg71
g3273
sg64
(lp4321
g57
(g78
g59
NtRp4322
(dp4323
g62
(dp4324
g82
g83
ssg71
g4318
sg64
(lp4325
S'postprocessing'
p4326
asbag57
(g78
g59
NtRp4327
(dp4328
g62
(dp4329
g89
g90
ssg71
g4318
sg64
(lp4330
S':'
asbag57
(g78
g59
NtRp4331
(dp4332
g62
(dp4333
sg71
g4318
sg64
(lp4334
g57
(g58
g59
NtRp4335
(dp4336
g62
(dp4337
g70
I5
ssg71
g4331
sg64
(lp4338
g57
(g66
g59
NtRp4339
(dp4340
g62
(dp4341
g70
I4
ssg71
Nsg64
(lp4342
sbasbasbasbag57
(g73
g59
NtRp4343
(dp4344
g62
(dp4345
sg71
g3273
sg64
(lp4346
g57
(g78
g59
NtRp4347
(dp4348
g62
(dp4349
g82
g83
ssg71
g4343
sg64
(lp4350
S'session_cookie_expires'
p4351
asbag57
(g78
g59
NtRp4352
(dp4353
g62
(dp4354
g89
g90
ssg71
g4343
sg64
(lp4355
S':'
asbag57
(g78
g59
NtRp4356
(dp4357
g62
(dp4358
sg71
g4343
sg64
(lp4359
g57
(g58
g59
NtRp4360
(dp4361
g62
(dp4362
g70
I5
ssg71
g4356
sg64
(lp4363
S'None'
p4364
asbasbasbag57
(g73
g59
NtRp4365
(dp4366
g62
(dp4367
sg71
g3273
sg64
(lp4368
g57
(g78
g59
NtRp4369
(dp4370
g62
(dp4371
g82
g83
ssg71
g4365
sg64
(lp4372
S'session_data_name'
p4373
asbag57
(g78
g59
NtRp4374
(dp4375
g62
(dp4376
g89
g90
ssg71
g4365
sg64
(lp4377
S':'
asbag57
(g78
g59
NtRp4378
(dp4379
g62
(dp4380
sg71
g4365
sg64
(lp4381
g57
(g58
g59
NtRp4382
(dp4383
g62
(dp4384
g70
I5
ssg71
g4378
sg64
(lp4385
S'session_data_projeto'
p4386
asbasbasbag57
(g73
g59
NtRp4387
(dp4388
g62
(dp4389
sg71
g3273
sg64
(lp4390
g57
(g78
g59
NtRp4391
(dp4392
g62
(dp4393
g82
g83
ssg71
g4387
sg64
(lp4394
S'session_file'
p4395
asbag57
(g78
g59
NtRp4396
(dp4397
g62
(dp4398
g89
g90
ssg71
g4387
sg64
(lp4399
S':'
asbag57
(g78
g59
NtRp4400
(dp4401
g62
(dp4402
sg71
g4387
sg64
(lp4403
g57
(g58
g59
NtRp4404
(dp4405
g62
(dp4406
g70
I5
ssg71
g4400
sg64
(lp4407
S"<open file '/var/www/gravacao/applications/projeto/sessions/127.0.0.1-f700f0c3-fb08-41bb-8821-1f508a8fa4ec', mode 'rb+' at 0x7fdfd845a4b0>"
p4408
asbasbasbag57
(g73
g59
NtRp4409
(dp4410
g62
(dp4411
sg71
g3273
sg64
(lp4412
g57
(g78
g59
NtRp4413
(dp4414
g62
(dp4415
g82
g83
ssg71
g4409
sg64
(lp4416
S'session_filename'
p4417
asbag57
(g78
g59
NtRp4418
(dp4419
g62
(dp4420
g89
g90
ssg71
g4409
sg64
(lp4421
S':'
asbag57
(g78
g59
NtRp4422
(dp4423
g62
(dp4424
sg71
g4409
sg64
(lp4425
g57
(g58
g59
NtRp4426
(dp4427
g62
(dp4428
g70
I5
ssg71
g4422
sg64
(lp4429
S'/var/www/gravacao/applications/projeto/sessions/127.0.0.1-f700f0c3-fb08-41bb-8821-1f508a8fa4ec'
p4430
asbasbasbag57
(g73
g59
NtRp4431
(dp4432
g62
(dp4433
sg71
g3273
sg64
(lp4434
g57
(g78
g59
NtRp4435
(dp4436
g62
(dp4437
g82
g83
ssg71
g4431
sg64
(lp4438
S'session_id'
p4439
asbag57
(g78
g59
NtRp4440
(dp4441
g62
(dp4442
g89
g90
ssg71
g4431
sg64
(lp4443
S':'
asbag57
(g78
g59
NtRp4444
(dp4445
g62
(dp4446
sg71
g4431
sg64
(lp4447
g57
(g58
g59
NtRp4448
(dp4449
g62
(dp4450
g70
I5
ssg71
g4444
sg64
(lp4451
g475
asbasbasbag57
(g73
g59
NtRp4452
(dp4453
g62
(dp4454
sg71
g3273
sg64
(lp4455
g57
(g78
g59
NtRp4456
(dp4457
g62
(dp4458
g82
g83
ssg71
g4452
sg64
(lp4459
S'session_id_name'
p4460
asbag57
(g78
g59
NtRp4461
(dp4462
g62
(dp4463
g89
g90
ssg71
g4452
sg64
(lp4464
S':'
asbag57
(g78
g59
NtRp4465
(dp4466
g62
(dp4467
sg71
g4452
sg64
(lp4468
g57
(g58
g59
NtRp4469
(dp4470
g62
(dp4471
g70
I5
ssg71
g4465
sg64
(lp4472
g3330
asbasbasbag57
(g73
g59
NtRp4473
(dp4474
g62
(dp4475
sg71
g3273
sg64
(lp4476
g57
(g78
g59
NtRp4477
(dp4478
g62
(dp4479
g82
g83
ssg71
g4473
sg64
(lp4480
S'session_locked'
p4481
asbag57
(g78
g59
NtRp4482
(dp4483
g62
(dp4484
g89
g90
ssg71
g4473
sg64
(lp4485
S':'
asbag57
(g78
g59
NtRp4486
(dp4487
g62
(dp4488
sg71
g4473
sg64
(lp4489
g57
(g58
g59
NtRp4490
(dp4491
g62
(dp4492
g70
I5
ssg71
g4486
sg64
(lp4493
g1636
asbasbasbag57
(g73
g59
NtRp4494
(dp4495
g62
(dp4496
sg71
g3273
sg64
(lp4497
g57
(g78
g59
NtRp4498
(dp4499
g62
(dp4500
g82
g83
ssg71
g4494
sg64
(lp4501
S'session_new'
p4502
asbag57
(g78
g59
NtRp4503
(dp4504
g62
(dp4505
g89
g90
ssg71
g4494
sg64
(lp4506
S':'
asbag57
(g78
g59
NtRp4507
(dp4508
g62
(dp4509
sg71
g4494
sg64
(lp4510
g57
(g58
g59
NtRp4511
(dp4512
g62
(dp4513
g70
I5
ssg71
g4507
sg64
(lp4514
g100
asbasbasbag57
(g73
g59
NtRp4515
(dp4516
g62
(dp4517
sg71
g3273
sg64
(lp4518
g57
(g78
g59
NtRp4519
(dp4520
g62
(dp4521
g82
g83
ssg71
g4515
sg64
(lp4522
S'session_storage_type'
p4523
asbag57
(g78
g59
NtRp4524
(dp4525
g62
(dp4526
g89
g90
ssg71
g4515
sg64
(lp4527
S':'
asbag57
(g78
g59
NtRp4528
(dp4529
g62
(dp4530
sg71
g4515
sg64
(lp4531
g57
(g58
g59
NtRp4532
(dp4533
g62
(dp4534
g70
I5
ssg71
g4528
sg64
(lp4535
g3075
asbasbasbag57
(g73
g59
NtRp4536
(dp4537
g62
(dp4538
sg71
g3273
sg64
(lp4539
g57
(g78
g59
NtRp4540
(dp4541
g62
(dp4542
g82
g83
ssg71
g4536
sg64
(lp4543
S'status'
p4544
asbag57
(g78
g59
NtRp4545
(dp4546
g62
(dp4547
g89
g90
ssg71
g4536
sg64
(lp4548
S':'
asbag57
(g78
g59
NtRp4549
(dp4550
g62
(dp4551
sg71
g4536
sg64
(lp4552
g57
(g58
g59
NtRp4553
(dp4554
g62
(dp4555
g70
I5
ssg71
g4549
sg64
(lp4556
S'200'
p4557
asbasbasbag57
(g73
g59
NtRp4558
(dp4559
g62
(dp4560
sg71
g3273
sg64
(lp4561
g57
(g78
g59
NtRp4562
(dp4563
g62
(dp4564
g82
g83
ssg71
g4558
sg64
(lp4565
S'subtitle'
p4566
asbag57
(g78
g59
NtRp4567
(dp4568
g62
(dp4569
g89
g90
ssg71
g4558
sg64
(lp4570
S':'
asbag57
(g78
g59
NtRp4571
(dp4572
g62
(dp4573
sg71
g4558
sg64
(lp4574
g57
(g58
g59
NtRp4575
(dp4576
g62
(dp4577
g70
I5
ssg71
g4571
sg64
(lp4578
g3805
(S's\r\x00\x00\x00customize me!'
tRp4579
asbasbasbag57
(g73
g59
NtRp4580
(dp4581
g62
(dp4582
sg71
g3273
sg64
(lp4583
g57
(g78
g59
NtRp4584
(dp4585
g62
(dp4586
g82
g83
ssg71
g4580
sg64
(lp4587
S'title'
p4588
asbag57
(g78
g59
NtRp4589
(dp4590
g62
(dp4591
g89
g90
ssg71
g4580
sg64
(lp4592
S':'
asbag57
(g78
g59
NtRp4593
(dp4594
g62
(dp4595
sg71
g4580
sg64
(lp4596
g57
(g58
g59
NtRp4597
(dp4598
g62
(dp4599
g70
I5
ssg71
g4593
sg64
(lp4600
S'Projeto'
p4601
asbasbasbag57
(g73
g59
NtRp4602
(dp4603
g62
(dp4604
sg71
g3273
sg64
(lp4605
g57
(g78
g59
NtRp4606
(dp4607
g62
(dp4608
g82
g83
ssg71
g4602
sg64
(lp4609
S'view'
p4610
asbag57
(g78
g59
NtRp4611
(dp4612
g62
(dp4613
g89
g90
ssg71
g4602
sg64
(lp4614
S':'
asbag57
(g78
g59
NtRp4615
(dp4616
g62
(dp4617
sg71
g4602
sg64
(lp4618
g57
(g58
g59
NtRp4619
(dp4620
g62
(dp4621
g70
I5
ssg71
g4615
sg64
(lp4622
S'initial/principal.html'
p4623
asbasbasbasbasbsS'locals'
p4624
(dp4625
S'arq'
p4626
S"'ls: imposs\\xc3\\xadvel acessar /var/spool/asterisk/moni...mp_grava: Arquivo ou diret\\xc3\\xb3rio n\\xc3\\xa3o encontrado\\n0'"
p4627
sS'form'
p4628
S'<gluon.sqlhtml.SQLFORM object>'
p4629
sS'i'
S'11'
p4630
sS'ano'
p4631
S'2001'
p4632
sg2260
S'datetime.datetime(2013, 5, 15, 10, 44, 37, 677367)'
p4633
sS'lista'
p4634
S'[2013, 2012, 2011, 2010, 2009, 2008, 2007, 2006, 2005, 2004, 2003, 2002]'
p4635
sssS'traceback'
p4636
S'Traceback (most recent call last):\n  File "/var/www/gravacao/gluon/restricted.py", line 212, in restricted\n    exec ccode in environment\n  File "/var/www/gravacao/applications/projeto/controllers/initial.py", line 555, in <module>\n  File "/var/www/gravacao/gluon/globals.py", line 193, in <lambda>\n    self._caller = lambda f: f()\n  File "/var/www/gravacao/applications/projeto/controllers/initial.py", line 31, in principal\n    tabela = [mes, ano, arq]\nUnboundLocalError: local variable \'mes\' referenced before assignment\n'
p4637
s.