(dp1
S'output'
p2
S"<type 'exceptions.SyntaxError'> invalid syntax (show_form2.html, line 82)"
p3
sS'layer'
p4
S'/var/www/gravacao/applications/projeto/views/initial/show_form2.html'
p5
sS'code'
p6
S'response.write(\'<!DOCTYPE html>\\n<!-- paulirish.com/2008/conditional-stylesheets-vs-css-hacks-answer-neither/ -->\\n<!--[if lt IE 7]><html class="ie ie6 ie-lte9 ie-lte8 ie-lte7 no-js" lang="\', escape=False)\nresponse.write(T.accepted_language or \'en\')\nresponse.write(\'"> <![endif]-->\\n<!--[if IE 7]><html class="ie ie7 ie-lte9 ie-lte8 ie-lte7 no-js" lang="\', escape=False)\nresponse.write(T.accepted_language or \'en\')\nresponse.write(\'"> <![endif]-->\\n<!--[if IE 8]><html class="ie ie8 ie-lte9 ie-lte8 no-js" lang="\', escape=False)\nresponse.write(T.accepted_language or \'en\')\nresponse.write(\'"> <![endif]-->\\n<!--[if IE 9]><html class="ie9 ie-lte9 no-js" lang="\', escape=False)\nresponse.write(T.accepted_language or \'en\')\nresponse.write(\'"> <![endif]-->\\n<!--[if (gt IE 9)|!(IE)]><!--> <html class="no-js" lang="\', escape=False)\nresponse.write(T.accepted_language or \'en\')\nresponse.write(\'"> <!--<![endif]-->\\n<head>\\n  <meta charset="utf-8" />\\n  <!-- www.phpied.com/conditional-comments-block-downloads/ -->\\n  <!-- Always force latest IE rendering engine\\n       (even in intranet) & Chrome Frame\\n       Remove thihos if you use the .htaccess -->\\n  <!--[if IE]>\\n      <meta http-equiv="X-UA-Compatible" content="IE=edge\', escape=False)\nresponse.write(not request.is_local and \',chrome=1\' or \'\')\nresponse.write(\'">\\n      <![endif]-->\\n\\n  <title>\', escape=False)\nresponse.write(response.title or request.application)\nresponse.write(\'</title>\\n\\n  <!-- http://dev.w3.org/html5/markup/meta.name.html -->\\n  <meta name="application-name" content="\', escape=False)\nresponse.write(request.application)\nresponse.write(\'" />\\n\\n  <!-- Speaking of Google, don\\\'t forget to set your site up:\\n       http://google.com/webmasters -->\\n  <meta name="google-site-verification" content="" />\\n\\n  <!--  Mobile Viewport Fix\\n        j.mp/mobileviewport & davidbcalhoun.com/2010/viewport-metatag\\n        device-width: Occupy full width of the screen in its current orientation\\n        initial-scale = 1.0 retains dimensions instead of zooming out if page height > device height\\n        user-scalable = yes allows the user to zoom in -->\\n  <meta name="viewport" content="width=device-width, initial-scale=1.0" />\\n\\n  <link rel="shortcut icon" href="\', escape=False)\nresponse.write(URL(\'static\',\'images/favicon.ico\'))\nresponse.write(\'" type="image/x-icon">\\n  <link rel="apple-touch-icon" href="\', escape=False)\nresponse.write(URL(\'static\',\'images/favicon.png\'))\nresponse.write(\'">\\n\\n  <!-- All JavaScript at the bottom, except for Modernizr which enables\\n       HTML5 elements & feature detects -->\\n  <script src="\', escape=False)\nresponse.write(URL(\'static\',\'js/modernizr.custom.js\'))\nresponse.write(\'"></script>\\n\\n  <!-- include stylesheets -->\\n  \', escape=False)\nresponse.files.append(URL(\'static\',\'css/web2py.css\'))\nresponse.files.append(URL(\'static\',\'css/bootstrap.min.css\'))\nresponse.files.append(URL(\'static\',\'css/bootstrap-responsive.min.css\'))\nresponse.files.append(URL(\'static\',\'css/web2py_bootstrap.css\'))\nresponse.write(\'\\n\\n  \', escape=False)\nresponse.write(\'<script type="text/javascript"><!--\\n    // These variables are used by the web2py_ajax_init function in web2py_ajax.js (which is loaded below).\\n    var w2p_ajax_confirm_message = "\', escape=False)\nresponse.write(T(\'Tem certeza que deseja apagar este objeto?\'))\nresponse.write(\'";\\n    var w2p_ajax_date_format = "\', escape=False)\nresponse.write(T(\'%Y-%m-%d\'))\nresponse.write(\'";\\n    var w2p_ajax_datetime_format = "\', escape=False)\nresponse.write(T(\'%Y-%m-%d %H:%M:%S\'))\nresponse.write(\'";\\n    //--></script>\\n\', escape=False)\nresponse.files.insert(0,URL(\'static\',\'js/jquery.js\'))\nresponse.files.insert(1,URL(\'static\',\'css/calendar.css\'))\nresponse.files.insert(2,URL(\'static\',\'js/calendar.js\'))\nresponse.files.insert(3,URL(\'static\',\'js/web2py.js\'))\nresponse.include_meta()\nresponse.include_files()\nresponse.write(\'\\n\', escape=False)\nresponse.write(\'\\n\\n  \', escape=False)\n# using sidebars need to know what sidebar you want to use\nleft_sidebar_enabled = globals().get(\'left_sidebar_enabled\',False)\nright_sidebar_enabled = globals().get(\'right_sidebar_enabled\',False)\nmiddle_columns = {0:\'span12\',1:\'span9\',2:\'span6\'}[\n(left_sidebar_enabled and 1 or 0)+(right_sidebar_enabled and 1 or 0)]\nresponse.write(\'\\n\\n  <!-- uncomment here to load jquery-ui\\n       <link rel="stylesheet" href="http://ajax.googleapis.com/ajax/libs/jqueryui/1.8.16/themes/base/jquery-ui.css" type="text/css" media="all" />\\n       <script src="http://ajax.googleapis.com/ajax/libs/jqueryui/1.8.16/jquery-ui.min.js" type="text/javascript"></script>\\n       uncomment to load jquery-ui //-->\\n  <noscript><link href="\', escape=False)\nresponse.write(URL(\'static\', \'css/web2py_bootstrap_nojs.css\'))\nresponse.write(\'" rel="stylesheet" type="text/css" /></noscript>\\n  \', escape=False)\nresponse.write(\'\\n</head>\\n\\n<body>\\n  <!-- Navbar ================================================== -->\\n  <div class="navbar navbar-inverse navbar-fixed-top">\\n    <div class="flash">\', escape=False)\nresponse.write(response.flash or \'\')\nresponse.write(\'</div>\\n    <div class="navbar-inner">\\n      <div class="container">\\n        <!-- the next tag is necessary for bootstrap menus, do not remove -->\\n        <button type="button" class="btn btn-navbar" data-toggle="collapse" data-target=".nav-collapse">\\n          <span class="icon-bar"></span>\\n          <span class="icon-bar"></span>\\n          <span class="icon-bar"></span>\\n        </button>\\n\\t\', escape=False)\nresponse.write(response.logo or \'\')\nresponse.write(\'\\n       <ul id="navbar" class="nav pull-right">\', escape=False)\nresponse.write(MENU(response.menu2, _class=\'mobile-menu nav\', li_class=\'dropdown\',ul_class=\'dropdown-menu\'))\nresponse.write(\'</ul>\\n        <div class="nav-collapse"><ul class="nav">\\n          \', escape=False)\nis_mobile=request.user_agent().is_mobile\nresponse.write(\'\\n          \', escape=False)\nif response.menu:\n    response.write(\'\\n          \', escape=False)\n    response.write(MENU(response.menu, _class=\'mobile-menu nav\' if is_mobile else \'nav\',mobile=is_mobile,li_class=\'dropdown\',ul_class=\'dropdown-menu\'))\n    response.write(\'\\n          \', escape=False)\n    pass\nresponse.write(\'\\n        </div><!--/.nav-collapse --></ul>\\n      </div>\\n    </div>\\n  </div><!--/top navbar -->\\n\\n  <div class="container">\\n    <!-- Masthead ================================================== -->\\n    <header class="mastheader row" id="header">\\n        <div class="span12">\\n            <div class="page-header">\\n                <h1><img src="\', escape=False)\nresponse.write(URL(\'static\', \'images\', \'aa.png\'))\nresponse.write(\'">\\n                    Grava\\xc3\\xa7\\xc3\\xb5es\\n                    <small>\', escape=False)\nresponse.write(response.title or \'\')\nresponse.write(\'</small>\\n                </h1>\\n            </div>\\n        </div>\\n    </header>\\n\\n    <section id="main" class="main row">\\n        \', escape=False)\nif left_sidebar_enabled:\n    response.write(\'\\n        <div class="span3 left-sidebar">\\n            \', escape=False)\n    response.write(\'\\n            <h3>Left Sidebar</h3>\\n            <p></p>\\n            \', escape=False)\n    response.write(\'\\n        </div>\\n        \', escape=False)\n    pass\nresponse.write(\'\\n        \\n        <div class="\', escape=False)\nresponse.write(middle_columns)\nresponse.write(\'">\\n            \', escape=False)\nresponse.write(\'\\n<div class="span4" >\\n\', escape=False)\nresponse.write(form)\nresponse.write(\'\\n</div>\\n\\n\', escape=False)\nif tabela != []\nprint \'nao vazio\'\nresponse.write(\'\\n\\tpass\\n\\n\', escape=False)\nresponse.write(\'\\n        </div>\\n\\n        \', escape=False)\nif right_sidebar_enabled:\n    response.write(\'\\n        <div class="span3">\\n            \', escape=False)\n    response.write(\'\\n            <h3>Right Sidebar</h3>\\n            <p></p>\\n            \', escape=False)\n    response.write(\'\\n        </div>\\n        \', escape=False)\n    pass\nresponse.write(\'\\n    </section><!--/main-->\\n\\n    <!-- Footer ================================================== -->\\n    <div class="row">\\n        <footer class="footer span12" id="footer">\\n            <div class="footer-content">\\n                \', escape=False)\nresponse.write(\' <!-- this is default footer -->\\n                <div class="copyright pull-left">\', escape=False)\nresponse.write(T(\'Copyright\'))\nresponse.write(\' &#169; \', escape=False)\nresponse.write(request.now.year)\nresponse.write(\'</div>\\n                <div id="poweredBy" class="pull-right">\\n                    \', escape=False)\nresponse.write(T(\'Desenvolvido por\'))\nresponse.write(\'\\n                    <a href="http://www.aldeiadigital.com.br/">ForIP</a>\\n                </div>\\n                \', escape=False)\nresponse.write(\'\\n            </div>\\n        </footer>\\n    </div>\\n\\n  </div> <!-- /container -->\\n\\n  <!-- The javascript =============================================\\n       (Placed at the end of the document so the pages load faster) -->\\n  <script src="\', escape=False)\nresponse.write(URL(\'static\',\'js/bootstrap.min.js\'))\nresponse.write(\'"></script>\\n  <script src="\', escape=False)\nresponse.write(URL(\'static\',\'js/web2py_bootstrap.js\'))\nresponse.write(\'"></script>\\n  <!--[if lt IE 7 ]>\\n      <script src="\', escape=False)\nresponse.write(URL(\'static\',\'js/dd_belatedpng.js\'))\nresponse.write(\'"></script>\\n      <script> DD_belatedPNG.fix(\\\'img, .png_bg\\\'); //fix any <img> or .png_bg background-images </script>\\n      <![endif]-->\\n  \\n  \', escape=False)\nif response.google_analytics_id:\n    response.write(\'\\n  <script src="\', escape=False)\n    response.write(URL(\'static\',\'js/analytics.js\'))\n    response.write(\'"></script>\\n  <script type="text/javascript">\\n  analytics.initialize({\\n    \\\'Google Analytics\\\':{trackingId:\\\'\', escape=False)\n    response.write(response.google_analytics_id)\n    response.write("\'} \\n  });</script>\\n  ", escape=False)\n    pass\nresponse.write(\'\\n  <!--<script src="\', escape=False)\nresponse.write(URL(\'static\',\'js/share.js\',vars=dict(static=URL(\'static\',\'images\'))))\nresponse.write(\'"></script>-->\\n</body>\\n</html>\\n\', escape=False)'
p7
sS'snapshot'
p8
(dp9
S'exception'
p10
(dp11
S'__getslice__'
p12
S"<method-wrapper '__getslice__' of exceptions.SyntaxError object>"
p13
sS'text'
p14
S"'if tabela != []\\n'"
p15
sS'__str__'
p16
S"<method-wrapper '__str__' of exceptions.SyntaxError object>"
p17
sS'__reduce__'
p18
S'<built-in method __reduce__ of exceptions.SyntaxError object>'
p19
sS'__dict__'
p20
S'{}'
p21
sS'__sizeof__'
p22
S'<built-in method __sizeof__ of exceptions.SyntaxError object>'
p23
sS'__init__'
p24
S"<method-wrapper '__init__' of exceptions.SyntaxError object>"
p25
sS'__setattr__'
p26
S"<method-wrapper '__setattr__' of exceptions.SyntaxError object>"
p27
sS'__reduce_ex__'
p28
S'<built-in method __reduce_ex__ of exceptions.SyntaxError object>'
p29
sS'__new__'
p30
S'<built-in method __new__ of type object>'
p31
sS'__format__'
p32
S'<built-in method __format__ of exceptions.SyntaxError object>'
p33
sS'__class__'
p34
S"<type 'exceptions.SyntaxError'>"
p35
sS'filename'
p36
S"'/var/www/gravacao/applications/projeto/views/initial/show_form2.html'"
p37
sS'lineno'
p38
S'82'
p39
sS'msg'
p40
S"'invalid syntax'"
p41
sS'__doc__'
p42
S"'Invalid syntax.'"
p43
sS'__getitem__'
p44
S"<method-wrapper '__getitem__' of exceptions.SyntaxError object>"
p45
sS'__setstate__'
p46
S'<built-in method __setstate__ of exceptions.SyntaxError object>'
p47
sS'__getattribute__'
p48
S"<method-wrapper '__getattribute__' of exceptions.SyntaxError object>"
p49
sS'print_file_and_line'
p50
S'None'
p51
sS'args'
p52
S"('invalid syntax', ('/var/www/gravacao/applications/projeto/views/initial/show_form2.html', 82, 16, 'if tabela != []\\n'))"
p53
sS'__subclasshook__'
p54
S'<built-in method __subclasshook__ of type object>'
p55
sS'offset'
p56
S'16'
p57
sS'__unicode__'
p58
S'<built-in method __unicode__ of exceptions.SyntaxError object>'
p59
sS'__delattr__'
p60
S"<method-wrapper '__delattr__' of exceptions.SyntaxError object>"
p61
sS'__repr__'
p62
S"<method-wrapper '__repr__' of exceptions.SyntaxError object>"
p63
sS'__hash__'
p64
S"<method-wrapper '__hash__' of exceptions.SyntaxError object>"
p65
ssS'evalue'
p66
S'invalid syntax (show_form2.html, line 82)'
p67
sS'request'
p68
ccopy_reg
_reconstructor
p69
(cgluon.html
BEAUTIFY
p70
c__builtin__
object
p71
NtRp72
(dp73
S'attributes'
p74
(dp75
sS'components'
p76
(lp77
g69
(cgluon.html
TABLE
p78
g71
NtRp79
(dp80
g74
(dp81
S'level'
p82
I5
ssS'parent'
p83
Nsg76
(lp84
g69
(cgluon.html
TR
p85
g71
NtRp86
(dp87
g74
(dp88
sg83
g79
sg76
(lp89
g69
(cgluon.html
TD
p90
g71
NtRp91
(dp92
g74
(dp93
S'_style'
p94
S'font-weight:bold;vertical-align:top'
p95
ssg83
g86
sg76
(lp96
S'ajax'
p97
asbag69
(g90
g71
NtRp98
(dp99
g74
(dp100
S'_valign'
p101
S'top'
p102
ssg83
g86
sg76
(lp103
S':'
asbag69
(g90
g71
NtRp104
(dp105
g74
(dp106
sg83
g86
sg76
(lp107
g69
(g70
g71
NtRp108
(dp109
g74
(dp110
g82
I5
ssg83
g104
sg76
(lp111
S'False'
p112
asbasbasbag69
(g85
g71
NtRp113
(dp114
g74
(dp115
sg83
g79
sg76
(lp116
g69
(g90
g71
NtRp117
(dp118
g74
(dp119
g94
g95
ssg83
g113
sg76
(lp120
S'application'
p121
asbag69
(g90
g71
NtRp122
(dp123
g74
(dp124
g101
g102
ssg83
g113
sg76
(lp125
S':'
asbag69
(g90
g71
NtRp126
(dp127
g74
(dp128
sg83
g113
sg76
(lp129
g69
(g70
g71
NtRp130
(dp131
g74
(dp132
g82
I5
ssg83
g126
sg76
(lp133
S'projeto'
p134
asbasbasbag69
(g85
g71
NtRp135
(dp136
g74
(dp137
sg83
g79
sg76
(lp138
g69
(g90
g71
NtRp139
(dp140
g74
(dp141
g94
g95
ssg83
g135
sg76
(lp142
g52
asbag69
(g90
g71
NtRp143
(dp144
g74
(dp145
g101
g102
ssg83
g135
sg76
(lp146
S':'
asbag69
(g90
g71
NtRp147
(dp148
g74
(dp149
sg83
g135
sg76
(lp150
g69
(g70
g71
NtRp151
(dp152
g74
(dp153
g82
I5
ssg83
g147
sg76
(lp154
g69
(g78
g71
NtRp155
(dp156
g74
(dp157
g82
I4
ssg83
Nsg76
(lp158
sbasbasbasbag69
(g85
g71
NtRp159
(dp160
g74
(dp161
sg83
g79
sg76
(lp162
g69
(g90
g71
NtRp163
(dp164
g74
(dp165
g94
g95
ssg83
g159
sg76
(lp166
S'body'
p167
asbag69
(g90
g71
NtRp168
(dp169
g74
(dp170
g101
g102
ssg83
g159
sg76
(lp171
S':'
asbag69
(g90
g71
NtRp172
(dp173
g74
(dp174
sg83
g159
sg76
(lp175
g69
(g70
g71
NtRp176
(dp177
g74
(dp178
g82
I5
ssg83
g172
sg76
(lp179
S'<cStringIO.StringO object at 0x7fdfe03fb730>'
p180
asbasbasbag69
(g85
g71
NtRp181
(dp182
g74
(dp183
sg83
g79
sg76
(lp184
g69
(g90
g71
NtRp185
(dp186
g74
(dp187
g94
g95
ssg83
g181
sg76
(lp188
S'cid'
p189
asbag69
(g90
g71
NtRp190
(dp191
g74
(dp192
g101
g102
ssg83
g181
sg76
(lp193
S':'
asbag69
(g90
g71
NtRp194
(dp195
g74
(dp196
sg83
g181
sg76
(lp197
g69
(g70
g71
NtRp198
(dp199
g74
(dp200
g82
I5
ssg83
g194
sg76
(lp201
S'None'
p202
asbasbasbag69
(g85
g71
NtRp203
(dp204
g74
(dp205
sg83
g79
sg76
(lp206
g69
(g90
g71
NtRp207
(dp208
g74
(dp209
g94
g95
ssg83
g203
sg76
(lp210
S'client'
p211
asbag69
(g90
g71
NtRp212
(dp213
g74
(dp214
g101
g102
ssg83
g203
sg76
(lp215
S':'
asbag69
(g90
g71
NtRp216
(dp217
g74
(dp218
sg83
g203
sg76
(lp219
g69
(g70
g71
NtRp220
(dp221
g74
(dp222
g82
I5
ssg83
g216
sg76
(lp223
S'127.0.0.1'
p224
asbasbasbag69
(g85
g71
NtRp225
(dp226
g74
(dp227
sg83
g79
sg76
(lp228
g69
(g90
g71
NtRp229
(dp230
g74
(dp231
g94
g95
ssg83
g225
sg76
(lp232
S'controller'
p233
asbag69
(g90
g71
NtRp234
(dp235
g74
(dp236
g101
g102
ssg83
g225
sg76
(lp237
S':'
asbag69
(g90
g71
NtRp238
(dp239
g74
(dp240
sg83
g225
sg76
(lp241
g69
(g70
g71
NtRp242
(dp243
g74
(dp244
g82
I5
ssg83
g238
sg76
(lp245
S'initial'
p246
asbasbasbag69
(g85
g71
NtRp247
(dp248
g74
(dp249
sg83
g79
sg76
(lp250
g69
(g90
g71
NtRp251
(dp252
g74
(dp253
g94
g95
ssg83
g247
sg76
(lp254
S'cookies'
p255
asbag69
(g90
g71
NtRp256
(dp257
g74
(dp258
g101
g102
ssg83
g247
sg76
(lp259
S':'
asbag69
(g90
g71
NtRp260
(dp261
g74
(dp262
sg83
g247
sg76
(lp263
g69
(g70
g71
NtRp264
(dp265
g74
(dp266
g82
I5
ssg83
g260
sg76
(lp267
g69
(g78
g71
NtRp268
(dp269
g74
(dp270
g82
I4
ssg83
Nsg76
(lp271
g69
(g85
g71
NtRp272
(dp273
g74
(dp274
sg83
g268
sg76
(lp275
g69
(g90
g71
NtRp276
(dp277
g74
(dp278
g94
g95
ssg83
g272
sg76
(lp279
S'session_id_admin'
p280
asbag69
(g90
g71
NtRp281
(dp282
g74
(dp283
g101
g102
ssg83
g272
sg76
(lp284
S':'
asbag69
(g90
g71
NtRp285
(dp286
g74
(dp287
sg83
g272
sg76
(lp288
g69
(g70
g71
NtRp289
(dp290
g74
(dp291
g82
I4
ssg83
g285
sg76
(lp292
S'127.0.0.1-6e083638-340b-4f1d-82de-f572646dc094'
p293
ag69
(g78
g71
NtRp294
(dp295
g74
(dp296
g82
I3
ssg83
Nsg76
(lp297
g69
(g85
g71
NtRp298
(dp299
g74
(dp300
sg83
g294
sg76
(lp301
g69
(g90
g71
NtRp302
(dp303
g74
(dp304
g94
g95
ssg83
g298
sg76
(lp305
S'comment'
p306
asbag69
(g90
g71
NtRp307
(dp308
g74
(dp309
g101
g102
ssg83
g298
sg76
(lp310
S':'
asbag69
(g90
g71
NtRp311
(dp312
g74
(dp313
sg83
g298
sg76
(lp314
g69
(g70
g71
NtRp315
(dp316
g74
(dp317
g82
I3
ssg83
g311
sg76
(lp318
S''
asbasbasbag69
(g85
g71
NtRp319
(dp320
g74
(dp321
sg83
g294
sg76
(lp322
g69
(g90
g71
NtRp323
(dp324
g74
(dp325
g94
g95
ssg83
g319
sg76
(lp326
S'domain'
p327
asbag69
(g90
g71
NtRp328
(dp329
g74
(dp330
g101
g102
ssg83
g319
sg76
(lp331
S':'
asbag69
(g90
g71
NtRp332
(dp333
g74
(dp334
sg83
g319
sg76
(lp335
g69
(g70
g71
NtRp336
(dp337
g74
(dp338
g82
I3
ssg83
g332
sg76
(lp339
S''
asbasbasbag69
(g85
g71
NtRp340
(dp341
g74
(dp342
sg83
g294
sg76
(lp343
g69
(g90
g71
NtRp344
(dp345
g74
(dp346
g94
g95
ssg83
g340
sg76
(lp347
S'expires'
p348
asbag69
(g90
g71
NtRp349
(dp350
g74
(dp351
g101
g102
ssg83
g340
sg76
(lp352
S':'
asbag69
(g90
g71
NtRp353
(dp354
g74
(dp355
sg83
g340
sg76
(lp356
g69
(g70
g71
NtRp357
(dp358
g74
(dp359
g82
I3
ssg83
g353
sg76
(lp360
S''
asbasbasbag69
(g85
g71
NtRp361
(dp362
g74
(dp363
sg83
g294
sg76
(lp364
g69
(g90
g71
NtRp365
(dp366
g74
(dp367
g94
g95
ssg83
g361
sg76
(lp368
S'httponly'
p369
asbag69
(g90
g71
NtRp370
(dp371
g74
(dp372
g101
g102
ssg83
g361
sg76
(lp373
S':'
asbag69
(g90
g71
NtRp374
(dp375
g74
(dp376
sg83
g361
sg76
(lp377
g69
(g70
g71
NtRp378
(dp379
g74
(dp380
g82
I3
ssg83
g374
sg76
(lp381
S''
asbasbasbag69
(g85
g71
NtRp382
(dp383
g74
(dp384
sg83
g294
sg76
(lp385
g69
(g90
g71
NtRp386
(dp387
g74
(dp388
g94
g95
ssg83
g382
sg76
(lp389
S'max-age'
p390
asbag69
(g90
g71
NtRp391
(dp392
g74
(dp393
g101
g102
ssg83
g382
sg76
(lp394
S':'
asbag69
(g90
g71
NtRp395
(dp396
g74
(dp397
sg83
g382
sg76
(lp398
g69
(g70
g71
NtRp399
(dp400
g74
(dp401
g82
I3
ssg83
g395
sg76
(lp402
S''
asbasbasbag69
(g85
g71
NtRp403
(dp404
g74
(dp405
sg83
g294
sg76
(lp406
g69
(g90
g71
NtRp407
(dp408
g74
(dp409
g94
g95
ssg83
g403
sg76
(lp410
S'path'
p411
asbag69
(g90
g71
NtRp412
(dp413
g74
(dp414
g101
g102
ssg83
g403
sg76
(lp415
S':'
asbag69
(g90
g71
NtRp416
(dp417
g74
(dp418
sg83
g403
sg76
(lp419
g69
(g70
g71
NtRp420
(dp421
g74
(dp422
g82
I3
ssg83
g416
sg76
(lp423
S''
asbasbasbag69
(g85
g71
NtRp424
(dp425
g74
(dp426
sg83
g294
sg76
(lp427
g69
(g90
g71
NtRp428
(dp429
g74
(dp430
g94
g95
ssg83
g424
sg76
(lp431
S'secure'
p432
asbag69
(g90
g71
NtRp433
(dp434
g74
(dp435
g101
g102
ssg83
g424
sg76
(lp436
S':'
asbag69
(g90
g71
NtRp437
(dp438
g74
(dp439
sg83
g424
sg76
(lp440
g69
(g70
g71
NtRp441
(dp442
g74
(dp443
g82
I3
ssg83
g437
sg76
(lp444
S''
asbasbasbag69
(g85
g71
NtRp445
(dp446
g74
(dp447
sg83
g294
sg76
(lp448
g69
(g90
g71
NtRp449
(dp450
g74
(dp451
g94
g95
ssg83
g445
sg76
(lp452
S'version'
p453
asbag69
(g90
g71
NtRp454
(dp455
g74
(dp456
g101
g102
ssg83
g445
sg76
(lp457
S':'
asbag69
(g90
g71
NtRp458
(dp459
g74
(dp460
sg83
g445
sg76
(lp461
g69
(g70
g71
NtRp462
(dp463
g74
(dp464
g82
I3
ssg83
g458
sg76
(lp465
S''
asbasbasbasbasbasbasbag69
(g85
g71
NtRp466
(dp467
g74
(dp468
sg83
g268
sg76
(lp469
g69
(g90
g71
NtRp470
(dp471
g74
(dp472
g94
g95
ssg83
g466
sg76
(lp473
S'session_id_projeto'
p474
asbag69
(g90
g71
NtRp475
(dp476
g74
(dp477
g101
g102
ssg83
g466
sg76
(lp478
S':'
asbag69
(g90
g71
NtRp479
(dp480
g74
(dp481
sg83
g466
sg76
(lp482
g69
(g70
g71
NtRp483
(dp484
g74
(dp485
g82
I4
ssg83
g479
sg76
(lp486
S'127.0.0.1-f700f0c3-fb08-41bb-8821-1f508a8fa4ec'
p487
ag69
(g78
g71
NtRp488
(dp489
g74
(dp490
g82
I3
ssg83
Nsg76
(lp491
g69
(g85
g71
NtRp492
(dp493
g74
(dp494
sg83
g488
sg76
(lp495
g69
(g90
g71
NtRp496
(dp497
g74
(dp498
g94
g95
ssg83
g492
sg76
(lp499
g306
asbag69
(g90
g71
NtRp500
(dp501
g74
(dp502
g101
g102
ssg83
g492
sg76
(lp503
S':'
asbag69
(g90
g71
NtRp504
(dp505
g74
(dp506
sg83
g492
sg76
(lp507
g69
(g70
g71
NtRp508
(dp509
g74
(dp510
g82
I3
ssg83
g504
sg76
(lp511
S''
asbasbasbag69
(g85
g71
NtRp512
(dp513
g74
(dp514
sg83
g488
sg76
(lp515
g69
(g90
g71
NtRp516
(dp517
g74
(dp518
g94
g95
ssg83
g512
sg76
(lp519
g327
asbag69
(g90
g71
NtRp520
(dp521
g74
(dp522
g101
g102
ssg83
g512
sg76
(lp523
S':'
asbag69
(g90
g71
NtRp524
(dp525
g74
(dp526
sg83
g512
sg76
(lp527
g69
(g70
g71
NtRp528
(dp529
g74
(dp530
g82
I3
ssg83
g524
sg76
(lp531
S''
asbasbasbag69
(g85
g71
NtRp532
(dp533
g74
(dp534
sg83
g488
sg76
(lp535
g69
(g90
g71
NtRp536
(dp537
g74
(dp538
g94
g95
ssg83
g532
sg76
(lp539
g348
asbag69
(g90
g71
NtRp540
(dp541
g74
(dp542
g101
g102
ssg83
g532
sg76
(lp543
S':'
asbag69
(g90
g71
NtRp544
(dp545
g74
(dp546
sg83
g532
sg76
(lp547
g69
(g70
g71
NtRp548
(dp549
g74
(dp550
g82
I3
ssg83
g544
sg76
(lp551
S''
asbasbasbag69
(g85
g71
NtRp552
(dp553
g74
(dp554
sg83
g488
sg76
(lp555
g69
(g90
g71
NtRp556
(dp557
g74
(dp558
g94
g95
ssg83
g552
sg76
(lp559
g369
asbag69
(g90
g71
NtRp560
(dp561
g74
(dp562
g101
g102
ssg83
g552
sg76
(lp563
S':'
asbag69
(g90
g71
NtRp564
(dp565
g74
(dp566
sg83
g552
sg76
(lp567
g69
(g70
g71
NtRp568
(dp569
g74
(dp570
g82
I3
ssg83
g564
sg76
(lp571
S''
asbasbasbag69
(g85
g71
NtRp572
(dp573
g74
(dp574
sg83
g488
sg76
(lp575
g69
(g90
g71
NtRp576
(dp577
g74
(dp578
g94
g95
ssg83
g572
sg76
(lp579
g390
asbag69
(g90
g71
NtRp580
(dp581
g74
(dp582
g101
g102
ssg83
g572
sg76
(lp583
S':'
asbag69
(g90
g71
NtRp584
(dp585
g74
(dp586
sg83
g572
sg76
(lp587
g69
(g70
g71
NtRp588
(dp589
g74
(dp590
g82
I3
ssg83
g584
sg76
(lp591
S''
asbasbasbag69
(g85
g71
NtRp592
(dp593
g74
(dp594
sg83
g488
sg76
(lp595
g69
(g90
g71
NtRp596
(dp597
g74
(dp598
g94
g95
ssg83
g592
sg76
(lp599
g411
asbag69
(g90
g71
NtRp600
(dp601
g74
(dp602
g101
g102
ssg83
g592
sg76
(lp603
S':'
asbag69
(g90
g71
NtRp604
(dp605
g74
(dp606
sg83
g592
sg76
(lp607
g69
(g70
g71
NtRp608
(dp609
g74
(dp610
g82
I3
ssg83
g604
sg76
(lp611
S''
asbasbasbag69
(g85
g71
NtRp612
(dp613
g74
(dp614
sg83
g488
sg76
(lp615
g69
(g90
g71
NtRp616
(dp617
g74
(dp618
g94
g95
ssg83
g612
sg76
(lp619
g432
asbag69
(g90
g71
NtRp620
(dp621
g74
(dp622
g101
g102
ssg83
g612
sg76
(lp623
S':'
asbag69
(g90
g71
NtRp624
(dp625
g74
(dp626
sg83
g612
sg76
(lp627
g69
(g70
g71
NtRp628
(dp629
g74
(dp630
g82
I3
ssg83
g624
sg76
(lp631
S''
asbasbasbag69
(g85
g71
NtRp632
(dp633
g74
(dp634
sg83
g488
sg76
(lp635
g69
(g90
g71
NtRp636
(dp637
g74
(dp638
g94
g95
ssg83
g632
sg76
(lp639
g453
asbag69
(g90
g71
NtRp640
(dp641
g74
(dp642
g101
g102
ssg83
g632
sg76
(lp643
S':'
asbag69
(g90
g71
NtRp644
(dp645
g74
(dp646
sg83
g632
sg76
(lp647
g69
(g70
g71
NtRp648
(dp649
g74
(dp650
g82
I3
ssg83
g644
sg76
(lp651
S''
asbasbasbasbasbasbasbasbasbasbasbag69
(g85
g71
NtRp652
(dp653
g74
(dp654
sg83
g79
sg76
(lp655
g69
(g90
g71
NtRp656
(dp657
g74
(dp658
g94
g95
ssg83
g652
sg76
(lp659
S'env'
p660
asbag69
(g90
g71
NtRp661
(dp662
g74
(dp663
g101
g102
ssg83
g652
sg76
(lp664
S':'
asbag69
(g90
g71
NtRp665
(dp666
g74
(dp667
sg83
g652
sg76
(lp668
g69
(g70
g71
NtRp669
(dp670
g74
(dp671
g82
I5
ssg83
g665
sg76
(lp672
g69
(g78
g71
NtRp673
(dp674
g74
(dp675
g82
I4
ssg83
Nsg76
(lp676
g69
(g85
g71
NtRp677
(dp678
g74
(dp679
sg83
g673
sg76
(lp680
g69
(g90
g71
NtRp681
(dp682
g74
(dp683
g94
g95
ssg83
g677
sg76
(lp684
S'app_folders'
p685
asbag69
(g90
g71
NtRp686
(dp687
g74
(dp688
g101
g102
ssg83
g677
sg76
(lp689
S':'
asbag69
(g90
g71
NtRp690
(dp691
g74
(dp692
sg83
g677
sg76
(lp693
g69
(g70
g71
NtRp694
(dp695
g74
(dp696
g82
I4
ssg83
g690
sg76
(lp697
S"set(['/var/www/gravacao/applications/projeto/', '/var/www/gravacao/applications/admin/'])"
p698
asbasbasbag69
(g85
g71
NtRp699
(dp700
g74
(dp701
sg83
g673
sg76
(lp702
g69
(g90
g71
NtRp703
(dp704
g74
(dp705
g94
g95
ssg83
g699
sg76
(lp706
S'applications_parent'
p707
asbag69
(g90
g71
NtRp708
(dp709
g74
(dp710
g101
g102
ssg83
g699
sg76
(lp711
S':'
asbag69
(g90
g71
NtRp712
(dp713
g74
(dp714
sg83
g699
sg76
(lp715
g69
(g70
g71
NtRp716
(dp717
g74
(dp718
g82
I4
ssg83
g712
sg76
(lp719
S'/var/www/gravacao'
p720
asbasbasbag69
(g85
g71
NtRp721
(dp722
g74
(dp723
sg83
g673
sg76
(lp724
g69
(g90
g71
NtRp725
(dp726
g74
(dp727
g94
g95
ssg83
g721
sg76
(lp728
S'cmd_args'
p729
asbag69
(g90
g71
NtRp730
(dp731
g74
(dp732
g101
g102
ssg83
g721
sg76
(lp733
S':'
asbag69
(g90
g71
NtRp734
(dp735
g74
(dp736
sg83
g721
sg76
(lp737
g69
(g70
g71
NtRp738
(dp739
g74
(dp740
g82
I4
ssg83
g734
sg76
(lp741
g69
(g78
g71
NtRp742
(dp743
g74
(dp744
g82
I3
ssg83
Nsg76
(lp745
sbasbasbasbag69
(g85
g71
NtRp746
(dp747
g74
(dp748
sg83
g673
sg76
(lp749
g69
(g90
g71
NtRp750
(dp751
g74
(dp752
g94
g95
ssg83
g746
sg76
(lp753
S'cmd_options'
p754
asbag69
(g90
g71
NtRp755
(dp756
g74
(dp757
g101
g102
ssg83
g746
sg76
(lp758
S':'
asbag69
(g90
g71
NtRp759
(dp760
g74
(dp761
sg83
g746
sg76
(lp762
g69
(g70
g71
NtRp763
(dp764
g74
(dp765
g82
I4
ssg83
g759
sg76
(lp766
S"<Values at 0x32c52d8: {'verbose': False, 'ip': '127.0.0.1', 'with_scheduler': False, 'ips': [], 'shutdown_timeout': 5, 'taskbar': False, 'port': 8000, 'maxthreads': None, 'softcron': False, 'server_name': 'fernando-workstation', 'bpython': False, 'nogui': False, 'pid_filename': 'httpserver.pid', 'extcron': False, 'runcron': False, 'run_system_tests': False, 'test': None, 'folder': '/var/www/gravacao', 'config': '', 'minthreads': None, 'winservice': '', 'shell': None, 'run': '', 'log_filename': 'httpserver.log', 'debuglevel': 30, 'args': [''], 'socket_timeout': 5, 'ssl_ca_certificate': None, 'scheduler': None, 'profiler_filename': None, 'ssl_private_key': '', 'scheduler_groups': None, 'password': '123456', 'request_queue_size': 5, 'ssl_certificate': '', 'cronjob': False, 'numthreads': None, 'quiet': False, 'interfaces': None, 'import_models': False, 'timeout': 10, 'plain': False, 'nobanner': False}>"
p767
asbasbasbag69
(g85
g71
NtRp768
(dp769
g74
(dp770
sg83
g673
sg76
(lp771
g69
(g90
g71
NtRp772
(dp773
g74
(dp774
g94
g95
ssg83
g768
sg76
(lp775
S'db_sessions'
p776
asbag69
(g90
g71
NtRp777
(dp778
g74
(dp779
g101
g102
ssg83
g768
sg76
(lp780
S':'
asbag69
(g90
g71
NtRp781
(dp782
g74
(dp783
sg83
g768
sg76
(lp784
g69
(g70
g71
NtRp785
(dp786
g74
(dp787
g82
I4
ssg83
g781
sg76
(lp788
S'set([])'
p789
asbasbasbag69
(g85
g71
NtRp790
(dp791
g74
(dp792
sg83
g673
sg76
(lp793
g69
(g90
g71
NtRp794
(dp795
g74
(dp796
g94
g95
ssg83
g790
sg76
(lp797
S'debugging'
p798
asbag69
(g90
g71
NtRp799
(dp800
g74
(dp801
g101
g102
ssg83
g790
sg76
(lp802
S':'
asbag69
(g90
g71
NtRp803
(dp804
g74
(dp805
sg83
g790
sg76
(lp806
g69
(g70
g71
NtRp807
(dp808
g74
(dp809
g82
I4
ssg83
g803
sg76
(lp810
g112
asbasbasbag69
(g85
g71
NtRp811
(dp812
g74
(dp813
sg83
g673
sg76
(lp814
g69
(g90
g71
NtRp815
(dp816
g74
(dp817
g94
g95
ssg83
g811
sg76
(lp818
S'gluon_parent'
p819
asbag69
(g90
g71
NtRp820
(dp821
g74
(dp822
g101
g102
ssg83
g811
sg76
(lp823
S':'
asbag69
(g90
g71
NtRp824
(dp825
g74
(dp826
sg83
g811
sg76
(lp827
g69
(g70
g71
NtRp828
(dp829
g74
(dp830
g82
I4
ssg83
g824
sg76
(lp831
S'/var/www/gravacao'
p832
asbasbasbag69
(g85
g71
NtRp833
(dp834
g74
(dp835
sg83
g673
sg76
(lp836
g69
(g90
g71
NtRp837
(dp838
g74
(dp839
g94
g95
ssg83
g833
sg76
(lp840
S'http_accept'
p841
asbag69
(g90
g71
NtRp842
(dp843
g74
(dp844
g101
g102
ssg83
g833
sg76
(lp845
S':'
asbag69
(g90
g71
NtRp846
(dp847
g74
(dp848
sg83
g833
sg76
(lp849
g69
(g70
g71
NtRp850
(dp851
g74
(dp852
g82
I4
ssg83
g846
sg76
(lp853
S'text/html,application/xhtml+xml,application/xml;q=0.9,*/*;q=0.8'
p854
asbasbasbag69
(g85
g71
NtRp855
(dp856
g74
(dp857
sg83
g673
sg76
(lp858
g69
(g90
g71
NtRp859
(dp860
g74
(dp861
g94
g95
ssg83
g855
sg76
(lp862
S'http_accept_charset'
p863
asbag69
(g90
g71
NtRp864
(dp865
g74
(dp866
g101
g102
ssg83
g855
sg76
(lp867
S':'
asbag69
(g90
g71
NtRp868
(dp869
g74
(dp870
sg83
g855
sg76
(lp871
g69
(g70
g71
NtRp872
(dp873
g74
(dp874
g82
I4
ssg83
g868
sg76
(lp875
S'ISO-8859-1,utf-8;q=0.7,*;q=0.3'
p876
asbasbasbag69
(g85
g71
NtRp877
(dp878
g74
(dp879
sg83
g673
sg76
(lp880
g69
(g90
g71
NtRp881
(dp882
g74
(dp883
g94
g95
ssg83
g877
sg76
(lp884
S'http_accept_encoding'
p885
asbag69
(g90
g71
NtRp886
(dp887
g74
(dp888
g101
g102
ssg83
g877
sg76
(lp889
S':'
asbag69
(g90
g71
NtRp890
(dp891
g74
(dp892
sg83
g877
sg76
(lp893
g69
(g70
g71
NtRp894
(dp895
g74
(dp896
g82
I4
ssg83
g890
sg76
(lp897
S'gzip,deflate,sdch'
p898
asbasbasbag69
(g85
g71
NtRp899
(dp900
g74
(dp901
sg83
g673
sg76
(lp902
g69
(g90
g71
NtRp903
(dp904
g74
(dp905
g94
g95
ssg83
g899
sg76
(lp906
S'http_accept_language'
p907
asbag69
(g90
g71
NtRp908
(dp909
g74
(dp910
g101
g102
ssg83
g899
sg76
(lp911
S':'
asbag69
(g90
g71
NtRp912
(dp913
g74
(dp914
sg83
g899
sg76
(lp915
g69
(g70
g71
NtRp916
(dp917
g74
(dp918
g82
I4
ssg83
g912
sg76
(lp919
S'pt-BR,pt;q=0.8,en-US;q=0.6,en;q=0.4'
p920
asbasbasbag69
(g85
g71
NtRp921
(dp922
g74
(dp923
sg83
g673
sg76
(lp924
g69
(g90
g71
NtRp925
(dp926
g74
(dp927
g94
g95
ssg83
g921
sg76
(lp928
S'http_cache_control'
p929
asbag69
(g90
g71
NtRp930
(dp931
g74
(dp932
g101
g102
ssg83
g921
sg76
(lp933
S':'
asbag69
(g90
g71
NtRp934
(dp935
g74
(dp936
sg83
g921
sg76
(lp937
g69
(g70
g71
NtRp938
(dp939
g74
(dp940
g82
I4
ssg83
g934
sg76
(lp941
S'max-age=0'
p942
asbasbasbag69
(g85
g71
NtRp943
(dp944
g74
(dp945
sg83
g673
sg76
(lp946
g69
(g90
g71
NtRp947
(dp948
g74
(dp949
g94
g95
ssg83
g943
sg76
(lp950
S'http_connection'
p951
asbag69
(g90
g71
NtRp952
(dp953
g74
(dp954
g101
g102
ssg83
g943
sg76
(lp955
S':'
asbag69
(g90
g71
NtRp956
(dp957
g74
(dp958
sg83
g943
sg76
(lp959
g69
(g70
g71
NtRp960
(dp961
g74
(dp962
g82
I4
ssg83
g956
sg76
(lp963
S'keep-alive'
p964
asbasbasbag69
(g85
g71
NtRp965
(dp966
g74
(dp967
sg83
g673
sg76
(lp968
g69
(g90
g71
NtRp969
(dp970
g74
(dp971
g94
g95
ssg83
g965
sg76
(lp972
S'http_cookie'
p973
asbag69
(g90
g71
NtRp974
(dp975
g74
(dp976
g101
g102
ssg83
g965
sg76
(lp977
S':'
asbag69
(g90
g71
NtRp978
(dp979
g74
(dp980
sg83
g965
sg76
(lp981
g69
(g70
g71
NtRp982
(dp983
g74
(dp984
g82
I4
ssg83
g978
sg76
(lp985
S'session_id_admin=127.0.0.1-6e083638-340b-4f1d-82de-f572646dc094; session_id_projeto=127.0.0.1-f700f0c3-fb08-41bb-8821-1f508a8fa4ec'
p986
asbasbasbag69
(g85
g71
NtRp987
(dp988
g74
(dp989
sg83
g673
sg76
(lp990
g69
(g90
g71
NtRp991
(dp992
g74
(dp993
g94
g95
ssg83
g987
sg76
(lp994
S'http_host'
p995
asbag69
(g90
g71
NtRp996
(dp997
g74
(dp998
g101
g102
ssg83
g987
sg76
(lp999
S':'
asbag69
(g90
g71
NtRp1000
(dp1001
g74
(dp1002
sg83
g987
sg76
(lp1003
g69
(g70
g71
NtRp1004
(dp1005
g74
(dp1006
g82
I4
ssg83
g1000
sg76
(lp1007
S'127.0.0.1:8000'
p1008
asbasbasbag69
(g85
g71
NtRp1009
(dp1010
g74
(dp1011
sg83
g673
sg76
(lp1012
g69
(g90
g71
NtRp1013
(dp1014
g74
(dp1015
g94
g95
ssg83
g1009
sg76
(lp1016
S'http_referer'
p1017
asbag69
(g90
g71
NtRp1018
(dp1019
g74
(dp1020
g101
g102
ssg83
g1009
sg76
(lp1021
S':'
asbag69
(g90
g71
NtRp1022
(dp1023
g74
(dp1024
sg83
g1009
sg76
(lp1025
g69
(g70
g71
NtRp1026
(dp1027
g74
(dp1028
g82
I4
ssg83
g1022
sg76
(lp1029
S'http://127.0.0.1:8000/'
p1030
asbasbasbag69
(g85
g71
NtRp1031
(dp1032
g74
(dp1033
sg83
g673
sg76
(lp1034
g69
(g90
g71
NtRp1035
(dp1036
g74
(dp1037
g94
g95
ssg83
g1031
sg76
(lp1038
S'http_user_agent'
p1039
asbag69
(g90
g71
NtRp1040
(dp1041
g74
(dp1042
g101
g102
ssg83
g1031
sg76
(lp1043
S':'
asbag69
(g90
g71
NtRp1044
(dp1045
g74
(dp1046
sg83
g1031
sg76
(lp1047
g69
(g70
g71
NtRp1048
(dp1049
g74
(dp1050
g82
I4
ssg83
g1044
sg76
(lp1051
S'Mozilla/5.0 (X11; Linux x86_64) AppleWebKit/537.4 (KHTML, like Gecko) Ubuntu/12.10 Chromium/22.0.1229.94 Chrome/22.0.1229.94 Safari/537.4'
p1052
asbasbasbag69
(g85
g71
NtRp1053
(dp1054
g74
(dp1055
sg83
g673
sg76
(lp1056
g69
(g90
g71
NtRp1057
(dp1058
g74
(dp1059
g94
g95
ssg83
g1053
sg76
(lp1060
S'is_jython'
p1061
asbag69
(g90
g71
NtRp1062
(dp1063
g74
(dp1064
g101
g102
ssg83
g1053
sg76
(lp1065
S':'
asbag69
(g90
g71
NtRp1066
(dp1067
g74
(dp1068
sg83
g1053
sg76
(lp1069
g69
(g70
g71
NtRp1070
(dp1071
g74
(dp1072
g82
I4
ssg83
g1066
sg76
(lp1073
g112
asbasbasbag69
(g85
g71
NtRp1074
(dp1075
g74
(dp1076
sg83
g673
sg76
(lp1077
g69
(g90
g71
NtRp1078
(dp1079
g74
(dp1080
g94
g95
ssg83
g1074
sg76
(lp1081
S'is_pypy'
p1082
asbag69
(g90
g71
NtRp1083
(dp1084
g74
(dp1085
g101
g102
ssg83
g1074
sg76
(lp1086
S':'
asbag69
(g90
g71
NtRp1087
(dp1088
g74
(dp1089
sg83
g1074
sg76
(lp1090
g69
(g70
g71
NtRp1091
(dp1092
g74
(dp1093
g82
I4
ssg83
g1087
sg76
(lp1094
g112
asbasbasbag69
(g85
g71
NtRp1095
(dp1096
g74
(dp1097
sg83
g673
sg76
(lp1098
g69
(g90
g71
NtRp1099
(dp1100
g74
(dp1101
g94
g95
ssg83
g1095
sg76
(lp1102
S'local_hosts'
p1103
asbag69
(g90
g71
NtRp1104
(dp1105
g74
(dp1106
g101
g102
ssg83
g1095
sg76
(lp1107
S':'
asbag69
(g90
g71
NtRp1108
(dp1109
g74
(dp1110
sg83
g1095
sg76
(lp1111
g69
(g70
g71
NtRp1112
(dp1113
g74
(dp1114
g82
I4
ssg83
g1108
sg76
(lp1115
g69
(g78
g71
NtRp1116
(dp1117
g74
(dp1118
g82
I3
ssg83
Nsg76
(lp1119
g69
(g85
g71
NtRp1120
(dp1121
g74
(dp1122
sg83
g1116
sg76
(lp1123
g69
(g90
g71
NtRp1124
(dp1125
g74
(dp1126
sg83
g1120
sg76
(lp1127
g69
(g70
g71
NtRp1128
(dp1129
g74
(dp1130
g82
I3
ssg83
g1124
sg76
(lp1131
S'::1'
p1132
asbasbasbag69
(g85
g71
NtRp1133
(dp1134
g74
(dp1135
sg83
g1116
sg76
(lp1136
g69
(g90
g71
NtRp1137
(dp1138
g74
(dp1139
sg83
g1133
sg76
(lp1140
g69
(g70
g71
NtRp1141
(dp1142
g74
(dp1143
g82
I3
ssg83
g1137
sg76
(lp1144
S'::ffff:127.0.0.1'
p1145
asbasbasbag69
(g85
g71
NtRp1146
(dp1147
g74
(dp1148
sg83
g1116
sg76
(lp1149
g69
(g90
g71
NtRp1150
(dp1151
g74
(dp1152
sg83
g1146
sg76
(lp1153
g69
(g70
g71
NtRp1154
(dp1155
g74
(dp1156
g82
I3
ssg83
g1150
sg76
(lp1157
S'127.0.0.1'
p1158
asbasbasbag69
(g85
g71
NtRp1159
(dp1160
g74
(dp1161
sg83
g1116
sg76
(lp1162
g69
(g90
g71
NtRp1163
(dp1164
g74
(dp1165
sg83
g1159
sg76
(lp1166
g69
(g70
g71
NtRp1167
(dp1168
g74
(dp1169
g82
I3
ssg83
g1163
sg76
(lp1170
S'fernando-workstation'
p1171
asbasbasbasbasbasbasbag69
(g85
g71
NtRp1172
(dp1173
g74
(dp1174
sg83
g673
sg76
(lp1175
g69
(g90
g71
NtRp1176
(dp1177
g74
(dp1178
g94
g95
ssg83
g1172
sg76
(lp1179
S'path_info'
p1180
asbag69
(g90
g71
NtRp1181
(dp1182
g74
(dp1183
g101
g102
ssg83
g1172
sg76
(lp1184
S':'
asbag69
(g90
g71
NtRp1185
(dp1186
g74
(dp1187
sg83
g1172
sg76
(lp1188
g69
(g70
g71
NtRp1189
(dp1190
g74
(dp1191
g82
I4
ssg83
g1185
sg76
(lp1192
S'/'
asbasbasbag69
(g85
g71
NtRp1193
(dp1194
g74
(dp1195
sg83
g673
sg76
(lp1196
g69
(g90
g71
NtRp1197
(dp1198
g74
(dp1199
g94
g95
ssg83
g1193
sg76
(lp1200
S'query_string'
p1201
asbag69
(g90
g71
NtRp1202
(dp1203
g74
(dp1204
g101
g102
ssg83
g1193
sg76
(lp1205
S':'
asbag69
(g90
g71
NtRp1206
(dp1207
g74
(dp1208
sg83
g1193
sg76
(lp1209
g69
(g70
g71
NtRp1210
(dp1211
g74
(dp1212
g82
I4
ssg83
g1206
sg76
(lp1213
S''
asbasbasbag69
(g85
g71
NtRp1214
(dp1215
g74
(dp1216
sg83
g673
sg76
(lp1217
g69
(g90
g71
NtRp1218
(dp1219
g74
(dp1220
g94
g95
ssg83
g1214
sg76
(lp1221
S'remote_addr'
p1222
asbag69
(g90
g71
NtRp1223
(dp1224
g74
(dp1225
g101
g102
ssg83
g1214
sg76
(lp1226
S':'
asbag69
(g90
g71
NtRp1227
(dp1228
g74
(dp1229
sg83
g1214
sg76
(lp1230
g69
(g70
g71
NtRp1231
(dp1232
g74
(dp1233
g82
I4
ssg83
g1227
sg76
(lp1234
g224
asbasbasbag69
(g85
g71
NtRp1235
(dp1236
g74
(dp1237
sg83
g673
sg76
(lp1238
g69
(g90
g71
NtRp1239
(dp1240
g74
(dp1241
g94
g95
ssg83
g1235
sg76
(lp1242
S'remote_port'
p1243
asbag69
(g90
g71
NtRp1244
(dp1245
g74
(dp1246
g101
g102
ssg83
g1235
sg76
(lp1247
S':'
asbag69
(g90
g71
NtRp1248
(dp1249
g74
(dp1250
sg83
g1235
sg76
(lp1251
g69
(g70
g71
NtRp1252
(dp1253
g74
(dp1254
g82
I4
ssg83
g1248
sg76
(lp1255
S'44761'
p1256
asbasbasbag69
(g85
g71
NtRp1257
(dp1258
g74
(dp1259
sg83
g673
sg76
(lp1260
g69
(g90
g71
NtRp1261
(dp1262
g74
(dp1263
g94
g95
ssg83
g1257
sg76
(lp1264
S'request_method'
p1265
asbag69
(g90
g71
NtRp1266
(dp1267
g74
(dp1268
g101
g102
ssg83
g1257
sg76
(lp1269
S':'
asbag69
(g90
g71
NtRp1270
(dp1271
g74
(dp1272
sg83
g1257
sg76
(lp1273
g69
(g70
g71
NtRp1274
(dp1275
g74
(dp1276
g82
I4
ssg83
g1270
sg76
(lp1277
S'GET'
p1278
asbasbasbag69
(g85
g71
NtRp1279
(dp1280
g74
(dp1281
sg83
g673
sg76
(lp1282
g69
(g90
g71
NtRp1283
(dp1284
g74
(dp1285
g94
g95
ssg83
g1279
sg76
(lp1286
S'request_uri'
p1287
asbag69
(g90
g71
NtRp1288
(dp1289
g74
(dp1290
g101
g102
ssg83
g1279
sg76
(lp1291
S':'
asbag69
(g90
g71
NtRp1292
(dp1293
g74
(dp1294
sg83
g1279
sg76
(lp1295
g69
(g70
g71
NtRp1296
(dp1297
g74
(dp1298
g82
I4
ssg83
g1292
sg76
(lp1299
S'/projeto/initial/principal'
p1300
asbasbasbag69
(g85
g71
NtRp1301
(dp1302
g74
(dp1303
sg83
g673
sg76
(lp1304
g69
(g90
g71
NtRp1305
(dp1306
g74
(dp1307
g94
g95
ssg83
g1301
sg76
(lp1308
S'script_name'
p1309
asbag69
(g90
g71
NtRp1310
(dp1311
g74
(dp1312
g101
g102
ssg83
g1301
sg76
(lp1313
S':'
asbag69
(g90
g71
NtRp1314
(dp1315
g74
(dp1316
sg83
g1301
sg76
(lp1317
g69
(g70
g71
NtRp1318
(dp1319
g74
(dp1320
g82
I4
ssg83
g1314
sg76
(lp1321
S''
asbasbasbag69
(g85
g71
NtRp1322
(dp1323
g74
(dp1324
sg83
g673
sg76
(lp1325
g69
(g90
g71
NtRp1326
(dp1327
g74
(dp1328
g94
g95
ssg83
g1322
sg76
(lp1329
S'server_name'
p1330
asbag69
(g90
g71
NtRp1331
(dp1332
g74
(dp1333
g101
g102
ssg83
g1322
sg76
(lp1334
S':'
asbag69
(g90
g71
NtRp1335
(dp1336
g74
(dp1337
sg83
g1322
sg76
(lp1338
g69
(g70
g71
NtRp1339
(dp1340
g74
(dp1341
g82
I4
ssg83
g1335
sg76
(lp1342
S'fernando-workstation'
p1343
asbasbasbag69
(g85
g71
NtRp1344
(dp1345
g74
(dp1346
sg83
g673
sg76
(lp1347
g69
(g90
g71
NtRp1348
(dp1349
g74
(dp1350
g94
g95
ssg83
g1344
sg76
(lp1351
S'server_port'
p1352
asbag69
(g90
g71
NtRp1353
(dp1354
g74
(dp1355
g101
g102
ssg83
g1344
sg76
(lp1356
S':'
asbag69
(g90
g71
NtRp1357
(dp1358
g74
(dp1359
sg83
g1344
sg76
(lp1360
g69
(g70
g71
NtRp1361
(dp1362
g74
(dp1363
g82
I4
ssg83
g1357
sg76
(lp1364
S'8000'
p1365
asbasbasbag69
(g85
g71
NtRp1366
(dp1367
g74
(dp1368
sg83
g673
sg76
(lp1369
g69
(g90
g71
NtRp1370
(dp1371
g74
(dp1372
g94
g95
ssg83
g1366
sg76
(lp1373
S'server_protocol'
p1374
asbag69
(g90
g71
NtRp1375
(dp1376
g74
(dp1377
g101
g102
ssg83
g1366
sg76
(lp1378
S':'
asbag69
(g90
g71
NtRp1379
(dp1380
g74
(dp1381
sg83
g1366
sg76
(lp1382
g69
(g70
g71
NtRp1383
(dp1384
g74
(dp1385
g82
I4
ssg83
g1379
sg76
(lp1386
S'HTTP/1.1'
p1387
asbasbasbag69
(g85
g71
NtRp1388
(dp1389
g74
(dp1390
sg83
g673
sg76
(lp1391
g69
(g90
g71
NtRp1392
(dp1393
g74
(dp1394
g94
g95
ssg83
g1388
sg76
(lp1395
S'server_software'
p1396
asbag69
(g90
g71
NtRp1397
(dp1398
g74
(dp1399
g101
g102
ssg83
g1388
sg76
(lp1400
S':'
asbag69
(g90
g71
NtRp1401
(dp1402
g74
(dp1403
sg83
g1388
sg76
(lp1404
g69
(g70
g71
NtRp1405
(dp1406
g74
(dp1407
g82
I4
ssg83
g1401
sg76
(lp1408
S'Rocket 1.2.6'
p1409
asbasbasbag69
(g85
g71
NtRp1410
(dp1411
g74
(dp1412
sg83
g673
sg76
(lp1413
g69
(g90
g71
NtRp1414
(dp1415
g74
(dp1416
g94
g95
ssg83
g1410
sg76
(lp1417
S'web2py_original_uri'
p1418
asbag69
(g90
g71
NtRp1419
(dp1420
g74
(dp1421
g101
g102
ssg83
g1410
sg76
(lp1422
S':'
asbag69
(g90
g71
NtRp1423
(dp1424
g74
(dp1425
sg83
g1410
sg76
(lp1426
g69
(g70
g71
NtRp1427
(dp1428
g74
(dp1429
g82
I4
ssg83
g1423
sg76
(lp1430
S'/'
asbasbasbag69
(g85
g71
NtRp1431
(dp1432
g74
(dp1433
sg83
g673
sg76
(lp1434
g69
(g90
g71
NtRp1435
(dp1436
g74
(dp1437
g94
g95
ssg83
g1431
sg76
(lp1438
S'web2py_path'
p1439
asbag69
(g90
g71
NtRp1440
(dp1441
g74
(dp1442
g101
g102
ssg83
g1431
sg76
(lp1443
S':'
asbag69
(g90
g71
NtRp1444
(dp1445
g74
(dp1446
sg83
g1431
sg76
(lp1447
g69
(g70
g71
NtRp1448
(dp1449
g74
(dp1450
g82
I4
ssg83
g1444
sg76
(lp1451
g720
asbasbasbag69
(g85
g71
NtRp1452
(dp1453
g74
(dp1454
sg83
g673
sg76
(lp1455
g69
(g90
g71
NtRp1456
(dp1457
g74
(dp1458
g94
g95
ssg83
g1452
sg76
(lp1459
S'web2py_version'
p1460
asbag69
(g90
g71
NtRp1461
(dp1462
g74
(dp1463
g101
g102
ssg83
g1452
sg76
(lp1464
S':'
asbag69
(g90
g71
NtRp1465
(dp1466
g74
(dp1467
sg83
g1452
sg76
(lp1468
g69
(g70
g71
NtRp1469
(dp1470
g74
(dp1471
g82
I4
ssg83
g1465
sg76
(lp1472
g69
(g78
g71
NtRp1473
(dp1474
g74
(dp1475
g82
I3
ssg83
Nsg76
(lp1476
g69
(g85
g71
NtRp1477
(dp1478
g74
(dp1479
sg83
g1473
sg76
(lp1480
g69
(g90
g71
NtRp1481
(dp1482
g74
(dp1483
sg83
g1477
sg76
(lp1484
g69
(g70
g71
NtRp1485
(dp1486
g74
(dp1487
g82
I3
ssg83
g1481
sg76
(lp1488
S'2'
asbasbasbag69
(g85
g71
NtRp1489
(dp1490
g74
(dp1491
sg83
g1473
sg76
(lp1492
g69
(g90
g71
NtRp1493
(dp1494
g74
(dp1495
sg83
g1489
sg76
(lp1496
g69
(g70
g71
NtRp1497
(dp1498
g74
(dp1499
g82
I3
ssg83
g1493
sg76
(lp1500
S'3'
asbasbasbag69
(g85
g71
NtRp1501
(dp1502
g74
(dp1503
sg83
g1473
sg76
(lp1504
g69
(g90
g71
NtRp1505
(dp1506
g74
(dp1507
sg83
g1501
sg76
(lp1508
g69
(g70
g71
NtRp1509
(dp1510
g74
(dp1511
g82
I3
ssg83
g1505
sg76
(lp1512
S'2'
asbasbasbag69
(g85
g71
NtRp1513
(dp1514
g74
(dp1515
sg83
g1473
sg76
(lp1516
g69
(g90
g71
NtRp1517
(dp1518
g74
(dp1519
sg83
g1513
sg76
(lp1520
g69
(g70
g71
NtRp1521
(dp1522
g74
(dp1523
g82
I3
ssg83
g1517
sg76
(lp1524
S'datetime.datetime(2012, 12, 17, 15, 3, 30)'
p1525
asbasbasbag69
(g85
g71
NtRp1526
(dp1527
g74
(dp1528
sg83
g1473
sg76
(lp1529
g69
(g90
g71
NtRp1530
(dp1531
g74
(dp1532
sg83
g1526
sg76
(lp1533
g69
(g70
g71
NtRp1534
(dp1535
g74
(dp1536
g82
I3
ssg83
g1530
sg76
(lp1537
S'stable'
p1538
asbasbasbasbasbasbasbag69
(g85
g71
NtRp1539
(dp1540
g74
(dp1541
sg83
g673
sg76
(lp1542
g69
(g90
g71
NtRp1543
(dp1544
g74
(dp1545
g94
g95
ssg83
g1539
sg76
(lp1546
S'wsgi_errors'
p1547
asbag69
(g90
g71
NtRp1548
(dp1549
g74
(dp1550
g101
g102
ssg83
g1539
sg76
(lp1551
S':'
asbag69
(g90
g71
NtRp1552
(dp1553
g74
(dp1554
sg83
g1539
sg76
(lp1555
g69
(g70
g71
NtRp1556
(dp1557
g74
(dp1558
g82
I4
ssg83
g1552
sg76
(lp1559
S"<open file '<stderr>', mode 'w' at 0x7fdffc865270>"
p1560
asbasbasbag69
(g85
g71
NtRp1561
(dp1562
g74
(dp1563
sg83
g673
sg76
(lp1564
g69
(g90
g71
NtRp1565
(dp1566
g74
(dp1567
g94
g95
ssg83
g1561
sg76
(lp1568
S'wsgi_file_wrapper'
p1569
asbag69
(g90
g71
NtRp1570
(dp1571
g74
(dp1572
g101
g102
ssg83
g1561
sg76
(lp1573
S':'
asbag69
(g90
g71
NtRp1574
(dp1575
g74
(dp1576
sg83
g1561
sg76
(lp1577
g69
(g70
g71
NtRp1578
(dp1579
g74
(dp1580
g82
I4
ssg83
g1574
sg76
(lp1581
S'<class wsgiref.util.FileWrapper at 0x324c4c8>'
p1582
asbasbasbag69
(g85
g71
NtRp1583
(dp1584
g74
(dp1585
sg83
g673
sg76
(lp1586
g69
(g90
g71
NtRp1587
(dp1588
g74
(dp1589
g94
g95
ssg83
g1583
sg76
(lp1590
S'wsgi_input'
p1591
asbag69
(g90
g71
NtRp1592
(dp1593
g74
(dp1594
g101
g102
ssg83
g1583
sg76
(lp1595
S':'
asbag69
(g90
g71
NtRp1596
(dp1597
g74
(dp1598
sg83
g1583
sg76
(lp1599
g69
(g70
g71
NtRp1600
(dp1601
g74
(dp1602
g82
I4
ssg83
g1596
sg76
(lp1603
S'<socket._fileobject object at 0x7fdfd4116a50>'
p1604
asbasbasbag69
(g85
g71
NtRp1605
(dp1606
g74
(dp1607
sg83
g673
sg76
(lp1608
g69
(g90
g71
NtRp1609
(dp1610
g74
(dp1611
g94
g95
ssg83
g1605
sg76
(lp1612
S'wsgi_multiprocess'
p1613
asbag69
(g90
g71
NtRp1614
(dp1615
g74
(dp1616
g101
g102
ssg83
g1605
sg76
(lp1617
S':'
asbag69
(g90
g71
NtRp1618
(dp1619
g74
(dp1620
sg83
g1605
sg76
(lp1621
g69
(g70
g71
NtRp1622
(dp1623
g74
(dp1624
g82
I4
ssg83
g1618
sg76
(lp1625
g112
asbasbasbag69
(g85
g71
NtRp1626
(dp1627
g74
(dp1628
sg83
g673
sg76
(lp1629
g69
(g90
g71
NtRp1630
(dp1631
g74
(dp1632
g94
g95
ssg83
g1626
sg76
(lp1633
S'wsgi_multithread'
p1634
asbag69
(g90
g71
NtRp1635
(dp1636
g74
(dp1637
g101
g102
ssg83
g1626
sg76
(lp1638
S':'
asbag69
(g90
g71
NtRp1639
(dp1640
g74
(dp1641
sg83
g1626
sg76
(lp1642
g69
(g70
g71
NtRp1643
(dp1644
g74
(dp1645
g82
I4
ssg83
g1639
sg76
(lp1646
S'True'
p1647
asbasbasbag69
(g85
g71
NtRp1648
(dp1649
g74
(dp1650
sg83
g673
sg76
(lp1651
g69
(g90
g71
NtRp1652
(dp1653
g74
(dp1654
g94
g95
ssg83
g1648
sg76
(lp1655
S'wsgi_run_once'
p1656
asbag69
(g90
g71
NtRp1657
(dp1658
g74
(dp1659
g101
g102
ssg83
g1648
sg76
(lp1660
S':'
asbag69
(g90
g71
NtRp1661
(dp1662
g74
(dp1663
sg83
g1648
sg76
(lp1664
g69
(g70
g71
NtRp1665
(dp1666
g74
(dp1667
g82
I4
ssg83
g1661
sg76
(lp1668
g112
asbasbasbag69
(g85
g71
NtRp1669
(dp1670
g74
(dp1671
sg83
g673
sg76
(lp1672
g69
(g90
g71
NtRp1673
(dp1674
g74
(dp1675
g94
g95
ssg83
g1669
sg76
(lp1676
S'wsgi_url_scheme'
p1677
asbag69
(g90
g71
NtRp1678
(dp1679
g74
(dp1680
g101
g102
ssg83
g1669
sg76
(lp1681
S':'
asbag69
(g90
g71
NtRp1682
(dp1683
g74
(dp1684
sg83
g1669
sg76
(lp1685
g69
(g70
g71
NtRp1686
(dp1687
g74
(dp1688
g82
I4
ssg83
g1682
sg76
(lp1689
S'http'
p1690
asbasbasbag69
(g85
g71
NtRp1691
(dp1692
g74
(dp1693
sg83
g673
sg76
(lp1694
g69
(g90
g71
NtRp1695
(dp1696
g74
(dp1697
g94
g95
ssg83
g1691
sg76
(lp1698
S'wsgi_version'
p1699
asbag69
(g90
g71
NtRp1700
(dp1701
g74
(dp1702
g101
g102
ssg83
g1691
sg76
(lp1703
S':'
asbag69
(g90
g71
NtRp1704
(dp1705
g74
(dp1706
sg83
g1691
sg76
(lp1707
g69
(g70
g71
NtRp1708
(dp1709
g74
(dp1710
g82
I4
ssg83
g1704
sg76
(lp1711
g69
(g78
g71
NtRp1712
(dp1713
g74
(dp1714
g82
I3
ssg83
Nsg76
(lp1715
g69
(g85
g71
NtRp1716
(dp1717
g74
(dp1718
sg83
g1712
sg76
(lp1719
g69
(g90
g71
NtRp1720
(dp1721
g74
(dp1722
sg83
g1716
sg76
(lp1723
g69
(g70
g71
NtRp1724
(dp1725
g74
(dp1726
g82
I3
ssg83
g1720
sg76
(lp1727
S'1'
asbasbasbag69
(g85
g71
NtRp1728
(dp1729
g74
(dp1730
sg83
g1712
sg76
(lp1731
g69
(g90
g71
NtRp1732
(dp1733
g74
(dp1734
sg83
g1728
sg76
(lp1735
g69
(g70
g71
NtRp1736
(dp1737
g74
(dp1738
g82
I3
ssg83
g1732
sg76
(lp1739
S'0'
asbasbasbasbasbasbasbasbasbasbasbag69
(g85
g71
NtRp1740
(dp1741
g74
(dp1742
sg83
g79
sg76
(lp1743
g69
(g90
g71
NtRp1744
(dp1745
g74
(dp1746
g94
g95
ssg83
g1740
sg76
(lp1747
S'extension'
p1748
asbag69
(g90
g71
NtRp1749
(dp1750
g74
(dp1751
g101
g102
ssg83
g1740
sg76
(lp1752
S':'
asbag69
(g90
g71
NtRp1753
(dp1754
g74
(dp1755
sg83
g1740
sg76
(lp1756
g69
(g70
g71
NtRp1757
(dp1758
g74
(dp1759
g82
I5
ssg83
g1753
sg76
(lp1760
S'html'
p1761
asbasbasbag69
(g85
g71
NtRp1762
(dp1763
g74
(dp1764
sg83
g79
sg76
(lp1765
g69
(g90
g71
NtRp1766
(dp1767
g74
(dp1768
g94
g95
ssg83
g1762
sg76
(lp1769
S'folder'
p1770
asbag69
(g90
g71
NtRp1771
(dp1772
g74
(dp1773
g101
g102
ssg83
g1762
sg76
(lp1774
S':'
asbag69
(g90
g71
NtRp1775
(dp1776
g74
(dp1777
sg83
g1762
sg76
(lp1778
g69
(g70
g71
NtRp1779
(dp1780
g74
(dp1781
g82
I5
ssg83
g1775
sg76
(lp1782
S'/var/www/gravacao/applications/projeto/'
p1783
asbasbasbag69
(g85
g71
NtRp1784
(dp1785
g74
(dp1786
sg83
g79
sg76
(lp1787
g69
(g90
g71
NtRp1788
(dp1789
g74
(dp1790
g94
g95
ssg83
g1784
sg76
(lp1791
S'function'
p1792
asbag69
(g90
g71
NtRp1793
(dp1794
g74
(dp1795
g101
g102
ssg83
g1784
sg76
(lp1796
S':'
asbag69
(g90
g71
NtRp1797
(dp1798
g74
(dp1799
sg83
g1784
sg76
(lp1800
g69
(g70
g71
NtRp1801
(dp1802
g74
(dp1803
g82
I5
ssg83
g1797
sg76
(lp1804
S'principal'
p1805
asbasbasbag69
(g85
g71
NtRp1806
(dp1807
g74
(dp1808
sg83
g79
sg76
(lp1809
g69
(g90
g71
NtRp1810
(dp1811
g74
(dp1812
g94
g95
ssg83
g1806
sg76
(lp1813
S'get_vars'
p1814
asbag69
(g90
g71
NtRp1815
(dp1816
g74
(dp1817
g101
g102
ssg83
g1806
sg76
(lp1818
S':'
asbag69
(g90
g71
NtRp1819
(dp1820
g74
(dp1821
sg83
g1806
sg76
(lp1822
g69
(g70
g71
NtRp1823
(dp1824
g74
(dp1825
g82
I5
ssg83
g1819
sg76
(lp1826
g69
(g78
g71
NtRp1827
(dp1828
g74
(dp1829
g82
I4
ssg83
Nsg76
(lp1830
sbasbasbasbag69
(g85
g71
NtRp1831
(dp1832
g74
(dp1833
sg83
g79
sg76
(lp1834
g69
(g90
g71
NtRp1835
(dp1836
g74
(dp1837
g94
g95
ssg83
g1831
sg76
(lp1838
S'global_settings'
p1839
asbag69
(g90
g71
NtRp1840
(dp1841
g74
(dp1842
g101
g102
ssg83
g1831
sg76
(lp1843
S':'
asbag69
(g90
g71
NtRp1844
(dp1845
g74
(dp1846
sg83
g1831
sg76
(lp1847
g69
(g70
g71
NtRp1848
(dp1849
g74
(dp1850
g82
I5
ssg83
g1844
sg76
(lp1851
g69
(g78
g71
NtRp1852
(dp1853
g74
(dp1854
g82
I4
ssg83
Nsg76
(lp1855
g69
(g85
g71
NtRp1856
(dp1857
g74
(dp1858
sg83
g1852
sg76
(lp1859
g69
(g90
g71
NtRp1860
(dp1861
g74
(dp1862
g94
g95
ssg83
g1856
sg76
(lp1863
g685
asbag69
(g90
g71
NtRp1864
(dp1865
g74
(dp1866
g101
g102
ssg83
g1856
sg76
(lp1867
S':'
asbag69
(g90
g71
NtRp1868
(dp1869
g74
(dp1870
sg83
g1856
sg76
(lp1871
g69
(g70
g71
NtRp1872
(dp1873
g74
(dp1874
g82
I4
ssg83
g1868
sg76
(lp1875
S"set(['/var/www/gravacao/applications/projeto/', '/var/www/gravacao/applications/admin/'])"
p1876
asbasbasbag69
(g85
g71
NtRp1877
(dp1878
g74
(dp1879
sg83
g1852
sg76
(lp1880
g69
(g90
g71
NtRp1881
(dp1882
g74
(dp1883
g94
g95
ssg83
g1877
sg76
(lp1884
g707
asbag69
(g90
g71
NtRp1885
(dp1886
g74
(dp1887
g101
g102
ssg83
g1877
sg76
(lp1888
S':'
asbag69
(g90
g71
NtRp1889
(dp1890
g74
(dp1891
sg83
g1877
sg76
(lp1892
g69
(g70
g71
NtRp1893
(dp1894
g74
(dp1895
g82
I4
ssg83
g1889
sg76
(lp1896
g720
asbasbasbag69
(g85
g71
NtRp1897
(dp1898
g74
(dp1899
sg83
g1852
sg76
(lp1900
g69
(g90
g71
NtRp1901
(dp1902
g74
(dp1903
g94
g95
ssg83
g1897
sg76
(lp1904
g729
asbag69
(g90
g71
NtRp1905
(dp1906
g74
(dp1907
g101
g102
ssg83
g1897
sg76
(lp1908
S':'
asbag69
(g90
g71
NtRp1909
(dp1910
g74
(dp1911
sg83
g1897
sg76
(lp1912
g69
(g70
g71
NtRp1913
(dp1914
g74
(dp1915
g82
I4
ssg83
g1909
sg76
(lp1916
g69
(g78
g71
NtRp1917
(dp1918
g74
(dp1919
g82
I3
ssg83
Nsg76
(lp1920
sbasbasbasbag69
(g85
g71
NtRp1921
(dp1922
g74
(dp1923
sg83
g1852
sg76
(lp1924
g69
(g90
g71
NtRp1925
(dp1926
g74
(dp1927
g94
g95
ssg83
g1921
sg76
(lp1928
g754
asbag69
(g90
g71
NtRp1929
(dp1930
g74
(dp1931
g101
g102
ssg83
g1921
sg76
(lp1932
S':'
asbag69
(g90
g71
NtRp1933
(dp1934
g74
(dp1935
sg83
g1921
sg76
(lp1936
g69
(g70
g71
NtRp1937
(dp1938
g74
(dp1939
g82
I4
ssg83
g1933
sg76
(lp1940
S"<Values at 0x32c52d8: {'verbose': False, 'ip': '127.0.0.1', 'with_scheduler': False, 'ips': [], 'shutdown_timeout': 5, 'taskbar': False, 'port': 8000, 'maxthreads': None, 'softcron': False, 'server_name': 'fernando-workstation', 'bpython': False, 'nogui': False, 'pid_filename': 'httpserver.pid', 'extcron': False, 'runcron': False, 'run_system_tests': False, 'test': None, 'folder': '/var/www/gravacao', 'config': '', 'minthreads': None, 'winservice': '', 'shell': None, 'run': '', 'log_filename': 'httpserver.log', 'debuglevel': 30, 'args': [''], 'socket_timeout': 5, 'ssl_ca_certificate': None, 'scheduler': None, 'profiler_filename': None, 'ssl_private_key': '', 'scheduler_groups': None, 'password': '123456', 'request_queue_size': 5, 'ssl_certificate': '', 'cronjob': False, 'numthreads': None, 'quiet': False, 'interfaces': None, 'import_models': False, 'timeout': 10, 'plain': False, 'nobanner': False}>"
p1941
asbasbasbag69
(g85
g71
NtRp1942
(dp1943
g74
(dp1944
sg83
g1852
sg76
(lp1945
g69
(g90
g71
NtRp1946
(dp1947
g74
(dp1948
g94
g95
ssg83
g1942
sg76
(lp1949
g776
asbag69
(g90
g71
NtRp1950
(dp1951
g74
(dp1952
g101
g102
ssg83
g1942
sg76
(lp1953
S':'
asbag69
(g90
g71
NtRp1954
(dp1955
g74
(dp1956
sg83
g1942
sg76
(lp1957
g69
(g70
g71
NtRp1958
(dp1959
g74
(dp1960
g82
I4
ssg83
g1954
sg76
(lp1961
S'set([])'
p1962
asbasbasbag69
(g85
g71
NtRp1963
(dp1964
g74
(dp1965
sg83
g1852
sg76
(lp1966
g69
(g90
g71
NtRp1967
(dp1968
g74
(dp1969
g94
g95
ssg83
g1963
sg76
(lp1970
g798
asbag69
(g90
g71
NtRp1971
(dp1972
g74
(dp1973
g101
g102
ssg83
g1963
sg76
(lp1974
S':'
asbag69
(g90
g71
NtRp1975
(dp1976
g74
(dp1977
sg83
g1963
sg76
(lp1978
g69
(g70
g71
NtRp1979
(dp1980
g74
(dp1981
g82
I4
ssg83
g1975
sg76
(lp1982
g112
asbasbasbag69
(g85
g71
NtRp1983
(dp1984
g74
(dp1985
sg83
g1852
sg76
(lp1986
g69
(g90
g71
NtRp1987
(dp1988
g74
(dp1989
g94
g95
ssg83
g1983
sg76
(lp1990
g819
asbag69
(g90
g71
NtRp1991
(dp1992
g74
(dp1993
g101
g102
ssg83
g1983
sg76
(lp1994
S':'
asbag69
(g90
g71
NtRp1995
(dp1996
g74
(dp1997
sg83
g1983
sg76
(lp1998
g69
(g70
g71
NtRp1999
(dp2000
g74
(dp2001
g82
I4
ssg83
g1995
sg76
(lp2002
g832
asbasbasbag69
(g85
g71
NtRp2003
(dp2004
g74
(dp2005
sg83
g1852
sg76
(lp2006
g69
(g90
g71
NtRp2007
(dp2008
g74
(dp2009
g94
g95
ssg83
g2003
sg76
(lp2010
g1061
asbag69
(g90
g71
NtRp2011
(dp2012
g74
(dp2013
g101
g102
ssg83
g2003
sg76
(lp2014
S':'
asbag69
(g90
g71
NtRp2015
(dp2016
g74
(dp2017
sg83
g2003
sg76
(lp2018
g69
(g70
g71
NtRp2019
(dp2020
g74
(dp2021
g82
I4
ssg83
g2015
sg76
(lp2022
g112
asbasbasbag69
(g85
g71
NtRp2023
(dp2024
g74
(dp2025
sg83
g1852
sg76
(lp2026
g69
(g90
g71
NtRp2027
(dp2028
g74
(dp2029
g94
g95
ssg83
g2023
sg76
(lp2030
g1082
asbag69
(g90
g71
NtRp2031
(dp2032
g74
(dp2033
g101
g102
ssg83
g2023
sg76
(lp2034
S':'
asbag69
(g90
g71
NtRp2035
(dp2036
g74
(dp2037
sg83
g2023
sg76
(lp2038
g69
(g70
g71
NtRp2039
(dp2040
g74
(dp2041
g82
I4
ssg83
g2035
sg76
(lp2042
g112
asbasbasbag69
(g85
g71
NtRp2043
(dp2044
g74
(dp2045
sg83
g1852
sg76
(lp2046
g69
(g90
g71
NtRp2047
(dp2048
g74
(dp2049
g94
g95
ssg83
g2043
sg76
(lp2050
g1103
asbag69
(g90
g71
NtRp2051
(dp2052
g74
(dp2053
g101
g102
ssg83
g2043
sg76
(lp2054
S':'
asbag69
(g90
g71
NtRp2055
(dp2056
g74
(dp2057
sg83
g2043
sg76
(lp2058
g69
(g70
g71
NtRp2059
(dp2060
g74
(dp2061
g82
I4
ssg83
g2055
sg76
(lp2062
g69
(g78
g71
NtRp2063
(dp2064
g74
(dp2065
g82
I3
ssg83
Nsg76
(lp2066
g69
(g85
g71
NtRp2067
(dp2068
g74
(dp2069
sg83
g2063
sg76
(lp2070
g69
(g90
g71
NtRp2071
(dp2072
g74
(dp2073
sg83
g2067
sg76
(lp2074
g69
(g70
g71
NtRp2075
(dp2076
g74
(dp2077
g82
I3
ssg83
g2071
sg76
(lp2078
g1132
asbasbasbag69
(g85
g71
NtRp2079
(dp2080
g74
(dp2081
sg83
g2063
sg76
(lp2082
g69
(g90
g71
NtRp2083
(dp2084
g74
(dp2085
sg83
g2079
sg76
(lp2086
g69
(g70
g71
NtRp2087
(dp2088
g74
(dp2089
g82
I3
ssg83
g2083
sg76
(lp2090
g1145
asbasbasbag69
(g85
g71
NtRp2091
(dp2092
g74
(dp2093
sg83
g2063
sg76
(lp2094
g69
(g90
g71
NtRp2095
(dp2096
g74
(dp2097
sg83
g2091
sg76
(lp2098
g69
(g70
g71
NtRp2099
(dp2100
g74
(dp2101
g82
I3
ssg83
g2095
sg76
(lp2102
g1158
asbasbasbag69
(g85
g71
NtRp2103
(dp2104
g74
(dp2105
sg83
g2063
sg76
(lp2106
g69
(g90
g71
NtRp2107
(dp2108
g74
(dp2109
sg83
g2103
sg76
(lp2110
g69
(g70
g71
NtRp2111
(dp2112
g74
(dp2113
g82
I3
ssg83
g2107
sg76
(lp2114
g1171
asbasbasbasbasbasbasbag69
(g85
g71
NtRp2115
(dp2116
g74
(dp2117
sg83
g1852
sg76
(lp2118
g69
(g90
g71
NtRp2119
(dp2120
g74
(dp2121
g94
g95
ssg83
g2115
sg76
(lp2122
g1460
asbag69
(g90
g71
NtRp2123
(dp2124
g74
(dp2125
g101
g102
ssg83
g2115
sg76
(lp2126
S':'
asbag69
(g90
g71
NtRp2127
(dp2128
g74
(dp2129
sg83
g2115
sg76
(lp2130
g69
(g70
g71
NtRp2131
(dp2132
g74
(dp2133
g82
I4
ssg83
g2127
sg76
(lp2134
g69
(g78
g71
NtRp2135
(dp2136
g74
(dp2137
g82
I3
ssg83
Nsg76
(lp2138
g69
(g85
g71
NtRp2139
(dp2140
g74
(dp2141
sg83
g2135
sg76
(lp2142
g69
(g90
g71
NtRp2143
(dp2144
g74
(dp2145
sg83
g2139
sg76
(lp2146
g69
(g70
g71
NtRp2147
(dp2148
g74
(dp2149
g82
I3
ssg83
g2143
sg76
(lp2150
S'2'
asbasbasbag69
(g85
g71
NtRp2151
(dp2152
g74
(dp2153
sg83
g2135
sg76
(lp2154
g69
(g90
g71
NtRp2155
(dp2156
g74
(dp2157
sg83
g2151
sg76
(lp2158
g69
(g70
g71
NtRp2159
(dp2160
g74
(dp2161
g82
I3
ssg83
g2155
sg76
(lp2162
S'3'
asbasbasbag69
(g85
g71
NtRp2163
(dp2164
g74
(dp2165
sg83
g2135
sg76
(lp2166
g69
(g90
g71
NtRp2167
(dp2168
g74
(dp2169
sg83
g2163
sg76
(lp2170
g69
(g70
g71
NtRp2171
(dp2172
g74
(dp2173
g82
I3
ssg83
g2167
sg76
(lp2174
S'2'
asbasbasbag69
(g85
g71
NtRp2175
(dp2176
g74
(dp2177
sg83
g2135
sg76
(lp2178
g69
(g90
g71
NtRp2179
(dp2180
g74
(dp2181
sg83
g2175
sg76
(lp2182
g69
(g70
g71
NtRp2183
(dp2184
g74
(dp2185
g82
I3
ssg83
g2179
sg76
(lp2186
S'datetime.datetime(2012, 12, 17, 15, 3, 30)'
p2187
asbasbasbag69
(g85
g71
NtRp2188
(dp2189
g74
(dp2190
sg83
g2135
sg76
(lp2191
g69
(g90
g71
NtRp2192
(dp2193
g74
(dp2194
sg83
g2188
sg76
(lp2195
g69
(g70
g71
NtRp2196
(dp2197
g74
(dp2198
g82
I3
ssg83
g2192
sg76
(lp2199
g1538
asbasbasbasbasbasbasbasbasbasbasbag69
(g85
g71
NtRp2200
(dp2201
g74
(dp2202
sg83
g79
sg76
(lp2203
g69
(g90
g71
NtRp2204
(dp2205
g74
(dp2206
g94
g95
ssg83
g2200
sg76
(lp2207
S'is_https'
p2208
asbag69
(g90
g71
NtRp2209
(dp2210
g74
(dp2211
g101
g102
ssg83
g2200
sg76
(lp2212
S':'
asbag69
(g90
g71
NtRp2213
(dp2214
g74
(dp2215
sg83
g2200
sg76
(lp2216
g69
(g70
g71
NtRp2217
(dp2218
g74
(dp2219
g82
I5
ssg83
g2213
sg76
(lp2220
g112
asbasbasbag69
(g85
g71
NtRp2221
(dp2222
g74
(dp2223
sg83
g79
sg76
(lp2224
g69
(g90
g71
NtRp2225
(dp2226
g74
(dp2227
g94
g95
ssg83
g2221
sg76
(lp2228
S'is_local'
p2229
asbag69
(g90
g71
NtRp2230
(dp2231
g74
(dp2232
g101
g102
ssg83
g2221
sg76
(lp2233
S':'
asbag69
(g90
g71
NtRp2234
(dp2235
g74
(dp2236
sg83
g2221
sg76
(lp2237
g69
(g70
g71
NtRp2238
(dp2239
g74
(dp2240
g82
I5
ssg83
g2234
sg76
(lp2241
g1647
asbasbasbag69
(g85
g71
NtRp2242
(dp2243
g74
(dp2244
sg83
g79
sg76
(lp2245
g69
(g90
g71
NtRp2246
(dp2247
g74
(dp2248
g94
g95
ssg83
g2242
sg76
(lp2249
S'is_restful'
p2250
asbag69
(g90
g71
NtRp2251
(dp2252
g74
(dp2253
g101
g102
ssg83
g2242
sg76
(lp2254
S':'
asbag69
(g90
g71
NtRp2255
(dp2256
g74
(dp2257
sg83
g2242
sg76
(lp2258
g69
(g70
g71
NtRp2259
(dp2260
g74
(dp2261
g82
I5
ssg83
g2255
sg76
(lp2262
g112
asbasbasbag69
(g85
g71
NtRp2263
(dp2264
g74
(dp2265
sg83
g79
sg76
(lp2266
g69
(g90
g71
NtRp2267
(dp2268
g74
(dp2269
g94
g95
ssg83
g2263
sg76
(lp2270
S'now'
p2271
asbag69
(g90
g71
NtRp2272
(dp2273
g74
(dp2274
g101
g102
ssg83
g2263
sg76
(lp2275
S':'
asbag69
(g90
g71
NtRp2276
(dp2277
g74
(dp2278
sg83
g2263
sg76
(lp2279
g69
(g70
g71
NtRp2280
(dp2281
g74
(dp2282
g82
I5
ssg83
g2276
sg76
(lp2283
S'datetime.datetime(2013, 5, 15, 10, 27, 41, 317782)'
p2284
asbasbasbag69
(g85
g71
NtRp2285
(dp2286
g74
(dp2287
sg83
g79
sg76
(lp2288
g69
(g90
g71
NtRp2289
(dp2290
g74
(dp2291
g94
g95
ssg83
g2285
sg76
(lp2292
S'post_vars'
p2293
asbag69
(g90
g71
NtRp2294
(dp2295
g74
(dp2296
g101
g102
ssg83
g2285
sg76
(lp2297
S':'
asbag69
(g90
g71
NtRp2298
(dp2299
g74
(dp2300
sg83
g2285
sg76
(lp2301
g69
(g70
g71
NtRp2302
(dp2303
g74
(dp2304
g82
I5
ssg83
g2298
sg76
(lp2305
g69
(g78
g71
NtRp2306
(dp2307
g74
(dp2308
g82
I4
ssg83
Nsg76
(lp2309
sbasbasbasbag69
(g85
g71
NtRp2310
(dp2311
g74
(dp2312
sg83
g79
sg76
(lp2313
g69
(g90
g71
NtRp2314
(dp2315
g74
(dp2316
g94
g95
ssg83
g2310
sg76
(lp2317
S'url'
p2318
asbag69
(g90
g71
NtRp2319
(dp2320
g74
(dp2321
g101
g102
ssg83
g2310
sg76
(lp2322
S':'
asbag69
(g90
g71
NtRp2323
(dp2324
g74
(dp2325
sg83
g2310
sg76
(lp2326
g69
(g70
g71
NtRp2327
(dp2328
g74
(dp2329
g82
I5
ssg83
g2323
sg76
(lp2330
S'/'
asbasbasbag69
(g85
g71
NtRp2331
(dp2332
g74
(dp2333
sg83
g79
sg76
(lp2334
g69
(g90
g71
NtRp2335
(dp2336
g74
(dp2337
g94
g95
ssg83
g2331
sg76
(lp2338
S'utcnow'
p2339
asbag69
(g90
g71
NtRp2340
(dp2341
g74
(dp2342
g101
g102
ssg83
g2331
sg76
(lp2343
S':'
asbag69
(g90
g71
NtRp2344
(dp2345
g74
(dp2346
sg83
g2331
sg76
(lp2347
g69
(g70
g71
NtRp2348
(dp2349
g74
(dp2350
g82
I5
ssg83
g2344
sg76
(lp2351
S'datetime.datetime(2013, 5, 15, 13, 27, 41, 317828)'
p2352
asbasbasbag69
(g85
g71
NtRp2353
(dp2354
g74
(dp2355
sg83
g79
sg76
(lp2356
g69
(g90
g71
NtRp2357
(dp2358
g74
(dp2359
g94
g95
ssg83
g2353
sg76
(lp2360
S'uuid'
p2361
asbag69
(g90
g71
NtRp2362
(dp2363
g74
(dp2364
g101
g102
ssg83
g2353
sg76
(lp2365
S':'
asbag69
(g90
g71
NtRp2366
(dp2367
g74
(dp2368
sg83
g2353
sg76
(lp2369
g69
(g70
g71
NtRp2370
(dp2371
g74
(dp2372
g82
I5
ssg83
g2366
sg76
(lp2373
S'projeto/127.0.0.1.2013-05-15.10-27-41.79b0d455-380d-47fb-ba62-58beca2aac36'
p2374
asbasbasbag69
(g85
g71
NtRp2375
(dp2376
g74
(dp2377
sg83
g79
sg76
(lp2378
g69
(g90
g71
NtRp2379
(dp2380
g74
(dp2381
g94
g95
ssg83
g2375
sg76
(lp2382
S'vars'
p2383
asbag69
(g90
g71
NtRp2384
(dp2385
g74
(dp2386
g101
g102
ssg83
g2375
sg76
(lp2387
S':'
asbag69
(g90
g71
NtRp2388
(dp2389
g74
(dp2390
sg83
g2375
sg76
(lp2391
g69
(g70
g71
NtRp2392
(dp2393
g74
(dp2394
g82
I5
ssg83
g2388
sg76
(lp2395
g69
(g78
g71
NtRp2396
(dp2397
g74
(dp2398
g82
I4
ssg83
Nsg76
(lp2399
sbasbasbasbag69
(g85
g71
NtRp2400
(dp2401
g74
(dp2402
sg83
g79
sg76
(lp2403
g69
(g90
g71
NtRp2404
(dp2405
g74
(dp2406
g94
g95
ssg83
g2400
sg76
(lp2407
S'wsgi'
p2408
asbag69
(g90
g71
NtRp2409
(dp2410
g74
(dp2411
g101
g102
ssg83
g2400
sg76
(lp2412
S':'
asbag69
(g90
g71
NtRp2413
(dp2414
g74
(dp2415
sg83
g2400
sg76
(lp2416
g69
(g70
g71
NtRp2417
(dp2418
g74
(dp2419
g82
I5
ssg83
g2413
sg76
(lp2420
g69
(g78
g71
NtRp2421
(dp2422
g74
(dp2423
g82
I4
ssg83
Nsg76
(lp2424
g69
(g85
g71
NtRp2425
(dp2426
g74
(dp2427
sg83
g2421
sg76
(lp2428
g69
(g90
g71
NtRp2429
(dp2430
g74
(dp2431
g94
g95
ssg83
g2425
sg76
(lp2432
S'environ'
p2433
asbag69
(g90
g71
NtRp2434
(dp2435
g74
(dp2436
g101
g102
ssg83
g2425
sg76
(lp2437
S':'
asbag69
(g90
g71
NtRp2438
(dp2439
g74
(dp2440
sg83
g2425
sg76
(lp2441
g69
(g70
g71
NtRp2442
(dp2443
g74
(dp2444
g82
I4
ssg83
g2438
sg76
(lp2445
g69
(g78
g71
NtRp2446
(dp2447
g74
(dp2448
g82
I3
ssg83
Nsg76
(lp2449
g69
(g85
g71
NtRp2450
(dp2451
g74
(dp2452
sg83
g2446
sg76
(lp2453
g69
(g90
g71
NtRp2454
(dp2455
g74
(dp2456
g94
g95
ssg83
g2450
sg76
(lp2457
S'HTTP_ACCEPT'
p2458
asbag69
(g90
g71
NtRp2459
(dp2460
g74
(dp2461
g101
g102
ssg83
g2450
sg76
(lp2462
S':'
asbag69
(g90
g71
NtRp2463
(dp2464
g74
(dp2465
sg83
g2450
sg76
(lp2466
g69
(g70
g71
NtRp2467
(dp2468
g74
(dp2469
g82
I3
ssg83
g2463
sg76
(lp2470
g854
asbasbasbag69
(g85
g71
NtRp2471
(dp2472
g74
(dp2473
sg83
g2446
sg76
(lp2474
g69
(g90
g71
NtRp2475
(dp2476
g74
(dp2477
g94
g95
ssg83
g2471
sg76
(lp2478
S'HTTP_ACCEPT_CHARSET'
p2479
asbag69
(g90
g71
NtRp2480
(dp2481
g74
(dp2482
g101
g102
ssg83
g2471
sg76
(lp2483
S':'
asbag69
(g90
g71
NtRp2484
(dp2485
g74
(dp2486
sg83
g2471
sg76
(lp2487
g69
(g70
g71
NtRp2488
(dp2489
g74
(dp2490
g82
I3
ssg83
g2484
sg76
(lp2491
g876
asbasbasbag69
(g85
g71
NtRp2492
(dp2493
g74
(dp2494
sg83
g2446
sg76
(lp2495
g69
(g90
g71
NtRp2496
(dp2497
g74
(dp2498
g94
g95
ssg83
g2492
sg76
(lp2499
S'HTTP_ACCEPT_ENCODING'
p2500
asbag69
(g90
g71
NtRp2501
(dp2502
g74
(dp2503
g101
g102
ssg83
g2492
sg76
(lp2504
S':'
asbag69
(g90
g71
NtRp2505
(dp2506
g74
(dp2507
sg83
g2492
sg76
(lp2508
g69
(g70
g71
NtRp2509
(dp2510
g74
(dp2511
g82
I3
ssg83
g2505
sg76
(lp2512
g898
asbasbasbag69
(g85
g71
NtRp2513
(dp2514
g74
(dp2515
sg83
g2446
sg76
(lp2516
g69
(g90
g71
NtRp2517
(dp2518
g74
(dp2519
g94
g95
ssg83
g2513
sg76
(lp2520
S'HTTP_ACCEPT_LANGUAGE'
p2521
asbag69
(g90
g71
NtRp2522
(dp2523
g74
(dp2524
g101
g102
ssg83
g2513
sg76
(lp2525
S':'
asbag69
(g90
g71
NtRp2526
(dp2527
g74
(dp2528
sg83
g2513
sg76
(lp2529
g69
(g70
g71
NtRp2530
(dp2531
g74
(dp2532
g82
I3
ssg83
g2526
sg76
(lp2533
g920
asbasbasbag69
(g85
g71
NtRp2534
(dp2535
g74
(dp2536
sg83
g2446
sg76
(lp2537
g69
(g90
g71
NtRp2538
(dp2539
g74
(dp2540
g94
g95
ssg83
g2534
sg76
(lp2541
S'HTTP_CACHE_CONTROL'
p2542
asbag69
(g90
g71
NtRp2543
(dp2544
g74
(dp2545
g101
g102
ssg83
g2534
sg76
(lp2546
S':'
asbag69
(g90
g71
NtRp2547
(dp2548
g74
(dp2549
sg83
g2534
sg76
(lp2550
g69
(g70
g71
NtRp2551
(dp2552
g74
(dp2553
g82
I3
ssg83
g2547
sg76
(lp2554
g942
asbasbasbag69
(g85
g71
NtRp2555
(dp2556
g74
(dp2557
sg83
g2446
sg76
(lp2558
g69
(g90
g71
NtRp2559
(dp2560
g74
(dp2561
g94
g95
ssg83
g2555
sg76
(lp2562
S'HTTP_CONNECTION'
p2563
asbag69
(g90
g71
NtRp2564
(dp2565
g74
(dp2566
g101
g102
ssg83
g2555
sg76
(lp2567
S':'
asbag69
(g90
g71
NtRp2568
(dp2569
g74
(dp2570
sg83
g2555
sg76
(lp2571
g69
(g70
g71
NtRp2572
(dp2573
g74
(dp2574
g82
I3
ssg83
g2568
sg76
(lp2575
g964
asbasbasbag69
(g85
g71
NtRp2576
(dp2577
g74
(dp2578
sg83
g2446
sg76
(lp2579
g69
(g90
g71
NtRp2580
(dp2581
g74
(dp2582
g94
g95
ssg83
g2576
sg76
(lp2583
S'HTTP_COOKIE'
p2584
asbag69
(g90
g71
NtRp2585
(dp2586
g74
(dp2587
g101
g102
ssg83
g2576
sg76
(lp2588
S':'
asbag69
(g90
g71
NtRp2589
(dp2590
g74
(dp2591
sg83
g2576
sg76
(lp2592
g69
(g70
g71
NtRp2593
(dp2594
g74
(dp2595
g82
I3
ssg83
g2589
sg76
(lp2596
g986
asbasbasbag69
(g85
g71
NtRp2597
(dp2598
g74
(dp2599
sg83
g2446
sg76
(lp2600
g69
(g90
g71
NtRp2601
(dp2602
g74
(dp2603
g94
g95
ssg83
g2597
sg76
(lp2604
S'HTTP_HOST'
p2605
asbag69
(g90
g71
NtRp2606
(dp2607
g74
(dp2608
g101
g102
ssg83
g2597
sg76
(lp2609
S':'
asbag69
(g90
g71
NtRp2610
(dp2611
g74
(dp2612
sg83
g2597
sg76
(lp2613
g69
(g70
g71
NtRp2614
(dp2615
g74
(dp2616
g82
I3
ssg83
g2610
sg76
(lp2617
g1008
asbasbasbag69
(g85
g71
NtRp2618
(dp2619
g74
(dp2620
sg83
g2446
sg76
(lp2621
g69
(g90
g71
NtRp2622
(dp2623
g74
(dp2624
g94
g95
ssg83
g2618
sg76
(lp2625
S'HTTP_REFERER'
p2626
asbag69
(g90
g71
NtRp2627
(dp2628
g74
(dp2629
g101
g102
ssg83
g2618
sg76
(lp2630
S':'
asbag69
(g90
g71
NtRp2631
(dp2632
g74
(dp2633
sg83
g2618
sg76
(lp2634
g69
(g70
g71
NtRp2635
(dp2636
g74
(dp2637
g82
I3
ssg83
g2631
sg76
(lp2638
g1030
asbasbasbag69
(g85
g71
NtRp2639
(dp2640
g74
(dp2641
sg83
g2446
sg76
(lp2642
g69
(g90
g71
NtRp2643
(dp2644
g74
(dp2645
g94
g95
ssg83
g2639
sg76
(lp2646
S'HTTP_USER_AGENT'
p2647
asbag69
(g90
g71
NtRp2648
(dp2649
g74
(dp2650
g101
g102
ssg83
g2639
sg76
(lp2651
S':'
asbag69
(g90
g71
NtRp2652
(dp2653
g74
(dp2654
sg83
g2639
sg76
(lp2655
g69
(g70
g71
NtRp2656
(dp2657
g74
(dp2658
g82
I3
ssg83
g2652
sg76
(lp2659
g1052
asbasbasbag69
(g85
g71
NtRp2660
(dp2661
g74
(dp2662
sg83
g2446
sg76
(lp2663
g69
(g90
g71
NtRp2664
(dp2665
g74
(dp2666
g94
g95
ssg83
g2660
sg76
(lp2667
S'PATH_INFO'
p2668
asbag69
(g90
g71
NtRp2669
(dp2670
g74
(dp2671
g101
g102
ssg83
g2660
sg76
(lp2672
S':'
asbag69
(g90
g71
NtRp2673
(dp2674
g74
(dp2675
sg83
g2660
sg76
(lp2676
g69
(g70
g71
NtRp2677
(dp2678
g74
(dp2679
g82
I3
ssg83
g2673
sg76
(lp2680
S'/'
asbasbasbag69
(g85
g71
NtRp2681
(dp2682
g74
(dp2683
sg83
g2446
sg76
(lp2684
g69
(g90
g71
NtRp2685
(dp2686
g74
(dp2687
g94
g95
ssg83
g2681
sg76
(lp2688
S'QUERY_STRING'
p2689
asbag69
(g90
g71
NtRp2690
(dp2691
g74
(dp2692
g101
g102
ssg83
g2681
sg76
(lp2693
S':'
asbag69
(g90
g71
NtRp2694
(dp2695
g74
(dp2696
sg83
g2681
sg76
(lp2697
g69
(g70
g71
NtRp2698
(dp2699
g74
(dp2700
g82
I3
ssg83
g2694
sg76
(lp2701
S''
asbasbasbag69
(g85
g71
NtRp2702
(dp2703
g74
(dp2704
sg83
g2446
sg76
(lp2705
g69
(g90
g71
NtRp2706
(dp2707
g74
(dp2708
g94
g95
ssg83
g2702
sg76
(lp2709
S'REMOTE_ADDR'
p2710
asbag69
(g90
g71
NtRp2711
(dp2712
g74
(dp2713
g101
g102
ssg83
g2702
sg76
(lp2714
S':'
asbag69
(g90
g71
NtRp2715
(dp2716
g74
(dp2717
sg83
g2702
sg76
(lp2718
g69
(g70
g71
NtRp2719
(dp2720
g74
(dp2721
g82
I3
ssg83
g2715
sg76
(lp2722
g224
asbasbasbag69
(g85
g71
NtRp2723
(dp2724
g74
(dp2725
sg83
g2446
sg76
(lp2726
g69
(g90
g71
NtRp2727
(dp2728
g74
(dp2729
g94
g95
ssg83
g2723
sg76
(lp2730
S'REMOTE_PORT'
p2731
asbag69
(g90
g71
NtRp2732
(dp2733
g74
(dp2734
g101
g102
ssg83
g2723
sg76
(lp2735
S':'
asbag69
(g90
g71
NtRp2736
(dp2737
g74
(dp2738
sg83
g2723
sg76
(lp2739
g69
(g70
g71
NtRp2740
(dp2741
g74
(dp2742
g82
I3
ssg83
g2736
sg76
(lp2743
g1256
asbasbasbag69
(g85
g71
NtRp2744
(dp2745
g74
(dp2746
sg83
g2446
sg76
(lp2747
g69
(g90
g71
NtRp2748
(dp2749
g74
(dp2750
g94
g95
ssg83
g2744
sg76
(lp2751
S'REQUEST_METHOD'
p2752
asbag69
(g90
g71
NtRp2753
(dp2754
g74
(dp2755
g101
g102
ssg83
g2744
sg76
(lp2756
S':'
asbag69
(g90
g71
NtRp2757
(dp2758
g74
(dp2759
sg83
g2744
sg76
(lp2760
g69
(g70
g71
NtRp2761
(dp2762
g74
(dp2763
g82
I3
ssg83
g2757
sg76
(lp2764
g1278
asbasbasbag69
(g85
g71
NtRp2765
(dp2766
g74
(dp2767
sg83
g2446
sg76
(lp2768
g69
(g90
g71
NtRp2769
(dp2770
g74
(dp2771
g94
g95
ssg83
g2765
sg76
(lp2772
S'REQUEST_URI'
p2773
asbag69
(g90
g71
NtRp2774
(dp2775
g74
(dp2776
g101
g102
ssg83
g2765
sg76
(lp2777
S':'
asbag69
(g90
g71
NtRp2778
(dp2779
g74
(dp2780
sg83
g2765
sg76
(lp2781
g69
(g70
g71
NtRp2782
(dp2783
g74
(dp2784
g82
I3
ssg83
g2778
sg76
(lp2785
g1300
asbasbasbag69
(g85
g71
NtRp2786
(dp2787
g74
(dp2788
sg83
g2446
sg76
(lp2789
g69
(g90
g71
NtRp2790
(dp2791
g74
(dp2792
g94
g95
ssg83
g2786
sg76
(lp2793
S'SCRIPT_NAME'
p2794
asbag69
(g90
g71
NtRp2795
(dp2796
g74
(dp2797
g101
g102
ssg83
g2786
sg76
(lp2798
S':'
asbag69
(g90
g71
NtRp2799
(dp2800
g74
(dp2801
sg83
g2786
sg76
(lp2802
g69
(g70
g71
NtRp2803
(dp2804
g74
(dp2805
g82
I3
ssg83
g2799
sg76
(lp2806
S''
asbasbasbag69
(g85
g71
NtRp2807
(dp2808
g74
(dp2809
sg83
g2446
sg76
(lp2810
g69
(g90
g71
NtRp2811
(dp2812
g74
(dp2813
g94
g95
ssg83
g2807
sg76
(lp2814
S'SERVER_NAME'
p2815
asbag69
(g90
g71
NtRp2816
(dp2817
g74
(dp2818
g101
g102
ssg83
g2807
sg76
(lp2819
S':'
asbag69
(g90
g71
NtRp2820
(dp2821
g74
(dp2822
sg83
g2807
sg76
(lp2823
g69
(g70
g71
NtRp2824
(dp2825
g74
(dp2826
g82
I3
ssg83
g2820
sg76
(lp2827
g1343
asbasbasbag69
(g85
g71
NtRp2828
(dp2829
g74
(dp2830
sg83
g2446
sg76
(lp2831
g69
(g90
g71
NtRp2832
(dp2833
g74
(dp2834
g94
g95
ssg83
g2828
sg76
(lp2835
S'SERVER_PORT'
p2836
asbag69
(g90
g71
NtRp2837
(dp2838
g74
(dp2839
g101
g102
ssg83
g2828
sg76
(lp2840
S':'
asbag69
(g90
g71
NtRp2841
(dp2842
g74
(dp2843
sg83
g2828
sg76
(lp2844
g69
(g70
g71
NtRp2845
(dp2846
g74
(dp2847
g82
I3
ssg83
g2841
sg76
(lp2848
g1365
asbasbasbag69
(g85
g71
NtRp2849
(dp2850
g74
(dp2851
sg83
g2446
sg76
(lp2852
g69
(g90
g71
NtRp2853
(dp2854
g74
(dp2855
g94
g95
ssg83
g2849
sg76
(lp2856
S'SERVER_PROTOCOL'
p2857
asbag69
(g90
g71
NtRp2858
(dp2859
g74
(dp2860
g101
g102
ssg83
g2849
sg76
(lp2861
S':'
asbag69
(g90
g71
NtRp2862
(dp2863
g74
(dp2864
sg83
g2849
sg76
(lp2865
g69
(g70
g71
NtRp2866
(dp2867
g74
(dp2868
g82
I3
ssg83
g2862
sg76
(lp2869
g1387
asbasbasbag69
(g85
g71
NtRp2870
(dp2871
g74
(dp2872
sg83
g2446
sg76
(lp2873
g69
(g90
g71
NtRp2874
(dp2875
g74
(dp2876
g94
g95
ssg83
g2870
sg76
(lp2877
S'SERVER_SOFTWARE'
p2878
asbag69
(g90
g71
NtRp2879
(dp2880
g74
(dp2881
g101
g102
ssg83
g2870
sg76
(lp2882
S':'
asbag69
(g90
g71
NtRp2883
(dp2884
g74
(dp2885
sg83
g2870
sg76
(lp2886
g69
(g70
g71
NtRp2887
(dp2888
g74
(dp2889
g82
I3
ssg83
g2883
sg76
(lp2890
g1409
asbasbasbag69
(g85
g71
NtRp2891
(dp2892
g74
(dp2893
sg83
g2446
sg76
(lp2894
g69
(g90
g71
NtRp2895
(dp2896
g74
(dp2897
g94
g95
ssg83
g2891
sg76
(lp2898
S'WEB2PY_ORIGINAL_URI'
p2899
asbag69
(g90
g71
NtRp2900
(dp2901
g74
(dp2902
g101
g102
ssg83
g2891
sg76
(lp2903
S':'
asbag69
(g90
g71
NtRp2904
(dp2905
g74
(dp2906
sg83
g2891
sg76
(lp2907
g69
(g70
g71
NtRp2908
(dp2909
g74
(dp2910
g82
I3
ssg83
g2904
sg76
(lp2911
S'/'
asbasbasbag69
(g85
g71
NtRp2912
(dp2913
g74
(dp2914
sg83
g2446
sg76
(lp2915
g69
(g90
g71
NtRp2916
(dp2917
g74
(dp2918
g94
g95
ssg83
g2912
sg76
(lp2919
S'wsgi.errors'
p2920
asbag69
(g90
g71
NtRp2921
(dp2922
g74
(dp2923
g101
g102
ssg83
g2912
sg76
(lp2924
S':'
asbag69
(g90
g71
NtRp2925
(dp2926
g74
(dp2927
sg83
g2912
sg76
(lp2928
g69
(g70
g71
NtRp2929
(dp2930
g74
(dp2931
g82
I3
ssg83
g2925
sg76
(lp2932
S"<open file '<stderr>', mode 'w' at 0x7fdffc865270>"
p2933
asbasbasbag69
(g85
g71
NtRp2934
(dp2935
g74
(dp2936
sg83
g2446
sg76
(lp2937
g69
(g90
g71
NtRp2938
(dp2939
g74
(dp2940
g94
g95
ssg83
g2934
sg76
(lp2941
S'wsgi.file_wrapper'
p2942
asbag69
(g90
g71
NtRp2943
(dp2944
g74
(dp2945
g101
g102
ssg83
g2934
sg76
(lp2946
S':'
asbag69
(g90
g71
NtRp2947
(dp2948
g74
(dp2949
sg83
g2934
sg76
(lp2950
g69
(g70
g71
NtRp2951
(dp2952
g74
(dp2953
g82
I3
ssg83
g2947
sg76
(lp2954
S'<class wsgiref.util.FileWrapper at 0x324c4c8>'
p2955
asbasbasbag69
(g85
g71
NtRp2956
(dp2957
g74
(dp2958
sg83
g2446
sg76
(lp2959
g69
(g90
g71
NtRp2960
(dp2961
g74
(dp2962
g94
g95
ssg83
g2956
sg76
(lp2963
S'wsgi.input'
p2964
asbag69
(g90
g71
NtRp2965
(dp2966
g74
(dp2967
g101
g102
ssg83
g2956
sg76
(lp2968
S':'
asbag69
(g90
g71
NtRp2969
(dp2970
g74
(dp2971
sg83
g2956
sg76
(lp2972
g69
(g70
g71
NtRp2973
(dp2974
g74
(dp2975
g82
I3
ssg83
g2969
sg76
(lp2976
S'<cStringIO.StringO object at 0x7fdfe03fb730>'
p2977
asbasbasbag69
(g85
g71
NtRp2978
(dp2979
g74
(dp2980
sg83
g2446
sg76
(lp2981
g69
(g90
g71
NtRp2982
(dp2983
g74
(dp2984
g94
g95
ssg83
g2978
sg76
(lp2985
S'wsgi.multiprocess'
p2986
asbag69
(g90
g71
NtRp2987
(dp2988
g74
(dp2989
g101
g102
ssg83
g2978
sg76
(lp2990
S':'
asbag69
(g90
g71
NtRp2991
(dp2992
g74
(dp2993
sg83
g2978
sg76
(lp2994
g69
(g70
g71
NtRp2995
(dp2996
g74
(dp2997
g82
I3
ssg83
g2991
sg76
(lp2998
g112
asbasbasbag69
(g85
g71
NtRp2999
(dp3000
g74
(dp3001
sg83
g2446
sg76
(lp3002
g69
(g90
g71
NtRp3003
(dp3004
g74
(dp3005
g94
g95
ssg83
g2999
sg76
(lp3006
S'wsgi.multithread'
p3007
asbag69
(g90
g71
NtRp3008
(dp3009
g74
(dp3010
g101
g102
ssg83
g2999
sg76
(lp3011
S':'
asbag69
(g90
g71
NtRp3012
(dp3013
g74
(dp3014
sg83
g2999
sg76
(lp3015
g69
(g70
g71
NtRp3016
(dp3017
g74
(dp3018
g82
I3
ssg83
g3012
sg76
(lp3019
g1647
asbasbasbag69
(g85
g71
NtRp3020
(dp3021
g74
(dp3022
sg83
g2446
sg76
(lp3023
g69
(g90
g71
NtRp3024
(dp3025
g74
(dp3026
g94
g95
ssg83
g3020
sg76
(lp3027
S'wsgi.run_once'
p3028
asbag69
(g90
g71
NtRp3029
(dp3030
g74
(dp3031
g101
g102
ssg83
g3020
sg76
(lp3032
S':'
asbag69
(g90
g71
NtRp3033
(dp3034
g74
(dp3035
sg83
g3020
sg76
(lp3036
g69
(g70
g71
NtRp3037
(dp3038
g74
(dp3039
g82
I3
ssg83
g3033
sg76
(lp3040
g112
asbasbasbag69
(g85
g71
NtRp3041
(dp3042
g74
(dp3043
sg83
g2446
sg76
(lp3044
g69
(g90
g71
NtRp3045
(dp3046
g74
(dp3047
g94
g95
ssg83
g3041
sg76
(lp3048
S'wsgi.url_scheme'
p3049
asbag69
(g90
g71
NtRp3050
(dp3051
g74
(dp3052
g101
g102
ssg83
g3041
sg76
(lp3053
S':'
asbag69
(g90
g71
NtRp3054
(dp3055
g74
(dp3056
sg83
g3041
sg76
(lp3057
g69
(g70
g71
NtRp3058
(dp3059
g74
(dp3060
g82
I3
ssg83
g3054
sg76
(lp3061
g1690
asbasbasbag69
(g85
g71
NtRp3062
(dp3063
g74
(dp3064
sg83
g2446
sg76
(lp3065
g69
(g90
g71
NtRp3066
(dp3067
g74
(dp3068
g94
g95
ssg83
g3062
sg76
(lp3069
S'wsgi.version'
p3070
asbag69
(g90
g71
NtRp3071
(dp3072
g74
(dp3073
g101
g102
ssg83
g3062
sg76
(lp3074
S':'
asbag69
(g90
g71
NtRp3075
(dp3076
g74
(dp3077
sg83
g3062
sg76
(lp3078
g69
(g70
g71
NtRp3079
(dp3080
g74
(dp3081
g82
I3
ssg83
g3075
sg76
(lp3082
S'1'
asbasbasbasbasbasbasbasbasbasbasbasbasbsS'frames'
p3083
(lp3084
(dp3085
S'file'
p3086
S'/var/www/gravacao/gluon/restricted.py'
p3087
sS'dump'
p3088
(dp3089
S'code'
p3090
S'r"response.write(\'<!DOCTYPE html>\\n<!-- paulirish....></script>-->\\n</body>\\n</html>\\n\', escape=False)"'
p3091
sS'layer'
p3092
S"'/var/www/gravacao/applications/projeto/views/initial/show_form2.html'"
p3093
sS'global compile2'
p3094
S'<function compile2>'
p3095
sS'ccode'
p3096
S'undefined'
p3097
ssS'lnum'
p3098
I211
sS'lines'
p3099
(dp3100
I206
S"    environment['__name__'] = '__restricted__'"
p3101
sI207
S'    try:'
p3102
sI208
S'        if isinstance(code, types.CodeType):'
p3103
sI209
S'            ccode = code'
p3104
sI210
S'        else:'
p3105
sI211
S'            ccode = compile2(code, layer)'
p3106
sI212
S'        exec ccode in environment'
p3107
sI213
S'    except HTTP:'
p3108
sI214
S'        raise'
p3109
sI215
S'    except RestrictedError:'
p3110
ssS'call'
p3111
S'(code=r"response.write(\'<!DOCTYPE html>\\n<!-- paulirish....></script>-->\\n</body>\\n</html>\\n\', escape=False)", environment={\'A\': <class \'gluon.html.A\'>, \'Auth\': <class \'gluon.tools.Auth\'>, \'B\': <class \'gluon.html.B\'>, \'BEAUTIFY\': <class \'gluon.html.BEAUTIFY\'>, \'BODY\': <class \'gluon.html.BODY\'>, \'BR\': <class \'gluon.html.BR\'>, \'BUTTON\': <class \'gluon.html.BUTTON\'>, \'CAT\': <class \'gluon.html.CAT\'>, \'CENTER\': <class \'gluon.html.CENTER\'>, \'CLEANUP\': <class \'gluon.validators.CLEANUP\'>, ...}, layer=\'/var/www/gravacao/applications/projeto/views/initial/show_form2.html\')'
p3112
sS'func'
p3113
S'restricted'
p3114
sa(dp3115
g3086
S'/var/www/gravacao/gluon/restricted.py'
p3116
sg3088
(dp3117
S'builtincompile'
p3118
S'<built-in function compile>'
p3119
sS'code'
p3120
S'r"response.write(\'<!DOCTYPE html>\\n<!-- paulirish....></script>-->\\n</body>\\n</html>\\n\', escape=False)"'
p3121
sS'code.rstrip'
p3122
S'<built-in method rstrip of str object>'
p3123
sS').replace'
p3124
g3097
sS'layer'
p3125
S"'/var/www/gravacao/applications/projeto/views/initial/show_form2.html'"
p3126
ssg3098
I194
sg3099
(dp3127
I192
S"    The +'\\n' is necessary else compile fails when code ends in a comment."
p3128
sI193
S'    """'
p3129
sI194
S"    return compile(code.rstrip().replace('\\r\\n', '\\n') + '\\n', layer, 'exec')"
p3130
sI195
S''
sI196
S''
sI197
S"def restricted(code, environment=None, layer='Unknown'):"
p3131
sI198
S'    """'
p3132
sI189
S''
sI190
S'def compile2(code, layer):'
p3133
sI191
S'    """'
p3134
ssg3111
S'(code=r"response.write(\'<!DOCTYPE html>\\n<!-- paulirish....></script>-->\\n</body>\\n</html>\\n\', escape=False)", layer=\'/var/www/gravacao/applications/projeto/views/initial/show_form2.html\')'
p3135
sg3113
S'compile2'
p3136
sasS'pyver'
p3137
S'Python 2.7.3: /usr/bin/python'
p3138
sS'session'
p3139
g69
(g70
g71
NtRp3140
(dp3141
g74
(dp3142
sg76
(lp3143
g69
(g78
g71
NtRp3144
(dp3145
g74
(dp3146
g82
I5
ssg83
Nsg76
(lp3147
g69
(g85
g71
NtRp3148
(dp3149
g74
(dp3150
sg83
g3144
sg76
(lp3151
g69
(g90
g71
NtRp3152
(dp3153
g74
(dp3154
g94
g95
ssg83
g3148
sg76
(lp3155
S'aut'
p3156
asbag69
(g90
g71
NtRp3157
(dp3158
g74
(dp3159
g101
g102
ssg83
g3148
sg76
(lp3160
S':'
asbag69
(g90
g71
NtRp3161
(dp3162
g74
(dp3163
sg83
g3148
sg76
(lp3164
g69
(g70
g71
NtRp3165
(dp3166
g74
(dp3167
g82
I5
ssg83
g3161
sg76
(lp3168
S'0'
asbasbasbag69
(g85
g71
NtRp3169
(dp3170
g74
(dp3171
sg83
g3144
sg76
(lp3172
g69
(g90
g71
NtRp3173
(dp3174
g74
(dp3175
g94
g95
ssg83
g3169
sg76
(lp3176
S'flash'
p3177
asbag69
(g90
g71
NtRp3178
(dp3179
g74
(dp3180
g101
g102
ssg83
g3169
sg76
(lp3181
S':'
asbag69
(g90
g71
NtRp3182
(dp3183
g74
(dp3184
sg83
g3169
sg76
(lp3185
g69
(g70
g71
NtRp3186
(dp3187
g74
(dp3188
g82
I5
ssg83
g3182
sg76
(lp3189
S'None'
p3190
asbasbasbag69
(g85
g71
NtRp3191
(dp3192
g74
(dp3193
sg83
g3144
sg76
(lp3194
g69
(g90
g71
NtRp3195
(dp3196
g74
(dp3197
g94
g95
ssg83
g3191
sg76
(lp3198
S'ramal'
p3199
asbag69
(g90
g71
NtRp3200
(dp3201
g74
(dp3202
g101
g102
ssg83
g3191
sg76
(lp3203
S':'
asbag69
(g90
g71
NtRp3204
(dp3205
g74
(dp3206
sg83
g3191
sg76
(lp3207
g69
(g70
g71
NtRp3208
(dp3209
g74
(dp3210
g82
I5
ssg83
g3204
sg76
(lp3211
S'0'
asbasbasbag69
(g85
g71
NtRp3212
(dp3213
g74
(dp3214
sg83
g3144
sg76
(lp3215
g69
(g90
g71
NtRp3216
(dp3217
g74
(dp3218
g94
g95
ssg83
g3212
sg76
(lp3219
S'ramal_fis'
p3220
asbag69
(g90
g71
NtRp3221
(dp3222
g74
(dp3223
g101
g102
ssg83
g3212
sg76
(lp3224
S':'
asbag69
(g90
g71
NtRp3225
(dp3226
g74
(dp3227
sg83
g3212
sg76
(lp3228
g69
(g70
g71
NtRp3229
(dp3230
g74
(dp3231
g82
I5
ssg83
g3225
sg76
(lp3232
S'0'
asbasbasbag69
(g85
g71
NtRp3233
(dp3234
g74
(dp3235
sg83
g3144
sg76
(lp3236
g69
(g90
g71
NtRp3237
(dp3238
g74
(dp3239
g94
g95
ssg83
g3233
sg76
(lp3240
S'tecnologia'
p3241
asbag69
(g90
g71
NtRp3242
(dp3243
g74
(dp3244
g101
g102
ssg83
g3233
sg76
(lp3245
S':'
asbag69
(g90
g71
NtRp3246
(dp3247
g74
(dp3248
sg83
g3233
sg76
(lp3249
g69
(g70
g71
NtRp3250
(dp3251
g74
(dp3252
g82
I5
ssg83
g3246
sg76
(lp3253
S'0'
asbasbasbasbasbsS'etype'
p3254
S"<type 'exceptions.SyntaxError'>"
p3255
sS'date'
p3256
S'Wed May 15 10:27:41 2013'
p3257
sS'response'
p3258
g69
(g70
g71
NtRp3259
(dp3260
g74
(dp3261
sg76
(lp3262
g69
(g78
g71
NtRp3263
(dp3264
g74
(dp3265
g82
I5
ssg83
Nsg76
(lp3266
g69
(g85
g71
NtRp3267
(dp3268
g74
(dp3269
sg83
g3263
sg76
(lp3270
g69
(g90
g71
NtRp3271
(dp3272
g74
(dp3273
g94
g95
ssg83
g3267
sg76
(lp3274
g167
asbag69
(g90
g71
NtRp3275
(dp3276
g74
(dp3277
g101
g102
ssg83
g3267
sg76
(lp3278
S':'
asbag69
(g90
g71
NtRp3279
(dp3280
g74
(dp3281
sg83
g3267
sg76
(lp3282
g69
(g70
g71
NtRp3283
(dp3284
g74
(dp3285
g82
I5
ssg83
g3279
sg76
(lp3286
S'<cStringIO.StringO object at 0x7fdfe041fb20>'
p3287
asbasbasbag69
(g85
g71
NtRp3288
(dp3289
g74
(dp3290
sg83
g3263
sg76
(lp3291
g69
(g90
g71
NtRp3292
(dp3293
g74
(dp3294
g94
g95
ssg83
g3288
sg76
(lp3295
g255
asbag69
(g90
g71
NtRp3296
(dp3297
g74
(dp3298
g101
g102
ssg83
g3288
sg76
(lp3299
S':'
asbag69
(g90
g71
NtRp3300
(dp3301
g74
(dp3302
sg83
g3288
sg76
(lp3303
g69
(g70
g71
NtRp3304
(dp3305
g74
(dp3306
g82
I5
ssg83
g3300
sg76
(lp3307
g69
(g78
g71
NtRp3308
(dp3309
g74
(dp3310
g82
I4
ssg83
Nsg76
(lp3311
g69
(g85
g71
NtRp3312
(dp3313
g74
(dp3314
sg83
g3308
sg76
(lp3315
g69
(g90
g71
NtRp3316
(dp3317
g74
(dp3318
g94
g95
ssg83
g3312
sg76
(lp3319
S'session_id_projeto'
p3320
asbag69
(g90
g71
NtRp3321
(dp3322
g74
(dp3323
g101
g102
ssg83
g3312
sg76
(lp3324
S':'
asbag69
(g90
g71
NtRp3325
(dp3326
g74
(dp3327
sg83
g3312
sg76
(lp3328
g69
(g70
g71
NtRp3329
(dp3330
g74
(dp3331
g82
I4
ssg83
g3325
sg76
(lp3332
g487
ag69
(g78
g71
NtRp3333
(dp3334
g74
(dp3335
g82
I3
ssg83
Nsg76
(lp3336
g69
(g85
g71
NtRp3337
(dp3338
g74
(dp3339
sg83
g3333
sg76
(lp3340
g69
(g90
g71
NtRp3341
(dp3342
g74
(dp3343
g94
g95
ssg83
g3337
sg76
(lp3344
g306
asbag69
(g90
g71
NtRp3345
(dp3346
g74
(dp3347
g101
g102
ssg83
g3337
sg76
(lp3348
S':'
asbag69
(g90
g71
NtRp3349
(dp3350
g74
(dp3351
sg83
g3337
sg76
(lp3352
g69
(g70
g71
NtRp3353
(dp3354
g74
(dp3355
g82
I3
ssg83
g3349
sg76
(lp3356
S''
asbasbasbag69
(g85
g71
NtRp3357
(dp3358
g74
(dp3359
sg83
g3333
sg76
(lp3360
g69
(g90
g71
NtRp3361
(dp3362
g74
(dp3363
g94
g95
ssg83
g3357
sg76
(lp3364
g327
asbag69
(g90
g71
NtRp3365
(dp3366
g74
(dp3367
g101
g102
ssg83
g3357
sg76
(lp3368
S':'
asbag69
(g90
g71
NtRp3369
(dp3370
g74
(dp3371
sg83
g3357
sg76
(lp3372
g69
(g70
g71
NtRp3373
(dp3374
g74
(dp3375
g82
I3
ssg83
g3369
sg76
(lp3376
S''
asbasbasbag69
(g85
g71
NtRp3377
(dp3378
g74
(dp3379
sg83
g3333
sg76
(lp3380
g69
(g90
g71
NtRp3381
(dp3382
g74
(dp3383
g94
g95
ssg83
g3377
sg76
(lp3384
g348
asbag69
(g90
g71
NtRp3385
(dp3386
g74
(dp3387
g101
g102
ssg83
g3377
sg76
(lp3388
S':'
asbag69
(g90
g71
NtRp3389
(dp3390
g74
(dp3391
sg83
g3377
sg76
(lp3392
g69
(g70
g71
NtRp3393
(dp3394
g74
(dp3395
g82
I3
ssg83
g3389
sg76
(lp3396
S''
asbasbasbag69
(g85
g71
NtRp3397
(dp3398
g74
(dp3399
sg83
g3333
sg76
(lp3400
g69
(g90
g71
NtRp3401
(dp3402
g74
(dp3403
g94
g95
ssg83
g3397
sg76
(lp3404
g369
asbag69
(g90
g71
NtRp3405
(dp3406
g74
(dp3407
g101
g102
ssg83
g3397
sg76
(lp3408
S':'
asbag69
(g90
g71
NtRp3409
(dp3410
g74
(dp3411
sg83
g3397
sg76
(lp3412
g69
(g70
g71
NtRp3413
(dp3414
g74
(dp3415
g82
I3
ssg83
g3409
sg76
(lp3416
S''
asbasbasbag69
(g85
g71
NtRp3417
(dp3418
g74
(dp3419
sg83
g3333
sg76
(lp3420
g69
(g90
g71
NtRp3421
(dp3422
g74
(dp3423
g94
g95
ssg83
g3417
sg76
(lp3424
g390
asbag69
(g90
g71
NtRp3425
(dp3426
g74
(dp3427
g101
g102
ssg83
g3417
sg76
(lp3428
S':'
asbag69
(g90
g71
NtRp3429
(dp3430
g74
(dp3431
sg83
g3417
sg76
(lp3432
g69
(g70
g71
NtRp3433
(dp3434
g74
(dp3435
g82
I3
ssg83
g3429
sg76
(lp3436
S''
asbasbasbag69
(g85
g71
NtRp3437
(dp3438
g74
(dp3439
sg83
g3333
sg76
(lp3440
g69
(g90
g71
NtRp3441
(dp3442
g74
(dp3443
g94
g95
ssg83
g3437
sg76
(lp3444
g411
asbag69
(g90
g71
NtRp3445
(dp3446
g74
(dp3447
g101
g102
ssg83
g3437
sg76
(lp3448
S':'
asbag69
(g90
g71
NtRp3449
(dp3450
g74
(dp3451
sg83
g3437
sg76
(lp3452
g69
(g70
g71
NtRp3453
(dp3454
g74
(dp3455
g82
I3
ssg83
g3449
sg76
(lp3456
S'/'
asbasbasbag69
(g85
g71
NtRp3457
(dp3458
g74
(dp3459
sg83
g3333
sg76
(lp3460
g69
(g90
g71
NtRp3461
(dp3462
g74
(dp3463
g94
g95
ssg83
g3457
sg76
(lp3464
g432
asbag69
(g90
g71
NtRp3465
(dp3466
g74
(dp3467
g101
g102
ssg83
g3457
sg76
(lp3468
S':'
asbag69
(g90
g71
NtRp3469
(dp3470
g74
(dp3471
sg83
g3457
sg76
(lp3472
g69
(g70
g71
NtRp3473
(dp3474
g74
(dp3475
g82
I3
ssg83
g3469
sg76
(lp3476
S''
asbasbasbag69
(g85
g71
NtRp3477
(dp3478
g74
(dp3479
sg83
g3333
sg76
(lp3480
g69
(g90
g71
NtRp3481
(dp3482
g74
(dp3483
g94
g95
ssg83
g3477
sg76
(lp3484
g453
asbag69
(g90
g71
NtRp3485
(dp3486
g74
(dp3487
g101
g102
ssg83
g3477
sg76
(lp3488
S':'
asbag69
(g90
g71
NtRp3489
(dp3490
g74
(dp3491
sg83
g3477
sg76
(lp3492
g69
(g70
g71
NtRp3493
(dp3494
g74
(dp3495
g82
I3
ssg83
g3489
sg76
(lp3496
S''
asbasbasbasbasbasbasbasbasbasbasbag69
(g85
g71
NtRp3497
(dp3498
g74
(dp3499
sg83
g3263
sg76
(lp3500
g69
(g90
g71
NtRp3501
(dp3502
g74
(dp3503
g94
g95
ssg83
g3497
sg76
(lp3504
S'delimiters'
p3505
asbag69
(g90
g71
NtRp3506
(dp3507
g74
(dp3508
g101
g102
ssg83
g3497
sg76
(lp3509
S':'
asbag69
(g90
g71
NtRp3510
(dp3511
g74
(dp3512
sg83
g3497
sg76
(lp3513
g69
(g70
g71
NtRp3514
(dp3515
g74
(dp3516
g82
I5
ssg83
g3510
sg76
(lp3517
g69
(g78
g71
NtRp3518
(dp3519
g74
(dp3520
g82
I4
ssg83
Nsg76
(lp3521
g69
(g85
g71
NtRp3522
(dp3523
g74
(dp3524
sg83
g3518
sg76
(lp3525
g69
(g90
g71
NtRp3526
(dp3527
g74
(dp3528
sg83
g3522
sg76
(lp3529
g69
(g70
g71
NtRp3530
(dp3531
g74
(dp3532
g82
I4
ssg83
g3526
sg76
(lp3533
S'{{'
p3534
asbasbasbag69
(g85
g71
NtRp3535
(dp3536
g74
(dp3537
sg83
g3518
sg76
(lp3538
g69
(g90
g71
NtRp3539
(dp3540
g74
(dp3541
sg83
g3535
sg76
(lp3542
g69
(g70
g71
NtRp3543
(dp3544
g74
(dp3545
g82
I4
ssg83
g3539
sg76
(lp3546
S'}}'
p3547
asbasbasbasbasbasbasbag69
(g85
g71
NtRp3548
(dp3549
g74
(dp3550
sg83
g3263
sg76
(lp3551
g69
(g90
g71
NtRp3552
(dp3553
g74
(dp3554
g94
g95
ssg83
g3548
sg76
(lp3555
S'files'
p3556
asbag69
(g90
g71
NtRp3557
(dp3558
g74
(dp3559
g101
g102
ssg83
g3548
sg76
(lp3560
S':'
asbag69
(g90
g71
NtRp3561
(dp3562
g74
(dp3563
sg83
g3548
sg76
(lp3564
g69
(g70
g71
NtRp3565
(dp3566
g74
(dp3567
g82
I5
ssg83
g3561
sg76
(lp3568
g69
(g78
g71
NtRp3569
(dp3570
g74
(dp3571
g82
I4
ssg83
Nsg76
(lp3572
sbasbasbasbag69
(g85
g71
NtRp3573
(dp3574
g74
(dp3575
sg83
g3263
sg76
(lp3576
g69
(g90
g71
NtRp3577
(dp3578
g74
(dp3579
g94
g95
ssg83
g3573
sg76
(lp3580
S'flash'
p3581
asbag69
(g90
g71
NtRp3582
(dp3583
g74
(dp3584
g101
g102
ssg83
g3573
sg76
(lp3585
S':'
asbag69
(g90
g71
NtRp3586
(dp3587
g74
(dp3588
sg83
g3573
sg76
(lp3589
g69
(g70
g71
NtRp3590
(dp3591
g74
(dp3592
g82
I5
ssg83
g3586
sg76
(lp3593
S''
asbasbasbag69
(g85
g71
NtRp3594
(dp3595
g74
(dp3596
sg83
g3263
sg76
(lp3597
g69
(g90
g71
NtRp3598
(dp3599
g74
(dp3600
g94
g95
ssg83
g3594
sg76
(lp3601
S'generic_patterns'
p3602
asbag69
(g90
g71
NtRp3603
(dp3604
g74
(dp3605
g101
g102
ssg83
g3594
sg76
(lp3606
S':'
asbag69
(g90
g71
NtRp3607
(dp3608
g74
(dp3609
sg83
g3594
sg76
(lp3610
g69
(g70
g71
NtRp3611
(dp3612
g74
(dp3613
g82
I5
ssg83
g3607
sg76
(lp3614
g69
(g78
g71
NtRp3615
(dp3616
g74
(dp3617
g82
I4
ssg83
Nsg76
(lp3618
g69
(g85
g71
NtRp3619
(dp3620
g74
(dp3621
sg83
g3615
sg76
(lp3622
g69
(g90
g71
NtRp3623
(dp3624
g74
(dp3625
sg83
g3619
sg76
(lp3626
g69
(g70
g71
NtRp3627
(dp3628
g74
(dp3629
g82
I4
ssg83
g3623
sg76
(lp3630
S'*'
asbasbasbasbasbasbasbag69
(g85
g71
NtRp3631
(dp3632
g74
(dp3633
sg83
g3263
sg76
(lp3634
g69
(g90
g71
NtRp3635
(dp3636
g74
(dp3637
g94
g95
ssg83
g3631
sg76
(lp3638
S'google_analytics_id'
p3639
asbag69
(g90
g71
NtRp3640
(dp3641
g74
(dp3642
g101
g102
ssg83
g3631
sg76
(lp3643
S':'
asbag69
(g90
g71
NtRp3644
(dp3645
g74
(dp3646
sg83
g3631
sg76
(lp3647
g69
(g70
g71
NtRp3648
(dp3649
g74
(dp3650
g82
I5
ssg83
g3644
sg76
(lp3651
S'None'
p3652
asbasbasbag69
(g85
g71
NtRp3653
(dp3654
g74
(dp3655
sg83
g3263
sg76
(lp3656
g69
(g90
g71
NtRp3657
(dp3658
g74
(dp3659
g94
g95
ssg83
g3653
sg76
(lp3660
S'headers'
p3661
asbag69
(g90
g71
NtRp3662
(dp3663
g74
(dp3664
g101
g102
ssg83
g3653
sg76
(lp3665
S':'
asbag69
(g90
g71
NtRp3666
(dp3667
g74
(dp3668
sg83
g3653
sg76
(lp3669
g69
(g70
g71
NtRp3670
(dp3671
g74
(dp3672
g82
I5
ssg83
g3666
sg76
(lp3673
g69
(g78
g71
NtRp3674
(dp3675
g74
(dp3676
g82
I4
ssg83
Nsg76
(lp3677
g69
(g85
g71
NtRp3678
(dp3679
g74
(dp3680
sg83
g3674
sg76
(lp3681
g69
(g90
g71
NtRp3682
(dp3683
g74
(dp3684
g94
g95
ssg83
g3678
sg76
(lp3685
S'X-Powered-By'
p3686
asbag69
(g90
g71
NtRp3687
(dp3688
g74
(dp3689
g101
g102
ssg83
g3678
sg76
(lp3690
S':'
asbag69
(g90
g71
NtRp3691
(dp3692
g74
(dp3693
sg83
g3678
sg76
(lp3694
g69
(g70
g71
NtRp3695
(dp3696
g74
(dp3697
g82
I4
ssg83
g3691
sg76
(lp3698
S'web2py'
p3699
asbasbasbasbasbasbasbag69
(g85
g71
NtRp3700
(dp3701
g74
(dp3702
sg83
g3263
sg76
(lp3703
g69
(g90
g71
NtRp3704
(dp3705
g74
(dp3706
g94
g95
ssg83
g3700
sg76
(lp3707
S'logo'
p3708
asbag69
(g90
g71
NtRp3709
(dp3710
g74
(dp3711
g101
g102
ssg83
g3700
sg76
(lp3712
S':'
asbag69
(g90
g71
NtRp3713
(dp3714
g74
(dp3715
sg83
g3700
sg76
(lp3716
g69
(g70
g71
NtRp3717
(dp3718
g74
(dp3719
g82
I5
ssg83
g3713
sg76
(lp3720
g69
(cgluon.html
A
p3721
g71
NtRp3722
(dp3723
g74
(dp3724
S'_class'
p3725
S'brand'
p3726
sS'_href'
p3727
g1805
ssg83
Nsg76
(lp3728
g69
(cgluon.html
B
p3729
g71
NtRp3730
(dp3731
g74
(dp3732
sg83
g3722
sg76
(lp3733
S''
ag69
(cgluon.html
SPAN
p3734
g71
NtRp3735
(dp3736
g74
(dp3737
sg83
g3730
sg76
(lp3738
S'Agenda'
p3739
asbaS''
asbacgluon.html
XML_unpickle
p3740
(S's\r\x00\x00\x00&trade;&nbsp;'
tRp3741
asbasbasbasbag69
(g85
g71
NtRp3742
(dp3743
g74
(dp3744
sg83
g3263
sg76
(lp3745
g69
(g90
g71
NtRp3746
(dp3747
g74
(dp3748
g94
g95
ssg83
g3742
sg76
(lp3749
S'menu'
p3750
asbag69
(g90
g71
NtRp3751
(dp3752
g74
(dp3753
g101
g102
ssg83
g3742
sg76
(lp3754
S':'
asbag69
(g90
g71
NtRp3755
(dp3756
g74
(dp3757
sg83
g3742
sg76
(lp3758
g69
(g70
g71
NtRp3759
(dp3760
g74
(dp3761
g82
I5
ssg83
g3755
sg76
(lp3762
g69
(g78
g71
NtRp3763
(dp3764
g74
(dp3765
g82
I4
ssg83
Nsg76
(lp3766
g69
(g85
g71
NtRp3767
(dp3768
g74
(dp3769
sg83
g3763
sg76
(lp3770
g69
(g90
g71
NtRp3771
(dp3772
g74
(dp3773
sg83
g3767
sg76
(lp3774
g69
(g70
g71
NtRp3775
(dp3776
g74
(dp3777
g82
I4
ssg83
g3771
sg76
(lp3778
g69
(g78
g71
NtRp3779
(dp3780
g74
(dp3781
g82
I3
ssg83
Nsg76
(lp3782
g69
(g85
g71
NtRp3783
(dp3784
g74
(dp3785
sg83
g3779
sg76
(lp3786
g69
(g90
g71
NtRp3787
(dp3788
g74
(dp3789
sg83
g3783
sg76
(lp3790
g69
(g70
g71
NtRp3791
(dp3792
g74
(dp3793
g82
I3
ssg83
g3787
sg76
(lp3794
cgluon.languages
lazyT_unpickle
p3795
(S't\x06\x00\x00\x00Global'
tRp3796
asbasbasbag69
(g85
g71
NtRp3797
(dp3798
g74
(dp3799
sg83
g3779
sg76
(lp3800
g69
(g90
g71
NtRp3801
(dp3802
g74
(dp3803
sg83
g3797
sg76
(lp3804
g69
(g70
g71
NtRp3805
(dp3806
g74
(dp3807
g82
I3
ssg83
g3801
sg76
(lp3808
g112
asbasbasbag69
(g85
g71
NtRp3809
(dp3810
g74
(dp3811
sg83
g3779
sg76
(lp3812
g69
(g90
g71
NtRp3813
(dp3814
g74
(dp3815
sg83
g3809
sg76
(lp3816
g69
(g70
g71
NtRp3817
(dp3818
g74
(dp3819
g82
I3
ssg83
g3813
sg76
(lp3820
S'/agenda'
p3821
asbasbasbag69
(g85
g71
NtRp3822
(dp3823
g74
(dp3824
sg83
g3779
sg76
(lp3825
g69
(g90
g71
NtRp3826
(dp3827
g74
(dp3828
sg83
g3822
sg76
(lp3829
g69
(g70
g71
NtRp3830
(dp3831
g74
(dp3832
g82
I3
ssg83
g3826
sg76
(lp3833
g69
(g78
g71
NtRp3834
(dp3835
g74
(dp3836
g82
I2
ssg83
Nsg76
(lp3837
sbasbasbasbasbasbasbasbag69
(g85
g71
NtRp3838
(dp3839
g74
(dp3840
sg83
g3763
sg76
(lp3841
g69
(g90
g71
NtRp3842
(dp3843
g74
(dp3844
sg83
g3838
sg76
(lp3845
g69
(g70
g71
NtRp3846
(dp3847
g74
(dp3848
g82
I4
ssg83
g3842
sg76
(lp3849
g69
(g78
g71
NtRp3850
(dp3851
g74
(dp3852
g82
I3
ssg83
Nsg76
(lp3853
g69
(g85
g71
NtRp3854
(dp3855
g74
(dp3856
sg83
g3850
sg76
(lp3857
g69
(g90
g71
NtRp3858
(dp3859
g74
(dp3860
sg83
g3854
sg76
(lp3861
g69
(g70
g71
NtRp3862
(dp3863
g74
(dp3864
g82
I3
ssg83
g3858
sg76
(lp3865
g3795
(S't\n\x00\x00\x00Particular'
tRp3866
asbasbasbag69
(g85
g71
NtRp3867
(dp3868
g74
(dp3869
sg83
g3850
sg76
(lp3870
g69
(g90
g71
NtRp3871
(dp3872
g74
(dp3873
sg83
g3867
sg76
(lp3874
g69
(g70
g71
NtRp3875
(dp3876
g74
(dp3877
g82
I3
ssg83
g3871
sg76
(lp3878
g112
asbasbasbag69
(g85
g71
NtRp3879
(dp3880
g74
(dp3881
sg83
g3850
sg76
(lp3882
g69
(g90
g71
NtRp3883
(dp3884
g74
(dp3885
sg83
g3879
sg76
(lp3886
g69
(g70
g71
NtRp3887
(dp3888
g74
(dp3889
g82
I3
ssg83
g3883
sg76
(lp3890
S'/redireciona?f=agenda_particular'
p3891
asbasbasbag69
(g85
g71
NtRp3892
(dp3893
g74
(dp3894
sg83
g3850
sg76
(lp3895
g69
(g90
g71
NtRp3896
(dp3897
g74
(dp3898
sg83
g3892
sg76
(lp3899
g69
(g70
g71
NtRp3900
(dp3901
g74
(dp3902
g82
I3
ssg83
g3896
sg76
(lp3903
g69
(g78
g71
NtRp3904
(dp3905
g74
(dp3906
g82
I2
ssg83
Nsg76
(lp3907
sbasbasbasbasbasbasbasbag69
(g85
g71
NtRp3908
(dp3909
g74
(dp3910
sg83
g3763
sg76
(lp3911
g69
(g90
g71
NtRp3912
(dp3913
g74
(dp3914
sg83
g3908
sg76
(lp3915
g69
(g70
g71
NtRp3916
(dp3917
g74
(dp3918
g82
I4
ssg83
g3912
sg76
(lp3919
g69
(g78
g71
NtRp3920
(dp3921
g74
(dp3922
g82
I3
ssg83
Nsg76
(lp3923
g69
(g85
g71
NtRp3924
(dp3925
g74
(dp3926
sg83
g3920
sg76
(lp3927
g69
(g90
g71
NtRp3928
(dp3929
g74
(dp3930
sg83
g3924
sg76
(lp3931
g69
(g70
g71
NtRp3932
(dp3933
g74
(dp3934
g82
I3
ssg83
g3928
sg76
(lp3935
g3795
(S's\x08\x00\x00\x00+contato'
tRp3936
asbasbasbag69
(g85
g71
NtRp3937
(dp3938
g74
(dp3939
sg83
g3920
sg76
(lp3940
g69
(g90
g71
NtRp3941
(dp3942
g74
(dp3943
sg83
g3937
sg76
(lp3944
g69
(g70
g71
NtRp3945
(dp3946
g74
(dp3947
g82
I3
ssg83
g3941
sg76
(lp3948
g112
asbasbasbag69
(g85
g71
NtRp3949
(dp3950
g74
(dp3951
sg83
g3920
sg76
(lp3952
g69
(g90
g71
NtRp3953
(dp3954
g74
(dp3955
sg83
g3949
sg76
(lp3956
g69
(g70
g71
NtRp3957
(dp3958
g74
(dp3959
g82
I3
ssg83
g3953
sg76
(lp3960
S'/permissao'
p3961
asbasbasbag69
(g85
g71
NtRp3962
(dp3963
g74
(dp3964
sg83
g3920
sg76
(lp3965
g69
(g90
g71
NtRp3966
(dp3967
g74
(dp3968
sg83
g3962
sg76
(lp3969
g69
(g70
g71
NtRp3970
(dp3971
g74
(dp3972
g82
I3
ssg83
g3966
sg76
(lp3973
g69
(g78
g71
NtRp3974
(dp3975
g74
(dp3976
g82
I2
ssg83
Nsg76
(lp3977
sbasbasbasbasbasbasbasbasbasbasbasbag69
(g85
g71
NtRp3978
(dp3979
g74
(dp3980
sg83
g3263
sg76
(lp3981
g69
(g90
g71
NtRp3982
(dp3983
g74
(dp3984
g94
g95
ssg83
g3978
sg76
(lp3985
S'menu2'
p3986
asbag69
(g90
g71
NtRp3987
(dp3988
g74
(dp3989
g101
g102
ssg83
g3978
sg76
(lp3990
S':'
asbag69
(g90
g71
NtRp3991
(dp3992
g74
(dp3993
sg83
g3978
sg76
(lp3994
g69
(g70
g71
NtRp3995
(dp3996
g74
(dp3997
g82
I5
ssg83
g3991
sg76
(lp3998
g69
(g78
g71
NtRp3999
(dp4000
g74
(dp4001
g82
I4
ssg83
Nsg76
(lp4002
g69
(g85
g71
NtRp4003
(dp4004
g74
(dp4005
sg83
g3999
sg76
(lp4006
g69
(g90
g71
NtRp4007
(dp4008
g74
(dp4009
sg83
g4003
sg76
(lp4010
g69
(g70
g71
NtRp4011
(dp4012
g74
(dp4013
g82
I4
ssg83
g4007
sg76
(lp4014
g69
(g78
g71
NtRp4015
(dp4016
g74
(dp4017
g82
I3
ssg83
Nsg76
(lp4018
g69
(g85
g71
NtRp4019
(dp4020
g74
(dp4021
sg83
g4015
sg76
(lp4022
g69
(g90
g71
NtRp4023
(dp4024
g74
(dp4025
sg83
g4019
sg76
(lp4026
g69
(g70
g71
NtRp4027
(dp4028
g74
(dp4029
g82
I3
ssg83
g4023
sg76
(lp4030
g69
(g3734
g71
NtRp4031
(dp4032
g74
(dp4033
g3725
S'dropdown-toggle'
p4034
ssg83
Nsg76
(lp4035
S'Login'
p4036
asbasbasbasbag69
(g85
g71
NtRp4037
(dp4038
g74
(dp4039
sg83
g4015
sg76
(lp4040
g69
(g90
g71
NtRp4041
(dp4042
g74
(dp4043
sg83
g4037
sg76
(lp4044
g69
(g70
g71
NtRp4045
(dp4046
g74
(dp4047
g82
I3
ssg83
g4041
sg76
(lp4048
g112
asbasbasbag69
(g85
g71
NtRp4049
(dp4050
g74
(dp4051
sg83
g4015
sg76
(lp4052
g69
(g90
g71
NtRp4053
(dp4054
g74
(dp4055
sg83
g4049
sg76
(lp4056
g69
(g70
g71
NtRp4057
(dp4058
g74
(dp4059
g82
I3
ssg83
g4053
sg76
(lp4060
S'#'
asbasbasbag69
(g85
g71
NtRp4061
(dp4062
g74
(dp4063
sg83
g4015
sg76
(lp4064
g69
(g90
g71
NtRp4065
(dp4066
g74
(dp4067
sg83
g4061
sg76
(lp4068
g69
(g70
g71
NtRp4069
(dp4070
g74
(dp4071
g82
I3
ssg83
g4065
sg76
(lp4072
g69
(g78
g71
NtRp4073
(dp4074
g74
(dp4075
g82
I2
ssg83
Nsg76
(lp4076
g69
(g85
g71
NtRp4077
(dp4078
g74
(dp4079
sg83
g4073
sg76
(lp4080
g69
(g90
g71
NtRp4081
(dp4082
g74
(dp4083
sg83
g4077
sg76
(lp4084
g69
(g70
g71
NtRp4085
(dp4086
g74
(dp4087
g82
I2
ssg83
g4081
sg76
(lp4088
g69
(g78
g71
NtRp4089
(dp4090
g74
(dp4091
g82
I1
ssg83
Nsg76
(lp4092
g69
(g85
g71
NtRp4093
(dp4094
g74
(dp4095
sg83
g4089
sg76
(lp4096
g69
(g90
g71
NtRp4097
(dp4098
g74
(dp4099
sg83
g4093
sg76
(lp4100
g69
(g70
g71
NtRp4101
(dp4102
g74
(dp4103
g82
I1
ssg83
g4097
sg76
(lp4104
g3795
(S't\x06\x00\x00\x00Logout'
tRp4105
asbasbasbag69
(g85
g71
NtRp4106
(dp4107
g74
(dp4108
sg83
g4089
sg76
(lp4109
g69
(g90
g71
NtRp4110
(dp4111
g74
(dp4112
sg83
g4106
sg76
(lp4113
g69
(g70
g71
NtRp4114
(dp4115
g74
(dp4116
g82
I1
ssg83
g4110
sg76
(lp4117
I00
asbasbasbag69
(g85
g71
NtRp4118
(dp4119
g74
(dp4120
sg83
g4089
sg76
(lp4121
g69
(g90
g71
NtRp4122
(dp4123
g74
(dp4124
sg83
g4118
sg76
(lp4125
g69
(g70
g71
NtRp4126
(dp4127
g74
(dp4128
g82
I1
ssg83
g4122
sg76
(lp4129
S'/log_out'
p4130
asbasbasbasbasbasbasbasbasbasbasbasbasbasbasbasbasbasbasbag69
(g85
g71
NtRp4131
(dp4132
g74
(dp4133
sg83
g3263
sg76
(lp4134
g69
(g90
g71
NtRp4135
(dp4136
g74
(dp4137
g94
g95
ssg83
g4131
sg76
(lp4138
S'meta'
p4139
asbag69
(g90
g71
NtRp4140
(dp4141
g74
(dp4142
g101
g102
ssg83
g4131
sg76
(lp4143
S':'
asbag69
(g90
g71
NtRp4144
(dp4145
g74
(dp4146
sg83
g4131
sg76
(lp4147
g69
(g70
g71
NtRp4148
(dp4149
g74
(dp4150
g82
I5
ssg83
g4144
sg76
(lp4151
g69
(g78
g71
NtRp4152
(dp4153
g74
(dp4154
g82
I4
ssg83
Nsg76
(lp4155
g69
(g85
g71
NtRp4156
(dp4157
g74
(dp4158
sg83
g4152
sg76
(lp4159
g69
(g90
g71
NtRp4160
(dp4161
g74
(dp4162
g94
g95
ssg83
g4156
sg76
(lp4163
S'author'
p4164
asbag69
(g90
g71
NtRp4165
(dp4166
g74
(dp4167
g101
g102
ssg83
g4156
sg76
(lp4168
S':'
asbag69
(g90
g71
NtRp4169
(dp4170
g74
(dp4171
sg83
g4156
sg76
(lp4172
g69
(g70
g71
NtRp4173
(dp4174
g74
(dp4175
g82
I4
ssg83
g4169
sg76
(lp4176
S'Your Name <you@example.com>'
p4177
asbasbasbag69
(g85
g71
NtRp4178
(dp4179
g74
(dp4180
sg83
g4152
sg76
(lp4181
g69
(g90
g71
NtRp4182
(dp4183
g74
(dp4184
g94
g95
ssg83
g4178
sg76
(lp4185
S'description'
p4186
asbag69
(g90
g71
NtRp4187
(dp4188
g74
(dp4189
g101
g102
ssg83
g4178
sg76
(lp4190
S':'
asbag69
(g90
g71
NtRp4191
(dp4192
g74
(dp4193
sg83
g4178
sg76
(lp4194
g69
(g70
g71
NtRp4195
(dp4196
g74
(dp4197
g82
I4
ssg83
g4191
sg76
(lp4198
S'a cool new app'
p4199
asbasbasbag69
(g85
g71
NtRp4200
(dp4201
g74
(dp4202
sg83
g4152
sg76
(lp4203
g69
(g90
g71
NtRp4204
(dp4205
g74
(dp4206
g94
g95
ssg83
g4200
sg76
(lp4207
S'generator'
p4208
asbag69
(g90
g71
NtRp4209
(dp4210
g74
(dp4211
g101
g102
ssg83
g4200
sg76
(lp4212
S':'
asbag69
(g90
g71
NtRp4213
(dp4214
g74
(dp4215
sg83
g4200
sg76
(lp4216
g69
(g70
g71
NtRp4217
(dp4218
g74
(dp4219
g82
I4
ssg83
g4213
sg76
(lp4220
S'Web2py Web Framework'
p4221
asbasbasbag69
(g85
g71
NtRp4222
(dp4223
g74
(dp4224
sg83
g4152
sg76
(lp4225
g69
(g90
g71
NtRp4226
(dp4227
g74
(dp4228
g94
g95
ssg83
g4222
sg76
(lp4229
S'keywords'
p4230
asbag69
(g90
g71
NtRp4231
(dp4232
g74
(dp4233
g101
g102
ssg83
g4222
sg76
(lp4234
S':'
asbag69
(g90
g71
NtRp4235
(dp4236
g74
(dp4237
sg83
g4222
sg76
(lp4238
g69
(g70
g71
NtRp4239
(dp4240
g74
(dp4241
g82
I4
ssg83
g4235
sg76
(lp4242
S'web2py, python, framework'
p4243
asbasbasbasbasbasbasbag69
(g85
g71
NtRp4244
(dp4245
g74
(dp4246
sg83
g3263
sg76
(lp4247
g69
(g90
g71
NtRp4248
(dp4249
g74
(dp4250
g94
g95
ssg83
g4244
sg76
(lp4251
S'models_to_run'
p4252
asbag69
(g90
g71
NtRp4253
(dp4254
g74
(dp4255
g101
g102
ssg83
g4244
sg76
(lp4256
S':'
asbag69
(g90
g71
NtRp4257
(dp4258
g74
(dp4259
sg83
g4244
sg76
(lp4260
g69
(g70
g71
NtRp4261
(dp4262
g74
(dp4263
g82
I5
ssg83
g4257
sg76
(lp4264
g69
(g78
g71
NtRp4265
(dp4266
g74
(dp4267
g82
I4
ssg83
Nsg76
(lp4268
g69
(g85
g71
NtRp4269
(dp4270
g74
(dp4271
sg83
g4265
sg76
(lp4272
g69
(g90
g71
NtRp4273
(dp4274
g74
(dp4275
sg83
g4269
sg76
(lp4276
g69
(g70
g71
NtRp4277
(dp4278
g74
(dp4279
g82
I4
ssg83
g4273
sg76
(lp4280
S'^\\w+\\.py$'
p4281
asbasbasbag69
(g85
g71
NtRp4282
(dp4283
g74
(dp4284
sg83
g4265
sg76
(lp4285
g69
(g90
g71
NtRp4286
(dp4287
g74
(dp4288
sg83
g4282
sg76
(lp4289
g69
(g70
g71
NtRp4290
(dp4291
g74
(dp4292
g82
I4
ssg83
g4286
sg76
(lp4293
S'^initial/\\w+\\.py$'
p4294
asbasbasbag69
(g85
g71
NtRp4295
(dp4296
g74
(dp4297
sg83
g4265
sg76
(lp4298
g69
(g90
g71
NtRp4299
(dp4300
g74
(dp4301
sg83
g4295
sg76
(lp4302
g69
(g70
g71
NtRp4303
(dp4304
g74
(dp4305
g82
I4
ssg83
g4299
sg76
(lp4306
S'^initial/principal/\\w+\\.py$'
p4307
asbasbasbasbasbasbasbag69
(g85
g71
NtRp4308
(dp4309
g74
(dp4310
sg83
g3263
sg76
(lp4311
g69
(g90
g71
NtRp4312
(dp4313
g74
(dp4314
g94
g95
ssg83
g4308
sg76
(lp4315
S'postprocessing'
p4316
asbag69
(g90
g71
NtRp4317
(dp4318
g74
(dp4319
g101
g102
ssg83
g4308
sg76
(lp4320
S':'
asbag69
(g90
g71
NtRp4321
(dp4322
g74
(dp4323
sg83
g4308
sg76
(lp4324
g69
(g70
g71
NtRp4325
(dp4326
g74
(dp4327
g82
I5
ssg83
g4321
sg76
(lp4328
g69
(g78
g71
NtRp4329
(dp4330
g74
(dp4331
g82
I4
ssg83
Nsg76
(lp4332
sbasbasbasbag69
(g85
g71
NtRp4333
(dp4334
g74
(dp4335
sg83
g3263
sg76
(lp4336
g69
(g90
g71
NtRp4337
(dp4338
g74
(dp4339
g94
g95
ssg83
g4333
sg76
(lp4340
S'session_cookie_expires'
p4341
asbag69
(g90
g71
NtRp4342
(dp4343
g74
(dp4344
g101
g102
ssg83
g4333
sg76
(lp4345
S':'
asbag69
(g90
g71
NtRp4346
(dp4347
g74
(dp4348
sg83
g4333
sg76
(lp4349
g69
(g70
g71
NtRp4350
(dp4351
g74
(dp4352
g82
I5
ssg83
g4346
sg76
(lp4353
S'None'
p4354
asbasbasbag69
(g85
g71
NtRp4355
(dp4356
g74
(dp4357
sg83
g3263
sg76
(lp4358
g69
(g90
g71
NtRp4359
(dp4360
g74
(dp4361
g94
g95
ssg83
g4355
sg76
(lp4362
S'session_data_name'
p4363
asbag69
(g90
g71
NtRp4364
(dp4365
g74
(dp4366
g101
g102
ssg83
g4355
sg76
(lp4367
S':'
asbag69
(g90
g71
NtRp4368
(dp4369
g74
(dp4370
sg83
g4355
sg76
(lp4371
g69
(g70
g71
NtRp4372
(dp4373
g74
(dp4374
g82
I5
ssg83
g4368
sg76
(lp4375
S'session_data_projeto'
p4376
asbasbasbag69
(g85
g71
NtRp4377
(dp4378
g74
(dp4379
sg83
g3263
sg76
(lp4380
g69
(g90
g71
NtRp4381
(dp4382
g74
(dp4383
g94
g95
ssg83
g4377
sg76
(lp4384
S'session_file'
p4385
asbag69
(g90
g71
NtRp4386
(dp4387
g74
(dp4388
g101
g102
ssg83
g4377
sg76
(lp4389
S':'
asbag69
(g90
g71
NtRp4390
(dp4391
g74
(dp4392
sg83
g4377
sg76
(lp4393
g69
(g70
g71
NtRp4394
(dp4395
g74
(dp4396
g82
I5
ssg83
g4390
sg76
(lp4397
S"<open file '/var/www/gravacao/applications/projeto/sessions/127.0.0.1-f700f0c3-fb08-41bb-8821-1f508a8fa4ec', mode 'rb+' at 0x7fdfcc834a50>"
p4398
asbasbasbag69
(g85
g71
NtRp4399
(dp4400
g74
(dp4401
sg83
g3263
sg76
(lp4402
g69
(g90
g71
NtRp4403
(dp4404
g74
(dp4405
g94
g95
ssg83
g4399
sg76
(lp4406
S'session_filename'
p4407
asbag69
(g90
g71
NtRp4408
(dp4409
g74
(dp4410
g101
g102
ssg83
g4399
sg76
(lp4411
S':'
asbag69
(g90
g71
NtRp4412
(dp4413
g74
(dp4414
sg83
g4399
sg76
(lp4415
g69
(g70
g71
NtRp4416
(dp4417
g74
(dp4418
g82
I5
ssg83
g4412
sg76
(lp4419
S'/var/www/gravacao/applications/projeto/sessions/127.0.0.1-f700f0c3-fb08-41bb-8821-1f508a8fa4ec'
p4420
asbasbasbag69
(g85
g71
NtRp4421
(dp4422
g74
(dp4423
sg83
g3263
sg76
(lp4424
g69
(g90
g71
NtRp4425
(dp4426
g74
(dp4427
g94
g95
ssg83
g4421
sg76
(lp4428
S'session_id'
p4429
asbag69
(g90
g71
NtRp4430
(dp4431
g74
(dp4432
g101
g102
ssg83
g4421
sg76
(lp4433
S':'
asbag69
(g90
g71
NtRp4434
(dp4435
g74
(dp4436
sg83
g4421
sg76
(lp4437
g69
(g70
g71
NtRp4438
(dp4439
g74
(dp4440
g82
I5
ssg83
g4434
sg76
(lp4441
g487
asbasbasbag69
(g85
g71
NtRp4442
(dp4443
g74
(dp4444
sg83
g3263
sg76
(lp4445
g69
(g90
g71
NtRp4446
(dp4447
g74
(dp4448
g94
g95
ssg83
g4442
sg76
(lp4449
S'session_id_name'
p4450
asbag69
(g90
g71
NtRp4451
(dp4452
g74
(dp4453
g101
g102
ssg83
g4442
sg76
(lp4454
S':'
asbag69
(g90
g71
NtRp4455
(dp4456
g74
(dp4457
sg83
g4442
sg76
(lp4458
g69
(g70
g71
NtRp4459
(dp4460
g74
(dp4461
g82
I5
ssg83
g4455
sg76
(lp4462
g3320
asbasbasbag69
(g85
g71
NtRp4463
(dp4464
g74
(dp4465
sg83
g3263
sg76
(lp4466
g69
(g90
g71
NtRp4467
(dp4468
g74
(dp4469
g94
g95
ssg83
g4463
sg76
(lp4470
S'session_locked'
p4471
asbag69
(g90
g71
NtRp4472
(dp4473
g74
(dp4474
g101
g102
ssg83
g4463
sg76
(lp4475
S':'
asbag69
(g90
g71
NtRp4476
(dp4477
g74
(dp4478
sg83
g4463
sg76
(lp4479
g69
(g70
g71
NtRp4480
(dp4481
g74
(dp4482
g82
I5
ssg83
g4476
sg76
(lp4483
g1647
asbasbasbag69
(g85
g71
NtRp4484
(dp4485
g74
(dp4486
sg83
g3263
sg76
(lp4487
g69
(g90
g71
NtRp4488
(dp4489
g74
(dp4490
g94
g95
ssg83
g4484
sg76
(lp4491
S'session_new'
p4492
asbag69
(g90
g71
NtRp4493
(dp4494
g74
(dp4495
g101
g102
ssg83
g4484
sg76
(lp4496
S':'
asbag69
(g90
g71
NtRp4497
(dp4498
g74
(dp4499
sg83
g4484
sg76
(lp4500
g69
(g70
g71
NtRp4501
(dp4502
g74
(dp4503
g82
I5
ssg83
g4497
sg76
(lp4504
g112
asbasbasbag69
(g85
g71
NtRp4505
(dp4506
g74
(dp4507
sg83
g3263
sg76
(lp4508
g69
(g90
g71
NtRp4509
(dp4510
g74
(dp4511
g94
g95
ssg83
g4505
sg76
(lp4512
S'session_storage_type'
p4513
asbag69
(g90
g71
NtRp4514
(dp4515
g74
(dp4516
g101
g102
ssg83
g4505
sg76
(lp4517
S':'
asbag69
(g90
g71
NtRp4518
(dp4519
g74
(dp4520
sg83
g4505
sg76
(lp4521
g69
(g70
g71
NtRp4522
(dp4523
g74
(dp4524
g82
I5
ssg83
g4518
sg76
(lp4525
g3086
asbasbasbag69
(g85
g71
NtRp4526
(dp4527
g74
(dp4528
sg83
g3263
sg76
(lp4529
g69
(g90
g71
NtRp4530
(dp4531
g74
(dp4532
g94
g95
ssg83
g4526
sg76
(lp4533
S'status'
p4534
asbag69
(g90
g71
NtRp4535
(dp4536
g74
(dp4537
g101
g102
ssg83
g4526
sg76
(lp4538
S':'
asbag69
(g90
g71
NtRp4539
(dp4540
g74
(dp4541
sg83
g4526
sg76
(lp4542
g69
(g70
g71
NtRp4543
(dp4544
g74
(dp4545
g82
I5
ssg83
g4539
sg76
(lp4546
S'200'
p4547
asbasbasbag69
(g85
g71
NtRp4548
(dp4549
g74
(dp4550
sg83
g3263
sg76
(lp4551
g69
(g90
g71
NtRp4552
(dp4553
g74
(dp4554
g94
g95
ssg83
g4548
sg76
(lp4555
S'subtitle'
p4556
asbag69
(g90
g71
NtRp4557
(dp4558
g74
(dp4559
g101
g102
ssg83
g4548
sg76
(lp4560
S':'
asbag69
(g90
g71
NtRp4561
(dp4562
g74
(dp4563
sg83
g4548
sg76
(lp4564
g69
(g70
g71
NtRp4565
(dp4566
g74
(dp4567
g82
I5
ssg83
g4561
sg76
(lp4568
g3795
(S's\r\x00\x00\x00customize me!'
tRp4569
asbasbasbag69
(g85
g71
NtRp4570
(dp4571
g74
(dp4572
sg83
g3263
sg76
(lp4573
g69
(g90
g71
NtRp4574
(dp4575
g74
(dp4576
g94
g95
ssg83
g4570
sg76
(lp4577
S'title'
p4578
asbag69
(g90
g71
NtRp4579
(dp4580
g74
(dp4581
g101
g102
ssg83
g4570
sg76
(lp4582
S':'
asbag69
(g90
g71
NtRp4583
(dp4584
g74
(dp4585
sg83
g4570
sg76
(lp4586
g69
(g70
g71
NtRp4587
(dp4588
g74
(dp4589
g82
I5
ssg83
g4583
sg76
(lp4590
S'Projeto'
p4591
asbasbasbag69
(g85
g71
NtRp4592
(dp4593
g74
(dp4594
sg83
g3263
sg76
(lp4595
g69
(g90
g71
NtRp4596
(dp4597
g74
(dp4598
g94
g95
ssg83
g4592
sg76
(lp4599
S'view'
p4600
asbag69
(g90
g71
NtRp4601
(dp4602
g74
(dp4603
g101
g102
ssg83
g4592
sg76
(lp4604
S':'
asbag69
(g90
g71
NtRp4605
(dp4606
g74
(dp4607
sg83
g4592
sg76
(lp4608
g69
(g70
g71
NtRp4609
(dp4610
g74
(dp4611
g82
I5
ssg83
g4605
sg76
(lp4612
S'initial/show_form2.html'
p4613
asbasbasbasbasbsS'locals'
p4614
(dp4615
g4
S"'/var/www/gravacao/applications/projeto/views/initial/show_form2.html'"
p4616
sg6
S'r"response.write(\'<!DOCTYPE html>\\n<!-- paulirish....></script>-->\\n</body>\\n</html>\\n\', escape=False)"'
p4617
sssS'traceback'
p4618
S'Traceback (most recent call last):\n  File "/var/www/gravacao/gluon/restricted.py", line 211, in restricted\n    ccode = compile2(code, layer)\n  File "/var/www/gravacao/gluon/restricted.py", line 194, in compile2\n    return compile(code.rstrip().replace(\'\\r\\n\', \'\\n\') + \'\\n\', layer, \'exec\')\n  File "/var/www/gravacao/applications/projeto/views/initial/show_form2.html", line 82\n    if tabela != []\n                  ^\nSyntaxError: invalid syntax\n'
p4619
s.