(dp1
S'output'
p2
S'<class \'gluon.contrib.pg8000.errors.ProgrammingError\'> (\'ERROR\', \'23502\', \'column "nome__tmp" contains null values\')'
p3
sS'layer'
p4
S'/var/www/conferencia/applications/projeto/models/models.py'
p5
sS'code'
p6
S'usuario = db.define_table("usuario",\n      Field("nome", notnull=True),\n      Field("pin", unique=True),\n      Field("email"),\n      #auth.signature\n      format="%(nome)s")\n\n\nmeetme = db.define_table("meetme",\n      Field("confno", \'id\'), \n      Field("starttime", "datetime"),\n      Field("endtime", "datetime"),\n      Field("membros_user", \'list:reference usuario\'),\n      Field("admin_user", \'list:reference usuario\'),\n      Field(\'gravacao\', "boolean"),\n      #primarykey=[\'confno\']\n      )\n\n\nmeetme.confno.label = \'Sala\'\nmeetme.starttime.label = \'In\xc3\xadcio\'\nmeetme.endtime.label = "Fim"\nmeetme.membros_user.label = "Membros"\nmeetme.admin_user.label = "Admins"\n\n\n'
p7
sS'snapshot'
p8
(dp9
S'exception'
p10
(dp11
S'__module__'
p12
S"'gluon.contrib.pg8000.errors'"
p13
sS'__getslice__'
p14
S"<method-wrapper '__getslice__' of ProgrammingError object>"
p15
sS'__str__'
p16
S"<method-wrapper '__str__' of ProgrammingError object>"
p17
sS'__reduce__'
p18
S'<built-in method __reduce__ of ProgrammingError object>'
p19
sS'__dict__'
p20
S'{}'
p21
sS'__sizeof__'
p22
S'<built-in method __sizeof__ of ProgrammingError object>'
p23
sS'__weakref__'
p24
S'None'
p25
sS'__init__'
p26
S"<method-wrapper '__init__' of ProgrammingError object>"
p27
sS'__setattr__'
p28
S"<method-wrapper '__setattr__' of ProgrammingError object>"
p29
sS'__reduce_ex__'
p30
S'<built-in method __reduce_ex__ of ProgrammingError object>'
p31
sS'__new__'
p32
S'<built-in method __new__ of type object>'
p33
sS'__format__'
p34
S'<built-in method __format__ of ProgrammingError object>'
p35
sS'__class__'
p36
S"<class 'gluon.contrib.pg8000.errors.ProgrammingError'>"
p37
sS'__doc__'
p38
S'None'
p39
sS'__getitem__'
p40
S"<method-wrapper '__getitem__' of ProgrammingError object>"
p41
sS'__setstate__'
p42
S'<built-in method __setstate__ of ProgrammingError object>'
p43
sS'__getattribute__'
p44
S"<method-wrapper '__getattribute__' of ProgrammingError object>"
p45
sS'args'
p46
S'(\'ERROR\', \'23502\', \'column "nome__tmp" contains null values\')'
p47
sS'__subclasshook__'
p48
S'<built-in method __subclasshook__ of type object>'
p49
sS'__unicode__'
p50
S'<built-in method __unicode__ of ProgrammingError object>'
p51
sS'__delattr__'
p52
S"<method-wrapper '__delattr__' of ProgrammingError object>"
p53
sS'__repr__'
p54
S"<method-wrapper '__repr__' of ProgrammingError object>"
p55
sS'__hash__'
p56
S"<method-wrapper '__hash__' of ProgrammingError object>"
p57
ssS'evalue'
p58
S'(\'ERROR\', \'23502\', \'column "nome__tmp" contains null values\')'
p59
sS'request'
p60
ccopy_reg
_reconstructor
p61
(cgluon.html
BEAUTIFY
p62
c__builtin__
object
p63
NtRp64
(dp65
S'attributes'
p66
(dp67
sS'components'
p68
(lp69
g61
(cgluon.html
TABLE
p70
g63
NtRp71
(dp72
g66
(dp73
S'level'
p74
I5
ssS'parent'
p75
Nsg68
(lp76
g61
(cgluon.html
TR
p77
g63
NtRp78
(dp79
g66
(dp80
sg75
g71
sg68
(lp81
g61
(cgluon.html
TD
p82
g63
NtRp83
(dp84
g66
(dp85
S'_style'
p86
S'font-weight:bold;vertical-align:top'
p87
ssg75
g78
sg68
(lp88
S'ajax'
p89
asbag61
(g82
g63
NtRp90
(dp91
g66
(dp92
S'_valign'
p93
S'top'
p94
ssg75
g78
sg68
(lp95
S':'
asbag61
(g82
g63
NtRp96
(dp97
g66
(dp98
sg75
g78
sg68
(lp99
g61
(g62
g63
NtRp100
(dp101
g66
(dp102
g74
I5
ssg75
g96
sg68
(lp103
S'False'
p104
asbasbasbag61
(g77
g63
NtRp105
(dp106
g66
(dp107
sg75
g71
sg68
(lp108
g61
(g82
g63
NtRp109
(dp110
g66
(dp111
g86
g87
ssg75
g105
sg68
(lp112
S'application'
p113
asbag61
(g82
g63
NtRp114
(dp115
g66
(dp116
g93
g94
ssg75
g105
sg68
(lp117
S':'
asbag61
(g82
g63
NtRp118
(dp119
g66
(dp120
sg75
g105
sg68
(lp121
g61
(g62
g63
NtRp122
(dp123
g66
(dp124
g74
I5
ssg75
g118
sg68
(lp125
S'projeto'
p126
asbasbasbag61
(g77
g63
NtRp127
(dp128
g66
(dp129
sg75
g71
sg68
(lp130
g61
(g82
g63
NtRp131
(dp132
g66
(dp133
g86
g87
ssg75
g127
sg68
(lp134
g46
asbag61
(g82
g63
NtRp135
(dp136
g66
(dp137
g93
g94
ssg75
g127
sg68
(lp138
S':'
asbag61
(g82
g63
NtRp139
(dp140
g66
(dp141
sg75
g127
sg68
(lp142
g61
(g62
g63
NtRp143
(dp144
g66
(dp145
g74
I5
ssg75
g139
sg68
(lp146
g61
(g70
g63
NtRp147
(dp148
g66
(dp149
g74
I4
ssg75
Nsg68
(lp150
g61
(g77
g63
NtRp151
(dp152
g66
(dp153
sg75
g147
sg68
(lp154
g61
(g82
g63
NtRp155
(dp156
g66
(dp157
sg75
g151
sg68
(lp158
g61
(g62
g63
NtRp159
(dp160
g66
(dp161
g74
I4
ssg75
g155
sg68
(lp162
S'new'
p163
asbasbasbag61
(g77
g63
NtRp164
(dp165
g66
(dp166
sg75
g147
sg68
(lp167
g61
(g82
g63
NtRp168
(dp169
g66
(dp170
sg75
g164
sg68
(lp171
g61
(g62
g63
NtRp172
(dp173
g66
(dp174
g74
I4
ssg75
g168
sg68
(lp175
S'usuario'
p176
asbasbasbasbasbasbasbag61
(g77
g63
NtRp177
(dp178
g66
(dp179
sg75
g71
sg68
(lp180
g61
(g82
g63
NtRp181
(dp182
g66
(dp183
g86
g87
ssg75
g177
sg68
(lp184
S'body'
p185
asbag61
(g82
g63
NtRp186
(dp187
g66
(dp188
g93
g94
ssg75
g177
sg68
(lp189
S':'
asbag61
(g82
g63
NtRp190
(dp191
g66
(dp192
sg75
g177
sg68
(lp193
g61
(g62
g63
NtRp194
(dp195
g66
(dp196
g74
I5
ssg75
g190
sg68
(lp197
S'<cStringIO.StringO object at 0x7fc5d00e87a0>'
p198
asbasbasbag61
(g77
g63
NtRp199
(dp200
g66
(dp201
sg75
g71
sg68
(lp202
g61
(g82
g63
NtRp203
(dp204
g66
(dp205
g86
g87
ssg75
g199
sg68
(lp206
S'cid'
p207
asbag61
(g82
g63
NtRp208
(dp209
g66
(dp210
g93
g94
ssg75
g199
sg68
(lp211
S':'
asbag61
(g82
g63
NtRp212
(dp213
g66
(dp214
sg75
g199
sg68
(lp215
g61
(g62
g63
NtRp216
(dp217
g66
(dp218
g74
I5
ssg75
g212
sg68
(lp219
S'None'
p220
asbasbasbag61
(g77
g63
NtRp221
(dp222
g66
(dp223
sg75
g71
sg68
(lp224
g61
(g82
g63
NtRp225
(dp226
g66
(dp227
g86
g87
ssg75
g221
sg68
(lp228
S'client'
p229
asbag61
(g82
g63
NtRp230
(dp231
g66
(dp232
g93
g94
ssg75
g221
sg68
(lp233
S':'
asbag61
(g82
g63
NtRp234
(dp235
g66
(dp236
sg75
g221
sg68
(lp237
g61
(g62
g63
NtRp238
(dp239
g66
(dp240
g74
I5
ssg75
g234
sg68
(lp241
S'127.0.0.1'
p242
asbasbasbag61
(g77
g63
NtRp243
(dp244
g66
(dp245
sg75
g71
sg68
(lp246
g61
(g82
g63
NtRp247
(dp248
g66
(dp249
g86
g87
ssg75
g243
sg68
(lp250
S'controller'
p251
asbag61
(g82
g63
NtRp252
(dp253
g66
(dp254
g93
g94
ssg75
g243
sg68
(lp255
S':'
asbag61
(g82
g63
NtRp256
(dp257
g66
(dp258
sg75
g243
sg68
(lp259
g61
(g62
g63
NtRp260
(dp261
g66
(dp262
g74
I5
ssg75
g256
sg68
(lp263
S'initial'
p264
asbasbasbag61
(g77
g63
NtRp265
(dp266
g66
(dp267
sg75
g71
sg68
(lp268
g61
(g82
g63
NtRp269
(dp270
g66
(dp271
g86
g87
ssg75
g265
sg68
(lp272
S'cookies'
p273
asbag61
(g82
g63
NtRp274
(dp275
g66
(dp276
g93
g94
ssg75
g265
sg68
(lp277
S':'
asbag61
(g82
g63
NtRp278
(dp279
g66
(dp280
sg75
g265
sg68
(lp281
g61
(g62
g63
NtRp282
(dp283
g66
(dp284
g74
I5
ssg75
g278
sg68
(lp285
g61
(g70
g63
NtRp286
(dp287
g66
(dp288
g74
I4
ssg75
Nsg68
(lp289
g61
(g77
g63
NtRp290
(dp291
g66
(dp292
sg75
g286
sg68
(lp293
g61
(g82
g63
NtRp294
(dp295
g66
(dp296
g86
g87
ssg75
g290
sg68
(lp297
S'session_id_admin'
p298
asbag61
(g82
g63
NtRp299
(dp300
g66
(dp301
g93
g94
ssg75
g290
sg68
(lp302
S':'
asbag61
(g82
g63
NtRp303
(dp304
g66
(dp305
sg75
g290
sg68
(lp306
g61
(g62
g63
NtRp307
(dp308
g66
(dp309
g74
I4
ssg75
g303
sg68
(lp310
S'127.0.0.1-cfe4c2e7-8d54-4ef8-9acc-85e77aa673da'
p311
ag61
(g70
g63
NtRp312
(dp313
g66
(dp314
g74
I3
ssg75
Nsg68
(lp315
g61
(g77
g63
NtRp316
(dp317
g66
(dp318
sg75
g312
sg68
(lp319
g61
(g82
g63
NtRp320
(dp321
g66
(dp322
g86
g87
ssg75
g316
sg68
(lp323
S'comment'
p324
asbag61
(g82
g63
NtRp325
(dp326
g66
(dp327
g93
g94
ssg75
g316
sg68
(lp328
S':'
asbag61
(g82
g63
NtRp329
(dp330
g66
(dp331
sg75
g316
sg68
(lp332
g61
(g62
g63
NtRp333
(dp334
g66
(dp335
g74
I3
ssg75
g329
sg68
(lp336
S''
asbasbasbag61
(g77
g63
NtRp337
(dp338
g66
(dp339
sg75
g312
sg68
(lp340
g61
(g82
g63
NtRp341
(dp342
g66
(dp343
g86
g87
ssg75
g337
sg68
(lp344
S'domain'
p345
asbag61
(g82
g63
NtRp346
(dp347
g66
(dp348
g93
g94
ssg75
g337
sg68
(lp349
S':'
asbag61
(g82
g63
NtRp350
(dp351
g66
(dp352
sg75
g337
sg68
(lp353
g61
(g62
g63
NtRp354
(dp355
g66
(dp356
g74
I3
ssg75
g350
sg68
(lp357
S''
asbasbasbag61
(g77
g63
NtRp358
(dp359
g66
(dp360
sg75
g312
sg68
(lp361
g61
(g82
g63
NtRp362
(dp363
g66
(dp364
g86
g87
ssg75
g358
sg68
(lp365
S'expires'
p366
asbag61
(g82
g63
NtRp367
(dp368
g66
(dp369
g93
g94
ssg75
g358
sg68
(lp370
S':'
asbag61
(g82
g63
NtRp371
(dp372
g66
(dp373
sg75
g358
sg68
(lp374
g61
(g62
g63
NtRp375
(dp376
g66
(dp377
g74
I3
ssg75
g371
sg68
(lp378
S''
asbasbasbag61
(g77
g63
NtRp379
(dp380
g66
(dp381
sg75
g312
sg68
(lp382
g61
(g82
g63
NtRp383
(dp384
g66
(dp385
g86
g87
ssg75
g379
sg68
(lp386
S'httponly'
p387
asbag61
(g82
g63
NtRp388
(dp389
g66
(dp390
g93
g94
ssg75
g379
sg68
(lp391
S':'
asbag61
(g82
g63
NtRp392
(dp393
g66
(dp394
sg75
g379
sg68
(lp395
g61
(g62
g63
NtRp396
(dp397
g66
(dp398
g74
I3
ssg75
g392
sg68
(lp399
S''
asbasbasbag61
(g77
g63
NtRp400
(dp401
g66
(dp402
sg75
g312
sg68
(lp403
g61
(g82
g63
NtRp404
(dp405
g66
(dp406
g86
g87
ssg75
g400
sg68
(lp407
S'max-age'
p408
asbag61
(g82
g63
NtRp409
(dp410
g66
(dp411
g93
g94
ssg75
g400
sg68
(lp412
S':'
asbag61
(g82
g63
NtRp413
(dp414
g66
(dp415
sg75
g400
sg68
(lp416
g61
(g62
g63
NtRp417
(dp418
g66
(dp419
g74
I3
ssg75
g413
sg68
(lp420
S''
asbasbasbag61
(g77
g63
NtRp421
(dp422
g66
(dp423
sg75
g312
sg68
(lp424
g61
(g82
g63
NtRp425
(dp426
g66
(dp427
g86
g87
ssg75
g421
sg68
(lp428
S'path'
p429
asbag61
(g82
g63
NtRp430
(dp431
g66
(dp432
g93
g94
ssg75
g421
sg68
(lp433
S':'
asbag61
(g82
g63
NtRp434
(dp435
g66
(dp436
sg75
g421
sg68
(lp437
g61
(g62
g63
NtRp438
(dp439
g66
(dp440
g74
I3
ssg75
g434
sg68
(lp441
S''
asbasbasbag61
(g77
g63
NtRp442
(dp443
g66
(dp444
sg75
g312
sg68
(lp445
g61
(g82
g63
NtRp446
(dp447
g66
(dp448
g86
g87
ssg75
g442
sg68
(lp449
S'secure'
p450
asbag61
(g82
g63
NtRp451
(dp452
g66
(dp453
g93
g94
ssg75
g442
sg68
(lp454
S':'
asbag61
(g82
g63
NtRp455
(dp456
g66
(dp457
sg75
g442
sg68
(lp458
g61
(g62
g63
NtRp459
(dp460
g66
(dp461
g74
I3
ssg75
g455
sg68
(lp462
S''
asbasbasbag61
(g77
g63
NtRp463
(dp464
g66
(dp465
sg75
g312
sg68
(lp466
g61
(g82
g63
NtRp467
(dp468
g66
(dp469
g86
g87
ssg75
g463
sg68
(lp470
S'version'
p471
asbag61
(g82
g63
NtRp472
(dp473
g66
(dp474
g93
g94
ssg75
g463
sg68
(lp475
S':'
asbag61
(g82
g63
NtRp476
(dp477
g66
(dp478
sg75
g463
sg68
(lp479
g61
(g62
g63
NtRp480
(dp481
g66
(dp482
g74
I3
ssg75
g476
sg68
(lp483
S''
asbasbasbasbasbasbasbag61
(g77
g63
NtRp484
(dp485
g66
(dp486
sg75
g286
sg68
(lp487
g61
(g82
g63
NtRp488
(dp489
g66
(dp490
g86
g87
ssg75
g484
sg68
(lp491
S'session_id_projeto'
p492
asbag61
(g82
g63
NtRp493
(dp494
g66
(dp495
g93
g94
ssg75
g484
sg68
(lp496
S':'
asbag61
(g82
g63
NtRp497
(dp498
g66
(dp499
sg75
g484
sg68
(lp500
g61
(g62
g63
NtRp501
(dp502
g66
(dp503
g74
I4
ssg75
g497
sg68
(lp504
S'127.0.0.1-32b58d02-0b69-424e-9fa3-773b7f2f336f'
p505
ag61
(g70
g63
NtRp506
(dp507
g66
(dp508
g74
I3
ssg75
Nsg68
(lp509
g61
(g77
g63
NtRp510
(dp511
g66
(dp512
sg75
g506
sg68
(lp513
g61
(g82
g63
NtRp514
(dp515
g66
(dp516
g86
g87
ssg75
g510
sg68
(lp517
g324
asbag61
(g82
g63
NtRp518
(dp519
g66
(dp520
g93
g94
ssg75
g510
sg68
(lp521
S':'
asbag61
(g82
g63
NtRp522
(dp523
g66
(dp524
sg75
g510
sg68
(lp525
g61
(g62
g63
NtRp526
(dp527
g66
(dp528
g74
I3
ssg75
g522
sg68
(lp529
S''
asbasbasbag61
(g77
g63
NtRp530
(dp531
g66
(dp532
sg75
g506
sg68
(lp533
g61
(g82
g63
NtRp534
(dp535
g66
(dp536
g86
g87
ssg75
g530
sg68
(lp537
g345
asbag61
(g82
g63
NtRp538
(dp539
g66
(dp540
g93
g94
ssg75
g530
sg68
(lp541
S':'
asbag61
(g82
g63
NtRp542
(dp543
g66
(dp544
sg75
g530
sg68
(lp545
g61
(g62
g63
NtRp546
(dp547
g66
(dp548
g74
I3
ssg75
g542
sg68
(lp549
S''
asbasbasbag61
(g77
g63
NtRp550
(dp551
g66
(dp552
sg75
g506
sg68
(lp553
g61
(g82
g63
NtRp554
(dp555
g66
(dp556
g86
g87
ssg75
g550
sg68
(lp557
g366
asbag61
(g82
g63
NtRp558
(dp559
g66
(dp560
g93
g94
ssg75
g550
sg68
(lp561
S':'
asbag61
(g82
g63
NtRp562
(dp563
g66
(dp564
sg75
g550
sg68
(lp565
g61
(g62
g63
NtRp566
(dp567
g66
(dp568
g74
I3
ssg75
g562
sg68
(lp569
S''
asbasbasbag61
(g77
g63
NtRp570
(dp571
g66
(dp572
sg75
g506
sg68
(lp573
g61
(g82
g63
NtRp574
(dp575
g66
(dp576
g86
g87
ssg75
g570
sg68
(lp577
g387
asbag61
(g82
g63
NtRp578
(dp579
g66
(dp580
g93
g94
ssg75
g570
sg68
(lp581
S':'
asbag61
(g82
g63
NtRp582
(dp583
g66
(dp584
sg75
g570
sg68
(lp585
g61
(g62
g63
NtRp586
(dp587
g66
(dp588
g74
I3
ssg75
g582
sg68
(lp589
S''
asbasbasbag61
(g77
g63
NtRp590
(dp591
g66
(dp592
sg75
g506
sg68
(lp593
g61
(g82
g63
NtRp594
(dp595
g66
(dp596
g86
g87
ssg75
g590
sg68
(lp597
g408
asbag61
(g82
g63
NtRp598
(dp599
g66
(dp600
g93
g94
ssg75
g590
sg68
(lp601
S':'
asbag61
(g82
g63
NtRp602
(dp603
g66
(dp604
sg75
g590
sg68
(lp605
g61
(g62
g63
NtRp606
(dp607
g66
(dp608
g74
I3
ssg75
g602
sg68
(lp609
S''
asbasbasbag61
(g77
g63
NtRp610
(dp611
g66
(dp612
sg75
g506
sg68
(lp613
g61
(g82
g63
NtRp614
(dp615
g66
(dp616
g86
g87
ssg75
g610
sg68
(lp617
g429
asbag61
(g82
g63
NtRp618
(dp619
g66
(dp620
g93
g94
ssg75
g610
sg68
(lp621
S':'
asbag61
(g82
g63
NtRp622
(dp623
g66
(dp624
sg75
g610
sg68
(lp625
g61
(g62
g63
NtRp626
(dp627
g66
(dp628
g74
I3
ssg75
g622
sg68
(lp629
S''
asbasbasbag61
(g77
g63
NtRp630
(dp631
g66
(dp632
sg75
g506
sg68
(lp633
g61
(g82
g63
NtRp634
(dp635
g66
(dp636
g86
g87
ssg75
g630
sg68
(lp637
g450
asbag61
(g82
g63
NtRp638
(dp639
g66
(dp640
g93
g94
ssg75
g630
sg68
(lp641
S':'
asbag61
(g82
g63
NtRp642
(dp643
g66
(dp644
sg75
g630
sg68
(lp645
g61
(g62
g63
NtRp646
(dp647
g66
(dp648
g74
I3
ssg75
g642
sg68
(lp649
S''
asbasbasbag61
(g77
g63
NtRp650
(dp651
g66
(dp652
sg75
g506
sg68
(lp653
g61
(g82
g63
NtRp654
(dp655
g66
(dp656
g86
g87
ssg75
g650
sg68
(lp657
g471
asbag61
(g82
g63
NtRp658
(dp659
g66
(dp660
g93
g94
ssg75
g650
sg68
(lp661
S':'
asbag61
(g82
g63
NtRp662
(dp663
g66
(dp664
sg75
g650
sg68
(lp665
g61
(g62
g63
NtRp666
(dp667
g66
(dp668
g74
I3
ssg75
g662
sg68
(lp669
S''
asbasbasbasbasbasbasbasbasbasbasbag61
(g77
g63
NtRp670
(dp671
g66
(dp672
sg75
g71
sg68
(lp673
g61
(g82
g63
NtRp674
(dp675
g66
(dp676
g86
g87
ssg75
g670
sg68
(lp677
S'env'
p678
asbag61
(g82
g63
NtRp679
(dp680
g66
(dp681
g93
g94
ssg75
g670
sg68
(lp682
S':'
asbag61
(g82
g63
NtRp683
(dp684
g66
(dp685
sg75
g670
sg68
(lp686
g61
(g62
g63
NtRp687
(dp688
g66
(dp689
g74
I5
ssg75
g683
sg68
(lp690
g61
(g70
g63
NtRp691
(dp692
g66
(dp693
g74
I4
ssg75
Nsg68
(lp694
g61
(g77
g63
NtRp695
(dp696
g66
(dp697
sg75
g691
sg68
(lp698
g61
(g82
g63
NtRp699
(dp700
g66
(dp701
g86
g87
ssg75
g695
sg68
(lp702
S'app_folders'
p703
asbag61
(g82
g63
NtRp704
(dp705
g66
(dp706
g93
g94
ssg75
g695
sg68
(lp707
S':'
asbag61
(g82
g63
NtRp708
(dp709
g66
(dp710
sg75
g695
sg68
(lp711
g61
(g62
g63
NtRp712
(dp713
g66
(dp714
g74
I4
ssg75
g708
sg68
(lp715
S"set(['/var/www/conferencia/applications/admin/', '/var/www/conferencia/applications/projeto/'])"
p716
asbasbasbag61
(g77
g63
NtRp717
(dp718
g66
(dp719
sg75
g691
sg68
(lp720
g61
(g82
g63
NtRp721
(dp722
g66
(dp723
g86
g87
ssg75
g717
sg68
(lp724
S'applications_parent'
p725
asbag61
(g82
g63
NtRp726
(dp727
g66
(dp728
g93
g94
ssg75
g717
sg68
(lp729
S':'
asbag61
(g82
g63
NtRp730
(dp731
g66
(dp732
sg75
g717
sg68
(lp733
g61
(g62
g63
NtRp734
(dp735
g66
(dp736
g74
I4
ssg75
g730
sg68
(lp737
S'/var/www/conferencia'
p738
asbasbasbag61
(g77
g63
NtRp739
(dp740
g66
(dp741
sg75
g691
sg68
(lp742
g61
(g82
g63
NtRp743
(dp744
g66
(dp745
g86
g87
ssg75
g739
sg68
(lp746
S'cmd_args'
p747
asbag61
(g82
g63
NtRp748
(dp749
g66
(dp750
g93
g94
ssg75
g739
sg68
(lp751
S':'
asbag61
(g82
g63
NtRp752
(dp753
g66
(dp754
sg75
g739
sg68
(lp755
g61
(g62
g63
NtRp756
(dp757
g66
(dp758
g74
I4
ssg75
g752
sg68
(lp759
g61
(g70
g63
NtRp760
(dp761
g66
(dp762
g74
I3
ssg75
Nsg68
(lp763
sbasbasbasbag61
(g77
g63
NtRp764
(dp765
g66
(dp766
sg75
g691
sg68
(lp767
g61
(g82
g63
NtRp768
(dp769
g66
(dp770
g86
g87
ssg75
g764
sg68
(lp771
S'cmd_options'
p772
asbag61
(g82
g63
NtRp773
(dp774
g66
(dp775
g93
g94
ssg75
g764
sg68
(lp776
S':'
asbag61
(g82
g63
NtRp777
(dp778
g66
(dp779
sg75
g764
sg68
(lp780
g61
(g62
g63
NtRp781
(dp782
g66
(dp783
g74
I4
ssg75
g777
sg68
(lp784
S"<Values at 0x3027248: {'verbose': False, 'ip': '127.0.0.1', 'with_scheduler': False, 'ips': [], 'shutdown_timeout': 5, 'taskbar': False, 'port': 8000, 'maxthreads': None, 'softcron': False, 'server_name': 'fernando-workstation', 'bpython': False, 'nogui': False, 'pid_filename': 'httpserver.pid', 'extcron': False, 'runcron': False, 'run_system_tests': False, 'test': None, 'folder': '/var/www/conferencia', 'config': '', 'minthreads': None, 'winservice': '', 'shell': None, 'run': '', 'log_filename': 'httpserver.log', 'debuglevel': 30, 'args': [''], 'socket_timeout': 5, 'ssl_ca_certificate': None, 'scheduler': None, 'profiler_filename': None, 'ssl_private_key': '', 'scheduler_groups': None, 'password': '123456', 'request_queue_size': 5, 'ssl_certificate': '', 'cronjob': False, 'numthreads': None, 'quiet': False, 'interfaces': None, 'import_models': False, 'timeout': 10, 'plain': False, 'nobanner': False}>"
p785
asbasbasbag61
(g77
g63
NtRp786
(dp787
g66
(dp788
sg75
g691
sg68
(lp789
g61
(g82
g63
NtRp790
(dp791
g66
(dp792
g86
g87
ssg75
g786
sg68
(lp793
S'db_sessions'
p794
asbag61
(g82
g63
NtRp795
(dp796
g66
(dp797
g93
g94
ssg75
g786
sg68
(lp798
S':'
asbag61
(g82
g63
NtRp799
(dp800
g66
(dp801
sg75
g786
sg68
(lp802
g61
(g62
g63
NtRp803
(dp804
g66
(dp805
g74
I4
ssg75
g799
sg68
(lp806
S'set([])'
p807
asbasbasbag61
(g77
g63
NtRp808
(dp809
g66
(dp810
sg75
g691
sg68
(lp811
g61
(g82
g63
NtRp812
(dp813
g66
(dp814
g86
g87
ssg75
g808
sg68
(lp815
S'debugging'
p816
asbag61
(g82
g63
NtRp817
(dp818
g66
(dp819
g93
g94
ssg75
g808
sg68
(lp820
S':'
asbag61
(g82
g63
NtRp821
(dp822
g66
(dp823
sg75
g808
sg68
(lp824
g61
(g62
g63
NtRp825
(dp826
g66
(dp827
g74
I4
ssg75
g821
sg68
(lp828
g104
asbasbasbag61
(g77
g63
NtRp829
(dp830
g66
(dp831
sg75
g691
sg68
(lp832
g61
(g82
g63
NtRp833
(dp834
g66
(dp835
g86
g87
ssg75
g829
sg68
(lp836
S'gluon_parent'
p837
asbag61
(g82
g63
NtRp838
(dp839
g66
(dp840
g93
g94
ssg75
g829
sg68
(lp841
S':'
asbag61
(g82
g63
NtRp842
(dp843
g66
(dp844
sg75
g829
sg68
(lp845
g61
(g62
g63
NtRp846
(dp847
g66
(dp848
g74
I4
ssg75
g842
sg68
(lp849
S'/var/www/conferencia'
p850
asbasbasbag61
(g77
g63
NtRp851
(dp852
g66
(dp853
sg75
g691
sg68
(lp854
g61
(g82
g63
NtRp855
(dp856
g66
(dp857
g86
g87
ssg75
g851
sg68
(lp858
S'http_accept'
p859
asbag61
(g82
g63
NtRp860
(dp861
g66
(dp862
g93
g94
ssg75
g851
sg68
(lp863
S':'
asbag61
(g82
g63
NtRp864
(dp865
g66
(dp866
sg75
g851
sg68
(lp867
g61
(g62
g63
NtRp868
(dp869
g66
(dp870
g74
I4
ssg75
g864
sg68
(lp871
S'text/html,application/xhtml+xml,application/xml;q=0.9,*/*;q=0.8'
p872
asbasbasbag61
(g77
g63
NtRp873
(dp874
g66
(dp875
sg75
g691
sg68
(lp876
g61
(g82
g63
NtRp877
(dp878
g66
(dp879
g86
g87
ssg75
g873
sg68
(lp880
S'http_accept_charset'
p881
asbag61
(g82
g63
NtRp882
(dp883
g66
(dp884
g93
g94
ssg75
g873
sg68
(lp885
S':'
asbag61
(g82
g63
NtRp886
(dp887
g66
(dp888
sg75
g873
sg68
(lp889
g61
(g62
g63
NtRp890
(dp891
g66
(dp892
g74
I4
ssg75
g886
sg68
(lp893
S'ISO-8859-1,utf-8;q=0.7,*;q=0.3'
p894
asbasbasbag61
(g77
g63
NtRp895
(dp896
g66
(dp897
sg75
g691
sg68
(lp898
g61
(g82
g63
NtRp899
(dp900
g66
(dp901
g86
g87
ssg75
g895
sg68
(lp902
S'http_accept_encoding'
p903
asbag61
(g82
g63
NtRp904
(dp905
g66
(dp906
g93
g94
ssg75
g895
sg68
(lp907
S':'
asbag61
(g82
g63
NtRp908
(dp909
g66
(dp910
sg75
g895
sg68
(lp911
g61
(g62
g63
NtRp912
(dp913
g66
(dp914
g74
I4
ssg75
g908
sg68
(lp915
S'gzip,deflate,sdch'
p916
asbasbasbag61
(g77
g63
NtRp917
(dp918
g66
(dp919
sg75
g691
sg68
(lp920
g61
(g82
g63
NtRp921
(dp922
g66
(dp923
g86
g87
ssg75
g917
sg68
(lp924
S'http_accept_language'
p925
asbag61
(g82
g63
NtRp926
(dp927
g66
(dp928
g93
g94
ssg75
g917
sg68
(lp929
S':'
asbag61
(g82
g63
NtRp930
(dp931
g66
(dp932
sg75
g917
sg68
(lp933
g61
(g62
g63
NtRp934
(dp935
g66
(dp936
g74
I4
ssg75
g930
sg68
(lp937
S'pt-BR,pt;q=0.8,en-US;q=0.6,en;q=0.4'
p938
asbasbasbag61
(g77
g63
NtRp939
(dp940
g66
(dp941
sg75
g691
sg68
(lp942
g61
(g82
g63
NtRp943
(dp944
g66
(dp945
g86
g87
ssg75
g939
sg68
(lp946
S'http_connection'
p947
asbag61
(g82
g63
NtRp948
(dp949
g66
(dp950
g93
g94
ssg75
g939
sg68
(lp951
S':'
asbag61
(g82
g63
NtRp952
(dp953
g66
(dp954
sg75
g939
sg68
(lp955
g61
(g62
g63
NtRp956
(dp957
g66
(dp958
g74
I4
ssg75
g952
sg68
(lp959
S'keep-alive'
p960
asbasbasbag61
(g77
g63
NtRp961
(dp962
g66
(dp963
sg75
g691
sg68
(lp964
g61
(g82
g63
NtRp965
(dp966
g66
(dp967
g86
g87
ssg75
g961
sg68
(lp968
S'http_cookie'
p969
asbag61
(g82
g63
NtRp970
(dp971
g66
(dp972
g93
g94
ssg75
g961
sg68
(lp973
S':'
asbag61
(g82
g63
NtRp974
(dp975
g66
(dp976
sg75
g961
sg68
(lp977
g61
(g62
g63
NtRp978
(dp979
g66
(dp980
g74
I4
ssg75
g974
sg68
(lp981
S'session_id_admin=127.0.0.1-cfe4c2e7-8d54-4ef8-9acc-85e77aa673da; session_id_projeto=127.0.0.1-32b58d02-0b69-424e-9fa3-773b7f2f336f'
p982
asbasbasbag61
(g77
g63
NtRp983
(dp984
g66
(dp985
sg75
g691
sg68
(lp986
g61
(g82
g63
NtRp987
(dp988
g66
(dp989
g86
g87
ssg75
g983
sg68
(lp990
S'http_host'
p991
asbag61
(g82
g63
NtRp992
(dp993
g66
(dp994
g93
g94
ssg75
g983
sg68
(lp995
S':'
asbag61
(g82
g63
NtRp996
(dp997
g66
(dp998
sg75
g983
sg68
(lp999
g61
(g62
g63
NtRp1000
(dp1001
g66
(dp1002
g74
I4
ssg75
g996
sg68
(lp1003
S'127.0.0.1:8000'
p1004
asbasbasbag61
(g77
g63
NtRp1005
(dp1006
g66
(dp1007
sg75
g691
sg68
(lp1008
g61
(g82
g63
NtRp1009
(dp1010
g66
(dp1011
g86
g87
ssg75
g1005
sg68
(lp1012
S'http_referer'
p1013
asbag61
(g82
g63
NtRp1014
(dp1015
g66
(dp1016
g93
g94
ssg75
g1005
sg68
(lp1017
S':'
asbag61
(g82
g63
NtRp1018
(dp1019
g66
(dp1020
sg75
g1005
sg68
(lp1021
g61
(g62
g63
NtRp1022
(dp1023
g66
(dp1024
g74
I4
ssg75
g1018
sg68
(lp1025
S'http://127.0.0.1:8000/'
p1026
asbasbasbag61
(g77
g63
NtRp1027
(dp1028
g66
(dp1029
sg75
g691
sg68
(lp1030
g61
(g82
g63
NtRp1031
(dp1032
g66
(dp1033
g86
g87
ssg75
g1027
sg68
(lp1034
S'http_user_agent'
p1035
asbag61
(g82
g63
NtRp1036
(dp1037
g66
(dp1038
g93
g94
ssg75
g1027
sg68
(lp1039
S':'
asbag61
(g82
g63
NtRp1040
(dp1041
g66
(dp1042
sg75
g1027
sg68
(lp1043
g61
(g62
g63
NtRp1044
(dp1045
g66
(dp1046
g74
I4
ssg75
g1040
sg68
(lp1047
S'Mozilla/5.0 (X11; Linux x86_64) AppleWebKit/537.4 (KHTML, like Gecko) Ubuntu/12.10 Chromium/22.0.1229.94 Chrome/22.0.1229.94 Safari/537.4'
p1048
asbasbasbag61
(g77
g63
NtRp1049
(dp1050
g66
(dp1051
sg75
g691
sg68
(lp1052
g61
(g82
g63
NtRp1053
(dp1054
g66
(dp1055
g86
g87
ssg75
g1049
sg68
(lp1056
S'is_jython'
p1057
asbag61
(g82
g63
NtRp1058
(dp1059
g66
(dp1060
g93
g94
ssg75
g1049
sg68
(lp1061
S':'
asbag61
(g82
g63
NtRp1062
(dp1063
g66
(dp1064
sg75
g1049
sg68
(lp1065
g61
(g62
g63
NtRp1066
(dp1067
g66
(dp1068
g74
I4
ssg75
g1062
sg68
(lp1069
g104
asbasbasbag61
(g77
g63
NtRp1070
(dp1071
g66
(dp1072
sg75
g691
sg68
(lp1073
g61
(g82
g63
NtRp1074
(dp1075
g66
(dp1076
g86
g87
ssg75
g1070
sg68
(lp1077
S'is_pypy'
p1078
asbag61
(g82
g63
NtRp1079
(dp1080
g66
(dp1081
g93
g94
ssg75
g1070
sg68
(lp1082
S':'
asbag61
(g82
g63
NtRp1083
(dp1084
g66
(dp1085
sg75
g1070
sg68
(lp1086
g61
(g62
g63
NtRp1087
(dp1088
g66
(dp1089
g74
I4
ssg75
g1083
sg68
(lp1090
g104
asbasbasbag61
(g77
g63
NtRp1091
(dp1092
g66
(dp1093
sg75
g691
sg68
(lp1094
g61
(g82
g63
NtRp1095
(dp1096
g66
(dp1097
g86
g87
ssg75
g1091
sg68
(lp1098
S'local_hosts'
p1099
asbag61
(g82
g63
NtRp1100
(dp1101
g66
(dp1102
g93
g94
ssg75
g1091
sg68
(lp1103
S':'
asbag61
(g82
g63
NtRp1104
(dp1105
g66
(dp1106
sg75
g1091
sg68
(lp1107
g61
(g62
g63
NtRp1108
(dp1109
g66
(dp1110
g74
I4
ssg75
g1104
sg68
(lp1111
g61
(g70
g63
NtRp1112
(dp1113
g66
(dp1114
g74
I3
ssg75
Nsg68
(lp1115
g61
(g77
g63
NtRp1116
(dp1117
g66
(dp1118
sg75
g1112
sg68
(lp1119
g61
(g82
g63
NtRp1120
(dp1121
g66
(dp1122
sg75
g1116
sg68
(lp1123
g61
(g62
g63
NtRp1124
(dp1125
g66
(dp1126
g74
I3
ssg75
g1120
sg68
(lp1127
S'::1'
p1128
asbasbasbag61
(g77
g63
NtRp1129
(dp1130
g66
(dp1131
sg75
g1112
sg68
(lp1132
g61
(g82
g63
NtRp1133
(dp1134
g66
(dp1135
sg75
g1129
sg68
(lp1136
g61
(g62
g63
NtRp1137
(dp1138
g66
(dp1139
g74
I3
ssg75
g1133
sg68
(lp1140
S'::ffff:127.0.0.1'
p1141
asbasbasbag61
(g77
g63
NtRp1142
(dp1143
g66
(dp1144
sg75
g1112
sg68
(lp1145
g61
(g82
g63
NtRp1146
(dp1147
g66
(dp1148
sg75
g1142
sg68
(lp1149
g61
(g62
g63
NtRp1150
(dp1151
g66
(dp1152
g74
I3
ssg75
g1146
sg68
(lp1153
S'127.0.0.1'
p1154
asbasbasbag61
(g77
g63
NtRp1155
(dp1156
g66
(dp1157
sg75
g1112
sg68
(lp1158
g61
(g82
g63
NtRp1159
(dp1160
g66
(dp1161
sg75
g1155
sg68
(lp1162
g61
(g62
g63
NtRp1163
(dp1164
g66
(dp1165
g74
I3
ssg75
g1159
sg68
(lp1166
S'fernando-workstation'
p1167
asbasbasbasbasbasbasbag61
(g77
g63
NtRp1168
(dp1169
g66
(dp1170
sg75
g691
sg68
(lp1171
g61
(g82
g63
NtRp1172
(dp1173
g66
(dp1174
g86
g87
ssg75
g1168
sg68
(lp1175
S'path_info'
p1176
asbag61
(g82
g63
NtRp1177
(dp1178
g66
(dp1179
g93
g94
ssg75
g1168
sg68
(lp1180
S':'
asbag61
(g82
g63
NtRp1181
(dp1182
g66
(dp1183
sg75
g1168
sg68
(lp1184
g61
(g62
g63
NtRp1185
(dp1186
g66
(dp1187
g74
I4
ssg75
g1181
sg68
(lp1188
S'/new/usuario'
p1189
asbasbasbag61
(g77
g63
NtRp1190
(dp1191
g66
(dp1192
sg75
g691
sg68
(lp1193
g61
(g82
g63
NtRp1194
(dp1195
g66
(dp1196
g86
g87
ssg75
g1190
sg68
(lp1197
S'query_string'
p1198
asbag61
(g82
g63
NtRp1199
(dp1200
g66
(dp1201
g93
g94
ssg75
g1190
sg68
(lp1202
S':'
asbag61
(g82
g63
NtRp1203
(dp1204
g66
(dp1205
sg75
g1190
sg68
(lp1206
g61
(g62
g63
NtRp1207
(dp1208
g66
(dp1209
g74
I4
ssg75
g1203
sg68
(lp1210
S''
asbasbasbag61
(g77
g63
NtRp1211
(dp1212
g66
(dp1213
sg75
g691
sg68
(lp1214
g61
(g82
g63
NtRp1215
(dp1216
g66
(dp1217
g86
g87
ssg75
g1211
sg68
(lp1218
S'remote_addr'
p1219
asbag61
(g82
g63
NtRp1220
(dp1221
g66
(dp1222
g93
g94
ssg75
g1211
sg68
(lp1223
S':'
asbag61
(g82
g63
NtRp1224
(dp1225
g66
(dp1226
sg75
g1211
sg68
(lp1227
g61
(g62
g63
NtRp1228
(dp1229
g66
(dp1230
g74
I4
ssg75
g1224
sg68
(lp1231
g242
asbasbasbag61
(g77
g63
NtRp1232
(dp1233
g66
(dp1234
sg75
g691
sg68
(lp1235
g61
(g82
g63
NtRp1236
(dp1237
g66
(dp1238
g86
g87
ssg75
g1232
sg68
(lp1239
S'remote_port'
p1240
asbag61
(g82
g63
NtRp1241
(dp1242
g66
(dp1243
g93
g94
ssg75
g1232
sg68
(lp1244
S':'
asbag61
(g82
g63
NtRp1245
(dp1246
g66
(dp1247
sg75
g1232
sg68
(lp1248
g61
(g62
g63
NtRp1249
(dp1250
g66
(dp1251
g74
I4
ssg75
g1245
sg68
(lp1252
S'41195'
p1253
asbasbasbag61
(g77
g63
NtRp1254
(dp1255
g66
(dp1256
sg75
g691
sg68
(lp1257
g61
(g82
g63
NtRp1258
(dp1259
g66
(dp1260
g86
g87
ssg75
g1254
sg68
(lp1261
S'request_method'
p1262
asbag61
(g82
g63
NtRp1263
(dp1264
g66
(dp1265
g93
g94
ssg75
g1254
sg68
(lp1266
S':'
asbag61
(g82
g63
NtRp1267
(dp1268
g66
(dp1269
sg75
g1254
sg68
(lp1270
g61
(g62
g63
NtRp1271
(dp1272
g66
(dp1273
g74
I4
ssg75
g1267
sg68
(lp1274
S'GET'
p1275
asbasbasbag61
(g77
g63
NtRp1276
(dp1277
g66
(dp1278
sg75
g691
sg68
(lp1279
g61
(g82
g63
NtRp1280
(dp1281
g66
(dp1282
g86
g87
ssg75
g1276
sg68
(lp1283
S'request_uri'
p1284
asbag61
(g82
g63
NtRp1285
(dp1286
g66
(dp1287
g93
g94
ssg75
g1276
sg68
(lp1288
S':'
asbag61
(g82
g63
NtRp1289
(dp1290
g66
(dp1291
sg75
g1276
sg68
(lp1292
g61
(g62
g63
NtRp1293
(dp1294
g66
(dp1295
g74
I4
ssg75
g1289
sg68
(lp1296
S'/projeto/initial/principal/new/usuario'
p1297
asbasbasbag61
(g77
g63
NtRp1298
(dp1299
g66
(dp1300
sg75
g691
sg68
(lp1301
g61
(g82
g63
NtRp1302
(dp1303
g66
(dp1304
g86
g87
ssg75
g1298
sg68
(lp1305
S'script_name'
p1306
asbag61
(g82
g63
NtRp1307
(dp1308
g66
(dp1309
g93
g94
ssg75
g1298
sg68
(lp1310
S':'
asbag61
(g82
g63
NtRp1311
(dp1312
g66
(dp1313
sg75
g1298
sg68
(lp1314
g61
(g62
g63
NtRp1315
(dp1316
g66
(dp1317
g74
I4
ssg75
g1311
sg68
(lp1318
S''
asbasbasbag61
(g77
g63
NtRp1319
(dp1320
g66
(dp1321
sg75
g691
sg68
(lp1322
g61
(g82
g63
NtRp1323
(dp1324
g66
(dp1325
g86
g87
ssg75
g1319
sg68
(lp1326
S'server_name'
p1327
asbag61
(g82
g63
NtRp1328
(dp1329
g66
(dp1330
g93
g94
ssg75
g1319
sg68
(lp1331
S':'
asbag61
(g82
g63
NtRp1332
(dp1333
g66
(dp1334
sg75
g1319
sg68
(lp1335
g61
(g62
g63
NtRp1336
(dp1337
g66
(dp1338
g74
I4
ssg75
g1332
sg68
(lp1339
S'fernando-workstation'
p1340
asbasbasbag61
(g77
g63
NtRp1341
(dp1342
g66
(dp1343
sg75
g691
sg68
(lp1344
g61
(g82
g63
NtRp1345
(dp1346
g66
(dp1347
g86
g87
ssg75
g1341
sg68
(lp1348
S'server_port'
p1349
asbag61
(g82
g63
NtRp1350
(dp1351
g66
(dp1352
g93
g94
ssg75
g1341
sg68
(lp1353
S':'
asbag61
(g82
g63
NtRp1354
(dp1355
g66
(dp1356
sg75
g1341
sg68
(lp1357
g61
(g62
g63
NtRp1358
(dp1359
g66
(dp1360
g74
I4
ssg75
g1354
sg68
(lp1361
S'8000'
p1362
asbasbasbag61
(g77
g63
NtRp1363
(dp1364
g66
(dp1365
sg75
g691
sg68
(lp1366
g61
(g82
g63
NtRp1367
(dp1368
g66
(dp1369
g86
g87
ssg75
g1363
sg68
(lp1370
S'server_protocol'
p1371
asbag61
(g82
g63
NtRp1372
(dp1373
g66
(dp1374
g93
g94
ssg75
g1363
sg68
(lp1375
S':'
asbag61
(g82
g63
NtRp1376
(dp1377
g66
(dp1378
sg75
g1363
sg68
(lp1379
g61
(g62
g63
NtRp1380
(dp1381
g66
(dp1382
g74
I4
ssg75
g1376
sg68
(lp1383
S'HTTP/1.1'
p1384
asbasbasbag61
(g77
g63
NtRp1385
(dp1386
g66
(dp1387
sg75
g691
sg68
(lp1388
g61
(g82
g63
NtRp1389
(dp1390
g66
(dp1391
g86
g87
ssg75
g1385
sg68
(lp1392
S'server_software'
p1393
asbag61
(g82
g63
NtRp1394
(dp1395
g66
(dp1396
g93
g94
ssg75
g1385
sg68
(lp1397
S':'
asbag61
(g82
g63
NtRp1398
(dp1399
g66
(dp1400
sg75
g1385
sg68
(lp1401
g61
(g62
g63
NtRp1402
(dp1403
g66
(dp1404
g74
I4
ssg75
g1398
sg68
(lp1405
S'Rocket 1.2.6'
p1406
asbasbasbag61
(g77
g63
NtRp1407
(dp1408
g66
(dp1409
sg75
g691
sg68
(lp1410
g61
(g82
g63
NtRp1411
(dp1412
g66
(dp1413
g86
g87
ssg75
g1407
sg68
(lp1414
S'web2py_original_uri'
p1415
asbag61
(g82
g63
NtRp1416
(dp1417
g66
(dp1418
g93
g94
ssg75
g1407
sg68
(lp1419
S':'
asbag61
(g82
g63
NtRp1420
(dp1421
g66
(dp1422
sg75
g1407
sg68
(lp1423
g61
(g62
g63
NtRp1424
(dp1425
g66
(dp1426
g74
I4
ssg75
g1420
sg68
(lp1427
g1189
asbasbasbag61
(g77
g63
NtRp1428
(dp1429
g66
(dp1430
sg75
g691
sg68
(lp1431
g61
(g82
g63
NtRp1432
(dp1433
g66
(dp1434
g86
g87
ssg75
g1428
sg68
(lp1435
S'web2py_path'
p1436
asbag61
(g82
g63
NtRp1437
(dp1438
g66
(dp1439
g93
g94
ssg75
g1428
sg68
(lp1440
S':'
asbag61
(g82
g63
NtRp1441
(dp1442
g66
(dp1443
sg75
g1428
sg68
(lp1444
g61
(g62
g63
NtRp1445
(dp1446
g66
(dp1447
g74
I4
ssg75
g1441
sg68
(lp1448
g738
asbasbasbag61
(g77
g63
NtRp1449
(dp1450
g66
(dp1451
sg75
g691
sg68
(lp1452
g61
(g82
g63
NtRp1453
(dp1454
g66
(dp1455
g86
g87
ssg75
g1449
sg68
(lp1456
S'web2py_version'
p1457
asbag61
(g82
g63
NtRp1458
(dp1459
g66
(dp1460
g93
g94
ssg75
g1449
sg68
(lp1461
S':'
asbag61
(g82
g63
NtRp1462
(dp1463
g66
(dp1464
sg75
g1449
sg68
(lp1465
g61
(g62
g63
NtRp1466
(dp1467
g66
(dp1468
g74
I4
ssg75
g1462
sg68
(lp1469
g61
(g70
g63
NtRp1470
(dp1471
g66
(dp1472
g74
I3
ssg75
Nsg68
(lp1473
g61
(g77
g63
NtRp1474
(dp1475
g66
(dp1476
sg75
g1470
sg68
(lp1477
g61
(g82
g63
NtRp1478
(dp1479
g66
(dp1480
sg75
g1474
sg68
(lp1481
g61
(g62
g63
NtRp1482
(dp1483
g66
(dp1484
g74
I3
ssg75
g1478
sg68
(lp1485
S'2'
asbasbasbag61
(g77
g63
NtRp1486
(dp1487
g66
(dp1488
sg75
g1470
sg68
(lp1489
g61
(g82
g63
NtRp1490
(dp1491
g66
(dp1492
sg75
g1486
sg68
(lp1493
g61
(g62
g63
NtRp1494
(dp1495
g66
(dp1496
g74
I3
ssg75
g1490
sg68
(lp1497
S'3'
asbasbasbag61
(g77
g63
NtRp1498
(dp1499
g66
(dp1500
sg75
g1470
sg68
(lp1501
g61
(g82
g63
NtRp1502
(dp1503
g66
(dp1504
sg75
g1498
sg68
(lp1505
g61
(g62
g63
NtRp1506
(dp1507
g66
(dp1508
g74
I3
ssg75
g1502
sg68
(lp1509
S'2'
asbasbasbag61
(g77
g63
NtRp1510
(dp1511
g66
(dp1512
sg75
g1470
sg68
(lp1513
g61
(g82
g63
NtRp1514
(dp1515
g66
(dp1516
sg75
g1510
sg68
(lp1517
g61
(g62
g63
NtRp1518
(dp1519
g66
(dp1520
g74
I3
ssg75
g1514
sg68
(lp1521
S'datetime.datetime(2012, 12, 17, 15, 3, 30)'
p1522
asbasbasbag61
(g77
g63
NtRp1523
(dp1524
g66
(dp1525
sg75
g1470
sg68
(lp1526
g61
(g82
g63
NtRp1527
(dp1528
g66
(dp1529
sg75
g1523
sg68
(lp1530
g61
(g62
g63
NtRp1531
(dp1532
g66
(dp1533
g74
I3
ssg75
g1527
sg68
(lp1534
S'stable'
p1535
asbasbasbasbasbasbasbag61
(g77
g63
NtRp1536
(dp1537
g66
(dp1538
sg75
g691
sg68
(lp1539
g61
(g82
g63
NtRp1540
(dp1541
g66
(dp1542
g86
g87
ssg75
g1536
sg68
(lp1543
S'wsgi_errors'
p1544
asbag61
(g82
g63
NtRp1545
(dp1546
g66
(dp1547
g93
g94
ssg75
g1536
sg68
(lp1548
S':'
asbag61
(g82
g63
NtRp1549
(dp1550
g66
(dp1551
sg75
g1536
sg68
(lp1552
g61
(g62
g63
NtRp1553
(dp1554
g66
(dp1555
g74
I4
ssg75
g1549
sg68
(lp1556
S"<open file '<stderr>', mode 'w' at 0x7fc5ebe43270>"
p1557
asbasbasbag61
(g77
g63
NtRp1558
(dp1559
g66
(dp1560
sg75
g691
sg68
(lp1561
g61
(g82
g63
NtRp1562
(dp1563
g66
(dp1564
g86
g87
ssg75
g1558
sg68
(lp1565
S'wsgi_file_wrapper'
p1566
asbag61
(g82
g63
NtRp1567
(dp1568
g66
(dp1569
g93
g94
ssg75
g1558
sg68
(lp1570
S':'
asbag61
(g82
g63
NtRp1571
(dp1572
g66
(dp1573
sg75
g1558
sg68
(lp1574
g61
(g62
g63
NtRp1575
(dp1576
g66
(dp1577
g74
I4
ssg75
g1571
sg68
(lp1578
S'<class wsgiref.util.FileWrapper at 0x2f9f598>'
p1579
asbasbasbag61
(g77
g63
NtRp1580
(dp1581
g66
(dp1582
sg75
g691
sg68
(lp1583
g61
(g82
g63
NtRp1584
(dp1585
g66
(dp1586
g86
g87
ssg75
g1580
sg68
(lp1587
S'wsgi_input'
p1588
asbag61
(g82
g63
NtRp1589
(dp1590
g66
(dp1591
g93
g94
ssg75
g1580
sg68
(lp1592
S':'
asbag61
(g82
g63
NtRp1593
(dp1594
g66
(dp1595
sg75
g1580
sg68
(lp1596
g61
(g62
g63
NtRp1597
(dp1598
g66
(dp1599
g74
I4
ssg75
g1593
sg68
(lp1600
S'<socket._fileobject object at 0x7fc5d8b7e0d0>'
p1601
asbasbasbag61
(g77
g63
NtRp1602
(dp1603
g66
(dp1604
sg75
g691
sg68
(lp1605
g61
(g82
g63
NtRp1606
(dp1607
g66
(dp1608
g86
g87
ssg75
g1602
sg68
(lp1609
S'wsgi_multiprocess'
p1610
asbag61
(g82
g63
NtRp1611
(dp1612
g66
(dp1613
g93
g94
ssg75
g1602
sg68
(lp1614
S':'
asbag61
(g82
g63
NtRp1615
(dp1616
g66
(dp1617
sg75
g1602
sg68
(lp1618
g61
(g62
g63
NtRp1619
(dp1620
g66
(dp1621
g74
I4
ssg75
g1615
sg68
(lp1622
g104
asbasbasbag61
(g77
g63
NtRp1623
(dp1624
g66
(dp1625
sg75
g691
sg68
(lp1626
g61
(g82
g63
NtRp1627
(dp1628
g66
(dp1629
g86
g87
ssg75
g1623
sg68
(lp1630
S'wsgi_multithread'
p1631
asbag61
(g82
g63
NtRp1632
(dp1633
g66
(dp1634
g93
g94
ssg75
g1623
sg68
(lp1635
S':'
asbag61
(g82
g63
NtRp1636
(dp1637
g66
(dp1638
sg75
g1623
sg68
(lp1639
g61
(g62
g63
NtRp1640
(dp1641
g66
(dp1642
g74
I4
ssg75
g1636
sg68
(lp1643
S'True'
p1644
asbasbasbag61
(g77
g63
NtRp1645
(dp1646
g66
(dp1647
sg75
g691
sg68
(lp1648
g61
(g82
g63
NtRp1649
(dp1650
g66
(dp1651
g86
g87
ssg75
g1645
sg68
(lp1652
S'wsgi_run_once'
p1653
asbag61
(g82
g63
NtRp1654
(dp1655
g66
(dp1656
g93
g94
ssg75
g1645
sg68
(lp1657
S':'
asbag61
(g82
g63
NtRp1658
(dp1659
g66
(dp1660
sg75
g1645
sg68
(lp1661
g61
(g62
g63
NtRp1662
(dp1663
g66
(dp1664
g74
I4
ssg75
g1658
sg68
(lp1665
g104
asbasbasbag61
(g77
g63
NtRp1666
(dp1667
g66
(dp1668
sg75
g691
sg68
(lp1669
g61
(g82
g63
NtRp1670
(dp1671
g66
(dp1672
g86
g87
ssg75
g1666
sg68
(lp1673
S'wsgi_url_scheme'
p1674
asbag61
(g82
g63
NtRp1675
(dp1676
g66
(dp1677
g93
g94
ssg75
g1666
sg68
(lp1678
S':'
asbag61
(g82
g63
NtRp1679
(dp1680
g66
(dp1681
sg75
g1666
sg68
(lp1682
g61
(g62
g63
NtRp1683
(dp1684
g66
(dp1685
g74
I4
ssg75
g1679
sg68
(lp1686
S'http'
p1687
asbasbasbag61
(g77
g63
NtRp1688
(dp1689
g66
(dp1690
sg75
g691
sg68
(lp1691
g61
(g82
g63
NtRp1692
(dp1693
g66
(dp1694
g86
g87
ssg75
g1688
sg68
(lp1695
S'wsgi_version'
p1696
asbag61
(g82
g63
NtRp1697
(dp1698
g66
(dp1699
g93
g94
ssg75
g1688
sg68
(lp1700
S':'
asbag61
(g82
g63
NtRp1701
(dp1702
g66
(dp1703
sg75
g1688
sg68
(lp1704
g61
(g62
g63
NtRp1705
(dp1706
g66
(dp1707
g74
I4
ssg75
g1701
sg68
(lp1708
g61
(g70
g63
NtRp1709
(dp1710
g66
(dp1711
g74
I3
ssg75
Nsg68
(lp1712
g61
(g77
g63
NtRp1713
(dp1714
g66
(dp1715
sg75
g1709
sg68
(lp1716
g61
(g82
g63
NtRp1717
(dp1718
g66
(dp1719
sg75
g1713
sg68
(lp1720
g61
(g62
g63
NtRp1721
(dp1722
g66
(dp1723
g74
I3
ssg75
g1717
sg68
(lp1724
S'1'
asbasbasbag61
(g77
g63
NtRp1725
(dp1726
g66
(dp1727
sg75
g1709
sg68
(lp1728
g61
(g82
g63
NtRp1729
(dp1730
g66
(dp1731
sg75
g1725
sg68
(lp1732
g61
(g62
g63
NtRp1733
(dp1734
g66
(dp1735
g74
I3
ssg75
g1729
sg68
(lp1736
S'0'
asbasbasbasbasbasbasbasbasbasbasbag61
(g77
g63
NtRp1737
(dp1738
g66
(dp1739
sg75
g71
sg68
(lp1740
g61
(g82
g63
NtRp1741
(dp1742
g66
(dp1743
g86
g87
ssg75
g1737
sg68
(lp1744
S'extension'
p1745
asbag61
(g82
g63
NtRp1746
(dp1747
g66
(dp1748
g93
g94
ssg75
g1737
sg68
(lp1749
S':'
asbag61
(g82
g63
NtRp1750
(dp1751
g66
(dp1752
sg75
g1737
sg68
(lp1753
g61
(g62
g63
NtRp1754
(dp1755
g66
(dp1756
g74
I5
ssg75
g1750
sg68
(lp1757
S'html'
p1758
asbasbasbag61
(g77
g63
NtRp1759
(dp1760
g66
(dp1761
sg75
g71
sg68
(lp1762
g61
(g82
g63
NtRp1763
(dp1764
g66
(dp1765
g86
g87
ssg75
g1759
sg68
(lp1766
S'folder'
p1767
asbag61
(g82
g63
NtRp1768
(dp1769
g66
(dp1770
g93
g94
ssg75
g1759
sg68
(lp1771
S':'
asbag61
(g82
g63
NtRp1772
(dp1773
g66
(dp1774
sg75
g1759
sg68
(lp1775
g61
(g62
g63
NtRp1776
(dp1777
g66
(dp1778
g74
I5
ssg75
g1772
sg68
(lp1779
S'/var/www/conferencia/applications/projeto/'
p1780
asbasbasbag61
(g77
g63
NtRp1781
(dp1782
g66
(dp1783
sg75
g71
sg68
(lp1784
g61
(g82
g63
NtRp1785
(dp1786
g66
(dp1787
g86
g87
ssg75
g1781
sg68
(lp1788
S'function'
p1789
asbag61
(g82
g63
NtRp1790
(dp1791
g66
(dp1792
g93
g94
ssg75
g1781
sg68
(lp1793
S':'
asbag61
(g82
g63
NtRp1794
(dp1795
g66
(dp1796
sg75
g1781
sg68
(lp1797
g61
(g62
g63
NtRp1798
(dp1799
g66
(dp1800
g74
I5
ssg75
g1794
sg68
(lp1801
S'principal'
p1802
asbasbasbag61
(g77
g63
NtRp1803
(dp1804
g66
(dp1805
sg75
g71
sg68
(lp1806
g61
(g82
g63
NtRp1807
(dp1808
g66
(dp1809
g86
g87
ssg75
g1803
sg68
(lp1810
S'get_vars'
p1811
asbag61
(g82
g63
NtRp1812
(dp1813
g66
(dp1814
g93
g94
ssg75
g1803
sg68
(lp1815
S':'
asbag61
(g82
g63
NtRp1816
(dp1817
g66
(dp1818
sg75
g1803
sg68
(lp1819
g61
(g62
g63
NtRp1820
(dp1821
g66
(dp1822
g74
I5
ssg75
g1816
sg68
(lp1823
g61
(g70
g63
NtRp1824
(dp1825
g66
(dp1826
g74
I4
ssg75
Nsg68
(lp1827
sbasbasbasbag61
(g77
g63
NtRp1828
(dp1829
g66
(dp1830
sg75
g71
sg68
(lp1831
g61
(g82
g63
NtRp1832
(dp1833
g66
(dp1834
g86
g87
ssg75
g1828
sg68
(lp1835
S'global_settings'
p1836
asbag61
(g82
g63
NtRp1837
(dp1838
g66
(dp1839
g93
g94
ssg75
g1828
sg68
(lp1840
S':'
asbag61
(g82
g63
NtRp1841
(dp1842
g66
(dp1843
sg75
g1828
sg68
(lp1844
g61
(g62
g63
NtRp1845
(dp1846
g66
(dp1847
g74
I5
ssg75
g1841
sg68
(lp1848
g61
(g70
g63
NtRp1849
(dp1850
g66
(dp1851
g74
I4
ssg75
Nsg68
(lp1852
g61
(g77
g63
NtRp1853
(dp1854
g66
(dp1855
sg75
g1849
sg68
(lp1856
g61
(g82
g63
NtRp1857
(dp1858
g66
(dp1859
g86
g87
ssg75
g1853
sg68
(lp1860
g703
asbag61
(g82
g63
NtRp1861
(dp1862
g66
(dp1863
g93
g94
ssg75
g1853
sg68
(lp1864
S':'
asbag61
(g82
g63
NtRp1865
(dp1866
g66
(dp1867
sg75
g1853
sg68
(lp1868
g61
(g62
g63
NtRp1869
(dp1870
g66
(dp1871
g74
I4
ssg75
g1865
sg68
(lp1872
S"set(['/var/www/conferencia/applications/admin/', '/var/www/conferencia/applications/projeto/'])"
p1873
asbasbasbag61
(g77
g63
NtRp1874
(dp1875
g66
(dp1876
sg75
g1849
sg68
(lp1877
g61
(g82
g63
NtRp1878
(dp1879
g66
(dp1880
g86
g87
ssg75
g1874
sg68
(lp1881
g725
asbag61
(g82
g63
NtRp1882
(dp1883
g66
(dp1884
g93
g94
ssg75
g1874
sg68
(lp1885
S':'
asbag61
(g82
g63
NtRp1886
(dp1887
g66
(dp1888
sg75
g1874
sg68
(lp1889
g61
(g62
g63
NtRp1890
(dp1891
g66
(dp1892
g74
I4
ssg75
g1886
sg68
(lp1893
g738
asbasbasbag61
(g77
g63
NtRp1894
(dp1895
g66
(dp1896
sg75
g1849
sg68
(lp1897
g61
(g82
g63
NtRp1898
(dp1899
g66
(dp1900
g86
g87
ssg75
g1894
sg68
(lp1901
g747
asbag61
(g82
g63
NtRp1902
(dp1903
g66
(dp1904
g93
g94
ssg75
g1894
sg68
(lp1905
S':'
asbag61
(g82
g63
NtRp1906
(dp1907
g66
(dp1908
sg75
g1894
sg68
(lp1909
g61
(g62
g63
NtRp1910
(dp1911
g66
(dp1912
g74
I4
ssg75
g1906
sg68
(lp1913
g61
(g70
g63
NtRp1914
(dp1915
g66
(dp1916
g74
I3
ssg75
Nsg68
(lp1917
sbasbasbasbag61
(g77
g63
NtRp1918
(dp1919
g66
(dp1920
sg75
g1849
sg68
(lp1921
g61
(g82
g63
NtRp1922
(dp1923
g66
(dp1924
g86
g87
ssg75
g1918
sg68
(lp1925
g772
asbag61
(g82
g63
NtRp1926
(dp1927
g66
(dp1928
g93
g94
ssg75
g1918
sg68
(lp1929
S':'
asbag61
(g82
g63
NtRp1930
(dp1931
g66
(dp1932
sg75
g1918
sg68
(lp1933
g61
(g62
g63
NtRp1934
(dp1935
g66
(dp1936
g74
I4
ssg75
g1930
sg68
(lp1937
S"<Values at 0x3027248: {'verbose': False, 'ip': '127.0.0.1', 'with_scheduler': False, 'ips': [], 'shutdown_timeout': 5, 'taskbar': False, 'port': 8000, 'maxthreads': None, 'softcron': False, 'server_name': 'fernando-workstation', 'bpython': False, 'nogui': False, 'pid_filename': 'httpserver.pid', 'extcron': False, 'runcron': False, 'run_system_tests': False, 'test': None, 'folder': '/var/www/conferencia', 'config': '', 'minthreads': None, 'winservice': '', 'shell': None, 'run': '', 'log_filename': 'httpserver.log', 'debuglevel': 30, 'args': [''], 'socket_timeout': 5, 'ssl_ca_certificate': None, 'scheduler': None, 'profiler_filename': None, 'ssl_private_key': '', 'scheduler_groups': None, 'password': '123456', 'request_queue_size': 5, 'ssl_certificate': '', 'cronjob': False, 'numthreads': None, 'quiet': False, 'interfaces': None, 'import_models': False, 'timeout': 10, 'plain': False, 'nobanner': False}>"
p1938
asbasbasbag61
(g77
g63
NtRp1939
(dp1940
g66
(dp1941
sg75
g1849
sg68
(lp1942
g61
(g82
g63
NtRp1943
(dp1944
g66
(dp1945
g86
g87
ssg75
g1939
sg68
(lp1946
g794
asbag61
(g82
g63
NtRp1947
(dp1948
g66
(dp1949
g93
g94
ssg75
g1939
sg68
(lp1950
S':'
asbag61
(g82
g63
NtRp1951
(dp1952
g66
(dp1953
sg75
g1939
sg68
(lp1954
g61
(g62
g63
NtRp1955
(dp1956
g66
(dp1957
g74
I4
ssg75
g1951
sg68
(lp1958
S'set([])'
p1959
asbasbasbag61
(g77
g63
NtRp1960
(dp1961
g66
(dp1962
sg75
g1849
sg68
(lp1963
g61
(g82
g63
NtRp1964
(dp1965
g66
(dp1966
g86
g87
ssg75
g1960
sg68
(lp1967
g816
asbag61
(g82
g63
NtRp1968
(dp1969
g66
(dp1970
g93
g94
ssg75
g1960
sg68
(lp1971
S':'
asbag61
(g82
g63
NtRp1972
(dp1973
g66
(dp1974
sg75
g1960
sg68
(lp1975
g61
(g62
g63
NtRp1976
(dp1977
g66
(dp1978
g74
I4
ssg75
g1972
sg68
(lp1979
g104
asbasbasbag61
(g77
g63
NtRp1980
(dp1981
g66
(dp1982
sg75
g1849
sg68
(lp1983
g61
(g82
g63
NtRp1984
(dp1985
g66
(dp1986
g86
g87
ssg75
g1980
sg68
(lp1987
g837
asbag61
(g82
g63
NtRp1988
(dp1989
g66
(dp1990
g93
g94
ssg75
g1980
sg68
(lp1991
S':'
asbag61
(g82
g63
NtRp1992
(dp1993
g66
(dp1994
sg75
g1980
sg68
(lp1995
g61
(g62
g63
NtRp1996
(dp1997
g66
(dp1998
g74
I4
ssg75
g1992
sg68
(lp1999
g850
asbasbasbag61
(g77
g63
NtRp2000
(dp2001
g66
(dp2002
sg75
g1849
sg68
(lp2003
g61
(g82
g63
NtRp2004
(dp2005
g66
(dp2006
g86
g87
ssg75
g2000
sg68
(lp2007
g1057
asbag61
(g82
g63
NtRp2008
(dp2009
g66
(dp2010
g93
g94
ssg75
g2000
sg68
(lp2011
S':'
asbag61
(g82
g63
NtRp2012
(dp2013
g66
(dp2014
sg75
g2000
sg68
(lp2015
g61
(g62
g63
NtRp2016
(dp2017
g66
(dp2018
g74
I4
ssg75
g2012
sg68
(lp2019
g104
asbasbasbag61
(g77
g63
NtRp2020
(dp2021
g66
(dp2022
sg75
g1849
sg68
(lp2023
g61
(g82
g63
NtRp2024
(dp2025
g66
(dp2026
g86
g87
ssg75
g2020
sg68
(lp2027
g1078
asbag61
(g82
g63
NtRp2028
(dp2029
g66
(dp2030
g93
g94
ssg75
g2020
sg68
(lp2031
S':'
asbag61
(g82
g63
NtRp2032
(dp2033
g66
(dp2034
sg75
g2020
sg68
(lp2035
g61
(g62
g63
NtRp2036
(dp2037
g66
(dp2038
g74
I4
ssg75
g2032
sg68
(lp2039
g104
asbasbasbag61
(g77
g63
NtRp2040
(dp2041
g66
(dp2042
sg75
g1849
sg68
(lp2043
g61
(g82
g63
NtRp2044
(dp2045
g66
(dp2046
g86
g87
ssg75
g2040
sg68
(lp2047
g1099
asbag61
(g82
g63
NtRp2048
(dp2049
g66
(dp2050
g93
g94
ssg75
g2040
sg68
(lp2051
S':'
asbag61
(g82
g63
NtRp2052
(dp2053
g66
(dp2054
sg75
g2040
sg68
(lp2055
g61
(g62
g63
NtRp2056
(dp2057
g66
(dp2058
g74
I4
ssg75
g2052
sg68
(lp2059
g61
(g70
g63
NtRp2060
(dp2061
g66
(dp2062
g74
I3
ssg75
Nsg68
(lp2063
g61
(g77
g63
NtRp2064
(dp2065
g66
(dp2066
sg75
g2060
sg68
(lp2067
g61
(g82
g63
NtRp2068
(dp2069
g66
(dp2070
sg75
g2064
sg68
(lp2071
g61
(g62
g63
NtRp2072
(dp2073
g66
(dp2074
g74
I3
ssg75
g2068
sg68
(lp2075
g1128
asbasbasbag61
(g77
g63
NtRp2076
(dp2077
g66
(dp2078
sg75
g2060
sg68
(lp2079
g61
(g82
g63
NtRp2080
(dp2081
g66
(dp2082
sg75
g2076
sg68
(lp2083
g61
(g62
g63
NtRp2084
(dp2085
g66
(dp2086
g74
I3
ssg75
g2080
sg68
(lp2087
g1141
asbasbasbag61
(g77
g63
NtRp2088
(dp2089
g66
(dp2090
sg75
g2060
sg68
(lp2091
g61
(g82
g63
NtRp2092
(dp2093
g66
(dp2094
sg75
g2088
sg68
(lp2095
g61
(g62
g63
NtRp2096
(dp2097
g66
(dp2098
g74
I3
ssg75
g2092
sg68
(lp2099
g1154
asbasbasbag61
(g77
g63
NtRp2100
(dp2101
g66
(dp2102
sg75
g2060
sg68
(lp2103
g61
(g82
g63
NtRp2104
(dp2105
g66
(dp2106
sg75
g2100
sg68
(lp2107
g61
(g62
g63
NtRp2108
(dp2109
g66
(dp2110
g74
I3
ssg75
g2104
sg68
(lp2111
g1167
asbasbasbasbasbasbasbag61
(g77
g63
NtRp2112
(dp2113
g66
(dp2114
sg75
g1849
sg68
(lp2115
g61
(g82
g63
NtRp2116
(dp2117
g66
(dp2118
g86
g87
ssg75
g2112
sg68
(lp2119
g1457
asbag61
(g82
g63
NtRp2120
(dp2121
g66
(dp2122
g93
g94
ssg75
g2112
sg68
(lp2123
S':'
asbag61
(g82
g63
NtRp2124
(dp2125
g66
(dp2126
sg75
g2112
sg68
(lp2127
g61
(g62
g63
NtRp2128
(dp2129
g66
(dp2130
g74
I4
ssg75
g2124
sg68
(lp2131
g61
(g70
g63
NtRp2132
(dp2133
g66
(dp2134
g74
I3
ssg75
Nsg68
(lp2135
g61
(g77
g63
NtRp2136
(dp2137
g66
(dp2138
sg75
g2132
sg68
(lp2139
g61
(g82
g63
NtRp2140
(dp2141
g66
(dp2142
sg75
g2136
sg68
(lp2143
g61
(g62
g63
NtRp2144
(dp2145
g66
(dp2146
g74
I3
ssg75
g2140
sg68
(lp2147
S'2'
asbasbasbag61
(g77
g63
NtRp2148
(dp2149
g66
(dp2150
sg75
g2132
sg68
(lp2151
g61
(g82
g63
NtRp2152
(dp2153
g66
(dp2154
sg75
g2148
sg68
(lp2155
g61
(g62
g63
NtRp2156
(dp2157
g66
(dp2158
g74
I3
ssg75
g2152
sg68
(lp2159
S'3'
asbasbasbag61
(g77
g63
NtRp2160
(dp2161
g66
(dp2162
sg75
g2132
sg68
(lp2163
g61
(g82
g63
NtRp2164
(dp2165
g66
(dp2166
sg75
g2160
sg68
(lp2167
g61
(g62
g63
NtRp2168
(dp2169
g66
(dp2170
g74
I3
ssg75
g2164
sg68
(lp2171
S'2'
asbasbasbag61
(g77
g63
NtRp2172
(dp2173
g66
(dp2174
sg75
g2132
sg68
(lp2175
g61
(g82
g63
NtRp2176
(dp2177
g66
(dp2178
sg75
g2172
sg68
(lp2179
g61
(g62
g63
NtRp2180
(dp2181
g66
(dp2182
g74
I3
ssg75
g2176
sg68
(lp2183
S'datetime.datetime(2012, 12, 17, 15, 3, 30)'
p2184
asbasbasbag61
(g77
g63
NtRp2185
(dp2186
g66
(dp2187
sg75
g2132
sg68
(lp2188
g61
(g82
g63
NtRp2189
(dp2190
g66
(dp2191
sg75
g2185
sg68
(lp2192
g61
(g62
g63
NtRp2193
(dp2194
g66
(dp2195
g74
I3
ssg75
g2189
sg68
(lp2196
g1535
asbasbasbasbasbasbasbasbasbasbasbag61
(g77
g63
NtRp2197
(dp2198
g66
(dp2199
sg75
g71
sg68
(lp2200
g61
(g82
g63
NtRp2201
(dp2202
g66
(dp2203
g86
g87
ssg75
g2197
sg68
(lp2204
S'is_https'
p2205
asbag61
(g82
g63
NtRp2206
(dp2207
g66
(dp2208
g93
g94
ssg75
g2197
sg68
(lp2209
S':'
asbag61
(g82
g63
NtRp2210
(dp2211
g66
(dp2212
sg75
g2197
sg68
(lp2213
g61
(g62
g63
NtRp2214
(dp2215
g66
(dp2216
g74
I5
ssg75
g2210
sg68
(lp2217
g104
asbasbasbag61
(g77
g63
NtRp2218
(dp2219
g66
(dp2220
sg75
g71
sg68
(lp2221
g61
(g82
g63
NtRp2222
(dp2223
g66
(dp2224
g86
g87
ssg75
g2218
sg68
(lp2225
S'is_local'
p2226
asbag61
(g82
g63
NtRp2227
(dp2228
g66
(dp2229
g93
g94
ssg75
g2218
sg68
(lp2230
S':'
asbag61
(g82
g63
NtRp2231
(dp2232
g66
(dp2233
sg75
g2218
sg68
(lp2234
g61
(g62
g63
NtRp2235
(dp2236
g66
(dp2237
g74
I5
ssg75
g2231
sg68
(lp2238
g1644
asbasbasbag61
(g77
g63
NtRp2239
(dp2240
g66
(dp2241
sg75
g71
sg68
(lp2242
g61
(g82
g63
NtRp2243
(dp2244
g66
(dp2245
g86
g87
ssg75
g2239
sg68
(lp2246
S'is_restful'
p2247
asbag61
(g82
g63
NtRp2248
(dp2249
g66
(dp2250
g93
g94
ssg75
g2239
sg68
(lp2251
S':'
asbag61
(g82
g63
NtRp2252
(dp2253
g66
(dp2254
sg75
g2239
sg68
(lp2255
g61
(g62
g63
NtRp2256
(dp2257
g66
(dp2258
g74
I5
ssg75
g2252
sg68
(lp2259
g104
asbasbasbag61
(g77
g63
NtRp2260
(dp2261
g66
(dp2262
sg75
g71
sg68
(lp2263
g61
(g82
g63
NtRp2264
(dp2265
g66
(dp2266
g86
g87
ssg75
g2260
sg68
(lp2267
S'now'
p2268
asbag61
(g82
g63
NtRp2269
(dp2270
g66
(dp2271
g93
g94
ssg75
g2260
sg68
(lp2272
S':'
asbag61
(g82
g63
NtRp2273
(dp2274
g66
(dp2275
sg75
g2260
sg68
(lp2276
g61
(g62
g63
NtRp2277
(dp2278
g66
(dp2279
g74
I5
ssg75
g2273
sg68
(lp2280
S'datetime.datetime(2013, 4, 4, 9, 9, 3, 170328)'
p2281
asbasbasbag61
(g77
g63
NtRp2282
(dp2283
g66
(dp2284
sg75
g71
sg68
(lp2285
g61
(g82
g63
NtRp2286
(dp2287
g66
(dp2288
g86
g87
ssg75
g2282
sg68
(lp2289
S'post_vars'
p2290
asbag61
(g82
g63
NtRp2291
(dp2292
g66
(dp2293
g93
g94
ssg75
g2282
sg68
(lp2294
S':'
asbag61
(g82
g63
NtRp2295
(dp2296
g66
(dp2297
sg75
g2282
sg68
(lp2298
g61
(g62
g63
NtRp2299
(dp2300
g66
(dp2301
g74
I5
ssg75
g2295
sg68
(lp2302
g61
(g70
g63
NtRp2303
(dp2304
g66
(dp2305
g74
I4
ssg75
Nsg68
(lp2306
sbasbasbasbag61
(g77
g63
NtRp2307
(dp2308
g66
(dp2309
sg75
g71
sg68
(lp2310
g61
(g82
g63
NtRp2311
(dp2312
g66
(dp2313
g86
g87
ssg75
g2307
sg68
(lp2314
S'url'
p2315
asbag61
(g82
g63
NtRp2316
(dp2317
g66
(dp2318
g93
g94
ssg75
g2307
sg68
(lp2319
S':'
asbag61
(g82
g63
NtRp2320
(dp2321
g66
(dp2322
sg75
g2307
sg68
(lp2323
g61
(g62
g63
NtRp2324
(dp2325
g66
(dp2326
g74
I5
ssg75
g2320
sg68
(lp2327
g1189
asbasbasbag61
(g77
g63
NtRp2328
(dp2329
g66
(dp2330
sg75
g71
sg68
(lp2331
g61
(g82
g63
NtRp2332
(dp2333
g66
(dp2334
g86
g87
ssg75
g2328
sg68
(lp2335
S'utcnow'
p2336
asbag61
(g82
g63
NtRp2337
(dp2338
g66
(dp2339
g93
g94
ssg75
g2328
sg68
(lp2340
S':'
asbag61
(g82
g63
NtRp2341
(dp2342
g66
(dp2343
sg75
g2328
sg68
(lp2344
g61
(g62
g63
NtRp2345
(dp2346
g66
(dp2347
g74
I5
ssg75
g2341
sg68
(lp2348
S'datetime.datetime(2013, 4, 4, 12, 9, 3, 170392)'
p2349
asbasbasbag61
(g77
g63
NtRp2350
(dp2351
g66
(dp2352
sg75
g71
sg68
(lp2353
g61
(g82
g63
NtRp2354
(dp2355
g66
(dp2356
g86
g87
ssg75
g2350
sg68
(lp2357
S'uuid'
p2358
asbag61
(g82
g63
NtRp2359
(dp2360
g66
(dp2361
g93
g94
ssg75
g2350
sg68
(lp2362
S':'
asbag61
(g82
g63
NtRp2363
(dp2364
g66
(dp2365
sg75
g2350
sg68
(lp2366
g61
(g62
g63
NtRp2367
(dp2368
g66
(dp2369
g74
I5
ssg75
g2363
sg68
(lp2370
S'projeto/127.0.0.1.2013-04-04.09-09-03.faa85dbe-9600-428f-aa69-7dd9ac08fe11'
p2371
asbasbasbag61
(g77
g63
NtRp2372
(dp2373
g66
(dp2374
sg75
g71
sg68
(lp2375
g61
(g82
g63
NtRp2376
(dp2377
g66
(dp2378
g86
g87
ssg75
g2372
sg68
(lp2379
S'vars'
p2380
asbag61
(g82
g63
NtRp2381
(dp2382
g66
(dp2383
g93
g94
ssg75
g2372
sg68
(lp2384
S':'
asbag61
(g82
g63
NtRp2385
(dp2386
g66
(dp2387
sg75
g2372
sg68
(lp2388
g61
(g62
g63
NtRp2389
(dp2390
g66
(dp2391
g74
I5
ssg75
g2385
sg68
(lp2392
g61
(g70
g63
NtRp2393
(dp2394
g66
(dp2395
g74
I4
ssg75
Nsg68
(lp2396
sbasbasbasbag61
(g77
g63
NtRp2397
(dp2398
g66
(dp2399
sg75
g71
sg68
(lp2400
g61
(g82
g63
NtRp2401
(dp2402
g66
(dp2403
g86
g87
ssg75
g2397
sg68
(lp2404
S'wsgi'
p2405
asbag61
(g82
g63
NtRp2406
(dp2407
g66
(dp2408
g93
g94
ssg75
g2397
sg68
(lp2409
S':'
asbag61
(g82
g63
NtRp2410
(dp2411
g66
(dp2412
sg75
g2397
sg68
(lp2413
g61
(g62
g63
NtRp2414
(dp2415
g66
(dp2416
g74
I5
ssg75
g2410
sg68
(lp2417
g61
(g70
g63
NtRp2418
(dp2419
g66
(dp2420
g74
I4
ssg75
Nsg68
(lp2421
g61
(g77
g63
NtRp2422
(dp2423
g66
(dp2424
sg75
g2418
sg68
(lp2425
g61
(g82
g63
NtRp2426
(dp2427
g66
(dp2428
g86
g87
ssg75
g2422
sg68
(lp2429
S'environ'
p2430
asbag61
(g82
g63
NtRp2431
(dp2432
g66
(dp2433
g93
g94
ssg75
g2422
sg68
(lp2434
S':'
asbag61
(g82
g63
NtRp2435
(dp2436
g66
(dp2437
sg75
g2422
sg68
(lp2438
g61
(g62
g63
NtRp2439
(dp2440
g66
(dp2441
g74
I4
ssg75
g2435
sg68
(lp2442
g61
(g70
g63
NtRp2443
(dp2444
g66
(dp2445
g74
I3
ssg75
Nsg68
(lp2446
g61
(g77
g63
NtRp2447
(dp2448
g66
(dp2449
sg75
g2443
sg68
(lp2450
g61
(g82
g63
NtRp2451
(dp2452
g66
(dp2453
g86
g87
ssg75
g2447
sg68
(lp2454
S'HTTP_ACCEPT'
p2455
asbag61
(g82
g63
NtRp2456
(dp2457
g66
(dp2458
g93
g94
ssg75
g2447
sg68
(lp2459
S':'
asbag61
(g82
g63
NtRp2460
(dp2461
g66
(dp2462
sg75
g2447
sg68
(lp2463
g61
(g62
g63
NtRp2464
(dp2465
g66
(dp2466
g74
I3
ssg75
g2460
sg68
(lp2467
g872
asbasbasbag61
(g77
g63
NtRp2468
(dp2469
g66
(dp2470
sg75
g2443
sg68
(lp2471
g61
(g82
g63
NtRp2472
(dp2473
g66
(dp2474
g86
g87
ssg75
g2468
sg68
(lp2475
S'HTTP_ACCEPT_CHARSET'
p2476
asbag61
(g82
g63
NtRp2477
(dp2478
g66
(dp2479
g93
g94
ssg75
g2468
sg68
(lp2480
S':'
asbag61
(g82
g63
NtRp2481
(dp2482
g66
(dp2483
sg75
g2468
sg68
(lp2484
g61
(g62
g63
NtRp2485
(dp2486
g66
(dp2487
g74
I3
ssg75
g2481
sg68
(lp2488
g894
asbasbasbag61
(g77
g63
NtRp2489
(dp2490
g66
(dp2491
sg75
g2443
sg68
(lp2492
g61
(g82
g63
NtRp2493
(dp2494
g66
(dp2495
g86
g87
ssg75
g2489
sg68
(lp2496
S'HTTP_ACCEPT_ENCODING'
p2497
asbag61
(g82
g63
NtRp2498
(dp2499
g66
(dp2500
g93
g94
ssg75
g2489
sg68
(lp2501
S':'
asbag61
(g82
g63
NtRp2502
(dp2503
g66
(dp2504
sg75
g2489
sg68
(lp2505
g61
(g62
g63
NtRp2506
(dp2507
g66
(dp2508
g74
I3
ssg75
g2502
sg68
(lp2509
g916
asbasbasbag61
(g77
g63
NtRp2510
(dp2511
g66
(dp2512
sg75
g2443
sg68
(lp2513
g61
(g82
g63
NtRp2514
(dp2515
g66
(dp2516
g86
g87
ssg75
g2510
sg68
(lp2517
S'HTTP_ACCEPT_LANGUAGE'
p2518
asbag61
(g82
g63
NtRp2519
(dp2520
g66
(dp2521
g93
g94
ssg75
g2510
sg68
(lp2522
S':'
asbag61
(g82
g63
NtRp2523
(dp2524
g66
(dp2525
sg75
g2510
sg68
(lp2526
g61
(g62
g63
NtRp2527
(dp2528
g66
(dp2529
g74
I3
ssg75
g2523
sg68
(lp2530
g938
asbasbasbag61
(g77
g63
NtRp2531
(dp2532
g66
(dp2533
sg75
g2443
sg68
(lp2534
g61
(g82
g63
NtRp2535
(dp2536
g66
(dp2537
g86
g87
ssg75
g2531
sg68
(lp2538
S'HTTP_CONNECTION'
p2539
asbag61
(g82
g63
NtRp2540
(dp2541
g66
(dp2542
g93
g94
ssg75
g2531
sg68
(lp2543
S':'
asbag61
(g82
g63
NtRp2544
(dp2545
g66
(dp2546
sg75
g2531
sg68
(lp2547
g61
(g62
g63
NtRp2548
(dp2549
g66
(dp2550
g74
I3
ssg75
g2544
sg68
(lp2551
g960
asbasbasbag61
(g77
g63
NtRp2552
(dp2553
g66
(dp2554
sg75
g2443
sg68
(lp2555
g61
(g82
g63
NtRp2556
(dp2557
g66
(dp2558
g86
g87
ssg75
g2552
sg68
(lp2559
S'HTTP_COOKIE'
p2560
asbag61
(g82
g63
NtRp2561
(dp2562
g66
(dp2563
g93
g94
ssg75
g2552
sg68
(lp2564
S':'
asbag61
(g82
g63
NtRp2565
(dp2566
g66
(dp2567
sg75
g2552
sg68
(lp2568
g61
(g62
g63
NtRp2569
(dp2570
g66
(dp2571
g74
I3
ssg75
g2565
sg68
(lp2572
g982
asbasbasbag61
(g77
g63
NtRp2573
(dp2574
g66
(dp2575
sg75
g2443
sg68
(lp2576
g61
(g82
g63
NtRp2577
(dp2578
g66
(dp2579
g86
g87
ssg75
g2573
sg68
(lp2580
S'HTTP_HOST'
p2581
asbag61
(g82
g63
NtRp2582
(dp2583
g66
(dp2584
g93
g94
ssg75
g2573
sg68
(lp2585
S':'
asbag61
(g82
g63
NtRp2586
(dp2587
g66
(dp2588
sg75
g2573
sg68
(lp2589
g61
(g62
g63
NtRp2590
(dp2591
g66
(dp2592
g74
I3
ssg75
g2586
sg68
(lp2593
g1004
asbasbasbag61
(g77
g63
NtRp2594
(dp2595
g66
(dp2596
sg75
g2443
sg68
(lp2597
g61
(g82
g63
NtRp2598
(dp2599
g66
(dp2600
g86
g87
ssg75
g2594
sg68
(lp2601
S'HTTP_REFERER'
p2602
asbag61
(g82
g63
NtRp2603
(dp2604
g66
(dp2605
g93
g94
ssg75
g2594
sg68
(lp2606
S':'
asbag61
(g82
g63
NtRp2607
(dp2608
g66
(dp2609
sg75
g2594
sg68
(lp2610
g61
(g62
g63
NtRp2611
(dp2612
g66
(dp2613
g74
I3
ssg75
g2607
sg68
(lp2614
g1026
asbasbasbag61
(g77
g63
NtRp2615
(dp2616
g66
(dp2617
sg75
g2443
sg68
(lp2618
g61
(g82
g63
NtRp2619
(dp2620
g66
(dp2621
g86
g87
ssg75
g2615
sg68
(lp2622
S'HTTP_USER_AGENT'
p2623
asbag61
(g82
g63
NtRp2624
(dp2625
g66
(dp2626
g93
g94
ssg75
g2615
sg68
(lp2627
S':'
asbag61
(g82
g63
NtRp2628
(dp2629
g66
(dp2630
sg75
g2615
sg68
(lp2631
g61
(g62
g63
NtRp2632
(dp2633
g66
(dp2634
g74
I3
ssg75
g2628
sg68
(lp2635
g1048
asbasbasbag61
(g77
g63
NtRp2636
(dp2637
g66
(dp2638
sg75
g2443
sg68
(lp2639
g61
(g82
g63
NtRp2640
(dp2641
g66
(dp2642
g86
g87
ssg75
g2636
sg68
(lp2643
S'PATH_INFO'
p2644
asbag61
(g82
g63
NtRp2645
(dp2646
g66
(dp2647
g93
g94
ssg75
g2636
sg68
(lp2648
S':'
asbag61
(g82
g63
NtRp2649
(dp2650
g66
(dp2651
sg75
g2636
sg68
(lp2652
g61
(g62
g63
NtRp2653
(dp2654
g66
(dp2655
g74
I3
ssg75
g2649
sg68
(lp2656
g1189
asbasbasbag61
(g77
g63
NtRp2657
(dp2658
g66
(dp2659
sg75
g2443
sg68
(lp2660
g61
(g82
g63
NtRp2661
(dp2662
g66
(dp2663
g86
g87
ssg75
g2657
sg68
(lp2664
S'QUERY_STRING'
p2665
asbag61
(g82
g63
NtRp2666
(dp2667
g66
(dp2668
g93
g94
ssg75
g2657
sg68
(lp2669
S':'
asbag61
(g82
g63
NtRp2670
(dp2671
g66
(dp2672
sg75
g2657
sg68
(lp2673
g61
(g62
g63
NtRp2674
(dp2675
g66
(dp2676
g74
I3
ssg75
g2670
sg68
(lp2677
S''
asbasbasbag61
(g77
g63
NtRp2678
(dp2679
g66
(dp2680
sg75
g2443
sg68
(lp2681
g61
(g82
g63
NtRp2682
(dp2683
g66
(dp2684
g86
g87
ssg75
g2678
sg68
(lp2685
S'REMOTE_ADDR'
p2686
asbag61
(g82
g63
NtRp2687
(dp2688
g66
(dp2689
g93
g94
ssg75
g2678
sg68
(lp2690
S':'
asbag61
(g82
g63
NtRp2691
(dp2692
g66
(dp2693
sg75
g2678
sg68
(lp2694
g61
(g62
g63
NtRp2695
(dp2696
g66
(dp2697
g74
I3
ssg75
g2691
sg68
(lp2698
g242
asbasbasbag61
(g77
g63
NtRp2699
(dp2700
g66
(dp2701
sg75
g2443
sg68
(lp2702
g61
(g82
g63
NtRp2703
(dp2704
g66
(dp2705
g86
g87
ssg75
g2699
sg68
(lp2706
S'REMOTE_PORT'
p2707
asbag61
(g82
g63
NtRp2708
(dp2709
g66
(dp2710
g93
g94
ssg75
g2699
sg68
(lp2711
S':'
asbag61
(g82
g63
NtRp2712
(dp2713
g66
(dp2714
sg75
g2699
sg68
(lp2715
g61
(g62
g63
NtRp2716
(dp2717
g66
(dp2718
g74
I3
ssg75
g2712
sg68
(lp2719
g1253
asbasbasbag61
(g77
g63
NtRp2720
(dp2721
g66
(dp2722
sg75
g2443
sg68
(lp2723
g61
(g82
g63
NtRp2724
(dp2725
g66
(dp2726
g86
g87
ssg75
g2720
sg68
(lp2727
S'REQUEST_METHOD'
p2728
asbag61
(g82
g63
NtRp2729
(dp2730
g66
(dp2731
g93
g94
ssg75
g2720
sg68
(lp2732
S':'
asbag61
(g82
g63
NtRp2733
(dp2734
g66
(dp2735
sg75
g2720
sg68
(lp2736
g61
(g62
g63
NtRp2737
(dp2738
g66
(dp2739
g74
I3
ssg75
g2733
sg68
(lp2740
g1275
asbasbasbag61
(g77
g63
NtRp2741
(dp2742
g66
(dp2743
sg75
g2443
sg68
(lp2744
g61
(g82
g63
NtRp2745
(dp2746
g66
(dp2747
g86
g87
ssg75
g2741
sg68
(lp2748
S'REQUEST_URI'
p2749
asbag61
(g82
g63
NtRp2750
(dp2751
g66
(dp2752
g93
g94
ssg75
g2741
sg68
(lp2753
S':'
asbag61
(g82
g63
NtRp2754
(dp2755
g66
(dp2756
sg75
g2741
sg68
(lp2757
g61
(g62
g63
NtRp2758
(dp2759
g66
(dp2760
g74
I3
ssg75
g2754
sg68
(lp2761
g1297
asbasbasbag61
(g77
g63
NtRp2762
(dp2763
g66
(dp2764
sg75
g2443
sg68
(lp2765
g61
(g82
g63
NtRp2766
(dp2767
g66
(dp2768
g86
g87
ssg75
g2762
sg68
(lp2769
S'SCRIPT_NAME'
p2770
asbag61
(g82
g63
NtRp2771
(dp2772
g66
(dp2773
g93
g94
ssg75
g2762
sg68
(lp2774
S':'
asbag61
(g82
g63
NtRp2775
(dp2776
g66
(dp2777
sg75
g2762
sg68
(lp2778
g61
(g62
g63
NtRp2779
(dp2780
g66
(dp2781
g74
I3
ssg75
g2775
sg68
(lp2782
S''
asbasbasbag61
(g77
g63
NtRp2783
(dp2784
g66
(dp2785
sg75
g2443
sg68
(lp2786
g61
(g82
g63
NtRp2787
(dp2788
g66
(dp2789
g86
g87
ssg75
g2783
sg68
(lp2790
S'SERVER_NAME'
p2791
asbag61
(g82
g63
NtRp2792
(dp2793
g66
(dp2794
g93
g94
ssg75
g2783
sg68
(lp2795
S':'
asbag61
(g82
g63
NtRp2796
(dp2797
g66
(dp2798
sg75
g2783
sg68
(lp2799
g61
(g62
g63
NtRp2800
(dp2801
g66
(dp2802
g74
I3
ssg75
g2796
sg68
(lp2803
g1340
asbasbasbag61
(g77
g63
NtRp2804
(dp2805
g66
(dp2806
sg75
g2443
sg68
(lp2807
g61
(g82
g63
NtRp2808
(dp2809
g66
(dp2810
g86
g87
ssg75
g2804
sg68
(lp2811
S'SERVER_PORT'
p2812
asbag61
(g82
g63
NtRp2813
(dp2814
g66
(dp2815
g93
g94
ssg75
g2804
sg68
(lp2816
S':'
asbag61
(g82
g63
NtRp2817
(dp2818
g66
(dp2819
sg75
g2804
sg68
(lp2820
g61
(g62
g63
NtRp2821
(dp2822
g66
(dp2823
g74
I3
ssg75
g2817
sg68
(lp2824
g1362
asbasbasbag61
(g77
g63
NtRp2825
(dp2826
g66
(dp2827
sg75
g2443
sg68
(lp2828
g61
(g82
g63
NtRp2829
(dp2830
g66
(dp2831
g86
g87
ssg75
g2825
sg68
(lp2832
S'SERVER_PROTOCOL'
p2833
asbag61
(g82
g63
NtRp2834
(dp2835
g66
(dp2836
g93
g94
ssg75
g2825
sg68
(lp2837
S':'
asbag61
(g82
g63
NtRp2838
(dp2839
g66
(dp2840
sg75
g2825
sg68
(lp2841
g61
(g62
g63
NtRp2842
(dp2843
g66
(dp2844
g74
I3
ssg75
g2838
sg68
(lp2845
g1384
asbasbasbag61
(g77
g63
NtRp2846
(dp2847
g66
(dp2848
sg75
g2443
sg68
(lp2849
g61
(g82
g63
NtRp2850
(dp2851
g66
(dp2852
g86
g87
ssg75
g2846
sg68
(lp2853
S'SERVER_SOFTWARE'
p2854
asbag61
(g82
g63
NtRp2855
(dp2856
g66
(dp2857
g93
g94
ssg75
g2846
sg68
(lp2858
S':'
asbag61
(g82
g63
NtRp2859
(dp2860
g66
(dp2861
sg75
g2846
sg68
(lp2862
g61
(g62
g63
NtRp2863
(dp2864
g66
(dp2865
g74
I3
ssg75
g2859
sg68
(lp2866
g1406
asbasbasbag61
(g77
g63
NtRp2867
(dp2868
g66
(dp2869
sg75
g2443
sg68
(lp2870
g61
(g82
g63
NtRp2871
(dp2872
g66
(dp2873
g86
g87
ssg75
g2867
sg68
(lp2874
S'WEB2PY_ORIGINAL_URI'
p2875
asbag61
(g82
g63
NtRp2876
(dp2877
g66
(dp2878
g93
g94
ssg75
g2867
sg68
(lp2879
S':'
asbag61
(g82
g63
NtRp2880
(dp2881
g66
(dp2882
sg75
g2867
sg68
(lp2883
g61
(g62
g63
NtRp2884
(dp2885
g66
(dp2886
g74
I3
ssg75
g2880
sg68
(lp2887
g1189
asbasbasbag61
(g77
g63
NtRp2888
(dp2889
g66
(dp2890
sg75
g2443
sg68
(lp2891
g61
(g82
g63
NtRp2892
(dp2893
g66
(dp2894
g86
g87
ssg75
g2888
sg68
(lp2895
S'wsgi.errors'
p2896
asbag61
(g82
g63
NtRp2897
(dp2898
g66
(dp2899
g93
g94
ssg75
g2888
sg68
(lp2900
S':'
asbag61
(g82
g63
NtRp2901
(dp2902
g66
(dp2903
sg75
g2888
sg68
(lp2904
g61
(g62
g63
NtRp2905
(dp2906
g66
(dp2907
g74
I3
ssg75
g2901
sg68
(lp2908
S"<open file '<stderr>', mode 'w' at 0x7fc5ebe43270>"
p2909
asbasbasbag61
(g77
g63
NtRp2910
(dp2911
g66
(dp2912
sg75
g2443
sg68
(lp2913
g61
(g82
g63
NtRp2914
(dp2915
g66
(dp2916
g86
g87
ssg75
g2910
sg68
(lp2917
S'wsgi.file_wrapper'
p2918
asbag61
(g82
g63
NtRp2919
(dp2920
g66
(dp2921
g93
g94
ssg75
g2910
sg68
(lp2922
S':'
asbag61
(g82
g63
NtRp2923
(dp2924
g66
(dp2925
sg75
g2910
sg68
(lp2926
g61
(g62
g63
NtRp2927
(dp2928
g66
(dp2929
g74
I3
ssg75
g2923
sg68
(lp2930
S'<class wsgiref.util.FileWrapper at 0x2f9f598>'
p2931
asbasbasbag61
(g77
g63
NtRp2932
(dp2933
g66
(dp2934
sg75
g2443
sg68
(lp2935
g61
(g82
g63
NtRp2936
(dp2937
g66
(dp2938
g86
g87
ssg75
g2932
sg68
(lp2939
S'wsgi.input'
p2940
asbag61
(g82
g63
NtRp2941
(dp2942
g66
(dp2943
g93
g94
ssg75
g2932
sg68
(lp2944
S':'
asbag61
(g82
g63
NtRp2945
(dp2946
g66
(dp2947
sg75
g2932
sg68
(lp2948
g61
(g62
g63
NtRp2949
(dp2950
g66
(dp2951
g74
I3
ssg75
g2945
sg68
(lp2952
S'<cStringIO.StringO object at 0x7fc5d00e87a0>'
p2953
asbasbasbag61
(g77
g63
NtRp2954
(dp2955
g66
(dp2956
sg75
g2443
sg68
(lp2957
g61
(g82
g63
NtRp2958
(dp2959
g66
(dp2960
g86
g87
ssg75
g2954
sg68
(lp2961
S'wsgi.multiprocess'
p2962
asbag61
(g82
g63
NtRp2963
(dp2964
g66
(dp2965
g93
g94
ssg75
g2954
sg68
(lp2966
S':'
asbag61
(g82
g63
NtRp2967
(dp2968
g66
(dp2969
sg75
g2954
sg68
(lp2970
g61
(g62
g63
NtRp2971
(dp2972
g66
(dp2973
g74
I3
ssg75
g2967
sg68
(lp2974
g104
asbasbasbag61
(g77
g63
NtRp2975
(dp2976
g66
(dp2977
sg75
g2443
sg68
(lp2978
g61
(g82
g63
NtRp2979
(dp2980
g66
(dp2981
g86
g87
ssg75
g2975
sg68
(lp2982
S'wsgi.multithread'
p2983
asbag61
(g82
g63
NtRp2984
(dp2985
g66
(dp2986
g93
g94
ssg75
g2975
sg68
(lp2987
S':'
asbag61
(g82
g63
NtRp2988
(dp2989
g66
(dp2990
sg75
g2975
sg68
(lp2991
g61
(g62
g63
NtRp2992
(dp2993
g66
(dp2994
g74
I3
ssg75
g2988
sg68
(lp2995
g1644
asbasbasbag61
(g77
g63
NtRp2996
(dp2997
g66
(dp2998
sg75
g2443
sg68
(lp2999
g61
(g82
g63
NtRp3000
(dp3001
g66
(dp3002
g86
g87
ssg75
g2996
sg68
(lp3003
S'wsgi.run_once'
p3004
asbag61
(g82
g63
NtRp3005
(dp3006
g66
(dp3007
g93
g94
ssg75
g2996
sg68
(lp3008
S':'
asbag61
(g82
g63
NtRp3009
(dp3010
g66
(dp3011
sg75
g2996
sg68
(lp3012
g61
(g62
g63
NtRp3013
(dp3014
g66
(dp3015
g74
I3
ssg75
g3009
sg68
(lp3016
g104
asbasbasbag61
(g77
g63
NtRp3017
(dp3018
g66
(dp3019
sg75
g2443
sg68
(lp3020
g61
(g82
g63
NtRp3021
(dp3022
g66
(dp3023
g86
g87
ssg75
g3017
sg68
(lp3024
S'wsgi.url_scheme'
p3025
asbag61
(g82
g63
NtRp3026
(dp3027
g66
(dp3028
g93
g94
ssg75
g3017
sg68
(lp3029
S':'
asbag61
(g82
g63
NtRp3030
(dp3031
g66
(dp3032
sg75
g3017
sg68
(lp3033
g61
(g62
g63
NtRp3034
(dp3035
g66
(dp3036
g74
I3
ssg75
g3030
sg68
(lp3037
g1687
asbasbasbag61
(g77
g63
NtRp3038
(dp3039
g66
(dp3040
sg75
g2443
sg68
(lp3041
g61
(g82
g63
NtRp3042
(dp3043
g66
(dp3044
g86
g87
ssg75
g3038
sg68
(lp3045
S'wsgi.version'
p3046
asbag61
(g82
g63
NtRp3047
(dp3048
g66
(dp3049
g93
g94
ssg75
g3038
sg68
(lp3050
S':'
asbag61
(g82
g63
NtRp3051
(dp3052
g66
(dp3053
sg75
g3038
sg68
(lp3054
g61
(g62
g63
NtRp3055
(dp3056
g66
(dp3057
g74
I3
ssg75
g3051
sg68
(lp3058
S'1'
asbasbasbasbasbasbasbasbasbasbasbasbasbsS'frames'
p3059
(lp3060
(dp3061
S'file'
p3062
S'/var/www/conferencia/gluon/restricted.py'
p3063
sS'dump'
p3064
(dp3065
S'environment'
p3066
S"{'A': <class 'gluon.html.A'>, 'Auth': <class 'gluon.tools.Auth'>, 'B': <class 'gluon.html.B'>, 'BEAUTIFY': <class 'gluon.html.BEAUTIFY'>, 'BODY': <class 'gluon.html.BODY'>, 'BR': <class 'gluon.html.BR'>, 'BUTTON': <class 'gluon.html.BUTTON'>, 'CAT': <class 'gluon.html.CAT'>, 'CENTER': <class 'gluon.html.CENTER'>, 'CLEANUP': <class 'gluon.validators.CLEANUP'>, ...}"
p3067
sS'ccode'
p3068
S'<code object <module> at 0x7fc5d00d3630, file "/...a/applications/projeto/models/models.py", line 1>'
p3069
ssS'lnum'
p3070
I212
sS'lines'
p3071
(dp3072
I207
S'    try:'
p3073
sI208
S'        if isinstance(code, types.CodeType):'
p3074
sI209
S'            ccode = code'
p3075
sI210
S'        else:'
p3076
sI211
S'            ccode = compile2(code, layer)'
p3077
sI212
S'        exec ccode in environment'
p3078
sI213
S'    except HTTP:'
p3079
sI214
S'        raise'
p3080
sI215
S'    except RestrictedError:'
p3081
sI216
S'        # do not encapsulate (obfuscate) the original RestrictedError'
p3082
ssS'call'
p3083
S'(code=\'usuario = db.define_table("usuario",\\n      Field...= "Membros"\\nmeetme.admin_user.label = "Admins"\\n\\n\\n\', environment={\'A\': <class \'gluon.html.A\'>, \'Auth\': <class \'gluon.tools.Auth\'>, \'B\': <class \'gluon.html.B\'>, \'BEAUTIFY\': <class \'gluon.html.BEAUTIFY\'>, \'BODY\': <class \'gluon.html.BODY\'>, \'BR\': <class \'gluon.html.BR\'>, \'BUTTON\': <class \'gluon.html.BUTTON\'>, \'CAT\': <class \'gluon.html.CAT\'>, \'CENTER\': <class \'gluon.html.CENTER\'>, \'CLEANUP\': <class \'gluon.validators.CLEANUP\'>, ...}, layer=\'/var/www/conferencia/applications/projeto/models/models.py\')'
p3084
sS'func'
p3085
S'restricted'
p3086
sa(dp3087
g3062
S'/var/www/conferencia/applications/projeto/models/models.py'
p3088
sg3064
(dp3089
S'builtinformat'
p3090
S'<built-in function format>'
p3091
ssg3070
I6
sg3071
(dp3092
I2
S'      Field("nome", notnull=True),'
p3093
sI3
S'      Field("pin", unique=True),'
p3094
sI4
S'      Field("email"),'
p3095
sI5
S'      #auth.signature'
p3096
sI6
S'      format="%(nome)s")'
p3097
sI7
S''
sI8
S''
sI9
S'meetme = db.define_table("meetme",'
p3098
sI10
S'      Field("confno", \'id\'),'
p3099
sI11
S'      Field("starttime", "datetime"),'
p3100
ssg3083
S'()'
p3101
sg3085
S'<module>'
p3102
sa(dp3103
g3062
S'/var/www/conferencia/gluon/dal.py'
p3104
sg3064
(dp3105
S'fields'
p3106
S'(<gluon.dal.Field object>, <gluon.dal.Field object>, <gluon.dal.Field object>)'
p3107
sS'self'
p3108
S'<DAL uri="postgres:pg8000://******:123456@127.0.0.1/conferencia">'
p3109
sS'args'
p3110
S"{'format': '%(nome)s'}"
p3111
sS'tablename'
p3112
S"'usuario'"
p3113
sS'table'
p3114
S'undefined'
p3115
sS'self.lazy_define_table'
p3116
S'<bound method DAL.lazy_define_table of <DAL uri=...s:pg8000://******:123456@127.0.0.1/conferencia">>'
p3117
ssg3070
I7186
sg3071
(dp3118
I7181
S'                    % (tablename,invalid_args))'
p3119
sI7182
S'        if self._lazy_tables and not tablename in self._LAZY_TABLES:'
p3120
sI7183
S'            self._LAZY_TABLES[tablename] = (tablename,fields,args)'
p3121
sI7184
S'            table = None'
p3122
sI7185
S'        else:'
p3123
sI7186
S'            table = self.lazy_define_table(tablename,*fields,**args)'
p3124
sI7187
S'        if not tablename in self.tables:'
p3125
sI7188
S'            self.tables.append(tablename)'
p3126
sI7189
S'        return table'
p3127
sI7190
S''
ssg3083
S'(self=<DAL uri="postgres:pg8000://******:123456@127.0.0.1/conferencia">, tablename=\'usuario\', *fields=(<gluon.dal.Field object>, <gluon.dal.Field object>, <gluon.dal.Field object>), **args={\'format\': \'%(nome)s\'})'
p3128
sg3085
S'define_table'
p3129
sa(dp3130
g3062
S'/var/www/conferencia/gluon/dal.py'
p3131
sg3064
(dp3132
S'polymodel'
p3133
S'None'
p3134
ssg3070
I7222
sg3071
(dp3135
I7217
S"            polymodel = args_get('polymodel',None)"
p3136
sI7218
S'            try:'
p3137
sI7219
S'                GLOBAL_LOCKER.acquire()'
p3138
sI7220
S'                self._adapter.create_table(table,migrate=migrate,'
p3139
sI7221
S'                                           fake_migrate=fake_migrate,'
p3140
sI7222
S'                                           polymodel=polymodel)'
p3141
sI7223
S'            finally:'
p3142
sI7224
S'                GLOBAL_LOCKER.release()'
p3143
sI7225
S'        else:'
p3144
sI7226
S'            table._dbt = None'
p3145
ssg3083
S'(self=<DAL uri="postgres:pg8000://******:123456@127.0.0.1/conferencia">, tablename=\'usuario\', *fields=(<gluon.dal.Field object>, <gluon.dal.Field object>, <gluon.dal.Field object>), **args={\'format\': \'%(nome)s\'})'
p3146
sg3085
S'lazy_define_table'
p3147
sa(dp3148
g3062
S'/var/www/conferencia/gluon/dal.py'
p3149
sg3064
(dp3150
S'fake_migrate'
p3151
g104
ssg3070
I963
sg3071
(dp3152
I960
S'                self.migrate_table(table,'
p3153
sI961
S'                                   sql_fields, sql_fields_old,'
p3154
sI962
S'                                   sql_fields_aux, logfile,'
p3155
sI963
S'                                   fake_migrate=fake_migrate)'
p3156
sI964
S'        self.file_close(logfile)'
p3157
sI965
S'        return query'
p3158
sI966
S''
sI967
S'    def migrate_table('
p3159
sI958
S'            self.file_close(tfile)'
p3160
sI959
S'            if sql_fields != sql_fields_old:'
p3161
ssg3083
S'(self=<gluon.dal.PostgreSQLAdapter object>, table=<Table usuario (id,nome,pin,email)>, migrate=True, fake_migrate=False, polymodel=None)'
p3162
sg3085
S'create_table'
p3163
sa(dp3164
g3062
S'/var/www/conferencia/gluon/dal.py'
p3165
sg3064
(dp3166
S'self'
p3167
S'<gluon.dal.PostgreSQLAdapter object>'
p3168
sS'self.execute'
p3169
S'<bound method PostgreSQLAdapter.execute of <gluon.dal.PostgreSQLAdapter object>>'
p3170
sS'sub_query'
p3171
S"'ALTER TABLE usuario ADD nome__tmp VARCHAR(512) NOT NULL;'"
p3172
ssg3070
I1069
sg3071
(dp3173
I1064
S'                              % datetime.datetime.today().isoformat())'
p3174
sI1065
S"                db['_lastsql'] = '\\n'.join(query)"
p3175
sI1066
S'                for sub_query in query:'
p3176
sI1067
S"                    logfile.write(sub_query + '\\n')"
p3177
sI1068
S'                    if not fake_migrate:'
p3178
sI1069
S'                        self.execute(sub_query)'
p3179
sI1070
S'                        # Caveat: mysql, oracle and firebird do not allow multiple alter table'
p3180
sI1071
S'                        # in one transaction so we must commit partial transactions and'
p3181
sI1072
S'                        # update table._dbt after alter table.'
p3182
sI1073
S'                        if db._adapter.commit_on_alter_table:'
p3183
ssg3083
S"(self=<gluon.dal.PostgreSQLAdapter object>, table=<Table usuario (id,nome,pin,email)>, sql_fields={'email': {'length': 512, 'notnull': False, 'sortable': 4, 'sql': 'VARCHAR(512)', 'type': 'string', 'unique': False}, 'id': {'length': 512, 'notnull': False, 'sortable': 1, 'sql': 'SERIAL PRIMARY KEY', 'type': 'id', 'unique': False}, 'nome': {'length': 512, 'notnull': True, 'sortable': 2, 'sql': 'VARCHAR(512) NOT NULL', 'type': 'string', 'unique': False}, 'pin': {'length': 512, 'notnull': False, 'sortable': 3, 'sql': 'VARCHAR(512) UNIQUE', 'type': 'string', 'unique': True}}, sql_fields_old={'email': {'length': 512, 'notnull': False, 'sortable': 4, 'sql': 'VARCHAR(512)', 'type': 'string', 'unique': False}, 'id': {'length': 512, 'notnull': False, 'sortable': 1, 'sql': 'SERIAL PRIMARY KEY', 'type': 'id', 'unique': False}, 'nome': {'length': 512, 'notnull': True, 'sortable': 2, 'sql': 'VARCHAR(512) NOT NULL UNIQUE', 'type': 'string', 'unique': True}, 'pin': {'length': 512, 'notnull': False, 'sortable': 3, 'sql': 'VARCHAR(512) UNIQUE', 'type': 'string', 'unique': True}}, sql_fields_aux={'email': {'sql': 'VARCHAR(512)'}, 'id': {'sql': 'SERIAL PRIMARY KEY'}, 'nome': {'sql': 'VARCHAR(512) NOT NULL'}, 'pin': {'sql': 'VARCHAR(512) UNIQUE'}}, logfile=<gluon.portalocker.LockedFile object>, fake_migrate=False)"
p3184
sg3085
S'migrate_table'
p3185
sa(dp3186
g3062
S'/var/www/conferencia/gluon/dal.py'
p3187
sg3064
(dp3188
S'a'
S"('ALTER TABLE usuario ADD nome__tmp VARCHAR(512) NOT NULL;',)"
p3189
sS'self'
p3190
S'<gluon.dal.PostgreSQLAdapter object>'
p3191
sS'b'
g21
sS'self.log_execute'
p3192
S'<bound method PostgreSQLAdapter.log_execute of <gluon.dal.PostgreSQLAdapter object>>'
p3193
ssg3070
I1709
sg3071
(dp3194
I1704
S'        self.db._timings.append((command,time.time()-t0))'
p3195
sI1705
S'        del self.db._timings[:-TIMINGSSIZE]'
p3196
sI1706
S'        return ret'
p3197
sI1707
S''
sI1708
S'    def execute(self, *a, **b):'
p3198
sI1709
S'        return self.log_execute(*a, **b)'
p3199
sI1710
S''
sI1711
S'    def represent(self, obj, fieldtype):'
p3200
sI1712
S'        field_is_type = fieldtype.startswith'
p3201
sI1713
S'        if isinstance(obj, CALLABLETYPES):'
p3202
ssg3083
S"(self=<gluon.dal.PostgreSQLAdapter object>, *a=('ALTER TABLE usuario ADD nome__tmp VARCHAR(512) NOT NULL;',), **b={})"
p3203
sg3085
S'execute'
p3204
sa(dp3205
g3062
S'/var/www/conferencia/gluon/dal.py'
p3206
sg3064
(dp3207
S'a'
S"('ALTER TABLE usuario ADD nome__tmp VARCHAR(512) NOT NULL;',)"
p3208
sS'b'
g21
sS'self'
p3209
S'<gluon.dal.PostgreSQLAdapter object>'
p3210
sS'ret'
p3211
g3115
sS'self.cursor'
p3212
S'<gluon.contrib.pg8000.dbapi.CursorWrapper object>'
p3213
sS'self.cursor.execute'
p3214
S'<bound method CursorWrapper._fn of <gluon.contrib.pg8000.dbapi.CursorWrapper object>>'
p3215
ssg3070
I1703
sg3071
(dp3216
I1698
S'        command = a[0]'
p3217
sI1699
S'        if self.db._debug:'
p3218
sI1700
S"            LOGGER.debug('SQL: %s' % command)"
p3219
sI1701
S'        self.db._lastsql = command'
p3220
sI1702
S'        t0 = time.time()'
p3221
sI1703
S'        ret = self.cursor.execute(*a, **b)'
p3222
sI1704
S'        self.db._timings.append((command,time.time()-t0))'
p3223
sI1705
S'        del self.db._timings[:-TIMINGSSIZE]'
p3224
sI1706
S'        return ret'
p3225
sI1707
S''
ssg3083
S"(self=<gluon.dal.PostgreSQLAdapter object>, *a=('ALTER TABLE usuario ADD nome__tmp VARCHAR(512) NOT NULL;',), **b={})"
p3226
sg3085
S'log_execute'
p3227
sa(dp3228
g3062
S'/var/www/conferencia/gluon/contrib/pg8000/dbapi.py'
p3229
sg3064
(dp3230
S'self'
p3231
S'<gluon.contrib.pg8000.dbapi.CursorWrapper object>'
p3232
sS'args'
p3233
S"('ALTER TABLE usuario ADD nome__tmp VARCHAR(512) NOT NULL;',)"
p3234
sS'fn'
p3235
S'<function execute>'
p3236
sS'kwargs'
p3237
g21
ssg3070
I246
sg3071
(dp3238
I241
S''
sI242
S'def require_open_cursor(fn):'
p3239
sI243
S'    def _fn(self, *args, **kwargs):'
p3240
sI244
S'        if self.cursor == None:'
p3241
sI245
S'            raise CursorClosedError()'
p3242
sI246
S'        return fn(self, *args, **kwargs)'
p3243
sI247
S'    return _fn'
p3244
sI248
S''
sI249
S'##'
p3245
sI250
S'# The class of object returned by the {@link #ConnectionWrapper.cursor cursor method}.'
p3246
ssg3083
S"(self=<gluon.contrib.pg8000.dbapi.CursorWrapper object>, *args=('ALTER TABLE usuario ADD nome__tmp VARCHAR(512) NOT NULL;',), **kwargs={})"
p3247
sg3085
S'_fn'
p3248
sa(dp3249
g3062
S'/var/www/conferencia/gluon/contrib/pg8000/dbapi.py'
p3250
sg3064
(dp3251
S'self._execute'
p3252
S'<bound method CursorWrapper._execute of <gluon.contrib.pg8000.dbapi.CursorWrapper object>>'
p3253
sS'self'
p3254
S'<gluon.contrib.pg8000.dbapi.CursorWrapper object>'
p3255
sS'args'
p3256
S'()'
p3257
sS'operation'
p3258
S"'ALTER TABLE usuario ADD nome__tmp VARCHAR(512) NOT NULL;'"
p3259
ssg3070
I317
sg3071
(dp3260
I320
S'        new_query, new_args = convert_paramstyle(paramstyle, operation, args)'
p3261
sI321
S'        try:'
p3262
sI312
S'    @require_open_cursor'
p3263
sI313
S'    def execute(self, operation, args=()):'
p3264
sI314
S'        if not self._connection.in_transaction:'
p3265
sI315
S'            self._connection.begin()'
p3266
sI316
S'        self._override_rowcount = None'
p3267
sI317
S'        self._execute(operation, args)'
p3268
sI318
S''
sI319
S'    def _execute(self, operation, args=()):'
p3269
ssg3083
S"(self=<gluon.contrib.pg8000.dbapi.CursorWrapper object>, operation='ALTER TABLE usuario ADD nome__tmp VARCHAR(512) NOT NULL;', args=())"
p3270
sg3085
g3204
sa(dp3271
g3062
S'/var/www/conferencia/gluon/contrib/pg8000/dbapi.py'
p3272
sg3064
(dp3273
S'new_args'
p3274
S'()'
p3275
sS'self.cursor'
p3276
S'<gluon.contrib.pg8000.interface.Cursor object>'
p3277
sS'self'
p3278
S'<gluon.contrib.pg8000.dbapi.CursorWrapper object>'
p3279
sS'new_query'
p3280
S"'ALTER TABLE usuario ADD nome__tmp VARCHAR(512) NOT NULL;'"
p3281
sS'self.cursor.execute'
p3282
S'<bound method Cursor.execute of <gluon.contrib.pg8000.interface.Cursor object>>'
p3283
ssg3070
I322
sg3071
(dp3284
I320
S'        new_query, new_args = convert_paramstyle(paramstyle, operation, args)'
p3285
sI321
S'        try:'
p3286
sI322
S'            self.cursor.execute(new_query, *new_args)'
p3287
sI323
S'        except ConnectionClosedError:'
p3288
sI324
S"            # can't rollback in this case"
p3289
sI325
S'            raise'
p3290
sI326
S'        except:'
p3291
sI317
S'        self._execute(operation, args)'
p3292
sI318
S''
sI319
S'    def _execute(self, operation, args=()):'
p3293
ssg3083
S"(self=<gluon.contrib.pg8000.dbapi.CursorWrapper object>, operation='ALTER TABLE usuario ADD nome__tmp VARCHAR(512) NOT NULL;', args=())"
p3294
sg3085
S'_execute'
p3295
sa(dp3296
g3062
S'/var/www/conferencia/gluon/contrib/pg8000/interface.py'
p3297
sg3064
(dp3298
S'self._stmt.execute'
p3299
S'<bound method PreparedStatement.execute of <gluo...ntrib.pg8000.interface.PreparedStatement object>>'
p3300
sS'kwargs'
p3301
g21
sS'self'
p3302
S'<gluon.contrib.pg8000.interface.Cursor object>'
p3303
sS'args'
p3304
S'()'
p3305
sS'self._stmt'
p3306
S'<gluon.contrib.pg8000.interface.PreparedStatement object>'
p3307
ssg3070
I399
sg3071
(dp3308
I394
S'                ## print "SimpleQuery:", query'
p3309
sI395
S'                self._stmt = SimpleStatement(self.connection, query)'
p3310
sI396
S'            else:'
p3311
sI397
S'                # use PostgreSQL Extended Query Protocol'
p3312
sI398
S'                self._stmt = PreparedStatement(self.connection, query, statement_name="", *[{"type": type(x), "value": x} for x in args])'
p3313
sI399
S'            self._stmt.execute(*args, **kwargs)'
p3314
sI400
S'        finally:'
p3315
sI401
S'            self.connection._unnamed_prepared_statement_lock.release()'
p3316
sI402
S''
sI403
S'    ##'
p3317
ssg3083
S"(self=<gluon.contrib.pg8000.interface.Cursor object>, query='ALTER TABLE usuario ADD nome__tmp VARCHAR(512) NOT NULL;', *args=(), **kwargs={})"
p3318
sg3085
g3204
sa(dp3319
g3062
S'/var/www/conferencia/gluon/contrib/pg8000/interface.py'
p3320
sg3064
(dp3321
S'kwargs.get'
p3322
S'<built-in method get of dict object>'
p3323
sS'args'
p3324
S'()'
p3325
sS'self.c'
p3326
S'<gluon.contrib.pg8000.protocol.Connection object>'
p3327
sS'self'
p3328
S'<gluon.contrib.pg8000.interface.PreparedStatement object>'
p3329
sS'cmd'
p3330
g3115
sS'self._row_desc'
p3331
S'None'
p3332
sS'self.c.bind'
p3333
S'<bound method Connection._fn of <gluon.contrib.pg8000.protocol.Connection object>>'
p3334
sS'self._statement_name'
p3335
S"''"
p3336
sS'self._parse_row_desc'
p3337
S'(None, [])'
p3338
sS'kwargs'
p3339
g21
sS'self._portal_name'
p3340
S"'pg8000_portal_646'"
p3341
ssg3070
I169
sg3071
(dp3342
I164
S'                self._ongoing_row_count = 0'
p3343
sI165
S'            if self._portal_name != None:'
p3344
sI166
S'                self.c.close_portal(self._portal_name)'
p3345
sI167
S'            self._command_complete = False'
p3346
sI168
S'            self._portal_name = "pg8000_portal_%s" % self._statement_number'
p3347
sI169
S'            self._row_desc, cmd = self.c.bind(self._portal_name, self._statement_name, args, self._parse_row_desc, kwargs.get("stream"))'
p3348
sI170
S'            if self._row_desc:'
p3349
sI171
S'                # We execute our cursor right away to fill up our cache.  This'
p3350
sI172
S'                # prevents the cursor from being destroyed, apparently, by a rogue'
p3351
sI173
S'                # Sync between Bind and Execute.  Since it is quite likely that'
p3352
ssg3083
S'(self=<gluon.contrib.pg8000.interface.PreparedStatement object>, *args=(), **kwargs={})'
p3353
sg3085
g3204
sa(dp3354
g3062
S'/var/www/conferencia/gluon/contrib/pg8000/protocol.py'
p3355
sg3064
(dp3356
S'self'
p3357
S'<gluon.contrib.pg8000.protocol.Connection object>'
p3358
sS'args'
p3359
S"('pg8000_portal_646', '', (), (None, []), None)"
p3360
sS'fn'
p3361
S'<function bind>'
p3362
sS'kwargs'
p3363
g21
ssg3070
I943
sg3071
(dp3364
I938
S''
sI939
S'def sync_on_error(fn):'
p3365
sI940
S'    def _fn(self, *args, **kwargs):'
p3366
sI941
S'        try:'
p3367
sI942
S'            self._sock_lock.acquire()'
p3368
sI943
S'            return fn(self, *args, **kwargs)'
p3369
sI944
S'        except:'
p3370
sI945
S'            self._sync()'
p3371
sI946
S'            raise'
p3372
sI947
S'        finally:'
p3373
ssg3083
S"(self=<gluon.contrib.pg8000.protocol.Connection object>, *args=('pg8000_portal_646', '', (), (None, []), None), **kwargs={})"
p3374
sg3085
g3248
sa(dp3375
g3062
S'/var/www/conferencia/gluon/contrib/pg8000/protocol.py'
p3376
sg3064
(dp3377
S'reader.handle_messages'
p3378
S'<bound method MessageReader.handle_messages of <gluon.contrib.pg8000.protocol.MessageReader object>>'
p3379
sS'reader'
p3380
S'<gluon.contrib.pg8000.protocol.MessageReader object>'
p3381
ssg3070
I1142
sg3071
(dp3382
I1137
S''
sI1138
S'        # Return the new row desc, since it will have the format types we'
p3383
sI1139
S'        # asked the server for'
p3384
sI1140
S'        reader.add_message(RowDescription, lambda msg: (msg, None))'
p3385
sI1141
S''
sI1142
S'        return reader.handle_messages()'
p3386
sI1143
S''
sI1144
S'    def _copy_in_response(self, copyin, fileobj, old_reader):'
p3387
sI1145
S'        if fileobj == None:'
p3388
sI1146
S'            raise CopyQueryWithoutStreamError()'
p3389
ssg3083
S"(self=<gluon.contrib.pg8000.protocol.Connection object>, portal='pg8000_portal_646', statement='', params=(), parse_data=(None, []), copy_stream=None)"
p3390
sg3085
S'bind'
p3391
sa(dp3392
g3062
S'/var/www/conferencia/gluon/contrib/pg8000/protocol.py'
p3393
sg3064
(dp3394
S'msg'
p3395
S'<gluon.contrib.pg8000.protocol.NoData object>'
p3396
sS'handler'
p3397
S'<bound method Connection._bind_nodata of <gluon.contrib.pg8000.protocol.Connection object>>'
p3398
sS'retval'
p3399
S'0'
sS'args'
p3400
S"('pg8000_portal_646', <gluon.contrib.pg8000.protocol.MessageReader object>, None)"
p3401
sS'kwargs'
p3402
g21
ssg3070
I911
sg3071
(dp3403
I906
S'            msg = self._conn._read_message()'
p3404
sI907
S'            msg_handled = False'
p3405
sI908
S'            for (msg_class, handler, args, kwargs) in self._msgs:'
p3406
sI909
S'                if isinstance(msg, msg_class):'
p3407
sI910
S'                    msg_handled = True'
p3408
sI911
S'                    retval = handler(msg, *args, **kwargs)'
p3409
sI912
S'                    if retval:'
p3410
sI913
S'                        # The handler returned a true value, meaning that the'
p3411
sI914
S'                        # message loop should be aborted.'
p3412
sI915
S'                        if exc != None:'
p3413
ssg3083
S'(self=<gluon.contrib.pg8000.protocol.MessageReader object>)'
p3414
sg3085
S'handle_messages'
p3415
sa(dp3416
g3062
S'/var/www/conferencia/gluon/contrib/pg8000/protocol.py'
p3417
sg3064
(dp3418
S'reader.handle_messages'
p3419
S'<bound method MessageReader.handle_messages of <gluon.contrib.pg8000.protocol.MessageReader object>>'
p3420
sS'reader'
p3421
S'<gluon.contrib.pg8000.protocol.MessageReader object>'
p3422
ssg3070
I1181
sg3071
(dp3423
I1184
S''
sI1185
S'    @sync_on_error'
p3424
sI1176
S'        reader.add_message(CopyOutResponse, self._copy_out_response, copy_stream, reader)'
p3425
sI1177
S'        reader.add_message(CopyInResponse, self._copy_in_response, copy_stream, reader)'
p3426
sI1178
S"        reader.add_message(CommandComplete, lambda msg, out: out.setdefault('msg', msg) and False, output)"
p3427
sI1179
S'        reader.add_message(ReadyForQuery, lambda msg: 1)'
p3428
sI1180
S'        reader.delay_raising_exception = True'
p3429
sI1181
S'        reader.handle_messages()'
p3430
sI1182
S''
sI1183
S"        old_reader.return_value((None, output['msg']))"
p3431
ssg3083
S"(self=<gluon.contrib.pg8000.protocol.Connection object>, msg=<gluon.contrib.pg8000.protocol.NoData object>, portal='pg8000_portal_646', old_reader=<gluon.contrib.pg8000.protocol.MessageReader object>, copy_stream=None)"
p3432
sg3085
S'_bind_nodata'
p3433
sa(dp3434
g3062
S'/var/www/conferencia/gluon/contrib/pg8000/protocol.py'
p3435
sg3064
(dp3436
S'exc'
p3437
S'ProgrammingError(\'ERROR\', \'23502\', \'column "nome__tmp" contains null values\')'
p3438
ssg3070
I916
sg3071
(dp3439
I911
S'                    retval = handler(msg, *args, **kwargs)'
p3440
sI912
S'                    if retval:'
p3441
sI913
S'                        # The handler returned a true value, meaning that the'
p3442
sI914
S'                        # message loop should be aborted.'
p3443
sI915
S'                        if exc != None:'
p3444
sI916
S'                            raise exc'
p3445
sI917
S'                        return retval'
p3446
sI918
S'                    elif hasattr(self, "_retval"):'
p3447
sI919
S'                        # The handler told us to return -- used for non-true'
p3448
sI920
S'                        # return values'
p3449
ssg3083
S'(self=<gluon.contrib.pg8000.protocol.MessageReader object>)'
p3450
sg3085
g3415
sasS'pyver'
p3451
S'Python 2.7.3: /usr/bin/python'
p3452
sS'session'
p3453
g61
(g62
g63
NtRp3454
(dp3455
g66
(dp3456
sg68
(lp3457
g61
(g70
g63
NtRp3458
(dp3459
g66
(dp3460
g74
I5
ssg75
Nsg68
(lp3461
sbasbsS'etype'
p3462
S"<class 'gluon.contrib.pg8000.errors.ProgrammingError'>"
p3463
sS'date'
p3464
S'Thu Apr  4 09:09:03 2013'
p3465
sS'response'
p3466
g61
(g62
g63
NtRp3467
(dp3468
g66
(dp3469
sg68
(lp3470
g61
(g70
g63
NtRp3471
(dp3472
g66
(dp3473
g74
I5
ssg75
Nsg68
(lp3474
g61
(g77
g63
NtRp3475
(dp3476
g66
(dp3477
sg75
g3471
sg68
(lp3478
g61
(g82
g63
NtRp3479
(dp3480
g66
(dp3481
g86
g87
ssg75
g3475
sg68
(lp3482
g185
asbag61
(g82
g63
NtRp3483
(dp3484
g66
(dp3485
g93
g94
ssg75
g3475
sg68
(lp3486
S':'
asbag61
(g82
g63
NtRp3487
(dp3488
g66
(dp3489
sg75
g3475
sg68
(lp3490
g61
(g62
g63
NtRp3491
(dp3492
g66
(dp3493
g74
I5
ssg75
g3487
sg68
(lp3494
S'<cStringIO.StringO object at 0x7fc5d87d36f8>'
p3495
asbasbasbag61
(g77
g63
NtRp3496
(dp3497
g66
(dp3498
sg75
g3471
sg68
(lp3499
g61
(g82
g63
NtRp3500
(dp3501
g66
(dp3502
g86
g87
ssg75
g3496
sg68
(lp3503
g273
asbag61
(g82
g63
NtRp3504
(dp3505
g66
(dp3506
g93
g94
ssg75
g3496
sg68
(lp3507
S':'
asbag61
(g82
g63
NtRp3508
(dp3509
g66
(dp3510
sg75
g3496
sg68
(lp3511
g61
(g62
g63
NtRp3512
(dp3513
g66
(dp3514
g74
I5
ssg75
g3508
sg68
(lp3515
g61
(g70
g63
NtRp3516
(dp3517
g66
(dp3518
g74
I4
ssg75
Nsg68
(lp3519
g61
(g77
g63
NtRp3520
(dp3521
g66
(dp3522
sg75
g3516
sg68
(lp3523
g61
(g82
g63
NtRp3524
(dp3525
g66
(dp3526
g86
g87
ssg75
g3520
sg68
(lp3527
S'session_id_projeto'
p3528
asbag61
(g82
g63
NtRp3529
(dp3530
g66
(dp3531
g93
g94
ssg75
g3520
sg68
(lp3532
S':'
asbag61
(g82
g63
NtRp3533
(dp3534
g66
(dp3535
sg75
g3520
sg68
(lp3536
g61
(g62
g63
NtRp3537
(dp3538
g66
(dp3539
g74
I4
ssg75
g3533
sg68
(lp3540
g505
ag61
(g70
g63
NtRp3541
(dp3542
g66
(dp3543
g74
I3
ssg75
Nsg68
(lp3544
g61
(g77
g63
NtRp3545
(dp3546
g66
(dp3547
sg75
g3541
sg68
(lp3548
g61
(g82
g63
NtRp3549
(dp3550
g66
(dp3551
g86
g87
ssg75
g3545
sg68
(lp3552
g324
asbag61
(g82
g63
NtRp3553
(dp3554
g66
(dp3555
g93
g94
ssg75
g3545
sg68
(lp3556
S':'
asbag61
(g82
g63
NtRp3557
(dp3558
g66
(dp3559
sg75
g3545
sg68
(lp3560
g61
(g62
g63
NtRp3561
(dp3562
g66
(dp3563
g74
I3
ssg75
g3557
sg68
(lp3564
S''
asbasbasbag61
(g77
g63
NtRp3565
(dp3566
g66
(dp3567
sg75
g3541
sg68
(lp3568
g61
(g82
g63
NtRp3569
(dp3570
g66
(dp3571
g86
g87
ssg75
g3565
sg68
(lp3572
g345
asbag61
(g82
g63
NtRp3573
(dp3574
g66
(dp3575
g93
g94
ssg75
g3565
sg68
(lp3576
S':'
asbag61
(g82
g63
NtRp3577
(dp3578
g66
(dp3579
sg75
g3565
sg68
(lp3580
g61
(g62
g63
NtRp3581
(dp3582
g66
(dp3583
g74
I3
ssg75
g3577
sg68
(lp3584
S''
asbasbasbag61
(g77
g63
NtRp3585
(dp3586
g66
(dp3587
sg75
g3541
sg68
(lp3588
g61
(g82
g63
NtRp3589
(dp3590
g66
(dp3591
g86
g87
ssg75
g3585
sg68
(lp3592
g366
asbag61
(g82
g63
NtRp3593
(dp3594
g66
(dp3595
g93
g94
ssg75
g3585
sg68
(lp3596
S':'
asbag61
(g82
g63
NtRp3597
(dp3598
g66
(dp3599
sg75
g3585
sg68
(lp3600
g61
(g62
g63
NtRp3601
(dp3602
g66
(dp3603
g74
I3
ssg75
g3597
sg68
(lp3604
S''
asbasbasbag61
(g77
g63
NtRp3605
(dp3606
g66
(dp3607
sg75
g3541
sg68
(lp3608
g61
(g82
g63
NtRp3609
(dp3610
g66
(dp3611
g86
g87
ssg75
g3605
sg68
(lp3612
g387
asbag61
(g82
g63
NtRp3613
(dp3614
g66
(dp3615
g93
g94
ssg75
g3605
sg68
(lp3616
S':'
asbag61
(g82
g63
NtRp3617
(dp3618
g66
(dp3619
sg75
g3605
sg68
(lp3620
g61
(g62
g63
NtRp3621
(dp3622
g66
(dp3623
g74
I3
ssg75
g3617
sg68
(lp3624
S''
asbasbasbag61
(g77
g63
NtRp3625
(dp3626
g66
(dp3627
sg75
g3541
sg68
(lp3628
g61
(g82
g63
NtRp3629
(dp3630
g66
(dp3631
g86
g87
ssg75
g3625
sg68
(lp3632
g408
asbag61
(g82
g63
NtRp3633
(dp3634
g66
(dp3635
g93
g94
ssg75
g3625
sg68
(lp3636
S':'
asbag61
(g82
g63
NtRp3637
(dp3638
g66
(dp3639
sg75
g3625
sg68
(lp3640
g61
(g62
g63
NtRp3641
(dp3642
g66
(dp3643
g74
I3
ssg75
g3637
sg68
(lp3644
S''
asbasbasbag61
(g77
g63
NtRp3645
(dp3646
g66
(dp3647
sg75
g3541
sg68
(lp3648
g61
(g82
g63
NtRp3649
(dp3650
g66
(dp3651
g86
g87
ssg75
g3645
sg68
(lp3652
g429
asbag61
(g82
g63
NtRp3653
(dp3654
g66
(dp3655
g93
g94
ssg75
g3645
sg68
(lp3656
S':'
asbag61
(g82
g63
NtRp3657
(dp3658
g66
(dp3659
sg75
g3645
sg68
(lp3660
g61
(g62
g63
NtRp3661
(dp3662
g66
(dp3663
g74
I3
ssg75
g3657
sg68
(lp3664
S'/'
asbasbasbag61
(g77
g63
NtRp3665
(dp3666
g66
(dp3667
sg75
g3541
sg68
(lp3668
g61
(g82
g63
NtRp3669
(dp3670
g66
(dp3671
g86
g87
ssg75
g3665
sg68
(lp3672
g450
asbag61
(g82
g63
NtRp3673
(dp3674
g66
(dp3675
g93
g94
ssg75
g3665
sg68
(lp3676
S':'
asbag61
(g82
g63
NtRp3677
(dp3678
g66
(dp3679
sg75
g3665
sg68
(lp3680
g61
(g62
g63
NtRp3681
(dp3682
g66
(dp3683
g74
I3
ssg75
g3677
sg68
(lp3684
S''
asbasbasbag61
(g77
g63
NtRp3685
(dp3686
g66
(dp3687
sg75
g3541
sg68
(lp3688
g61
(g82
g63
NtRp3689
(dp3690
g66
(dp3691
g86
g87
ssg75
g3685
sg68
(lp3692
g471
asbag61
(g82
g63
NtRp3693
(dp3694
g66
(dp3695
g93
g94
ssg75
g3685
sg68
(lp3696
S':'
asbag61
(g82
g63
NtRp3697
(dp3698
g66
(dp3699
sg75
g3685
sg68
(lp3700
g61
(g62
g63
NtRp3701
(dp3702
g66
(dp3703
g74
I3
ssg75
g3697
sg68
(lp3704
S''
asbasbasbasbasbasbasbasbasbasbasbag61
(g77
g63
NtRp3705
(dp3706
g66
(dp3707
sg75
g3471
sg68
(lp3708
g61
(g82
g63
NtRp3709
(dp3710
g66
(dp3711
g86
g87
ssg75
g3705
sg68
(lp3712
S'delimiters'
p3713
asbag61
(g82
g63
NtRp3714
(dp3715
g66
(dp3716
g93
g94
ssg75
g3705
sg68
(lp3717
S':'
asbag61
(g82
g63
NtRp3718
(dp3719
g66
(dp3720
sg75
g3705
sg68
(lp3721
g61
(g62
g63
NtRp3722
(dp3723
g66
(dp3724
g74
I5
ssg75
g3718
sg68
(lp3725
g61
(g70
g63
NtRp3726
(dp3727
g66
(dp3728
g74
I4
ssg75
Nsg68
(lp3729
g61
(g77
g63
NtRp3730
(dp3731
g66
(dp3732
sg75
g3726
sg68
(lp3733
g61
(g82
g63
NtRp3734
(dp3735
g66
(dp3736
sg75
g3730
sg68
(lp3737
g61
(g62
g63
NtRp3738
(dp3739
g66
(dp3740
g74
I4
ssg75
g3734
sg68
(lp3741
S'{{'
p3742
asbasbasbag61
(g77
g63
NtRp3743
(dp3744
g66
(dp3745
sg75
g3726
sg68
(lp3746
g61
(g82
g63
NtRp3747
(dp3748
g66
(dp3749
sg75
g3743
sg68
(lp3750
g61
(g62
g63
NtRp3751
(dp3752
g66
(dp3753
g74
I4
ssg75
g3747
sg68
(lp3754
S'}}'
p3755
asbasbasbasbasbasbasbag61
(g77
g63
NtRp3756
(dp3757
g66
(dp3758
sg75
g3471
sg68
(lp3759
g61
(g82
g63
NtRp3760
(dp3761
g66
(dp3762
g86
g87
ssg75
g3756
sg68
(lp3763
S'files'
p3764
asbag61
(g82
g63
NtRp3765
(dp3766
g66
(dp3767
g93
g94
ssg75
g3756
sg68
(lp3768
S':'
asbag61
(g82
g63
NtRp3769
(dp3770
g66
(dp3771
sg75
g3756
sg68
(lp3772
g61
(g62
g63
NtRp3773
(dp3774
g66
(dp3775
g74
I5
ssg75
g3769
sg68
(lp3776
g61
(g70
g63
NtRp3777
(dp3778
g66
(dp3779
g74
I4
ssg75
Nsg68
(lp3780
sbasbasbasbag61
(g77
g63
NtRp3781
(dp3782
g66
(dp3783
sg75
g3471
sg68
(lp3784
g61
(g82
g63
NtRp3785
(dp3786
g66
(dp3787
g86
g87
ssg75
g3781
sg68
(lp3788
S'flash'
p3789
asbag61
(g82
g63
NtRp3790
(dp3791
g66
(dp3792
g93
g94
ssg75
g3781
sg68
(lp3793
S':'
asbag61
(g82
g63
NtRp3794
(dp3795
g66
(dp3796
sg75
g3781
sg68
(lp3797
g61
(g62
g63
NtRp3798
(dp3799
g66
(dp3800
g74
I5
ssg75
g3794
sg68
(lp3801
S''
asbasbasbag61
(g77
g63
NtRp3802
(dp3803
g66
(dp3804
sg75
g3471
sg68
(lp3805
g61
(g82
g63
NtRp3806
(dp3807
g66
(dp3808
g86
g87
ssg75
g3802
sg68
(lp3809
S'generic_patterns'
p3810
asbag61
(g82
g63
NtRp3811
(dp3812
g66
(dp3813
g93
g94
ssg75
g3802
sg68
(lp3814
S':'
asbag61
(g82
g63
NtRp3815
(dp3816
g66
(dp3817
sg75
g3802
sg68
(lp3818
g61
(g62
g63
NtRp3819
(dp3820
g66
(dp3821
g74
I5
ssg75
g3815
sg68
(lp3822
g61
(g70
g63
NtRp3823
(dp3824
g66
(dp3825
g74
I4
ssg75
Nsg68
(lp3826
g61
(g77
g63
NtRp3827
(dp3828
g66
(dp3829
sg75
g3823
sg68
(lp3830
g61
(g82
g63
NtRp3831
(dp3832
g66
(dp3833
sg75
g3827
sg68
(lp3834
g61
(g62
g63
NtRp3835
(dp3836
g66
(dp3837
g74
I4
ssg75
g3831
sg68
(lp3838
S'*'
asbasbasbasbasbasbasbag61
(g77
g63
NtRp3839
(dp3840
g66
(dp3841
sg75
g3471
sg68
(lp3842
g61
(g82
g63
NtRp3843
(dp3844
g66
(dp3845
g86
g87
ssg75
g3839
sg68
(lp3846
S'google_analytics_id'
p3847
asbag61
(g82
g63
NtRp3848
(dp3849
g66
(dp3850
g93
g94
ssg75
g3839
sg68
(lp3851
S':'
asbag61
(g82
g63
NtRp3852
(dp3853
g66
(dp3854
sg75
g3839
sg68
(lp3855
g61
(g62
g63
NtRp3856
(dp3857
g66
(dp3858
g74
I5
ssg75
g3852
sg68
(lp3859
S'None'
p3860
asbasbasbag61
(g77
g63
NtRp3861
(dp3862
g66
(dp3863
sg75
g3471
sg68
(lp3864
g61
(g82
g63
NtRp3865
(dp3866
g66
(dp3867
g86
g87
ssg75
g3861
sg68
(lp3868
S'headers'
p3869
asbag61
(g82
g63
NtRp3870
(dp3871
g66
(dp3872
g93
g94
ssg75
g3861
sg68
(lp3873
S':'
asbag61
(g82
g63
NtRp3874
(dp3875
g66
(dp3876
sg75
g3861
sg68
(lp3877
g61
(g62
g63
NtRp3878
(dp3879
g66
(dp3880
g74
I5
ssg75
g3874
sg68
(lp3881
g61
(g70
g63
NtRp3882
(dp3883
g66
(dp3884
g74
I4
ssg75
Nsg68
(lp3885
g61
(g77
g63
NtRp3886
(dp3887
g66
(dp3888
sg75
g3882
sg68
(lp3889
g61
(g82
g63
NtRp3890
(dp3891
g66
(dp3892
g86
g87
ssg75
g3886
sg68
(lp3893
S'X-Powered-By'
p3894
asbag61
(g82
g63
NtRp3895
(dp3896
g66
(dp3897
g93
g94
ssg75
g3886
sg68
(lp3898
S':'
asbag61
(g82
g63
NtRp3899
(dp3900
g66
(dp3901
sg75
g3886
sg68
(lp3902
g61
(g62
g63
NtRp3903
(dp3904
g66
(dp3905
g74
I4
ssg75
g3899
sg68
(lp3906
S'web2py'
p3907
asbasbasbasbasbasbasbag61
(g77
g63
NtRp3908
(dp3909
g66
(dp3910
sg75
g3471
sg68
(lp3911
g61
(g82
g63
NtRp3912
(dp3913
g66
(dp3914
g86
g87
ssg75
g3908
sg68
(lp3915
S'logo'
p3916
asbag61
(g82
g63
NtRp3917
(dp3918
g66
(dp3919
g93
g94
ssg75
g3908
sg68
(lp3920
S':'
asbag61
(g82
g63
NtRp3921
(dp3922
g66
(dp3923
sg75
g3908
sg68
(lp3924
g61
(g62
g63
NtRp3925
(dp3926
g66
(dp3927
g74
I5
ssg75
g3921
sg68
(lp3928
g61
(cgluon.html
A
p3929
g63
NtRp3930
(dp3931
g66
(dp3932
S'_class'
p3933
S'brand'
p3934
sS'_href'
p3935
g1802
ssg75
Nsg68
(lp3936
g61
(cgluon.html
B
p3937
g63
NtRp3938
(dp3939
g66
(dp3940
sg75
g3930
sg68
(lp3941
S'hosts'
p3942
ag61
(cgluon.html
SPAN
p3943
g63
NtRp3944
(dp3945
g66
(dp3946
sg75
g3938
sg68
(lp3947
S'3'
asbaS''
asbacgluon.html
XML_unpickle
p3948
(S's\r\x00\x00\x00&trade;&nbsp;'
tRp3949
asbasbasbasbag61
(g77
g63
NtRp3950
(dp3951
g66
(dp3952
sg75
g3471
sg68
(lp3953
g61
(g82
g63
NtRp3954
(dp3955
g66
(dp3956
g86
g87
ssg75
g3950
sg68
(lp3957
S'menu'
p3958
asbag61
(g82
g63
NtRp3959
(dp3960
g66
(dp3961
g93
g94
ssg75
g3950
sg68
(lp3962
S':'
asbag61
(g82
g63
NtRp3963
(dp3964
g66
(dp3965
sg75
g3950
sg68
(lp3966
g61
(g62
g63
NtRp3967
(dp3968
g66
(dp3969
g74
I5
ssg75
g3963
sg68
(lp3970
g61
(g70
g63
NtRp3971
(dp3972
g66
(dp3973
g74
I4
ssg75
Nsg68
(lp3974
g61
(g77
g63
NtRp3975
(dp3976
g66
(dp3977
sg75
g3971
sg68
(lp3978
g61
(g82
g63
NtRp3979
(dp3980
g66
(dp3981
sg75
g3975
sg68
(lp3982
g61
(g62
g63
NtRp3983
(dp3984
g66
(dp3985
g74
I4
ssg75
g3979
sg68
(lp3986
g61
(g70
g63
NtRp3987
(dp3988
g66
(dp3989
g74
I3
ssg75
Nsg68
(lp3990
g61
(g77
g63
NtRp3991
(dp3992
g66
(dp3993
sg75
g3987
sg68
(lp3994
g61
(g82
g63
NtRp3995
(dp3996
g66
(dp3997
sg75
g3991
sg68
(lp3998
g61
(g62
g63
NtRp3999
(dp4000
g66
(dp4001
g74
I3
ssg75
g3995
sg68
(lp4002
cgluon.languages
lazyT_unpickle
p4003
(S't\x08\x00\x00\x00Clientes'
tRp4004
asbasbasbag61
(g77
g63
NtRp4005
(dp4006
g66
(dp4007
sg75
g3987
sg68
(lp4008
g61
(g82
g63
NtRp4009
(dp4010
g66
(dp4011
sg75
g4005
sg68
(lp4012
g61
(g62
g63
NtRp4013
(dp4014
g66
(dp4015
g74
I3
ssg75
g4009
sg68
(lp4016
g104
asbasbasbag61
(g77
g63
NtRp4017
(dp4018
g66
(dp4019
sg75
g3987
sg68
(lp4020
g61
(g82
g63
NtRp4021
(dp4022
g66
(dp4023
sg75
g4017
sg68
(lp4024
g61
(g62
g63
NtRp4025
(dp4026
g66
(dp4027
g74
I3
ssg75
g4021
sg68
(lp4028
S'/show_cliente'
p4029
asbasbasbag61
(g77
g63
NtRp4030
(dp4031
g66
(dp4032
sg75
g3987
sg68
(lp4033
g61
(g82
g63
NtRp4034
(dp4035
g66
(dp4036
sg75
g4030
sg68
(lp4037
g61
(g62
g63
NtRp4038
(dp4039
g66
(dp4040
g74
I3
ssg75
g4034
sg68
(lp4041
g61
(g70
g63
NtRp4042
(dp4043
g66
(dp4044
g74
I2
ssg75
Nsg68
(lp4045
sbasbasbasbasbasbasbasbag61
(g77
g63
NtRp4046
(dp4047
g66
(dp4048
sg75
g3971
sg68
(lp4049
g61
(g82
g63
NtRp4050
(dp4051
g66
(dp4052
sg75
g4046
sg68
(lp4053
g61
(g62
g63
NtRp4054
(dp4055
g66
(dp4056
g74
I4
ssg75
g4050
sg68
(lp4057
g61
(g70
g63
NtRp4058
(dp4059
g66
(dp4060
g74
I3
ssg75
Nsg68
(lp4061
g61
(g77
g63
NtRp4062
(dp4063
g66
(dp4064
sg75
g4058
sg68
(lp4065
g61
(g82
g63
NtRp4066
(dp4067
g66
(dp4068
sg75
g4062
sg68
(lp4069
g61
(g62
g63
NtRp4070
(dp4071
g66
(dp4072
g74
I3
ssg75
g4066
sg68
(lp4073
g4003
(S't\n\x00\x00\x00Servidores'
tRp4074
asbasbasbag61
(g77
g63
NtRp4075
(dp4076
g66
(dp4077
sg75
g4058
sg68
(lp4078
g61
(g82
g63
NtRp4079
(dp4080
g66
(dp4081
sg75
g4075
sg68
(lp4082
g61
(g62
g63
NtRp4083
(dp4084
g66
(dp4085
g74
I3
ssg75
g4079
sg68
(lp4086
g104
asbasbasbag61
(g77
g63
NtRp4087
(dp4088
g66
(dp4089
sg75
g4058
sg68
(lp4090
g61
(g82
g63
NtRp4091
(dp4092
g66
(dp4093
sg75
g4087
sg68
(lp4094
g61
(g62
g63
NtRp4095
(dp4096
g66
(dp4097
g74
I3
ssg75
g4091
sg68
(lp4098
S'/show_servidor'
p4099
asbasbasbag61
(g77
g63
NtRp4100
(dp4101
g66
(dp4102
sg75
g4058
sg68
(lp4103
g61
(g82
g63
NtRp4104
(dp4105
g66
(dp4106
sg75
g4100
sg68
(lp4107
g61
(g62
g63
NtRp4108
(dp4109
g66
(dp4110
g74
I3
ssg75
g4104
sg68
(lp4111
g61
(g70
g63
NtRp4112
(dp4113
g66
(dp4114
g74
I2
ssg75
Nsg68
(lp4115
sbasbasbasbasbasbasbasbag61
(g77
g63
NtRp4116
(dp4117
g66
(dp4118
sg75
g3971
sg68
(lp4119
g61
(g82
g63
NtRp4120
(dp4121
g66
(dp4122
sg75
g4116
sg68
(lp4123
g61
(g62
g63
NtRp4124
(dp4125
g66
(dp4126
g74
I4
ssg75
g4120
sg68
(lp4127
g61
(g70
g63
NtRp4128
(dp4129
g66
(dp4130
g74
I3
ssg75
Nsg68
(lp4131
g61
(g77
g63
NtRp4132
(dp4133
g66
(dp4134
sg75
g4128
sg68
(lp4135
g61
(g82
g63
NtRp4136
(dp4137
g66
(dp4138
sg75
g4132
sg68
(lp4139
g61
(g62
g63
NtRp4140
(dp4141
g66
(dp4142
g74
I3
ssg75
g4136
sg68
(lp4143
g4003
(S't\x07\x00\x00\x00Distros'
tRp4144
asbasbasbag61
(g77
g63
NtRp4145
(dp4146
g66
(dp4147
sg75
g4128
sg68
(lp4148
g61
(g82
g63
NtRp4149
(dp4150
g66
(dp4151
sg75
g4145
sg68
(lp4152
g61
(g62
g63
NtRp4153
(dp4154
g66
(dp4155
g74
I3
ssg75
g4149
sg68
(lp4156
g104
asbasbasbag61
(g77
g63
NtRp4157
(dp4158
g66
(dp4159
sg75
g4128
sg68
(lp4160
g61
(g82
g63
NtRp4161
(dp4162
g66
(dp4163
sg75
g4157
sg68
(lp4164
g61
(g62
g63
NtRp4165
(dp4166
g66
(dp4167
g74
I3
ssg75
g4161
sg68
(lp4168
S'/show_distro'
p4169
asbasbasbag61
(g77
g63
NtRp4170
(dp4171
g66
(dp4172
sg75
g4128
sg68
(lp4173
g61
(g82
g63
NtRp4174
(dp4175
g66
(dp4176
sg75
g4170
sg68
(lp4177
g61
(g62
g63
NtRp4178
(dp4179
g66
(dp4180
g74
I3
ssg75
g4174
sg68
(lp4181
g61
(g70
g63
NtRp4182
(dp4183
g66
(dp4184
g74
I2
ssg75
Nsg68
(lp4185
sbasbasbasbasbasbasbasbag61
(g77
g63
NtRp4186
(dp4187
g66
(dp4188
sg75
g3971
sg68
(lp4189
g61
(g82
g63
NtRp4190
(dp4191
g66
(dp4192
sg75
g4186
sg68
(lp4193
g61
(g62
g63
NtRp4194
(dp4195
g66
(dp4196
g74
I4
ssg75
g4190
sg68
(lp4197
g61
(g70
g63
NtRp4198
(dp4199
g66
(dp4200
g74
I3
ssg75
Nsg68
(lp4201
g61
(g77
g63
NtRp4202
(dp4203
g66
(dp4204
sg75
g4198
sg68
(lp4205
g61
(g82
g63
NtRp4206
(dp4207
g66
(dp4208
sg75
g4202
sg68
(lp4209
g61
(g62
g63
NtRp4210
(dp4211
g66
(dp4212
g74
I3
ssg75
g4206
sg68
(lp4213
g4003
(S's\x05\x00\x00\x00+host'
tRp4214
asbasbasbag61
(g77
g63
NtRp4215
(dp4216
g66
(dp4217
sg75
g4198
sg68
(lp4218
g61
(g82
g63
NtRp4219
(dp4220
g66
(dp4221
sg75
g4215
sg68
(lp4222
g61
(g62
g63
NtRp4223
(dp4224
g66
(dp4225
g74
I3
ssg75
g4219
sg68
(lp4226
g104
asbasbasbag61
(g77
g63
NtRp4227
(dp4228
g66
(dp4229
sg75
g4198
sg68
(lp4230
g61
(g82
g63
NtRp4231
(dp4232
g66
(dp4233
sg75
g4227
sg68
(lp4234
g61
(g62
g63
NtRp4235
(dp4236
g66
(dp4237
g74
I3
ssg75
g4231
sg68
(lp4238
S'/interface'
p4239
asbasbasbag61
(g77
g63
NtRp4240
(dp4241
g66
(dp4242
sg75
g4198
sg68
(lp4243
g61
(g82
g63
NtRp4244
(dp4245
g66
(dp4246
sg75
g4240
sg68
(lp4247
g61
(g62
g63
NtRp4248
(dp4249
g66
(dp4250
g74
I3
ssg75
g4244
sg68
(lp4251
g61
(g70
g63
NtRp4252
(dp4253
g66
(dp4254
g74
I2
ssg75
Nsg68
(lp4255
sbasbasbasbasbasbasbasbasbasbasbasbag61
(g77
g63
NtRp4256
(dp4257
g66
(dp4258
sg75
g3471
sg68
(lp4259
g61
(g82
g63
NtRp4260
(dp4261
g66
(dp4262
g86
g87
ssg75
g4256
sg68
(lp4263
S'menu2'
p4264
asbag61
(g82
g63
NtRp4265
(dp4266
g66
(dp4267
g93
g94
ssg75
g4256
sg68
(lp4268
S':'
asbag61
(g82
g63
NtRp4269
(dp4270
g66
(dp4271
sg75
g4256
sg68
(lp4272
g61
(g62
g63
NtRp4273
(dp4274
g66
(dp4275
g74
I5
ssg75
g4269
sg68
(lp4276
g61
(g70
g63
NtRp4277
(dp4278
g66
(dp4279
g74
I4
ssg75
Nsg68
(lp4280
g61
(g77
g63
NtRp4281
(dp4282
g66
(dp4283
sg75
g4277
sg68
(lp4284
g61
(g82
g63
NtRp4285
(dp4286
g66
(dp4287
sg75
g4281
sg68
(lp4288
g61
(g62
g63
NtRp4289
(dp4290
g66
(dp4291
g74
I4
ssg75
g4285
sg68
(lp4292
g61
(g70
g63
NtRp4293
(dp4294
g66
(dp4295
g74
I3
ssg75
Nsg68
(lp4296
g61
(g77
g63
NtRp4297
(dp4298
g66
(dp4299
sg75
g4293
sg68
(lp4300
g61
(g82
g63
NtRp4301
(dp4302
g66
(dp4303
sg75
g4297
sg68
(lp4304
g61
(g62
g63
NtRp4305
(dp4306
g66
(dp4307
g74
I3
ssg75
g4301
sg68
(lp4308
g61
(g3943
g63
NtRp4309
(dp4310
g66
(dp4311
g3933
S'dropdown-toggle'
p4312
ssg75
Nsg68
(lp4313
S'Admin'
p4314
asbasbasbasbag61
(g77
g63
NtRp4315
(dp4316
g66
(dp4317
sg75
g4293
sg68
(lp4318
g61
(g82
g63
NtRp4319
(dp4320
g66
(dp4321
sg75
g4315
sg68
(lp4322
g61
(g62
g63
NtRp4323
(dp4324
g66
(dp4325
g74
I3
ssg75
g4319
sg68
(lp4326
g104
asbasbasbag61
(g77
g63
NtRp4327
(dp4328
g66
(dp4329
sg75
g4293
sg68
(lp4330
g61
(g82
g63
NtRp4331
(dp4332
g66
(dp4333
sg75
g4327
sg68
(lp4334
g61
(g62
g63
NtRp4335
(dp4336
g66
(dp4337
g74
I3
ssg75
g4331
sg68
(lp4338
S'#'
asbasbasbag61
(g77
g63
NtRp4339
(dp4340
g66
(dp4341
sg75
g4293
sg68
(lp4342
g61
(g82
g63
NtRp4343
(dp4344
g66
(dp4345
sg75
g4339
sg68
(lp4346
g61
(g62
g63
NtRp4347
(dp4348
g66
(dp4349
g74
I3
ssg75
g4343
sg68
(lp4350
g61
(g70
g63
NtRp4351
(dp4352
g66
(dp4353
g74
I2
ssg75
Nsg68
(lp4354
g61
(g77
g63
NtRp4355
(dp4356
g66
(dp4357
sg75
g4351
sg68
(lp4358
g61
(g82
g63
NtRp4359
(dp4360
g66
(dp4361
sg75
g4355
sg68
(lp4362
g61
(g62
g63
NtRp4363
(dp4364
g66
(dp4365
g74
I2
ssg75
g4359
sg68
(lp4366
g61
(g70
g63
NtRp4367
(dp4368
g66
(dp4369
g74
I1
ssg75
Nsg68
(lp4370
g61
(g77
g63
NtRp4371
(dp4372
g66
(dp4373
sg75
g4367
sg68
(lp4374
g61
(g82
g63
NtRp4375
(dp4376
g66
(dp4377
sg75
g4371
sg68
(lp4378
g61
(g62
g63
NtRp4379
(dp4380
g66
(dp4381
g74
I1
ssg75
g4375
sg68
(lp4382
g4003
(S's\t\x00\x00\x00Usu\xc3\xa1rios'
tRp4383
asbasbasbag61
(g77
g63
NtRp4384
(dp4385
g66
(dp4386
sg75
g4367
sg68
(lp4387
g61
(g82
g63
NtRp4388
(dp4389
g66
(dp4390
sg75
g4384
sg68
(lp4391
g61
(g62
g63
NtRp4392
(dp4393
g66
(dp4394
g74
I1
ssg75
g4388
sg68
(lp4395
I00
asbasbasbag61
(g77
g63
NtRp4396
(dp4397
g66
(dp4398
sg75
g4367
sg68
(lp4399
g61
(g82
g63
NtRp4400
(dp4401
g66
(dp4402
sg75
g4396
sg68
(lp4403
g61
(g62
g63
NtRp4404
(dp4405
g66
(dp4406
g74
I1
ssg75
g4400
sg68
(lp4407
S'/manager/users'
p4408
asbasbasbasbasbasbasbag61
(g77
g63
NtRp4409
(dp4410
g66
(dp4411
sg75
g4351
sg68
(lp4412
g61
(g82
g63
NtRp4413
(dp4414
g66
(dp4415
sg75
g4409
sg68
(lp4416
g61
(g62
g63
NtRp4417
(dp4418
g66
(dp4419
g74
I2
ssg75
g4413
sg68
(lp4420
g61
(g70
g63
NtRp4421
(dp4422
g66
(dp4423
g74
I1
ssg75
Nsg68
(lp4424
g61
(g77
g63
NtRp4425
(dp4426
g66
(dp4427
sg75
g4421
sg68
(lp4428
g61
(g82
g63
NtRp4429
(dp4430
g66
(dp4431
sg75
g4425
sg68
(lp4432
g61
(g62
g63
NtRp4433
(dp4434
g66
(dp4435
g74
I1
ssg75
g4429
sg68
(lp4436
g4003
(S't\x06\x00\x00\x00Grupos'
tRp4437
asbasbasbag61
(g77
g63
NtRp4438
(dp4439
g66
(dp4440
sg75
g4421
sg68
(lp4441
g61
(g82
g63
NtRp4442
(dp4443
g66
(dp4444
sg75
g4438
sg68
(lp4445
g61
(g62
g63
NtRp4446
(dp4447
g66
(dp4448
g74
I1
ssg75
g4442
sg68
(lp4449
I00
asbasbasbag61
(g77
g63
NtRp4450
(dp4451
g66
(dp4452
sg75
g4421
sg68
(lp4453
g61
(g82
g63
NtRp4454
(dp4455
g66
(dp4456
sg75
g4450
sg68
(lp4457
g61
(g62
g63
NtRp4458
(dp4459
g66
(dp4460
g74
I1
ssg75
g4454
sg68
(lp4461
S'/manager/groups'
p4462
asbasbasbasbasbasbasbag61
(g77
g63
NtRp4463
(dp4464
g66
(dp4465
sg75
g4351
sg68
(lp4466
g61
(g82
g63
NtRp4467
(dp4468
g66
(dp4469
sg75
g4463
sg68
(lp4470
g61
(g62
g63
NtRp4471
(dp4472
g66
(dp4473
g74
I2
ssg75
g4467
sg68
(lp4474
g61
(g70
g63
NtRp4475
(dp4476
g66
(dp4477
g74
I1
ssg75
Nsg68
(lp4478
g61
(g77
g63
NtRp4479
(dp4480
g66
(dp4481
sg75
g4475
sg68
(lp4482
g61
(g82
g63
NtRp4483
(dp4484
g66
(dp4485
sg75
g4479
sg68
(lp4486
g61
(g62
g63
NtRp4487
(dp4488
g66
(dp4489
g74
I1
ssg75
g4483
sg68
(lp4490
g4003
(S't\x07\x00\x00\x00Membros'
tRp4491
asbasbasbag61
(g77
g63
NtRp4492
(dp4493
g66
(dp4494
sg75
g4475
sg68
(lp4495
g61
(g82
g63
NtRp4496
(dp4497
g66
(dp4498
sg75
g4492
sg68
(lp4499
g61
(g62
g63
NtRp4500
(dp4501
g66
(dp4502
g74
I1
ssg75
g4496
sg68
(lp4503
I00
asbasbasbag61
(g77
g63
NtRp4504
(dp4505
g66
(dp4506
sg75
g4475
sg68
(lp4507
g61
(g82
g63
NtRp4508
(dp4509
g66
(dp4510
sg75
g4504
sg68
(lp4511
g61
(g62
g63
NtRp4512
(dp4513
g66
(dp4514
g74
I1
ssg75
g4508
sg68
(lp4515
S'/manager/membership'
p4516
asbasbasbasbasbasbasbasbasbasbasbasbasbasbasbag61
(g77
g63
NtRp4517
(dp4518
g66
(dp4519
sg75
g4277
sg68
(lp4520
g61
(g82
g63
NtRp4521
(dp4522
g66
(dp4523
sg75
g4517
sg68
(lp4524
g61
(g62
g63
NtRp4525
(dp4526
g66
(dp4527
g74
I4
ssg75
g4521
sg68
(lp4528
g61
(g70
g63
NtRp4529
(dp4530
g66
(dp4531
g74
I3
ssg75
Nsg68
(lp4532
g61
(g77
g63
NtRp4533
(dp4534
g66
(dp4535
sg75
g4529
sg68
(lp4536
g61
(g82
g63
NtRp4537
(dp4538
g66
(dp4539
sg75
g4533
sg68
(lp4540
g61
(g62
g63
NtRp4541
(dp4542
g66
(dp4543
g74
I3
ssg75
g4537
sg68
(lp4544
g61
(g3943
g63
NtRp4545
(dp4546
g66
(dp4547
g3933
g4312
ssg75
Nsg68
(lp4548
S'Login'
p4549
asbasbasbasbag61
(g77
g63
NtRp4550
(dp4551
g66
(dp4552
sg75
g4529
sg68
(lp4553
g61
(g82
g63
NtRp4554
(dp4555
g66
(dp4556
sg75
g4550
sg68
(lp4557
g61
(g62
g63
NtRp4558
(dp4559
g66
(dp4560
g74
I3
ssg75
g4554
sg68
(lp4561
g104
asbasbasbag61
(g77
g63
NtRp4562
(dp4563
g66
(dp4564
sg75
g4529
sg68
(lp4565
g61
(g82
g63
NtRp4566
(dp4567
g66
(dp4568
sg75
g4562
sg68
(lp4569
g61
(g62
g63
NtRp4570
(dp4571
g66
(dp4572
g74
I3
ssg75
g4566
sg68
(lp4573
S'#'
asbasbasbag61
(g77
g63
NtRp4574
(dp4575
g66
(dp4576
sg75
g4529
sg68
(lp4577
g61
(g82
g63
NtRp4578
(dp4579
g66
(dp4580
sg75
g4574
sg68
(lp4581
g61
(g62
g63
NtRp4582
(dp4583
g66
(dp4584
g74
I3
ssg75
g4578
sg68
(lp4585
g61
(g70
g63
NtRp4586
(dp4587
g66
(dp4588
g74
I2
ssg75
Nsg68
(lp4589
g61
(g77
g63
NtRp4590
(dp4591
g66
(dp4592
sg75
g4586
sg68
(lp4593
g61
(g82
g63
NtRp4594
(dp4595
g66
(dp4596
sg75
g4590
sg68
(lp4597
g61
(g62
g63
NtRp4598
(dp4599
g66
(dp4600
g74
I2
ssg75
g4594
sg68
(lp4601
g61
(g70
g63
NtRp4602
(dp4603
g66
(dp4604
g74
I1
ssg75
Nsg68
(lp4605
g61
(g77
g63
NtRp4606
(dp4607
g66
(dp4608
sg75
g4602
sg68
(lp4609
g61
(g82
g63
NtRp4610
(dp4611
g66
(dp4612
sg75
g4606
sg68
(lp4613
g61
(g62
g63
NtRp4614
(dp4615
g66
(dp4616
g74
I1
ssg75
g4610
sg68
(lp4617
g4003
(S't\x06\x00\x00\x00Logout'
tRp4618
asbasbasbag61
(g77
g63
NtRp4619
(dp4620
g66
(dp4621
sg75
g4602
sg68
(lp4622
g61
(g82
g63
NtRp4623
(dp4624
g66
(dp4625
sg75
g4619
sg68
(lp4626
g61
(g62
g63
NtRp4627
(dp4628
g66
(dp4629
g74
I1
ssg75
g4623
sg68
(lp4630
I00
asbasbasbag61
(g77
g63
NtRp4631
(dp4632
g66
(dp4633
sg75
g4602
sg68
(lp4634
g61
(g82
g63
NtRp4635
(dp4636
g66
(dp4637
sg75
g4631
sg68
(lp4638
g61
(g62
g63
NtRp4639
(dp4640
g66
(dp4641
g74
I1
ssg75
g4635
sg68
(lp4642
S'/initial/user/logout'
p4643
asbasbasbasbasbasbasbasbasbasbasbasbasbasbasbasbasbasbasbag61
(g77
g63
NtRp4644
(dp4645
g66
(dp4646
sg75
g3471
sg68
(lp4647
g61
(g82
g63
NtRp4648
(dp4649
g66
(dp4650
g86
g87
ssg75
g4644
sg68
(lp4651
S'meta'
p4652
asbag61
(g82
g63
NtRp4653
(dp4654
g66
(dp4655
g93
g94
ssg75
g4644
sg68
(lp4656
S':'
asbag61
(g82
g63
NtRp4657
(dp4658
g66
(dp4659
sg75
g4644
sg68
(lp4660
g61
(g62
g63
NtRp4661
(dp4662
g66
(dp4663
g74
I5
ssg75
g4657
sg68
(lp4664
g61
(g70
g63
NtRp4665
(dp4666
g66
(dp4667
g74
I4
ssg75
Nsg68
(lp4668
g61
(g77
g63
NtRp4669
(dp4670
g66
(dp4671
sg75
g4665
sg68
(lp4672
g61
(g82
g63
NtRp4673
(dp4674
g66
(dp4675
g86
g87
ssg75
g4669
sg68
(lp4676
S'author'
p4677
asbag61
(g82
g63
NtRp4678
(dp4679
g66
(dp4680
g93
g94
ssg75
g4669
sg68
(lp4681
S':'
asbag61
(g82
g63
NtRp4682
(dp4683
g66
(dp4684
sg75
g4669
sg68
(lp4685
g61
(g62
g63
NtRp4686
(dp4687
g66
(dp4688
g74
I4
ssg75
g4682
sg68
(lp4689
S'Your Name <you@example.com>'
p4690
asbasbasbag61
(g77
g63
NtRp4691
(dp4692
g66
(dp4693
sg75
g4665
sg68
(lp4694
g61
(g82
g63
NtRp4695
(dp4696
g66
(dp4697
g86
g87
ssg75
g4691
sg68
(lp4698
S'description'
p4699
asbag61
(g82
g63
NtRp4700
(dp4701
g66
(dp4702
g93
g94
ssg75
g4691
sg68
(lp4703
S':'
asbag61
(g82
g63
NtRp4704
(dp4705
g66
(dp4706
sg75
g4691
sg68
(lp4707
g61
(g62
g63
NtRp4708
(dp4709
g66
(dp4710
g74
I4
ssg75
g4704
sg68
(lp4711
S'a cool new app'
p4712
asbasbasbag61
(g77
g63
NtRp4713
(dp4714
g66
(dp4715
sg75
g4665
sg68
(lp4716
g61
(g82
g63
NtRp4717
(dp4718
g66
(dp4719
g86
g87
ssg75
g4713
sg68
(lp4720
S'generator'
p4721
asbag61
(g82
g63
NtRp4722
(dp4723
g66
(dp4724
g93
g94
ssg75
g4713
sg68
(lp4725
S':'
asbag61
(g82
g63
NtRp4726
(dp4727
g66
(dp4728
sg75
g4713
sg68
(lp4729
g61
(g62
g63
NtRp4730
(dp4731
g66
(dp4732
g74
I4
ssg75
g4726
sg68
(lp4733
S'Web2py Web Framework'
p4734
asbasbasbag61
(g77
g63
NtRp4735
(dp4736
g66
(dp4737
sg75
g4665
sg68
(lp4738
g61
(g82
g63
NtRp4739
(dp4740
g66
(dp4741
g86
g87
ssg75
g4735
sg68
(lp4742
S'keywords'
p4743
asbag61
(g82
g63
NtRp4744
(dp4745
g66
(dp4746
g93
g94
ssg75
g4735
sg68
(lp4747
S':'
asbag61
(g82
g63
NtRp4748
(dp4749
g66
(dp4750
sg75
g4735
sg68
(lp4751
g61
(g62
g63
NtRp4752
(dp4753
g66
(dp4754
g74
I4
ssg75
g4748
sg68
(lp4755
S'web2py, python, framework'
p4756
asbasbasbasbasbasbasbag61
(g77
g63
NtRp4757
(dp4758
g66
(dp4759
sg75
g3471
sg68
(lp4760
g61
(g82
g63
NtRp4761
(dp4762
g66
(dp4763
g86
g87
ssg75
g4757
sg68
(lp4764
S'models_to_run'
p4765
asbag61
(g82
g63
NtRp4766
(dp4767
g66
(dp4768
g93
g94
ssg75
g4757
sg68
(lp4769
S':'
asbag61
(g82
g63
NtRp4770
(dp4771
g66
(dp4772
sg75
g4757
sg68
(lp4773
g61
(g62
g63
NtRp4774
(dp4775
g66
(dp4776
g74
I5
ssg75
g4770
sg68
(lp4777
g61
(g70
g63
NtRp4778
(dp4779
g66
(dp4780
g74
I4
ssg75
Nsg68
(lp4781
g61
(g77
g63
NtRp4782
(dp4783
g66
(dp4784
sg75
g4778
sg68
(lp4785
g61
(g82
g63
NtRp4786
(dp4787
g66
(dp4788
sg75
g4782
sg68
(lp4789
g61
(g62
g63
NtRp4790
(dp4791
g66
(dp4792
g74
I4
ssg75
g4786
sg68
(lp4793
S'^\\w+\\.py$'
p4794
asbasbasbag61
(g77
g63
NtRp4795
(dp4796
g66
(dp4797
sg75
g4778
sg68
(lp4798
g61
(g82
g63
NtRp4799
(dp4800
g66
(dp4801
sg75
g4795
sg68
(lp4802
g61
(g62
g63
NtRp4803
(dp4804
g66
(dp4805
g74
I4
ssg75
g4799
sg68
(lp4806
S'^initial/\\w+\\.py$'
p4807
asbasbasbag61
(g77
g63
NtRp4808
(dp4809
g66
(dp4810
sg75
g4778
sg68
(lp4811
g61
(g82
g63
NtRp4812
(dp4813
g66
(dp4814
sg75
g4808
sg68
(lp4815
g61
(g62
g63
NtRp4816
(dp4817
g66
(dp4818
g74
I4
ssg75
g4812
sg68
(lp4819
S'^initial/principal/\\w+\\.py$'
p4820
asbasbasbasbasbasbasbag61
(g77
g63
NtRp4821
(dp4822
g66
(dp4823
sg75
g3471
sg68
(lp4824
g61
(g82
g63
NtRp4825
(dp4826
g66
(dp4827
g86
g87
ssg75
g4821
sg68
(lp4828
S'postprocessing'
p4829
asbag61
(g82
g63
NtRp4830
(dp4831
g66
(dp4832
g93
g94
ssg75
g4821
sg68
(lp4833
S':'
asbag61
(g82
g63
NtRp4834
(dp4835
g66
(dp4836
sg75
g4821
sg68
(lp4837
g61
(g62
g63
NtRp4838
(dp4839
g66
(dp4840
g74
I5
ssg75
g4834
sg68
(lp4841
g61
(g70
g63
NtRp4842
(dp4843
g66
(dp4844
g74
I4
ssg75
Nsg68
(lp4845
sbasbasbasbag61
(g77
g63
NtRp4846
(dp4847
g66
(dp4848
sg75
g3471
sg68
(lp4849
g61
(g82
g63
NtRp4850
(dp4851
g66
(dp4852
g86
g87
ssg75
g4846
sg68
(lp4853
S'session_cookie_expires'
p4854
asbag61
(g82
g63
NtRp4855
(dp4856
g66
(dp4857
g93
g94
ssg75
g4846
sg68
(lp4858
S':'
asbag61
(g82
g63
NtRp4859
(dp4860
g66
(dp4861
sg75
g4846
sg68
(lp4862
g61
(g62
g63
NtRp4863
(dp4864
g66
(dp4865
g74
I5
ssg75
g4859
sg68
(lp4866
S'None'
p4867
asbasbasbag61
(g77
g63
NtRp4868
(dp4869
g66
(dp4870
sg75
g3471
sg68
(lp4871
g61
(g82
g63
NtRp4872
(dp4873
g66
(dp4874
g86
g87
ssg75
g4868
sg68
(lp4875
S'session_data_name'
p4876
asbag61
(g82
g63
NtRp4877
(dp4878
g66
(dp4879
g93
g94
ssg75
g4868
sg68
(lp4880
S':'
asbag61
(g82
g63
NtRp4881
(dp4882
g66
(dp4883
sg75
g4868
sg68
(lp4884
g61
(g62
g63
NtRp4885
(dp4886
g66
(dp4887
g74
I5
ssg75
g4881
sg68
(lp4888
S'session_data_projeto'
p4889
asbasbasbag61
(g77
g63
NtRp4890
(dp4891
g66
(dp4892
sg75
g3471
sg68
(lp4893
g61
(g82
g63
NtRp4894
(dp4895
g66
(dp4896
g86
g87
ssg75
g4890
sg68
(lp4897
S'session_file'
p4898
asbag61
(g82
g63
NtRp4899
(dp4900
g66
(dp4901
g93
g94
ssg75
g4890
sg68
(lp4902
S':'
asbag61
(g82
g63
NtRp4903
(dp4904
g66
(dp4905
sg75
g4890
sg68
(lp4906
g61
(g62
g63
NtRp4907
(dp4908
g66
(dp4909
g74
I5
ssg75
g4903
sg68
(lp4910
S"<open file '/var/www/conferencia/applications/projeto/sessions/127.0.0.1-32b58d02-0b69-424e-9fa3-773b7f2f336f', mode 'rb+' at 0x7fc5d8777ae0>"
p4911
asbasbasbag61
(g77
g63
NtRp4912
(dp4913
g66
(dp4914
sg75
g3471
sg68
(lp4915
g61
(g82
g63
NtRp4916
(dp4917
g66
(dp4918
g86
g87
ssg75
g4912
sg68
(lp4919
S'session_filename'
p4920
asbag61
(g82
g63
NtRp4921
(dp4922
g66
(dp4923
g93
g94
ssg75
g4912
sg68
(lp4924
S':'
asbag61
(g82
g63
NtRp4925
(dp4926
g66
(dp4927
sg75
g4912
sg68
(lp4928
g61
(g62
g63
NtRp4929
(dp4930
g66
(dp4931
g74
I5
ssg75
g4925
sg68
(lp4932
S'/var/www/conferencia/applications/projeto/sessions/127.0.0.1-32b58d02-0b69-424e-9fa3-773b7f2f336f'
p4933
asbasbasbag61
(g77
g63
NtRp4934
(dp4935
g66
(dp4936
sg75
g3471
sg68
(lp4937
g61
(g82
g63
NtRp4938
(dp4939
g66
(dp4940
g86
g87
ssg75
g4934
sg68
(lp4941
S'session_id'
p4942
asbag61
(g82
g63
NtRp4943
(dp4944
g66
(dp4945
g93
g94
ssg75
g4934
sg68
(lp4946
S':'
asbag61
(g82
g63
NtRp4947
(dp4948
g66
(dp4949
sg75
g4934
sg68
(lp4950
g61
(g62
g63
NtRp4951
(dp4952
g66
(dp4953
g74
I5
ssg75
g4947
sg68
(lp4954
g505
asbasbasbag61
(g77
g63
NtRp4955
(dp4956
g66
(dp4957
sg75
g3471
sg68
(lp4958
g61
(g82
g63
NtRp4959
(dp4960
g66
(dp4961
g86
g87
ssg75
g4955
sg68
(lp4962
S'session_id_name'
p4963
asbag61
(g82
g63
NtRp4964
(dp4965
g66
(dp4966
g93
g94
ssg75
g4955
sg68
(lp4967
S':'
asbag61
(g82
g63
NtRp4968
(dp4969
g66
(dp4970
sg75
g4955
sg68
(lp4971
g61
(g62
g63
NtRp4972
(dp4973
g66
(dp4974
g74
I5
ssg75
g4968
sg68
(lp4975
g3528
asbasbasbag61
(g77
g63
NtRp4976
(dp4977
g66
(dp4978
sg75
g3471
sg68
(lp4979
g61
(g82
g63
NtRp4980
(dp4981
g66
(dp4982
g86
g87
ssg75
g4976
sg68
(lp4983
S'session_locked'
p4984
asbag61
(g82
g63
NtRp4985
(dp4986
g66
(dp4987
g93
g94
ssg75
g4976
sg68
(lp4988
S':'
asbag61
(g82
g63
NtRp4989
(dp4990
g66
(dp4991
sg75
g4976
sg68
(lp4992
g61
(g62
g63
NtRp4993
(dp4994
g66
(dp4995
g74
I5
ssg75
g4989
sg68
(lp4996
g1644
asbasbasbag61
(g77
g63
NtRp4997
(dp4998
g66
(dp4999
sg75
g3471
sg68
(lp5000
g61
(g82
g63
NtRp5001
(dp5002
g66
(dp5003
g86
g87
ssg75
g4997
sg68
(lp5004
S'session_new'
p5005
asbag61
(g82
g63
NtRp5006
(dp5007
g66
(dp5008
g93
g94
ssg75
g4997
sg68
(lp5009
S':'
asbag61
(g82
g63
NtRp5010
(dp5011
g66
(dp5012
sg75
g4997
sg68
(lp5013
g61
(g62
g63
NtRp5014
(dp5015
g66
(dp5016
g74
I5
ssg75
g5010
sg68
(lp5017
g104
asbasbasbag61
(g77
g63
NtRp5018
(dp5019
g66
(dp5020
sg75
g3471
sg68
(lp5021
g61
(g82
g63
NtRp5022
(dp5023
g66
(dp5024
g86
g87
ssg75
g5018
sg68
(lp5025
S'session_storage_type'
p5026
asbag61
(g82
g63
NtRp5027
(dp5028
g66
(dp5029
g93
g94
ssg75
g5018
sg68
(lp5030
S':'
asbag61
(g82
g63
NtRp5031
(dp5032
g66
(dp5033
sg75
g5018
sg68
(lp5034
g61
(g62
g63
NtRp5035
(dp5036
g66
(dp5037
g74
I5
ssg75
g5031
sg68
(lp5038
g3062
asbasbasbag61
(g77
g63
NtRp5039
(dp5040
g66
(dp5041
sg75
g3471
sg68
(lp5042
g61
(g82
g63
NtRp5043
(dp5044
g66
(dp5045
g86
g87
ssg75
g5039
sg68
(lp5046
S'status'
p5047
asbag61
(g82
g63
NtRp5048
(dp5049
g66
(dp5050
g93
g94
ssg75
g5039
sg68
(lp5051
S':'
asbag61
(g82
g63
NtRp5052
(dp5053
g66
(dp5054
sg75
g5039
sg68
(lp5055
g61
(g62
g63
NtRp5056
(dp5057
g66
(dp5058
g74
I5
ssg75
g5052
sg68
(lp5059
S'200'
p5060
asbasbasbag61
(g77
g63
NtRp5061
(dp5062
g66
(dp5063
sg75
g3471
sg68
(lp5064
g61
(g82
g63
NtRp5065
(dp5066
g66
(dp5067
g86
g87
ssg75
g5061
sg68
(lp5068
S'subtitle'
p5069
asbag61
(g82
g63
NtRp5070
(dp5071
g66
(dp5072
g93
g94
ssg75
g5061
sg68
(lp5073
S':'
asbag61
(g82
g63
NtRp5074
(dp5075
g66
(dp5076
sg75
g5061
sg68
(lp5077
g61
(g62
g63
NtRp5078
(dp5079
g66
(dp5080
g74
I5
ssg75
g5074
sg68
(lp5081
g4003
(S's\r\x00\x00\x00customize me!'
tRp5082
asbasbasbag61
(g77
g63
NtRp5083
(dp5084
g66
(dp5085
sg75
g3471
sg68
(lp5086
g61
(g82
g63
NtRp5087
(dp5088
g66
(dp5089
g86
g87
ssg75
g5083
sg68
(lp5090
S'title'
p5091
asbag61
(g82
g63
NtRp5092
(dp5093
g66
(dp5094
g93
g94
ssg75
g5083
sg68
(lp5095
S':'
asbag61
(g82
g63
NtRp5096
(dp5097
g66
(dp5098
sg75
g5083
sg68
(lp5099
g61
(g62
g63
NtRp5100
(dp5101
g66
(dp5102
g74
I5
ssg75
g5096
sg68
(lp5103
S'Projeto'
p5104
asbasbasbag61
(g77
g63
NtRp5105
(dp5106
g66
(dp5107
sg75
g3471
sg68
(lp5108
g61
(g82
g63
NtRp5109
(dp5110
g66
(dp5111
g86
g87
ssg75
g5105
sg68
(lp5112
S'view'
p5113
asbag61
(g82
g63
NtRp5114
(dp5115
g66
(dp5116
g93
g94
ssg75
g5105
sg68
(lp5117
S':'
asbag61
(g82
g63
NtRp5118
(dp5119
g66
(dp5120
sg75
g5105
sg68
(lp5121
g61
(g62
g63
NtRp5122
(dp5123
g66
(dp5124
g74
I5
ssg75
g5118
sg68
(lp5125
S'initial/principal.html'
p5126
asbasbasbasbasbsS'locals'
p5127
(dp5128
S'exc'
p5129
S'ProgrammingError(\'ERROR\', \'23502\', \'column "nome__tmp" contains null values\')'
p5130
sS'msg_class'
p5131
S"<class 'gluon.contrib.pg8000.protocol.ReadyForQuery'>"
p5132
sS'self'
p5133
S'<gluon.contrib.pg8000.protocol.MessageReader object>'
p5134
sg46
S'()'
p5135
sS'handler'
p5136
S'<function <lambda>>'
p5137
sS'kwargs'
p5138
g21
sS'msg'
p5139
S'<ReadyForQuery Idle in Failed Transaction>'
p5140
sS'msg_handled'
p5141
g1644
sS'retval'
p5142
S'1'
sssS'traceback'
p5143
S'Traceback (most recent call last):\n  File "/var/www/conferencia/gluon/restricted.py", line 212, in restricted\n    exec ccode in environment\n  File "/var/www/conferencia/applications/projeto/models/models.py", line 6, in <module>\n    format="%(nome)s")\n  File "/var/www/conferencia/gluon/dal.py", line 7186, in define_table\n    table = self.lazy_define_table(tablename,*fields,**args)\n  File "/var/www/conferencia/gluon/dal.py", line 7222, in lazy_define_table\n    polymodel=polymodel)\n  File "/var/www/conferencia/gluon/dal.py", line 963, in create_table\n    fake_migrate=fake_migrate)\n  File "/var/www/conferencia/gluon/dal.py", line 1069, in migrate_table\n    self.execute(sub_query)\n  File "/var/www/conferencia/gluon/dal.py", line 1709, in execute\n    return self.log_execute(*a, **b)\n  File "/var/www/conferencia/gluon/dal.py", line 1703, in log_execute\n    ret = self.cursor.execute(*a, **b)\n  File "/var/www/conferencia/gluon/contrib/pg8000/dbapi.py", line 246, in _fn\n    return fn(self, *args, **kwargs)\n  File "/var/www/conferencia/gluon/contrib/pg8000/dbapi.py", line 317, in execute\n    self._execute(operation, args)\n  File "/var/www/conferencia/gluon/contrib/pg8000/dbapi.py", line 322, in _execute\n    self.cursor.execute(new_query, *new_args)\n  File "/var/www/conferencia/gluon/contrib/pg8000/interface.py", line 399, in execute\n    self._stmt.execute(*args, **kwargs)\n  File "/var/www/conferencia/gluon/contrib/pg8000/interface.py", line 169, in execute\n    self._row_desc, cmd = self.c.bind(self._portal_name, self._statement_name, args, self._parse_row_desc, kwargs.get("stream"))\n  File "/var/www/conferencia/gluon/contrib/pg8000/protocol.py", line 943, in _fn\n    return fn(self, *args, **kwargs)\n  File "/var/www/conferencia/gluon/contrib/pg8000/protocol.py", line 1142, in bind\n    return reader.handle_messages()\n  File "/var/www/conferencia/gluon/contrib/pg8000/protocol.py", line 911, in handle_messages\n    retval = handler(msg, *args, **kwargs)\n  File "/var/www/conferencia/gluon/contrib/pg8000/protocol.py", line 1181, in _bind_nodata\n    reader.handle_messages()\n  File "/var/www/conferencia/gluon/contrib/pg8000/protocol.py", line 916, in handle_messages\n    raise exc\nProgrammingError: (\'ERROR\', \'23502\', \'column "nome__tmp" contains null values\')\n'
p5144
s.