(dp1
S'output'
p2
S"<type 'exceptions.SyntaxError'> invalid syntax (initial.py, line 49)"
p3
sS'layer'
p4
S'/var/www/gravacao/applications/projeto/controllers/initial.py'
p5
sS'code'
p6
S'# coding=UTF-8\nimport datetime, os, commands\n\ndef principal():\n\t\n\tform = SQLFORM.factory(\n    \t\tField(\'mes\', requires=IS_IN_SET([\'01\', \'02\', \'03\', \'04\', \'05\', \'06\', \'07\', \'08\', \'09\', \'10\', \'11\', \'12\'])),\n    \t\tField("ano", requires=IS_IN_SET([\'2013\', \'2012\', \'2011\', \'2010\', \'2009\'])),\n    \t\tformstyle="divs",\n    \t\t)\n\ttabela=[]\n\n\tif form.process().accepted:\n\t\tano = form.vars.ano\n\t\tmes = form.vars.mes\n\t\tlista_pastas = commands.getoutput("ls /var/spool/asterisk/monitor | grep %s%s" %(ano, mes))\n\t\tprint \'lista_pastas :%s:\' %(lista_pastas)\n\t\tif not lista_pastas:  ##checa se existem gravacoes\n\t\t\tprint \'vazio\'\n\t\t\tsession.flash = \'Busca n\xc3\xa3o encontrada\'\n\t\t\tredirect(URL("initial", "/principal"))\n\t\telse: ##checa se existem gravacoes\n\t\t\tresponse.flash = \'Grava\xc3\xa7\xc3\xb5es encontradas\'\t\n\t\t\tf = open(\'pastas_grav\',\'w\')\n\t\t\tf.write(lista_pastas)\n\t\t\tf = open(\'pastas_grav\', \'r\')\n\t\t\tpastas = f.readlines()\n\t\t\tprint pastas\n\n\t\t\tcommands.getoutput("rm -r -f /var/spool/asterisk/monitor/temp_grava")\n\t\t\tcommands.getoutput("mkdir /var/spool/asterisk/monitor/temp_grava")\n\t\t\tfor pasta in pastas:\n\t\t\t\tpasta=pasta.split(\'\\n\')[0]\n\t\t\t\tprint \'copiando pasta :%s:\' %(pasta)\n\t\t\t\tsaida_cp = os.system("cp -r /var/spool/asterisk/monitor/%s /var/spool/asterisk/monitor/temp_grava" %(pasta))\n\t\t\t\tprint \'saida cp:%s\' %(saida_cp)\n\n\t\t\tarq = commands.getoutput("find /var/spool/asterisk/monitor/temp_grava/ -type f | wc -l")\n\t\t\ttabela = [mes, ano, arq]\n\t\t\tprint tabela\n\n\treturn response.render("initial/show_form2.html", form=form, tabela=tabela)\n\n\ndef agenda():\n\tresponse.title = "Relatorio de ligacoes"\n\tano = request.vars[\'a\']\n\tmes = request.vars[\'m\']\n\tdata = \'%\'+ano\'-\'+mes+\'%\'\n\tprint data\n\n\tcdr = db.executesql("SELECT calldate, origem, src, dst, duration, disposition, userfield, uniqueid  from cdr WHERE calldate like \'%2013-05%\';")\n\n    # define header and footers:\n\thead = THEAD(TR(TH("Data",_width="20%"), \n                    TH("O",_width="12%"),\n                    TH("Src",_width="14%"),\n                    TH("Dst",_width="14%"),\n                    TH("D",_width="10%"),\n                    TH("S",_width="12%"),\n                    TH("U",_width="18%"), \n                    _bgcolor="#A0A0A0"))\n\tfoot = TFOOT(TR(TH("Data",_width="20%"), \n                    TH("O",_width="12%"),\n                    TH("Src",_width="14%"),\n                    TH("Dst",_width="14%"),\n                    TH("D",_width="10%"),\n                    TH("S",_width="12%"),\n                    TH("U",_width="18%"),\n                    _bgcolor="#E0E0E0"))\n    \n    # create several rows:\n\trows = []\n\ti=0\n\tfor row in cdr:\n\t\tcol = i % 2 and "#F0F0F0" or "#FFFFFF"\n\t\tcol2="#000000"\n\t\ti=i+1\n\t\t#print i\n\t\trows.append(TR(TD(row[0]),\n                       TD(row[1]),\n                       TD(row[2]),\n                       TD(row[3]),\n                       TD(row[4]),\n                       TD(row[5]),\n                       TD(row[7]),\n                       _bgcolor=col))  \n\n    # make the table object\n\tbody = TBODY(*rows)\n\t#print body\n\ttable = TABLE(*[head,foot, body], \n                  _border="5", _align="center", _width="100%")\n\n\tfrom gluon.contrib.pyfpdf import FPDF, HTMLMixin\n\n\t# define our FPDF class (move to modules if it is reused  frequently)\n\tclass MyFPDF(FPDF, HTMLMixin):\n\t\tdef header(self):\n\t\t\tself.set_font(\'Arial\',\'B\',15)\n\t\t\tself.cell(0,10, response.title ,1,0,\'C\')\n\t\t\tself.ln(20)\n\t\t\t\n               \n\t\tdef footer(self):\n\t\t\tself.set_y(-15)\n\t\t\tself.set_font(\'Arial\',\'I\',8)\n\t\t\ttxt = \'Pag. %s de %s\' % (self.page_no(), self.alias_nb_pages())\n\t\t\tself.cell(0,10,txt,0,0,\'C\')\n                    \n\tpdf=MyFPDF()\n\t# first page:\n\tpdf.add_page()\n\tpdf.write_html(str(XML(table, sanitize=False)))\n\t#response.headers[\'Content-Type\']=\'application/agenda/principal\'\n\tpdf.output(name=\'pdf/relatorio.pdf\', dest=\'F\')\n\tcommands.getoutput("cp pdf/relatorio.pdf /var/spool/asterisk/monitor/temp_grava")\n\treturn response.render("initial/teste.html")\n\n\ndef agenda_particular():\n\tresponse.title="Particular"\n\tif session.aut == \'0\':\n\t\tfuncao = request.vars[\'f\']\n\t\tredirect(URL("redireciona", "/%s" %(funcao)))\n\t\n\tprint \'agenda particular\'\n\tquery = ((db.agenda.ramal == session.ramal) & (db.agenda.particular == \'V\'))\n\t#print query\n\n\tdb.agenda.id.readable=False\n\tdb.agenda.particular.readable=False\n\tdb.agenda.ramal.readable=False\n\tfields = (db.agenda.id, db.agenda.empresa, db.agenda.telefone, \n\t\t\t\tdb.agenda.contato, db.agenda.dep, db.agenda.particular, db.agenda.ramal)\n\t#headers = {\'hosts.id\':   \'ID\',\n\t#           \'hosts.servicos\': \'Servicos\'}\n\tlinks=[lambda row: A(\'Discar\', \n   \t\t\t      _class=\'btn\', \n   \t\t\t      _title=\'Discar\', \n   \t\t    \t  _href=URL("initial", "/ligacao", \n   \t\t      \tvars=dict(n=row.telefone, e=row.empresa, f=\'agenda_particular\'))),\n\t\t\t\tlambda row: A(\'Editar\', \n   \t\t      \t_class=\'btn\', \n   \t\t      \t_title=\'Editar\', \n   \t\t      \t_href=URL("initial", "/edit", \n   \t\t      \tvars=dict(f=row.id)))] \n   \n\tgrid = SQLFORM.grid(query=query, fields=fields, csv=False,\n\t\t\t\t\tdetails=False, searchable=True, deletable=True, editable=False, \n\t\t\t\t\tcreate=False, links=links, user_signature=False, orderby=db.agenda.empresa)\n\n\treturn response.render("initial/show_grid.html", grid=grid)\n\n\ndef ligacao():\n\ttelefone = request.vars[\'n\']\n\tempresa = request.vars[\'e\']\n\tramal = str(session.ramal)\n\tramal_fis = str(session.ramal_fis)\n\ttecnologia = str(session.tecnologia)\n\tfuncao = request.vars[\'f\']\n\tif funcao == \'agenda\':\n\t\tparticular = \'F\'\n\tif funcao == \'agenda_particular\':\n\t\tparticular = \'T\'\n\n\tf = open(\'/tmp/pytext\',\'w\')\n\tf.write(\'Channel: %s/%s\\n\' %(tecnologia, ramal_fis))\n\tf = open(\'/tmp/pytext\',\'a\')\n\tf.write(\'Context: ramais\\n\')\n\tf = open(\'/tmp/pytext\',\'a\')\n\tf.write(\'Extension: %s\\n\' %(telefone))\n\tf = open(\'/tmp/pytext\',\'a\')\n\tf.write(\'Callerid: agenda\\nMaxRetries: 1\\nRetryTime: 30\\nWaitTime: 60\')\n\tf.close()\n\n\tnow = str(datetime.datetime.now())\n\tnow=now.split(\'.\')[0]\n\tteste = db.executesql("INSERT INTO agenda_lg (ramal, telefone, empresa, datetime, particular) VALUES(\'%s\', \'%s\', \'%s\', \'%s\', \'%s\');" %(ramal, telefone, empresa, now, particular))\n\tprint teste\n\tprint \'Liga\xc3\xa7\xc3\xa3o do ramal %s para n\xc3\xbamero %s\' %(str(session.ramal), telefone)\n\n\tsession.flash = "Liga\xc3\xa7\xc3\xa3o do ramal %s para n\xc3\xbamero %s" %(str(session.ramal), telefone)\n\tredirect(URL("initial", "/%s" %(funcao)))\n\n\ndef redireciona():\n\tif session.aut != \'0\':\n\t\tfuncao = request.vars[\'f\']\n\t\tredirect(URL("initial", "/%s" %(funcao)))\n\t\t#redirect(URL("initial", "/permissao?f=%s" %(funcao)))\n\telse:\n\t\tprint \'ramal %s nao esta logado (redireciona)\' %(session.aut)\n\t\tsession.flash = "Fa\xc3\xa7a o login"\n\t\tredirect(URL("initial", "/log_in"))\n\ndef permissao():\n\t#permissao add\n\tif session.permissao == 0:\n\t\tredirect(URL("initial", "/addition2"))\n\telse:\n\t\tredirect(URL("initial", "/addition"))\n\n\ndef addition():\n\n    form = SQLFORM(db.agenda, submit_button=\'Adicionar\', \n    \t\tfields = [\'empresa\', \'telefone\', \'contato\', \'dep\', \'particular\', \'ramal\'], \n\t\t\tlabels = {\'empresa\':\'Empresa\', \'telefone\':\'Telefone\', \n\t\t\t\t\t\t\'contato\':\'Contato\', \'dep\':\'Departamento\', \n\t\t\t\t\t\t\'particular\':\'Particular\', \'ramal\':\'Ramal\'},)\n    form.vars.ramal = session.ramal\n\n    response.title="Contato"\n    if session.permissao == 0:\n\t\tredirect(URL("initial", "/addition2"))\n    if session.aut == \'0\':\n\t\tfuncao = request.vars[\'f\']\n\t\tredirect(URL("redireciona", "/%s" %(funcao)))\n\n\n    if form.process().accepted:\n    \t#evento = request.vars\n    \t#confno = form.vars.id\n    \t#email(evento, confno)\n    \tresponse.flash = \'Inserido com sucesso\'\n    \tprint form.vars.particular\n    \tif form.vars.particular == True:\n    \t\tredirect(URL("initial", "/agenda_particular"))\n    \telse:\n    \t\tredirect(URL("initial", "/agenda"))\t\t\t\n    elif form.errors:\n    \tresponse.flash = \'Ops, algo n\xc3\xa3o est\xc3\xa1 correto\'\n    else:\n    \tresponse.flash = \'Insira os dados do formul\xc3\xa1rio\'\n    return response.render("initial/show_form2.html", form=form)\n\ndef addition2():\n\t\n    form = SQLFORM(db.agenda, submit_button=\'Adicionar\', \n    \t\tfields = [\'empresa\', \'telefone\', \'contato\', \'dep\', \'ramal\'], \n\t\t\tlabels = {\'empresa\':\'Empresa\', \'telefone\':\'Telefone\', \n\t\t\t\t\t\t\'contato\':\'Contato\', \'dep\':\'Departamento\', \n\t\t\t\t\t\t\'ramal\':\'Ramal\'},)\n    form.vars.ramal = session.ramal\n    form.vars.particular = True\n\n    response.title="Contato"\n    if session.aut == \'0\':\n\t\tfuncao = request.vars[\'f\']\n\t\tredirect(URL("redireciona", "/%s" %(funcao)))\n\n    if form.process().accepted:\n    \t#evento = request.vars\n    \t#confno = form.vars.id\n    \t#email(evento, confno)\n    \tresponse.flash = \'Inserido com sucesso\'\n    \tprint form.vars.particular\n    \tif form.vars.particular == True:\n    \t\tredirect(URL("initial", "/agenda_particular"))\n    \telse:\n    \t\tredirect(URL("initial", "/agenda"))\t\t\t\n    elif form.errors:\n    \tresponse.flash = \'Ops, algo n\xc3\xa3o est\xc3\xa1 correto\'\n    else:\n    \tresponse.flash = \'Insira os dados do formul\xc3\xa1rio\'\n    return response.render("initial/show_form2.html", form=form)\n\n\ndef edit():\n    form = SQLFORM(db.agenda, request.vars[\'f\'], submit_button=\'Editar\')\n\n    if form.process().accepted:\n       response.flash = \'Editado com sucesso\'\n    elif form.errors:\n       response.flash = \'Ops, algo n\xc3\xa3o est\xc3\xa1 correto\'\n    else:\n       response.flash = \'Edite os dados do formul\xc3\xa1rio\'\n\n    return response.render("initial/show_form2.html", form=form)\n\n\ndef log_in():\n\t#adicionar\n    form = SQLFORM.factory(\n    \t\tField("ramal", requires = IS_NOT_EMPTY(error_message=\n\t\t\t\t\t\tT("valor n\xc3\xa3o pode ser nulo"))),\n    \t\tField("senha", "password"),\n    \t\tformstyle="divs",\n    \t\t)\n\n    response.title="login"\n    if form.process().accepted:\n    \tramal_dig = form.vars.ramal\n    \tsenha_dig = form.vars.senha\n    \tprint \'ramal digitado:%s  senha digitada:%s\' %(ramal_dig, senha_dig) \n    \tteste = db.executesql("SELECT v.ramal_virtual, v.nome, f.username, p.agenda_senha, f.tecnologia, p.agenda_nivel FROM ramal_virtual v LEFT JOIN ramal f ON v.username_ramalfisico = f.username INNER JOIN permissao p ON v.id_ramalvirtual = p.id_ramalvirtual WHERE v.ramal_virtual = %s;" %(ramal_dig))\n    \tprint \'busca sql: %s\' %str(teste)\n\n    \tif teste == ():\n    \t\tprint "ramal incorreto"\n    \t\tresponse.flash = \'Ramal incorreto\'\n    \telse:\n    \t\tusuario=teste[0][1]\n    \t\tsenha=teste[0][3]\n\n    \t\tprint \'usuario senha\'\n    \t\tprint session.ramal, usuario, session.ramal_fis, senha\n    \t   \t#if ramal_dig == ramal:\n    \t\t#\tprint "ramal ok"\n    \t\tif senha_dig == senha:\n    \t\t\tprint "senha ok"\n    \t\t\tsession.ramal=teste[0][0]\n    \t\t\tsession.ramal_fis=teste[0][2]\n    \t\t\tsession.tecnologia=teste[0][4]\n    \t\t\tsession.permissao=teste[0][5]\n    \t\t\tprint \'permissao %s\' %(session.permissao)\n    \t\t\tsession.aut=session.ramal\n\n    \t\t\tprint\'login efetuado %s (log_in)\' %(session.ramal)\n    \t\t\tsession.flash = \'Bem Vindo %s\' %(usuario)\n    \t\t\tredirect(URL("initial", "/principal"))\n    \t\telse:\n    \t\t\tprint \'senha incorreta\'\n    \t\t\tresponse.flash = \'Senha incorreta\'\t\n    return response.render("initial/show_form.html", form=form)\n\n\ndef log_out():\n\tsession.aut=\'0\'\n\tsession.ramal=\'0\'\n\tsession.ramal_fis=\'0\'\n\tsession.tecnologia=\'0\'\n\tprint session.aut\n\tprint "logout (log_out)"\n\tredirect(URL("initial", "/log_in"))\n\n\n\n\n\n\n\n\n\n\n\n\n\n\ndef email(evento, confno):\n\n\tmembros = evento.membros_user\n    \tfor a in membros:        \n   \t\t\tprint \'membro:\',a\n   \t\t\tteste = db.executesql(\'SELECT nome, email, pin FROM usuario WHERE id = %s;\' %str(a))\n   \t\t\tprint  \'select:\',teste[0][0], teste[0][1], teste[0][2]\n   \t\t\tnome = teste[0][0] #est\xc3\xa1 dando problema no envio\n   \t\t\temail = str(teste[0][1])\n   \t\t\tpin = str(teste[0][2])\n   \t\t\tprint type(email)\n   \t\t\tprint evento.starttime, evento.endtime, confno\n   \t\t\tmail.send(\n\t\t\tto="fndiaz02@gmail.com",#variavel email\n\t\t\tsubject="Confer\xc3\xaancia",\n\t\t\tmessage="<html>A confer\xc3\xaancia %s acaba de ser criada e voc\xc3\xaa \xc3\xa9 um membro, seguem os dados:<br>Hor\xc3\xa1rio de In\xc3\xadcio: %s<br>Hor\xc3\xa1rio de T\xc3\xa9rmino: %s<br>Pin: %s%s</html>" % (nome, confno, evento.starttime, evento.endtime, confno, pin)\n\t\t\t)\n\n   \tadmin = evento.admin_user\n   \tfor a in admin:\n   \t\tprint \'admin:\',a\n   \t\tteste = db.executesql(\'SELECT nome, email FROM usuario WHERE id = %s;\' %str(a))\n   \t\tprint \'select:\',teste[0][0], teste[0][1]\n   \t\tprint evento.starttime, evento.endtime, confno\n\n\n\t#if auth.has_membership(\'voip\'):\n\t#\tmail.send(\n\t#\t\tto="fndiaz02@gmail.com",\n\t#\t\tsubject="host adicionado",\n\t#\t\tmessage="<html>Um novo host foi adicionado pelo usu\xc3\xa1rio %s <br>nome: %s <br>vpn: %s<br><br>\xc3\x89 preciso fazer a instala\xc3\xa7\xc3\xa3o do client zabbix e bacula</html>" % (auth.user.first_name, host.nome, host.ip_chegada,)\n\t#\t\t)\n\t#elif auth.has_membership(\'internet\'):\n\t#\tmail.send(\n\t#\t\tto="fernando@ad2.com.br",\n\t#\t\tsubject="host adicionado",\n\t#\t\tmessage="<html>Um novo host foi adicionado pelo usu\xc3\xa1rio %s <br>nome: %s <br>vpn: %s<br><br>\xc3\x89 preciso fazer a instala\xc3\xa7\xc3\xa3o do client zabbix e bacula</html>" % (auth.user.first_name, host.nome, host.ip_chegada,)\n\t#\t\t)\n\n\n@auth.requires_login()\ndef cliente_host():\n\tfiltro = request.vars[\'f\']\n\tqueryset = db(db.cliente.id == filtro)\n\trows = queryset.select()\n\tcliente = rows[0]\n\tresponse.title = cliente.nome\n\tprint cliente\n\n\tnome_ant1 = request.vars[\'n1\']\n\tfuncao_ant1 = request.vars[\'p1\']\n\tnome_atual = cliente.nome\n\n\tquery = ((db.hosts.id_cliente == filtro) & (db.distro.id == db.hosts.id_distro))\n\tlinks = [dict(header=\'\',body=lambda row: A( IMG(_src=URL("static", "images", args=(row.distro.img)) ))), \n\t lambda row: A(\'Detalhes\', \n    \t\t      _class=\'btn\', \n    \t\t      _title=\'Detalhes\', \n    \t\t      _href=URL("initial", "/detalhes_nav", \n    \t\t      vars=dict(f=row.hosts.id, c=filtro, n=cliente.nome, \n    \t\t      \t\t\tn1=\'Clientes\', p1=\'show_cliente\', p=\'cliente_host\'))),\n\t lambda row: A(\'Editar\', \n    \t\t      _class=\'btn\', \n    \t\t      _title=\'Editar\', \n    \t\t      _href=URL("initial", "/edit_host", \n    \t\t      vars=dict(f=row.hosts.id, c=filtro, n=cliente.nome, \n    \t\t      \t\tn1=\'Clientes\', p1=\'show_cliente\', p=\'cliente_host\')))]\n\tdb.hosts.id.readable=False\n\tdb.distro.img.readable=False\n\t\n\tfields = (db.hosts.id, db.hosts.id_servidor, db.hosts.id_distro, db.distro.img, \n\t\t\t  db.hosts.ip_chegada, db.hosts.porta_ssh, db.hosts.gateway)\n\theaders = {\'hosts.id\':   \'ID\',\n\t\t\t   \'hosts.id_cliente\': \'Cliente\',\n               \'hosts.id_servidor\': \'Servidor\',\n               \'hosts.id_distro\': \'Distro\',\n               \'hosts.nome\': \'Nome\',\n\t           \'hosts.servicos\': \'Servicos\'}\n\tgrid = SQLFORM.grid(query=query, fields=fields, headers=headers, csv=False,\n\t\t\t\t\t\tdetails=False, searchable=False, maxtextlength=23, links=links, \n\t\t\t\t\t\tlinks_placement=\'left\', editable=False, create=False)\n\n\treturn response.render("initial/show_grid2.html", grid=grid, nome_ant1=nome_ant1, \n\t\t\t\t\t\tfuncao_ant1=funcao_ant1, nome_atual=nome_atual)\n\n@auth.requires_login()\ndef servidor_host():\n\tfiltro = request.vars[\'f\']\n\tqueryset = db(db.servidor.id == filtro)\n\trows = queryset.select()\n\tservidor = rows[0]\n\tresponse.title = servidor.nome\n\n\tnome_ant1 = request.vars[\'n1\']\n\tfuncao_ant1 = request.vars[\'p1\']\n\tnome_atual = servidor.nome\t\n\n\tdb.distro.img.readable=False\n\tdb.hosts.id.readable=False\n\tquery = ((db.hosts.id_servidor == filtro) & (db.distro.id == db.hosts.id_distro))\n\n\tlinks = [dict(header=\'\',body=lambda row: A( IMG(_src=URL("static", "images", args=(row.distro.img)) ))), \n\t lambda row: A(\'Detalhes\', \n    \t\t      _class=\'btn\', \n    \t\t      _title=\'Detalhes\', \n    \t\t      _href=URL("initial", "/detalhes_nav", \n    \t\t      vars=dict(f=row.hosts.id, c=filtro, n=servidor.nome, \n    \t\t      \t\tn1=\'Servidores\', p1=\'show_servidor\', p=\'servidor_host\'))),\n\t lambda row: A(\'Editar\', \n    \t\t      _class=\'btn\', \n    \t\t      _title=\'Editar\', \n    \t\t      _href=URL("initial", "/edit_host", \n    \t\t      vars=dict(f=row.hosts.id, c=filtro, n=servidor.nome, \n    \t\t      \t\tn1=\'Servidores\', p1=\'show_servidor\', p=\'servidor_host\')))]\n\n\tfields = (db.hosts.id, db.hosts.id_cliente, db.hosts.id_distro, db.distro.img, \n\t\t\t\tdb.hosts.ip_chegada, db.hosts.porta_ssh, db.hosts.gateway)\n\theaders = {\'hosts.id\':   \'ID\',\n\t\t\t   \'hosts.id_cliente\': \'Cliente\',\n               \'hosts.id_servidor\': \'Servidor\',\n               \'hosts.id_distro\': \'Distro\',\n               \'hosts.nome\': \'Nome\',\n\t           \'hosts.servicos\': \'Servicos\'}\n\tgrid = SQLFORM.grid(query=query, fields=fields, headers=headers, csv=False,\n\t\t\t\t\t\tdetails=False, searchable=False, maxtextlength=23, links=links, \n\t\t\t\t\t\tlinks_placement=\'left\', editable=False, create=False)\n\n\treturn response.render("initial/show_grid2.html", grid=grid, nome_ant1=nome_ant1, \n\t\t\t\t\t\tfuncao_ant1=funcao_ant1, nome_atual=nome_atual)\n\n@auth.requires_login()\ndef distro_host():\n\tform = SQLFORM.factory(\n    \t\tField(\'mes\', requires=IS_IN_SET([\'01\', \'02\', \'03\', \'04\', \'05\', \'06\', \'07\', \'08\', \'09\', \'10\', \'11\', \'12\'])),\n    \t\tField("ano", requires=IS_IN_SET([\'2007\', \'2008\', \'2009\', \'2010\', \'2011\', \'2012\', \'2013\'])),\n    \t\tformstyle="divs",\n    \t\t)\n\n\tif form.process().accepted:\n\t\tano = form.vars.ano\n\t\tmes = form.vars.mes\n\t\tprint ano, mes\n\t\tlista_pastas = commands.getoutput("ls /var/spool/asterisk/monitor | grep %s%s" %(ano, mes))\n\t\tprint lista_pastas\n\n\t\tf = open(\'pastas_grav\',\'w\')\n\t\tf.write(lista_pastas)\n\t\tf = open(\'pastas_grav\', \'r\')\n\t\tpastas = f.readlines()\n\t\tprint pastas\n\n\t\tcommands.getoutput("mkdir /var/spool/asterisk/monitor/temp_grava")\n\t\tfor pasta in pastas:\n\t\t\tpasta=pasta.split(\'\\n\')[0]\n\t\t\tprint \'copiando pasta :%s:\' %(pasta)\n\t\t\tsaida_cp = os.system("cp -r /var/spool/asterisk/monitor/%s /var/spool/asterisk/monitor/temp_grava" %(pasta))\n\t\t\tprint \'saida cp:%s\' %(saida_cp)\n\n\t\tos.system("zip -r /var/spool/asterisk/monitor/temp_grava.zip /var/spool/asterisk/monitor/temp_grava")\n\t\t\n\t\t\n\n\n\t\tif lista_pastas == \'\': ##erro busca nao encontradaa\n\t\t\tprint \'vazio\'\n\n\treturn response.render("initial/show_form2.html", form=form)\n\ndef detalhes_nav():\n\t#detalhes\n\tfiltro = request.vars[\'f\'] #id_host\n\tid_cliente = request.vars[\'c\'] #id_cliente\n\tnome_ant = request.vars[\'n\'] #nome (asterisk ou agronelli ou debian)\n\tnome_ant1 = request.vars[\'n1\'] #nome (servidores ou clientes ou distros)\n\tfuncao_ant = request.vars[\'p\'] #funcao(host_servidores)\n\tfuncao_ant1 = request.vars[\'p1\'] #funcao(show_servidores)\n\t\n\n\tquery = ((db.hosts.id == filtro) & (db.hosts.id_cliente == db.cliente.id)\n\t \t    & (db.hosts.id_servidor == db.servidor.id) \n\t \t    & (db.hosts.id_distro == db.distro.id)) \n\tdetalhes = db.hosts(query)\n\t\n\t\n\treturn response.render("initial/detalhes_host.html", detalhes=detalhes, \n\t\t\t\tid_cliente=id_cliente, funcao_ant=funcao_ant, funcao_ant1=funcao_ant1, \n\t\t\t\tnome_ant=nome_ant, nome_ant1=nome_ant1, filtro=filtro)\n\n\ndef user():\n\t#if request.args(0) == \'register\':\n    #    \tdb.auth_user.bio.writable = db.auth_user.bio.readable = False\n\treturn response.render("initial/user.html", user=auth())\n\ndef register():\n\treturn auth.register()\n\ndef login():\n        return auth.login()\n\ndef account():\n    return dict(register=auth.register(),\n                login=auth.login())\n\t\ndef download():\n\treturn response.download(request, db)\n\n\n\n\t\n\n\n\n\nresponse._vars=response._caller(agenda)\n'
p7
sS'snapshot'
p8
(dp9
S'exception'
p10
(dp11
S'__getslice__'
p12
S"<method-wrapper '__getslice__' of exceptions.SyntaxError object>"
p13
sS'text'
p14
S'"\\tdata = \'%\'+ano\'-\'+mes+\'%\'\\n"'
p15
sS'__str__'
p16
S"<method-wrapper '__str__' of exceptions.SyntaxError object>"
p17
sS'__reduce__'
p18
S'<built-in method __reduce__ of exceptions.SyntaxError object>'
p19
sS'__dict__'
p20
S'{}'
p21
sS'__sizeof__'
p22
S'<built-in method __sizeof__ of exceptions.SyntaxError object>'
p23
sS'__init__'
p24
S"<method-wrapper '__init__' of exceptions.SyntaxError object>"
p25
sS'__setattr__'
p26
S"<method-wrapper '__setattr__' of exceptions.SyntaxError object>"
p27
sS'__reduce_ex__'
p28
S'<built-in method __reduce_ex__ of exceptions.SyntaxError object>'
p29
sS'__new__'
p30
S'<built-in method __new__ of type object>'
p31
sS'__format__'
p32
S'<built-in method __format__ of exceptions.SyntaxError object>'
p33
sS'__class__'
p34
S"<type 'exceptions.SyntaxError'>"
p35
sS'filename'
p36
S"'/var/www/gravacao/applications/projeto/controllers/initial.py'"
p37
sS'lineno'
p38
S'49'
p39
sS'msg'
p40
S"'invalid syntax'"
p41
sS'__doc__'
p42
S"'Invalid syntax.'"
p43
sS'__getitem__'
p44
S"<method-wrapper '__getitem__' of exceptions.SyntaxError object>"
p45
sS'__setstate__'
p46
S'<built-in method __setstate__ of exceptions.SyntaxError object>'
p47
sS'__getattribute__'
p48
S"<method-wrapper '__getattribute__' of exceptions.SyntaxError object>"
p49
sS'print_file_and_line'
p50
S'None'
p51
sS'args'
p52
S'(\'invalid syntax\', (\'/var/www/gravacao/applications/projeto/controllers/initial.py\', 49, 18, "\\tdata = \'%\'+ano\'-\'+mes+\'%\'\\n"))'
p53
sS'__subclasshook__'
p54
S'<built-in method __subclasshook__ of type object>'
p55
sS'offset'
p56
S'18'
p57
sS'__unicode__'
p58
S'<built-in method __unicode__ of exceptions.SyntaxError object>'
p59
sS'__delattr__'
p60
S"<method-wrapper '__delattr__' of exceptions.SyntaxError object>"
p61
sS'__repr__'
p62
S"<method-wrapper '__repr__' of exceptions.SyntaxError object>"
p63
sS'__hash__'
p64
S"<method-wrapper '__hash__' of exceptions.SyntaxError object>"
p65
ssS'evalue'
p66
S'invalid syntax (initial.py, line 49)'
p67
sS'request'
p68
ccopy_reg
_reconstructor
p69
(cgluon.html
BEAUTIFY
p70
c__builtin__
object
p71
NtRp72
(dp73
S'attributes'
p74
(dp75
sS'components'
p76
(lp77
g69
(cgluon.html
TABLE
p78
g71
NtRp79
(dp80
g74
(dp81
S'level'
p82
I5
ssS'parent'
p83
Nsg76
(lp84
g69
(cgluon.html
TR
p85
g71
NtRp86
(dp87
g74
(dp88
sg83
g79
sg76
(lp89
g69
(cgluon.html
TD
p90
g71
NtRp91
(dp92
g74
(dp93
S'_style'
p94
S'font-weight:bold;vertical-align:top'
p95
ssg83
g86
sg76
(lp96
S'ajax'
p97
asbag69
(g90
g71
NtRp98
(dp99
g74
(dp100
S'_valign'
p101
S'top'
p102
ssg83
g86
sg76
(lp103
S':'
asbag69
(g90
g71
NtRp104
(dp105
g74
(dp106
sg83
g86
sg76
(lp107
g69
(g70
g71
NtRp108
(dp109
g74
(dp110
g82
I5
ssg83
g104
sg76
(lp111
S'False'
p112
asbasbasbag69
(g85
g71
NtRp113
(dp114
g74
(dp115
sg83
g79
sg76
(lp116
g69
(g90
g71
NtRp117
(dp118
g74
(dp119
g94
g95
ssg83
g113
sg76
(lp120
S'application'
p121
asbag69
(g90
g71
NtRp122
(dp123
g74
(dp124
g101
g102
ssg83
g113
sg76
(lp125
S':'
asbag69
(g90
g71
NtRp126
(dp127
g74
(dp128
sg83
g113
sg76
(lp129
g69
(g70
g71
NtRp130
(dp131
g74
(dp132
g82
I5
ssg83
g126
sg76
(lp133
S'projeto'
p134
asbasbasbag69
(g85
g71
NtRp135
(dp136
g74
(dp137
sg83
g79
sg76
(lp138
g69
(g90
g71
NtRp139
(dp140
g74
(dp141
g94
g95
ssg83
g135
sg76
(lp142
g52
asbag69
(g90
g71
NtRp143
(dp144
g74
(dp145
g101
g102
ssg83
g135
sg76
(lp146
S':'
asbag69
(g90
g71
NtRp147
(dp148
g74
(dp149
sg83
g135
sg76
(lp150
g69
(g70
g71
NtRp151
(dp152
g74
(dp153
g82
I5
ssg83
g147
sg76
(lp154
g69
(g78
g71
NtRp155
(dp156
g74
(dp157
g82
I4
ssg83
Nsg76
(lp158
sbasbasbasbag69
(g85
g71
NtRp159
(dp160
g74
(dp161
sg83
g79
sg76
(lp162
g69
(g90
g71
NtRp163
(dp164
g74
(dp165
g94
g95
ssg83
g159
sg76
(lp166
S'body'
p167
asbag69
(g90
g71
NtRp168
(dp169
g74
(dp170
g101
g102
ssg83
g159
sg76
(lp171
S':'
asbag69
(g90
g71
NtRp172
(dp173
g74
(dp174
sg83
g159
sg76
(lp175
g69
(g70
g71
NtRp176
(dp177
g74
(dp178
g82
I5
ssg83
g172
sg76
(lp179
S'<cStringIO.StringO object at 0x7f4550111ab0>'
p180
asbasbasbag69
(g85
g71
NtRp181
(dp182
g74
(dp183
sg83
g79
sg76
(lp184
g69
(g90
g71
NtRp185
(dp186
g74
(dp187
g94
g95
ssg83
g181
sg76
(lp188
S'cid'
p189
asbag69
(g90
g71
NtRp190
(dp191
g74
(dp192
g101
g102
ssg83
g181
sg76
(lp193
S':'
asbag69
(g90
g71
NtRp194
(dp195
g74
(dp196
sg83
g181
sg76
(lp197
g69
(g70
g71
NtRp198
(dp199
g74
(dp200
g82
I5
ssg83
g194
sg76
(lp201
S'None'
p202
asbasbasbag69
(g85
g71
NtRp203
(dp204
g74
(dp205
sg83
g79
sg76
(lp206
g69
(g90
g71
NtRp207
(dp208
g74
(dp209
g94
g95
ssg83
g203
sg76
(lp210
S'client'
p211
asbag69
(g90
g71
NtRp212
(dp213
g74
(dp214
g101
g102
ssg83
g203
sg76
(lp215
S':'
asbag69
(g90
g71
NtRp216
(dp217
g74
(dp218
sg83
g203
sg76
(lp219
g69
(g70
g71
NtRp220
(dp221
g74
(dp222
g82
I5
ssg83
g216
sg76
(lp223
S'127.0.0.1'
p224
asbasbasbag69
(g85
g71
NtRp225
(dp226
g74
(dp227
sg83
g79
sg76
(lp228
g69
(g90
g71
NtRp229
(dp230
g74
(dp231
g94
g95
ssg83
g225
sg76
(lp232
S'controller'
p233
asbag69
(g90
g71
NtRp234
(dp235
g74
(dp236
g101
g102
ssg83
g225
sg76
(lp237
S':'
asbag69
(g90
g71
NtRp238
(dp239
g74
(dp240
sg83
g225
sg76
(lp241
g69
(g70
g71
NtRp242
(dp243
g74
(dp244
g82
I5
ssg83
g238
sg76
(lp245
S'initial'
p246
asbasbasbag69
(g85
g71
NtRp247
(dp248
g74
(dp249
sg83
g79
sg76
(lp250
g69
(g90
g71
NtRp251
(dp252
g74
(dp253
g94
g95
ssg83
g247
sg76
(lp254
S'cookies'
p255
asbag69
(g90
g71
NtRp256
(dp257
g74
(dp258
g101
g102
ssg83
g247
sg76
(lp259
S':'
asbag69
(g90
g71
NtRp260
(dp261
g74
(dp262
sg83
g247
sg76
(lp263
g69
(g70
g71
NtRp264
(dp265
g74
(dp266
g82
I5
ssg83
g260
sg76
(lp267
g69
(g78
g71
NtRp268
(dp269
g74
(dp270
g82
I4
ssg83
Nsg76
(lp271
g69
(g85
g71
NtRp272
(dp273
g74
(dp274
sg83
g268
sg76
(lp275
g69
(g90
g71
NtRp276
(dp277
g74
(dp278
g94
g95
ssg83
g272
sg76
(lp279
S'session_id_admin'
p280
asbag69
(g90
g71
NtRp281
(dp282
g74
(dp283
g101
g102
ssg83
g272
sg76
(lp284
S':'
asbag69
(g90
g71
NtRp285
(dp286
g74
(dp287
sg83
g272
sg76
(lp288
g69
(g70
g71
NtRp289
(dp290
g74
(dp291
g82
I4
ssg83
g285
sg76
(lp292
S'127.0.0.1-3b0d272d-de33-441b-8482-bf6b1f9fd584'
p293
ag69
(g78
g71
NtRp294
(dp295
g74
(dp296
g82
I3
ssg83
Nsg76
(lp297
g69
(g85
g71
NtRp298
(dp299
g74
(dp300
sg83
g294
sg76
(lp301
g69
(g90
g71
NtRp302
(dp303
g74
(dp304
g94
g95
ssg83
g298
sg76
(lp305
S'comment'
p306
asbag69
(g90
g71
NtRp307
(dp308
g74
(dp309
g101
g102
ssg83
g298
sg76
(lp310
S':'
asbag69
(g90
g71
NtRp311
(dp312
g74
(dp313
sg83
g298
sg76
(lp314
g69
(g70
g71
NtRp315
(dp316
g74
(dp317
g82
I3
ssg83
g311
sg76
(lp318
S''
asbasbasbag69
(g85
g71
NtRp319
(dp320
g74
(dp321
sg83
g294
sg76
(lp322
g69
(g90
g71
NtRp323
(dp324
g74
(dp325
g94
g95
ssg83
g319
sg76
(lp326
S'domain'
p327
asbag69
(g90
g71
NtRp328
(dp329
g74
(dp330
g101
g102
ssg83
g319
sg76
(lp331
S':'
asbag69
(g90
g71
NtRp332
(dp333
g74
(dp334
sg83
g319
sg76
(lp335
g69
(g70
g71
NtRp336
(dp337
g74
(dp338
g82
I3
ssg83
g332
sg76
(lp339
S''
asbasbasbag69
(g85
g71
NtRp340
(dp341
g74
(dp342
sg83
g294
sg76
(lp343
g69
(g90
g71
NtRp344
(dp345
g74
(dp346
g94
g95
ssg83
g340
sg76
(lp347
S'expires'
p348
asbag69
(g90
g71
NtRp349
(dp350
g74
(dp351
g101
g102
ssg83
g340
sg76
(lp352
S':'
asbag69
(g90
g71
NtRp353
(dp354
g74
(dp355
sg83
g340
sg76
(lp356
g69
(g70
g71
NtRp357
(dp358
g74
(dp359
g82
I3
ssg83
g353
sg76
(lp360
S''
asbasbasbag69
(g85
g71
NtRp361
(dp362
g74
(dp363
sg83
g294
sg76
(lp364
g69
(g90
g71
NtRp365
(dp366
g74
(dp367
g94
g95
ssg83
g361
sg76
(lp368
S'httponly'
p369
asbag69
(g90
g71
NtRp370
(dp371
g74
(dp372
g101
g102
ssg83
g361
sg76
(lp373
S':'
asbag69
(g90
g71
NtRp374
(dp375
g74
(dp376
sg83
g361
sg76
(lp377
g69
(g70
g71
NtRp378
(dp379
g74
(dp380
g82
I3
ssg83
g374
sg76
(lp381
S''
asbasbasbag69
(g85
g71
NtRp382
(dp383
g74
(dp384
sg83
g294
sg76
(lp385
g69
(g90
g71
NtRp386
(dp387
g74
(dp388
g94
g95
ssg83
g382
sg76
(lp389
S'max-age'
p390
asbag69
(g90
g71
NtRp391
(dp392
g74
(dp393
g101
g102
ssg83
g382
sg76
(lp394
S':'
asbag69
(g90
g71
NtRp395
(dp396
g74
(dp397
sg83
g382
sg76
(lp398
g69
(g70
g71
NtRp399
(dp400
g74
(dp401
g82
I3
ssg83
g395
sg76
(lp402
S''
asbasbasbag69
(g85
g71
NtRp403
(dp404
g74
(dp405
sg83
g294
sg76
(lp406
g69
(g90
g71
NtRp407
(dp408
g74
(dp409
g94
g95
ssg83
g403
sg76
(lp410
S'path'
p411
asbag69
(g90
g71
NtRp412
(dp413
g74
(dp414
g101
g102
ssg83
g403
sg76
(lp415
S':'
asbag69
(g90
g71
NtRp416
(dp417
g74
(dp418
sg83
g403
sg76
(lp419
g69
(g70
g71
NtRp420
(dp421
g74
(dp422
g82
I3
ssg83
g416
sg76
(lp423
S''
asbasbasbag69
(g85
g71
NtRp424
(dp425
g74
(dp426
sg83
g294
sg76
(lp427
g69
(g90
g71
NtRp428
(dp429
g74
(dp430
g94
g95
ssg83
g424
sg76
(lp431
S'secure'
p432
asbag69
(g90
g71
NtRp433
(dp434
g74
(dp435
g101
g102
ssg83
g424
sg76
(lp436
S':'
asbag69
(g90
g71
NtRp437
(dp438
g74
(dp439
sg83
g424
sg76
(lp440
g69
(g70
g71
NtRp441
(dp442
g74
(dp443
g82
I3
ssg83
g437
sg76
(lp444
S''
asbasbasbag69
(g85
g71
NtRp445
(dp446
g74
(dp447
sg83
g294
sg76
(lp448
g69
(g90
g71
NtRp449
(dp450
g74
(dp451
g94
g95
ssg83
g445
sg76
(lp452
S'version'
p453
asbag69
(g90
g71
NtRp454
(dp455
g74
(dp456
g101
g102
ssg83
g445
sg76
(lp457
S':'
asbag69
(g90
g71
NtRp458
(dp459
g74
(dp460
sg83
g445
sg76
(lp461
g69
(g70
g71
NtRp462
(dp463
g74
(dp464
g82
I3
ssg83
g458
sg76
(lp465
S''
asbasbasbasbasbasbasbag69
(g85
g71
NtRp466
(dp467
g74
(dp468
sg83
g268
sg76
(lp469
g69
(g90
g71
NtRp470
(dp471
g74
(dp472
g94
g95
ssg83
g466
sg76
(lp473
S'session_id_projeto'
p474
asbag69
(g90
g71
NtRp475
(dp476
g74
(dp477
g101
g102
ssg83
g466
sg76
(lp478
S':'
asbag69
(g90
g71
NtRp479
(dp480
g74
(dp481
sg83
g466
sg76
(lp482
g69
(g70
g71
NtRp483
(dp484
g74
(dp485
g82
I4
ssg83
g479
sg76
(lp486
S'127.0.0.1-4b3b1626-419c-4d91-8985-6c3f8c048672'
p487
ag69
(g78
g71
NtRp488
(dp489
g74
(dp490
g82
I3
ssg83
Nsg76
(lp491
g69
(g85
g71
NtRp492
(dp493
g74
(dp494
sg83
g488
sg76
(lp495
g69
(g90
g71
NtRp496
(dp497
g74
(dp498
g94
g95
ssg83
g492
sg76
(lp499
g306
asbag69
(g90
g71
NtRp500
(dp501
g74
(dp502
g101
g102
ssg83
g492
sg76
(lp503
S':'
asbag69
(g90
g71
NtRp504
(dp505
g74
(dp506
sg83
g492
sg76
(lp507
g69
(g70
g71
NtRp508
(dp509
g74
(dp510
g82
I3
ssg83
g504
sg76
(lp511
S''
asbasbasbag69
(g85
g71
NtRp512
(dp513
g74
(dp514
sg83
g488
sg76
(lp515
g69
(g90
g71
NtRp516
(dp517
g74
(dp518
g94
g95
ssg83
g512
sg76
(lp519
g327
asbag69
(g90
g71
NtRp520
(dp521
g74
(dp522
g101
g102
ssg83
g512
sg76
(lp523
S':'
asbag69
(g90
g71
NtRp524
(dp525
g74
(dp526
sg83
g512
sg76
(lp527
g69
(g70
g71
NtRp528
(dp529
g74
(dp530
g82
I3
ssg83
g524
sg76
(lp531
S''
asbasbasbag69
(g85
g71
NtRp532
(dp533
g74
(dp534
sg83
g488
sg76
(lp535
g69
(g90
g71
NtRp536
(dp537
g74
(dp538
g94
g95
ssg83
g532
sg76
(lp539
g348
asbag69
(g90
g71
NtRp540
(dp541
g74
(dp542
g101
g102
ssg83
g532
sg76
(lp543
S':'
asbag69
(g90
g71
NtRp544
(dp545
g74
(dp546
sg83
g532
sg76
(lp547
g69
(g70
g71
NtRp548
(dp549
g74
(dp550
g82
I3
ssg83
g544
sg76
(lp551
S''
asbasbasbag69
(g85
g71
NtRp552
(dp553
g74
(dp554
sg83
g488
sg76
(lp555
g69
(g90
g71
NtRp556
(dp557
g74
(dp558
g94
g95
ssg83
g552
sg76
(lp559
g369
asbag69
(g90
g71
NtRp560
(dp561
g74
(dp562
g101
g102
ssg83
g552
sg76
(lp563
S':'
asbag69
(g90
g71
NtRp564
(dp565
g74
(dp566
sg83
g552
sg76
(lp567
g69
(g70
g71
NtRp568
(dp569
g74
(dp570
g82
I3
ssg83
g564
sg76
(lp571
S''
asbasbasbag69
(g85
g71
NtRp572
(dp573
g74
(dp574
sg83
g488
sg76
(lp575
g69
(g90
g71
NtRp576
(dp577
g74
(dp578
g94
g95
ssg83
g572
sg76
(lp579
g390
asbag69
(g90
g71
NtRp580
(dp581
g74
(dp582
g101
g102
ssg83
g572
sg76
(lp583
S':'
asbag69
(g90
g71
NtRp584
(dp585
g74
(dp586
sg83
g572
sg76
(lp587
g69
(g70
g71
NtRp588
(dp589
g74
(dp590
g82
I3
ssg83
g584
sg76
(lp591
S''
asbasbasbag69
(g85
g71
NtRp592
(dp593
g74
(dp594
sg83
g488
sg76
(lp595
g69
(g90
g71
NtRp596
(dp597
g74
(dp598
g94
g95
ssg83
g592
sg76
(lp599
g411
asbag69
(g90
g71
NtRp600
(dp601
g74
(dp602
g101
g102
ssg83
g592
sg76
(lp603
S':'
asbag69
(g90
g71
NtRp604
(dp605
g74
(dp606
sg83
g592
sg76
(lp607
g69
(g70
g71
NtRp608
(dp609
g74
(dp610
g82
I3
ssg83
g604
sg76
(lp611
S''
asbasbasbag69
(g85
g71
NtRp612
(dp613
g74
(dp614
sg83
g488
sg76
(lp615
g69
(g90
g71
NtRp616
(dp617
g74
(dp618
g94
g95
ssg83
g612
sg76
(lp619
g432
asbag69
(g90
g71
NtRp620
(dp621
g74
(dp622
g101
g102
ssg83
g612
sg76
(lp623
S':'
asbag69
(g90
g71
NtRp624
(dp625
g74
(dp626
sg83
g612
sg76
(lp627
g69
(g70
g71
NtRp628
(dp629
g74
(dp630
g82
I3
ssg83
g624
sg76
(lp631
S''
asbasbasbag69
(g85
g71
NtRp632
(dp633
g74
(dp634
sg83
g488
sg76
(lp635
g69
(g90
g71
NtRp636
(dp637
g74
(dp638
g94
g95
ssg83
g632
sg76
(lp639
g453
asbag69
(g90
g71
NtRp640
(dp641
g74
(dp642
g101
g102
ssg83
g632
sg76
(lp643
S':'
asbag69
(g90
g71
NtRp644
(dp645
g74
(dp646
sg83
g632
sg76
(lp647
g69
(g70
g71
NtRp648
(dp649
g74
(dp650
g82
I3
ssg83
g644
sg76
(lp651
S''
asbasbasbasbasbasbasbasbasbasbasbag69
(g85
g71
NtRp652
(dp653
g74
(dp654
sg83
g79
sg76
(lp655
g69
(g90
g71
NtRp656
(dp657
g74
(dp658
g94
g95
ssg83
g652
sg76
(lp659
S'env'
p660
asbag69
(g90
g71
NtRp661
(dp662
g74
(dp663
g101
g102
ssg83
g652
sg76
(lp664
S':'
asbag69
(g90
g71
NtRp665
(dp666
g74
(dp667
sg83
g652
sg76
(lp668
g69
(g70
g71
NtRp669
(dp670
g74
(dp671
g82
I5
ssg83
g665
sg76
(lp672
g69
(g78
g71
NtRp673
(dp674
g74
(dp675
g82
I4
ssg83
Nsg76
(lp676
g69
(g85
g71
NtRp677
(dp678
g74
(dp679
sg83
g673
sg76
(lp680
g69
(g90
g71
NtRp681
(dp682
g74
(dp683
g94
g95
ssg83
g677
sg76
(lp684
S'app_folders'
p685
asbag69
(g90
g71
NtRp686
(dp687
g74
(dp688
g101
g102
ssg83
g677
sg76
(lp689
S':'
asbag69
(g90
g71
NtRp690
(dp691
g74
(dp692
sg83
g677
sg76
(lp693
g69
(g70
g71
NtRp694
(dp695
g74
(dp696
g82
I4
ssg83
g690
sg76
(lp697
S"set(['/var/www/gravacao/applications/projeto/', '/var/www/gravacao/applications/admin/'])"
p698
asbasbasbag69
(g85
g71
NtRp699
(dp700
g74
(dp701
sg83
g673
sg76
(lp702
g69
(g90
g71
NtRp703
(dp704
g74
(dp705
g94
g95
ssg83
g699
sg76
(lp706
S'applications_parent'
p707
asbag69
(g90
g71
NtRp708
(dp709
g74
(dp710
g101
g102
ssg83
g699
sg76
(lp711
S':'
asbag69
(g90
g71
NtRp712
(dp713
g74
(dp714
sg83
g699
sg76
(lp715
g69
(g70
g71
NtRp716
(dp717
g74
(dp718
g82
I4
ssg83
g712
sg76
(lp719
S'/var/www/gravacao'
p720
asbasbasbag69
(g85
g71
NtRp721
(dp722
g74
(dp723
sg83
g673
sg76
(lp724
g69
(g90
g71
NtRp725
(dp726
g74
(dp727
g94
g95
ssg83
g721
sg76
(lp728
S'cmd_args'
p729
asbag69
(g90
g71
NtRp730
(dp731
g74
(dp732
g101
g102
ssg83
g721
sg76
(lp733
S':'
asbag69
(g90
g71
NtRp734
(dp735
g74
(dp736
sg83
g721
sg76
(lp737
g69
(g70
g71
NtRp738
(dp739
g74
(dp740
g82
I4
ssg83
g734
sg76
(lp741
g69
(g78
g71
NtRp742
(dp743
g74
(dp744
g82
I3
ssg83
Nsg76
(lp745
sbasbasbasbag69
(g85
g71
NtRp746
(dp747
g74
(dp748
sg83
g673
sg76
(lp749
g69
(g90
g71
NtRp750
(dp751
g74
(dp752
g94
g95
ssg83
g746
sg76
(lp753
S'cmd_options'
p754
asbag69
(g90
g71
NtRp755
(dp756
g74
(dp757
g101
g102
ssg83
g746
sg76
(lp758
S':'
asbag69
(g90
g71
NtRp759
(dp760
g74
(dp761
sg83
g746
sg76
(lp762
g69
(g70
g71
NtRp763
(dp764
g74
(dp765
g82
I4
ssg83
g759
sg76
(lp766
S"<Values at 0x2d002d8: {'verbose': False, 'ip': '127.0.0.1', 'with_scheduler': False, 'ips': [], 'shutdown_timeout': 5, 'taskbar': False, 'port': 8000, 'maxthreads': None, 'softcron': False, 'server_name': 'fernando-workstation', 'bpython': False, 'nogui': False, 'pid_filename': 'httpserver.pid', 'extcron': False, 'runcron': False, 'run_system_tests': False, 'test': None, 'folder': '/var/www/gravacao', 'config': '', 'minthreads': None, 'winservice': '', 'shell': None, 'run': '', 'log_filename': 'httpserver.log', 'debuglevel': 30, 'args': [''], 'socket_timeout': 5, 'ssl_ca_certificate': None, 'scheduler': None, 'profiler_filename': None, 'ssl_private_key': '', 'scheduler_groups': None, 'password': '123456', 'request_queue_size': 5, 'ssl_certificate': '', 'cronjob': False, 'numthreads': None, 'quiet': False, 'interfaces': None, 'import_models': False, 'timeout': 10, 'plain': False, 'nobanner': False}>"
p767
asbasbasbag69
(g85
g71
NtRp768
(dp769
g74
(dp770
sg83
g673
sg76
(lp771
g69
(g90
g71
NtRp772
(dp773
g74
(dp774
g94
g95
ssg83
g768
sg76
(lp775
S'db_sessions'
p776
asbag69
(g90
g71
NtRp777
(dp778
g74
(dp779
g101
g102
ssg83
g768
sg76
(lp780
S':'
asbag69
(g90
g71
NtRp781
(dp782
g74
(dp783
sg83
g768
sg76
(lp784
g69
(g70
g71
NtRp785
(dp786
g74
(dp787
g82
I4
ssg83
g781
sg76
(lp788
S'set([])'
p789
asbasbasbag69
(g85
g71
NtRp790
(dp791
g74
(dp792
sg83
g673
sg76
(lp793
g69
(g90
g71
NtRp794
(dp795
g74
(dp796
g94
g95
ssg83
g790
sg76
(lp797
S'debugging'
p798
asbag69
(g90
g71
NtRp799
(dp800
g74
(dp801
g101
g102
ssg83
g790
sg76
(lp802
S':'
asbag69
(g90
g71
NtRp803
(dp804
g74
(dp805
sg83
g790
sg76
(lp806
g69
(g70
g71
NtRp807
(dp808
g74
(dp809
g82
I4
ssg83
g803
sg76
(lp810
g112
asbasbasbag69
(g85
g71
NtRp811
(dp812
g74
(dp813
sg83
g673
sg76
(lp814
g69
(g90
g71
NtRp815
(dp816
g74
(dp817
g94
g95
ssg83
g811
sg76
(lp818
S'gluon_parent'
p819
asbag69
(g90
g71
NtRp820
(dp821
g74
(dp822
g101
g102
ssg83
g811
sg76
(lp823
S':'
asbag69
(g90
g71
NtRp824
(dp825
g74
(dp826
sg83
g811
sg76
(lp827
g69
(g70
g71
NtRp828
(dp829
g74
(dp830
g82
I4
ssg83
g824
sg76
(lp831
S'/var/www/gravacao'
p832
asbasbasbag69
(g85
g71
NtRp833
(dp834
g74
(dp835
sg83
g673
sg76
(lp836
g69
(g90
g71
NtRp837
(dp838
g74
(dp839
g94
g95
ssg83
g833
sg76
(lp840
S'http_accept'
p841
asbag69
(g90
g71
NtRp842
(dp843
g74
(dp844
g101
g102
ssg83
g833
sg76
(lp845
S':'
asbag69
(g90
g71
NtRp846
(dp847
g74
(dp848
sg83
g833
sg76
(lp849
g69
(g70
g71
NtRp850
(dp851
g74
(dp852
g82
I4
ssg83
g846
sg76
(lp853
S'text/html,application/xhtml+xml,application/xml;q=0.9,*/*;q=0.8'
p854
asbasbasbag69
(g85
g71
NtRp855
(dp856
g74
(dp857
sg83
g673
sg76
(lp858
g69
(g90
g71
NtRp859
(dp860
g74
(dp861
g94
g95
ssg83
g855
sg76
(lp862
S'http_accept_charset'
p863
asbag69
(g90
g71
NtRp864
(dp865
g74
(dp866
g101
g102
ssg83
g855
sg76
(lp867
S':'
asbag69
(g90
g71
NtRp868
(dp869
g74
(dp870
sg83
g855
sg76
(lp871
g69
(g70
g71
NtRp872
(dp873
g74
(dp874
g82
I4
ssg83
g868
sg76
(lp875
S'ISO-8859-1,utf-8;q=0.7,*;q=0.3'
p876
asbasbasbag69
(g85
g71
NtRp877
(dp878
g74
(dp879
sg83
g673
sg76
(lp880
g69
(g90
g71
NtRp881
(dp882
g74
(dp883
g94
g95
ssg83
g877
sg76
(lp884
S'http_accept_encoding'
p885
asbag69
(g90
g71
NtRp886
(dp887
g74
(dp888
g101
g102
ssg83
g877
sg76
(lp889
S':'
asbag69
(g90
g71
NtRp890
(dp891
g74
(dp892
sg83
g877
sg76
(lp893
g69
(g70
g71
NtRp894
(dp895
g74
(dp896
g82
I4
ssg83
g890
sg76
(lp897
S'gzip,deflate,sdch'
p898
asbasbasbag69
(g85
g71
NtRp899
(dp900
g74
(dp901
sg83
g673
sg76
(lp902
g69
(g90
g71
NtRp903
(dp904
g74
(dp905
g94
g95
ssg83
g899
sg76
(lp906
S'http_accept_language'
p907
asbag69
(g90
g71
NtRp908
(dp909
g74
(dp910
g101
g102
ssg83
g899
sg76
(lp911
S':'
asbag69
(g90
g71
NtRp912
(dp913
g74
(dp914
sg83
g899
sg76
(lp915
g69
(g70
g71
NtRp916
(dp917
g74
(dp918
g82
I4
ssg83
g912
sg76
(lp919
S'pt-BR,pt;q=0.8,en-US;q=0.6,en;q=0.4'
p920
asbasbasbag69
(g85
g71
NtRp921
(dp922
g74
(dp923
sg83
g673
sg76
(lp924
g69
(g90
g71
NtRp925
(dp926
g74
(dp927
g94
g95
ssg83
g921
sg76
(lp928
S'http_cache_control'
p929
asbag69
(g90
g71
NtRp930
(dp931
g74
(dp932
g101
g102
ssg83
g921
sg76
(lp933
S':'
asbag69
(g90
g71
NtRp934
(dp935
g74
(dp936
sg83
g921
sg76
(lp937
g69
(g70
g71
NtRp938
(dp939
g74
(dp940
g82
I4
ssg83
g934
sg76
(lp941
S'max-age=0'
p942
asbasbasbag69
(g85
g71
NtRp943
(dp944
g74
(dp945
sg83
g673
sg76
(lp946
g69
(g90
g71
NtRp947
(dp948
g74
(dp949
g94
g95
ssg83
g943
sg76
(lp950
S'http_connection'
p951
asbag69
(g90
g71
NtRp952
(dp953
g74
(dp954
g101
g102
ssg83
g943
sg76
(lp955
S':'
asbag69
(g90
g71
NtRp956
(dp957
g74
(dp958
sg83
g943
sg76
(lp959
g69
(g70
g71
NtRp960
(dp961
g74
(dp962
g82
I4
ssg83
g956
sg76
(lp963
S'keep-alive'
p964
asbasbasbag69
(g85
g71
NtRp965
(dp966
g74
(dp967
sg83
g673
sg76
(lp968
g69
(g90
g71
NtRp969
(dp970
g74
(dp971
g94
g95
ssg83
g965
sg76
(lp972
S'http_cookie'
p973
asbag69
(g90
g71
NtRp974
(dp975
g74
(dp976
g101
g102
ssg83
g965
sg76
(lp977
S':'
asbag69
(g90
g71
NtRp978
(dp979
g74
(dp980
sg83
g965
sg76
(lp981
g69
(g70
g71
NtRp982
(dp983
g74
(dp984
g82
I4
ssg83
g978
sg76
(lp985
S'session_id_admin=127.0.0.1-3b0d272d-de33-441b-8482-bf6b1f9fd584; session_id_projeto=127.0.0.1-4b3b1626-419c-4d91-8985-6c3f8c048672'
p986
asbasbasbag69
(g85
g71
NtRp987
(dp988
g74
(dp989
sg83
g673
sg76
(lp990
g69
(g90
g71
NtRp991
(dp992
g74
(dp993
g94
g95
ssg83
g987
sg76
(lp994
S'http_host'
p995
asbag69
(g90
g71
NtRp996
(dp997
g74
(dp998
g101
g102
ssg83
g987
sg76
(lp999
S':'
asbag69
(g90
g71
NtRp1000
(dp1001
g74
(dp1002
sg83
g987
sg76
(lp1003
g69
(g70
g71
NtRp1004
(dp1005
g74
(dp1006
g82
I4
ssg83
g1000
sg76
(lp1007
S'127.0.0.1:8000'
p1008
asbasbasbag69
(g85
g71
NtRp1009
(dp1010
g74
(dp1011
sg83
g673
sg76
(lp1012
g69
(g90
g71
NtRp1013
(dp1014
g74
(dp1015
g94
g95
ssg83
g1009
sg76
(lp1016
S'http_user_agent'
p1017
asbag69
(g90
g71
NtRp1018
(dp1019
g74
(dp1020
g101
g102
ssg83
g1009
sg76
(lp1021
S':'
asbag69
(g90
g71
NtRp1022
(dp1023
g74
(dp1024
sg83
g1009
sg76
(lp1025
g69
(g70
g71
NtRp1026
(dp1027
g74
(dp1028
g82
I4
ssg83
g1022
sg76
(lp1029
S'Mozilla/5.0 (X11; Linux x86_64) AppleWebKit/537.4 (KHTML, like Gecko) Ubuntu/12.10 Chromium/22.0.1229.94 Chrome/22.0.1229.94 Safari/537.4'
p1030
asbasbasbag69
(g85
g71
NtRp1031
(dp1032
g74
(dp1033
sg83
g673
sg76
(lp1034
g69
(g90
g71
NtRp1035
(dp1036
g74
(dp1037
g94
g95
ssg83
g1031
sg76
(lp1038
S'is_jython'
p1039
asbag69
(g90
g71
NtRp1040
(dp1041
g74
(dp1042
g101
g102
ssg83
g1031
sg76
(lp1043
S':'
asbag69
(g90
g71
NtRp1044
(dp1045
g74
(dp1046
sg83
g1031
sg76
(lp1047
g69
(g70
g71
NtRp1048
(dp1049
g74
(dp1050
g82
I4
ssg83
g1044
sg76
(lp1051
g112
asbasbasbag69
(g85
g71
NtRp1052
(dp1053
g74
(dp1054
sg83
g673
sg76
(lp1055
g69
(g90
g71
NtRp1056
(dp1057
g74
(dp1058
g94
g95
ssg83
g1052
sg76
(lp1059
S'is_pypy'
p1060
asbag69
(g90
g71
NtRp1061
(dp1062
g74
(dp1063
g101
g102
ssg83
g1052
sg76
(lp1064
S':'
asbag69
(g90
g71
NtRp1065
(dp1066
g74
(dp1067
sg83
g1052
sg76
(lp1068
g69
(g70
g71
NtRp1069
(dp1070
g74
(dp1071
g82
I4
ssg83
g1065
sg76
(lp1072
g112
asbasbasbag69
(g85
g71
NtRp1073
(dp1074
g74
(dp1075
sg83
g673
sg76
(lp1076
g69
(g90
g71
NtRp1077
(dp1078
g74
(dp1079
g94
g95
ssg83
g1073
sg76
(lp1080
S'local_hosts'
p1081
asbag69
(g90
g71
NtRp1082
(dp1083
g74
(dp1084
g101
g102
ssg83
g1073
sg76
(lp1085
S':'
asbag69
(g90
g71
NtRp1086
(dp1087
g74
(dp1088
sg83
g1073
sg76
(lp1089
g69
(g70
g71
NtRp1090
(dp1091
g74
(dp1092
g82
I4
ssg83
g1086
sg76
(lp1093
g69
(g78
g71
NtRp1094
(dp1095
g74
(dp1096
g82
I3
ssg83
Nsg76
(lp1097
g69
(g85
g71
NtRp1098
(dp1099
g74
(dp1100
sg83
g1094
sg76
(lp1101
g69
(g90
g71
NtRp1102
(dp1103
g74
(dp1104
sg83
g1098
sg76
(lp1105
g69
(g70
g71
NtRp1106
(dp1107
g74
(dp1108
g82
I3
ssg83
g1102
sg76
(lp1109
S'::1'
p1110
asbasbasbag69
(g85
g71
NtRp1111
(dp1112
g74
(dp1113
sg83
g1094
sg76
(lp1114
g69
(g90
g71
NtRp1115
(dp1116
g74
(dp1117
sg83
g1111
sg76
(lp1118
g69
(g70
g71
NtRp1119
(dp1120
g74
(dp1121
g82
I3
ssg83
g1115
sg76
(lp1122
S'::ffff:127.0.0.1'
p1123
asbasbasbag69
(g85
g71
NtRp1124
(dp1125
g74
(dp1126
sg83
g1094
sg76
(lp1127
g69
(g90
g71
NtRp1128
(dp1129
g74
(dp1130
sg83
g1124
sg76
(lp1131
g69
(g70
g71
NtRp1132
(dp1133
g74
(dp1134
g82
I3
ssg83
g1128
sg76
(lp1135
S'127.0.0.1'
p1136
asbasbasbag69
(g85
g71
NtRp1137
(dp1138
g74
(dp1139
sg83
g1094
sg76
(lp1140
g69
(g90
g71
NtRp1141
(dp1142
g74
(dp1143
sg83
g1137
sg76
(lp1144
g69
(g70
g71
NtRp1145
(dp1146
g74
(dp1147
g82
I3
ssg83
g1141
sg76
(lp1148
S'fernando-workstation'
p1149
asbasbasbasbasbasbasbag69
(g85
g71
NtRp1150
(dp1151
g74
(dp1152
sg83
g673
sg76
(lp1153
g69
(g90
g71
NtRp1154
(dp1155
g74
(dp1156
g94
g95
ssg83
g1150
sg76
(lp1157
S'path_info'
p1158
asbag69
(g90
g71
NtRp1159
(dp1160
g74
(dp1161
g101
g102
ssg83
g1150
sg76
(lp1162
S':'
asbag69
(g90
g71
NtRp1163
(dp1164
g74
(dp1165
sg83
g1150
sg76
(lp1166
g69
(g70
g71
NtRp1167
(dp1168
g74
(dp1169
g82
I4
ssg83
g1163
sg76
(lp1170
S'/initial/agenda'
p1171
asbasbasbag69
(g85
g71
NtRp1172
(dp1173
g74
(dp1174
sg83
g673
sg76
(lp1175
g69
(g90
g71
NtRp1176
(dp1177
g74
(dp1178
g94
g95
ssg83
g1172
sg76
(lp1179
S'query_string'
p1180
asbag69
(g90
g71
NtRp1181
(dp1182
g74
(dp1183
g101
g102
ssg83
g1172
sg76
(lp1184
S':'
asbag69
(g90
g71
NtRp1185
(dp1186
g74
(dp1187
sg83
g1172
sg76
(lp1188
g69
(g70
g71
NtRp1189
(dp1190
g74
(dp1191
g82
I4
ssg83
g1185
sg76
(lp1192
S'm=01&a=2013'
p1193
asbasbasbag69
(g85
g71
NtRp1194
(dp1195
g74
(dp1196
sg83
g673
sg76
(lp1197
g69
(g90
g71
NtRp1198
(dp1199
g74
(dp1200
g94
g95
ssg83
g1194
sg76
(lp1201
S'remote_addr'
p1202
asbag69
(g90
g71
NtRp1203
(dp1204
g74
(dp1205
g101
g102
ssg83
g1194
sg76
(lp1206
S':'
asbag69
(g90
g71
NtRp1207
(dp1208
g74
(dp1209
sg83
g1194
sg76
(lp1210
g69
(g70
g71
NtRp1211
(dp1212
g74
(dp1213
g82
I4
ssg83
g1207
sg76
(lp1214
g224
asbasbasbag69
(g85
g71
NtRp1215
(dp1216
g74
(dp1217
sg83
g673
sg76
(lp1218
g69
(g90
g71
NtRp1219
(dp1220
g74
(dp1221
g94
g95
ssg83
g1215
sg76
(lp1222
S'remote_port'
p1223
asbag69
(g90
g71
NtRp1224
(dp1225
g74
(dp1226
g101
g102
ssg83
g1215
sg76
(lp1227
S':'
asbag69
(g90
g71
NtRp1228
(dp1229
g74
(dp1230
sg83
g1215
sg76
(lp1231
g69
(g70
g71
NtRp1232
(dp1233
g74
(dp1234
g82
I4
ssg83
g1228
sg76
(lp1235
S'59987'
p1236
asbasbasbag69
(g85
g71
NtRp1237
(dp1238
g74
(dp1239
sg83
g673
sg76
(lp1240
g69
(g90
g71
NtRp1241
(dp1242
g74
(dp1243
g94
g95
ssg83
g1237
sg76
(lp1244
S'request_method'
p1245
asbag69
(g90
g71
NtRp1246
(dp1247
g74
(dp1248
g101
g102
ssg83
g1237
sg76
(lp1249
S':'
asbag69
(g90
g71
NtRp1250
(dp1251
g74
(dp1252
sg83
g1237
sg76
(lp1253
g69
(g70
g71
NtRp1254
(dp1255
g74
(dp1256
g82
I4
ssg83
g1250
sg76
(lp1257
S'GET'
p1258
asbasbasbag69
(g85
g71
NtRp1259
(dp1260
g74
(dp1261
sg83
g673
sg76
(lp1262
g69
(g90
g71
NtRp1263
(dp1264
g74
(dp1265
g94
g95
ssg83
g1259
sg76
(lp1266
S'request_uri'
p1267
asbag69
(g90
g71
NtRp1268
(dp1269
g74
(dp1270
g101
g102
ssg83
g1259
sg76
(lp1271
S':'
asbag69
(g90
g71
NtRp1272
(dp1273
g74
(dp1274
sg83
g1259
sg76
(lp1275
g69
(g70
g71
NtRp1276
(dp1277
g74
(dp1278
g82
I4
ssg83
g1272
sg76
(lp1279
S'/projeto/initial/agenda?m=01&a=2013'
p1280
asbasbasbag69
(g85
g71
NtRp1281
(dp1282
g74
(dp1283
sg83
g673
sg76
(lp1284
g69
(g90
g71
NtRp1285
(dp1286
g74
(dp1287
g94
g95
ssg83
g1281
sg76
(lp1288
S'script_name'
p1289
asbag69
(g90
g71
NtRp1290
(dp1291
g74
(dp1292
g101
g102
ssg83
g1281
sg76
(lp1293
S':'
asbag69
(g90
g71
NtRp1294
(dp1295
g74
(dp1296
sg83
g1281
sg76
(lp1297
g69
(g70
g71
NtRp1298
(dp1299
g74
(dp1300
g82
I4
ssg83
g1294
sg76
(lp1301
S''
asbasbasbag69
(g85
g71
NtRp1302
(dp1303
g74
(dp1304
sg83
g673
sg76
(lp1305
g69
(g90
g71
NtRp1306
(dp1307
g74
(dp1308
g94
g95
ssg83
g1302
sg76
(lp1309
S'server_name'
p1310
asbag69
(g90
g71
NtRp1311
(dp1312
g74
(dp1313
g101
g102
ssg83
g1302
sg76
(lp1314
S':'
asbag69
(g90
g71
NtRp1315
(dp1316
g74
(dp1317
sg83
g1302
sg76
(lp1318
g69
(g70
g71
NtRp1319
(dp1320
g74
(dp1321
g82
I4
ssg83
g1315
sg76
(lp1322
S'fernando-workstation'
p1323
asbasbasbag69
(g85
g71
NtRp1324
(dp1325
g74
(dp1326
sg83
g673
sg76
(lp1327
g69
(g90
g71
NtRp1328
(dp1329
g74
(dp1330
g94
g95
ssg83
g1324
sg76
(lp1331
S'server_port'
p1332
asbag69
(g90
g71
NtRp1333
(dp1334
g74
(dp1335
g101
g102
ssg83
g1324
sg76
(lp1336
S':'
asbag69
(g90
g71
NtRp1337
(dp1338
g74
(dp1339
sg83
g1324
sg76
(lp1340
g69
(g70
g71
NtRp1341
(dp1342
g74
(dp1343
g82
I4
ssg83
g1337
sg76
(lp1344
S'8000'
p1345
asbasbasbag69
(g85
g71
NtRp1346
(dp1347
g74
(dp1348
sg83
g673
sg76
(lp1349
g69
(g90
g71
NtRp1350
(dp1351
g74
(dp1352
g94
g95
ssg83
g1346
sg76
(lp1353
S'server_protocol'
p1354
asbag69
(g90
g71
NtRp1355
(dp1356
g74
(dp1357
g101
g102
ssg83
g1346
sg76
(lp1358
S':'
asbag69
(g90
g71
NtRp1359
(dp1360
g74
(dp1361
sg83
g1346
sg76
(lp1362
g69
(g70
g71
NtRp1363
(dp1364
g74
(dp1365
g82
I4
ssg83
g1359
sg76
(lp1366
S'HTTP/1.1'
p1367
asbasbasbag69
(g85
g71
NtRp1368
(dp1369
g74
(dp1370
sg83
g673
sg76
(lp1371
g69
(g90
g71
NtRp1372
(dp1373
g74
(dp1374
g94
g95
ssg83
g1368
sg76
(lp1375
S'server_software'
p1376
asbag69
(g90
g71
NtRp1377
(dp1378
g74
(dp1379
g101
g102
ssg83
g1368
sg76
(lp1380
S':'
asbag69
(g90
g71
NtRp1381
(dp1382
g74
(dp1383
sg83
g1368
sg76
(lp1384
g69
(g70
g71
NtRp1385
(dp1386
g74
(dp1387
g82
I4
ssg83
g1381
sg76
(lp1388
S'Rocket 1.2.6'
p1389
asbasbasbag69
(g85
g71
NtRp1390
(dp1391
g74
(dp1392
sg83
g673
sg76
(lp1393
g69
(g90
g71
NtRp1394
(dp1395
g74
(dp1396
g94
g95
ssg83
g1390
sg76
(lp1397
S'web2py_original_uri'
p1398
asbag69
(g90
g71
NtRp1399
(dp1400
g74
(dp1401
g101
g102
ssg83
g1390
sg76
(lp1402
S':'
asbag69
(g90
g71
NtRp1403
(dp1404
g74
(dp1405
sg83
g1390
sg76
(lp1406
g69
(g70
g71
NtRp1407
(dp1408
g74
(dp1409
g82
I4
ssg83
g1403
sg76
(lp1410
S'/initial/agenda?m=01&a=2013'
p1411
asbasbasbag69
(g85
g71
NtRp1412
(dp1413
g74
(dp1414
sg83
g673
sg76
(lp1415
g69
(g90
g71
NtRp1416
(dp1417
g74
(dp1418
g94
g95
ssg83
g1412
sg76
(lp1419
S'web2py_path'
p1420
asbag69
(g90
g71
NtRp1421
(dp1422
g74
(dp1423
g101
g102
ssg83
g1412
sg76
(lp1424
S':'
asbag69
(g90
g71
NtRp1425
(dp1426
g74
(dp1427
sg83
g1412
sg76
(lp1428
g69
(g70
g71
NtRp1429
(dp1430
g74
(dp1431
g82
I4
ssg83
g1425
sg76
(lp1432
g720
asbasbasbag69
(g85
g71
NtRp1433
(dp1434
g74
(dp1435
sg83
g673
sg76
(lp1436
g69
(g90
g71
NtRp1437
(dp1438
g74
(dp1439
g94
g95
ssg83
g1433
sg76
(lp1440
S'web2py_version'
p1441
asbag69
(g90
g71
NtRp1442
(dp1443
g74
(dp1444
g101
g102
ssg83
g1433
sg76
(lp1445
S':'
asbag69
(g90
g71
NtRp1446
(dp1447
g74
(dp1448
sg83
g1433
sg76
(lp1449
g69
(g70
g71
NtRp1450
(dp1451
g74
(dp1452
g82
I4
ssg83
g1446
sg76
(lp1453
g69
(g78
g71
NtRp1454
(dp1455
g74
(dp1456
g82
I3
ssg83
Nsg76
(lp1457
g69
(g85
g71
NtRp1458
(dp1459
g74
(dp1460
sg83
g1454
sg76
(lp1461
g69
(g90
g71
NtRp1462
(dp1463
g74
(dp1464
sg83
g1458
sg76
(lp1465
g69
(g70
g71
NtRp1466
(dp1467
g74
(dp1468
g82
I3
ssg83
g1462
sg76
(lp1469
S'2'
asbasbasbag69
(g85
g71
NtRp1470
(dp1471
g74
(dp1472
sg83
g1454
sg76
(lp1473
g69
(g90
g71
NtRp1474
(dp1475
g74
(dp1476
sg83
g1470
sg76
(lp1477
g69
(g70
g71
NtRp1478
(dp1479
g74
(dp1480
g82
I3
ssg83
g1474
sg76
(lp1481
S'3'
asbasbasbag69
(g85
g71
NtRp1482
(dp1483
g74
(dp1484
sg83
g1454
sg76
(lp1485
g69
(g90
g71
NtRp1486
(dp1487
g74
(dp1488
sg83
g1482
sg76
(lp1489
g69
(g70
g71
NtRp1490
(dp1491
g74
(dp1492
g82
I3
ssg83
g1486
sg76
(lp1493
S'2'
asbasbasbag69
(g85
g71
NtRp1494
(dp1495
g74
(dp1496
sg83
g1454
sg76
(lp1497
g69
(g90
g71
NtRp1498
(dp1499
g74
(dp1500
sg83
g1494
sg76
(lp1501
g69
(g70
g71
NtRp1502
(dp1503
g74
(dp1504
g82
I3
ssg83
g1498
sg76
(lp1505
S'datetime.datetime(2012, 12, 17, 15, 3, 30)'
p1506
asbasbasbag69
(g85
g71
NtRp1507
(dp1508
g74
(dp1509
sg83
g1454
sg76
(lp1510
g69
(g90
g71
NtRp1511
(dp1512
g74
(dp1513
sg83
g1507
sg76
(lp1514
g69
(g70
g71
NtRp1515
(dp1516
g74
(dp1517
g82
I3
ssg83
g1511
sg76
(lp1518
S'stable'
p1519
asbasbasbasbasbasbasbag69
(g85
g71
NtRp1520
(dp1521
g74
(dp1522
sg83
g673
sg76
(lp1523
g69
(g90
g71
NtRp1524
(dp1525
g74
(dp1526
g94
g95
ssg83
g1520
sg76
(lp1527
S'wsgi_errors'
p1528
asbag69
(g90
g71
NtRp1529
(dp1530
g74
(dp1531
g101
g102
ssg83
g1520
sg76
(lp1532
S':'
asbag69
(g90
g71
NtRp1533
(dp1534
g74
(dp1535
sg83
g1520
sg76
(lp1536
g69
(g70
g71
NtRp1537
(dp1538
g74
(dp1539
g82
I4
ssg83
g1533
sg76
(lp1540
S"<open file '<stderr>', mode 'w' at 0x7f457ce4e270>"
p1541
asbasbasbag69
(g85
g71
NtRp1542
(dp1543
g74
(dp1544
sg83
g673
sg76
(lp1545
g69
(g90
g71
NtRp1546
(dp1547
g74
(dp1548
g94
g95
ssg83
g1542
sg76
(lp1549
S'wsgi_file_wrapper'
p1550
asbag69
(g90
g71
NtRp1551
(dp1552
g74
(dp1553
g101
g102
ssg83
g1542
sg76
(lp1554
S':'
asbag69
(g90
g71
NtRp1555
(dp1556
g74
(dp1557
sg83
g1542
sg76
(lp1558
g69
(g70
g71
NtRp1559
(dp1560
g74
(dp1561
g82
I4
ssg83
g1555
sg76
(lp1562
S'<class wsgiref.util.FileWrapper at 0x2c864c8>'
p1563
asbasbasbag69
(g85
g71
NtRp1564
(dp1565
g74
(dp1566
sg83
g673
sg76
(lp1567
g69
(g90
g71
NtRp1568
(dp1569
g74
(dp1570
g94
g95
ssg83
g1564
sg76
(lp1571
S'wsgi_input'
p1572
asbag69
(g90
g71
NtRp1573
(dp1574
g74
(dp1575
g101
g102
ssg83
g1564
sg76
(lp1576
S':'
asbag69
(g90
g71
NtRp1577
(dp1578
g74
(dp1579
sg83
g1564
sg76
(lp1580
g69
(g70
g71
NtRp1581
(dp1582
g74
(dp1583
g82
I4
ssg83
g1577
sg76
(lp1584
S'<socket._fileobject object at 0x7f45403a9250>'
p1585
asbasbasbag69
(g85
g71
NtRp1586
(dp1587
g74
(dp1588
sg83
g673
sg76
(lp1589
g69
(g90
g71
NtRp1590
(dp1591
g74
(dp1592
g94
g95
ssg83
g1586
sg76
(lp1593
S'wsgi_multiprocess'
p1594
asbag69
(g90
g71
NtRp1595
(dp1596
g74
(dp1597
g101
g102
ssg83
g1586
sg76
(lp1598
S':'
asbag69
(g90
g71
NtRp1599
(dp1600
g74
(dp1601
sg83
g1586
sg76
(lp1602
g69
(g70
g71
NtRp1603
(dp1604
g74
(dp1605
g82
I4
ssg83
g1599
sg76
(lp1606
g112
asbasbasbag69
(g85
g71
NtRp1607
(dp1608
g74
(dp1609
sg83
g673
sg76
(lp1610
g69
(g90
g71
NtRp1611
(dp1612
g74
(dp1613
g94
g95
ssg83
g1607
sg76
(lp1614
S'wsgi_multithread'
p1615
asbag69
(g90
g71
NtRp1616
(dp1617
g74
(dp1618
g101
g102
ssg83
g1607
sg76
(lp1619
S':'
asbag69
(g90
g71
NtRp1620
(dp1621
g74
(dp1622
sg83
g1607
sg76
(lp1623
g69
(g70
g71
NtRp1624
(dp1625
g74
(dp1626
g82
I4
ssg83
g1620
sg76
(lp1627
S'True'
p1628
asbasbasbag69
(g85
g71
NtRp1629
(dp1630
g74
(dp1631
sg83
g673
sg76
(lp1632
g69
(g90
g71
NtRp1633
(dp1634
g74
(dp1635
g94
g95
ssg83
g1629
sg76
(lp1636
S'wsgi_run_once'
p1637
asbag69
(g90
g71
NtRp1638
(dp1639
g74
(dp1640
g101
g102
ssg83
g1629
sg76
(lp1641
S':'
asbag69
(g90
g71
NtRp1642
(dp1643
g74
(dp1644
sg83
g1629
sg76
(lp1645
g69
(g70
g71
NtRp1646
(dp1647
g74
(dp1648
g82
I4
ssg83
g1642
sg76
(lp1649
g112
asbasbasbag69
(g85
g71
NtRp1650
(dp1651
g74
(dp1652
sg83
g673
sg76
(lp1653
g69
(g90
g71
NtRp1654
(dp1655
g74
(dp1656
g94
g95
ssg83
g1650
sg76
(lp1657
S'wsgi_url_scheme'
p1658
asbag69
(g90
g71
NtRp1659
(dp1660
g74
(dp1661
g101
g102
ssg83
g1650
sg76
(lp1662
S':'
asbag69
(g90
g71
NtRp1663
(dp1664
g74
(dp1665
sg83
g1650
sg76
(lp1666
g69
(g70
g71
NtRp1667
(dp1668
g74
(dp1669
g82
I4
ssg83
g1663
sg76
(lp1670
S'http'
p1671
asbasbasbag69
(g85
g71
NtRp1672
(dp1673
g74
(dp1674
sg83
g673
sg76
(lp1675
g69
(g90
g71
NtRp1676
(dp1677
g74
(dp1678
g94
g95
ssg83
g1672
sg76
(lp1679
S'wsgi_version'
p1680
asbag69
(g90
g71
NtRp1681
(dp1682
g74
(dp1683
g101
g102
ssg83
g1672
sg76
(lp1684
S':'
asbag69
(g90
g71
NtRp1685
(dp1686
g74
(dp1687
sg83
g1672
sg76
(lp1688
g69
(g70
g71
NtRp1689
(dp1690
g74
(dp1691
g82
I4
ssg83
g1685
sg76
(lp1692
g69
(g78
g71
NtRp1693
(dp1694
g74
(dp1695
g82
I3
ssg83
Nsg76
(lp1696
g69
(g85
g71
NtRp1697
(dp1698
g74
(dp1699
sg83
g1693
sg76
(lp1700
g69
(g90
g71
NtRp1701
(dp1702
g74
(dp1703
sg83
g1697
sg76
(lp1704
g69
(g70
g71
NtRp1705
(dp1706
g74
(dp1707
g82
I3
ssg83
g1701
sg76
(lp1708
S'1'
asbasbasbag69
(g85
g71
NtRp1709
(dp1710
g74
(dp1711
sg83
g1693
sg76
(lp1712
g69
(g90
g71
NtRp1713
(dp1714
g74
(dp1715
sg83
g1709
sg76
(lp1716
g69
(g70
g71
NtRp1717
(dp1718
g74
(dp1719
g82
I3
ssg83
g1713
sg76
(lp1720
S'0'
asbasbasbasbasbasbasbasbasbasbasbag69
(g85
g71
NtRp1721
(dp1722
g74
(dp1723
sg83
g79
sg76
(lp1724
g69
(g90
g71
NtRp1725
(dp1726
g74
(dp1727
g94
g95
ssg83
g1721
sg76
(lp1728
S'extension'
p1729
asbag69
(g90
g71
NtRp1730
(dp1731
g74
(dp1732
g101
g102
ssg83
g1721
sg76
(lp1733
S':'
asbag69
(g90
g71
NtRp1734
(dp1735
g74
(dp1736
sg83
g1721
sg76
(lp1737
g69
(g70
g71
NtRp1738
(dp1739
g74
(dp1740
g82
I5
ssg83
g1734
sg76
(lp1741
S'html'
p1742
asbasbasbag69
(g85
g71
NtRp1743
(dp1744
g74
(dp1745
sg83
g79
sg76
(lp1746
g69
(g90
g71
NtRp1747
(dp1748
g74
(dp1749
g94
g95
ssg83
g1743
sg76
(lp1750
S'folder'
p1751
asbag69
(g90
g71
NtRp1752
(dp1753
g74
(dp1754
g101
g102
ssg83
g1743
sg76
(lp1755
S':'
asbag69
(g90
g71
NtRp1756
(dp1757
g74
(dp1758
sg83
g1743
sg76
(lp1759
g69
(g70
g71
NtRp1760
(dp1761
g74
(dp1762
g82
I5
ssg83
g1756
sg76
(lp1763
S'/var/www/gravacao/applications/projeto/'
p1764
asbasbasbag69
(g85
g71
NtRp1765
(dp1766
g74
(dp1767
sg83
g79
sg76
(lp1768
g69
(g90
g71
NtRp1769
(dp1770
g74
(dp1771
g94
g95
ssg83
g1765
sg76
(lp1772
S'function'
p1773
asbag69
(g90
g71
NtRp1774
(dp1775
g74
(dp1776
g101
g102
ssg83
g1765
sg76
(lp1777
S':'
asbag69
(g90
g71
NtRp1778
(dp1779
g74
(dp1780
sg83
g1765
sg76
(lp1781
g69
(g70
g71
NtRp1782
(dp1783
g74
(dp1784
g82
I5
ssg83
g1778
sg76
(lp1785
S'agenda'
p1786
asbasbasbag69
(g85
g71
NtRp1787
(dp1788
g74
(dp1789
sg83
g79
sg76
(lp1790
g69
(g90
g71
NtRp1791
(dp1792
g74
(dp1793
g94
g95
ssg83
g1787
sg76
(lp1794
S'get_vars'
p1795
asbag69
(g90
g71
NtRp1796
(dp1797
g74
(dp1798
g101
g102
ssg83
g1787
sg76
(lp1799
S':'
asbag69
(g90
g71
NtRp1800
(dp1801
g74
(dp1802
sg83
g1787
sg76
(lp1803
g69
(g70
g71
NtRp1804
(dp1805
g74
(dp1806
g82
I5
ssg83
g1800
sg76
(lp1807
g69
(g78
g71
NtRp1808
(dp1809
g74
(dp1810
g82
I4
ssg83
Nsg76
(lp1811
g69
(g85
g71
NtRp1812
(dp1813
g74
(dp1814
sg83
g1808
sg76
(lp1815
g69
(g90
g71
NtRp1816
(dp1817
g74
(dp1818
g94
g95
ssg83
g1812
sg76
(lp1819
S'a'
asbag69
(g90
g71
NtRp1820
(dp1821
g74
(dp1822
g101
g102
ssg83
g1812
sg76
(lp1823
S':'
asbag69
(g90
g71
NtRp1824
(dp1825
g74
(dp1826
sg83
g1812
sg76
(lp1827
g69
(g70
g71
NtRp1828
(dp1829
g74
(dp1830
g82
I4
ssg83
g1824
sg76
(lp1831
S'2013'
p1832
asbasbasbag69
(g85
g71
NtRp1833
(dp1834
g74
(dp1835
sg83
g1808
sg76
(lp1836
g69
(g90
g71
NtRp1837
(dp1838
g74
(dp1839
g94
g95
ssg83
g1833
sg76
(lp1840
S'm'
asbag69
(g90
g71
NtRp1841
(dp1842
g74
(dp1843
g101
g102
ssg83
g1833
sg76
(lp1844
S':'
asbag69
(g90
g71
NtRp1845
(dp1846
g74
(dp1847
sg83
g1833
sg76
(lp1848
g69
(g70
g71
NtRp1849
(dp1850
g74
(dp1851
g82
I4
ssg83
g1845
sg76
(lp1852
S'01'
p1853
asbasbasbasbasbasbasbag69
(g85
g71
NtRp1854
(dp1855
g74
(dp1856
sg83
g79
sg76
(lp1857
g69
(g90
g71
NtRp1858
(dp1859
g74
(dp1860
g94
g95
ssg83
g1854
sg76
(lp1861
S'global_settings'
p1862
asbag69
(g90
g71
NtRp1863
(dp1864
g74
(dp1865
g101
g102
ssg83
g1854
sg76
(lp1866
S':'
asbag69
(g90
g71
NtRp1867
(dp1868
g74
(dp1869
sg83
g1854
sg76
(lp1870
g69
(g70
g71
NtRp1871
(dp1872
g74
(dp1873
g82
I5
ssg83
g1867
sg76
(lp1874
g69
(g78
g71
NtRp1875
(dp1876
g74
(dp1877
g82
I4
ssg83
Nsg76
(lp1878
g69
(g85
g71
NtRp1879
(dp1880
g74
(dp1881
sg83
g1875
sg76
(lp1882
g69
(g90
g71
NtRp1883
(dp1884
g74
(dp1885
g94
g95
ssg83
g1879
sg76
(lp1886
g685
asbag69
(g90
g71
NtRp1887
(dp1888
g74
(dp1889
g101
g102
ssg83
g1879
sg76
(lp1890
S':'
asbag69
(g90
g71
NtRp1891
(dp1892
g74
(dp1893
sg83
g1879
sg76
(lp1894
g69
(g70
g71
NtRp1895
(dp1896
g74
(dp1897
g82
I4
ssg83
g1891
sg76
(lp1898
S"set(['/var/www/gravacao/applications/projeto/', '/var/www/gravacao/applications/admin/'])"
p1899
asbasbasbag69
(g85
g71
NtRp1900
(dp1901
g74
(dp1902
sg83
g1875
sg76
(lp1903
g69
(g90
g71
NtRp1904
(dp1905
g74
(dp1906
g94
g95
ssg83
g1900
sg76
(lp1907
g707
asbag69
(g90
g71
NtRp1908
(dp1909
g74
(dp1910
g101
g102
ssg83
g1900
sg76
(lp1911
S':'
asbag69
(g90
g71
NtRp1912
(dp1913
g74
(dp1914
sg83
g1900
sg76
(lp1915
g69
(g70
g71
NtRp1916
(dp1917
g74
(dp1918
g82
I4
ssg83
g1912
sg76
(lp1919
g720
asbasbasbag69
(g85
g71
NtRp1920
(dp1921
g74
(dp1922
sg83
g1875
sg76
(lp1923
g69
(g90
g71
NtRp1924
(dp1925
g74
(dp1926
g94
g95
ssg83
g1920
sg76
(lp1927
g729
asbag69
(g90
g71
NtRp1928
(dp1929
g74
(dp1930
g101
g102
ssg83
g1920
sg76
(lp1931
S':'
asbag69
(g90
g71
NtRp1932
(dp1933
g74
(dp1934
sg83
g1920
sg76
(lp1935
g69
(g70
g71
NtRp1936
(dp1937
g74
(dp1938
g82
I4
ssg83
g1932
sg76
(lp1939
g69
(g78
g71
NtRp1940
(dp1941
g74
(dp1942
g82
I3
ssg83
Nsg76
(lp1943
sbasbasbasbag69
(g85
g71
NtRp1944
(dp1945
g74
(dp1946
sg83
g1875
sg76
(lp1947
g69
(g90
g71
NtRp1948
(dp1949
g74
(dp1950
g94
g95
ssg83
g1944
sg76
(lp1951
g754
asbag69
(g90
g71
NtRp1952
(dp1953
g74
(dp1954
g101
g102
ssg83
g1944
sg76
(lp1955
S':'
asbag69
(g90
g71
NtRp1956
(dp1957
g74
(dp1958
sg83
g1944
sg76
(lp1959
g69
(g70
g71
NtRp1960
(dp1961
g74
(dp1962
g82
I4
ssg83
g1956
sg76
(lp1963
S"<Values at 0x2d002d8: {'verbose': False, 'ip': '127.0.0.1', 'with_scheduler': False, 'ips': [], 'shutdown_timeout': 5, 'taskbar': False, 'port': 8000, 'maxthreads': None, 'softcron': False, 'server_name': 'fernando-workstation', 'bpython': False, 'nogui': False, 'pid_filename': 'httpserver.pid', 'extcron': False, 'runcron': False, 'run_system_tests': False, 'test': None, 'folder': '/var/www/gravacao', 'config': '', 'minthreads': None, 'winservice': '', 'shell': None, 'run': '', 'log_filename': 'httpserver.log', 'debuglevel': 30, 'args': [''], 'socket_timeout': 5, 'ssl_ca_certificate': None, 'scheduler': None, 'profiler_filename': None, 'ssl_private_key': '', 'scheduler_groups': None, 'password': '123456', 'request_queue_size': 5, 'ssl_certificate': '', 'cronjob': False, 'numthreads': None, 'quiet': False, 'interfaces': None, 'import_models': False, 'timeout': 10, 'plain': False, 'nobanner': False}>"
p1964
asbasbasbag69
(g85
g71
NtRp1965
(dp1966
g74
(dp1967
sg83
g1875
sg76
(lp1968
g69
(g90
g71
NtRp1969
(dp1970
g74
(dp1971
g94
g95
ssg83
g1965
sg76
(lp1972
g776
asbag69
(g90
g71
NtRp1973
(dp1974
g74
(dp1975
g101
g102
ssg83
g1965
sg76
(lp1976
S':'
asbag69
(g90
g71
NtRp1977
(dp1978
g74
(dp1979
sg83
g1965
sg76
(lp1980
g69
(g70
g71
NtRp1981
(dp1982
g74
(dp1983
g82
I4
ssg83
g1977
sg76
(lp1984
S'set([])'
p1985
asbasbasbag69
(g85
g71
NtRp1986
(dp1987
g74
(dp1988
sg83
g1875
sg76
(lp1989
g69
(g90
g71
NtRp1990
(dp1991
g74
(dp1992
g94
g95
ssg83
g1986
sg76
(lp1993
g798
asbag69
(g90
g71
NtRp1994
(dp1995
g74
(dp1996
g101
g102
ssg83
g1986
sg76
(lp1997
S':'
asbag69
(g90
g71
NtRp1998
(dp1999
g74
(dp2000
sg83
g1986
sg76
(lp2001
g69
(g70
g71
NtRp2002
(dp2003
g74
(dp2004
g82
I4
ssg83
g1998
sg76
(lp2005
g112
asbasbasbag69
(g85
g71
NtRp2006
(dp2007
g74
(dp2008
sg83
g1875
sg76
(lp2009
g69
(g90
g71
NtRp2010
(dp2011
g74
(dp2012
g94
g95
ssg83
g2006
sg76
(lp2013
g819
asbag69
(g90
g71
NtRp2014
(dp2015
g74
(dp2016
g101
g102
ssg83
g2006
sg76
(lp2017
S':'
asbag69
(g90
g71
NtRp2018
(dp2019
g74
(dp2020
sg83
g2006
sg76
(lp2021
g69
(g70
g71
NtRp2022
(dp2023
g74
(dp2024
g82
I4
ssg83
g2018
sg76
(lp2025
g832
asbasbasbag69
(g85
g71
NtRp2026
(dp2027
g74
(dp2028
sg83
g1875
sg76
(lp2029
g69
(g90
g71
NtRp2030
(dp2031
g74
(dp2032
g94
g95
ssg83
g2026
sg76
(lp2033
g1039
asbag69
(g90
g71
NtRp2034
(dp2035
g74
(dp2036
g101
g102
ssg83
g2026
sg76
(lp2037
S':'
asbag69
(g90
g71
NtRp2038
(dp2039
g74
(dp2040
sg83
g2026
sg76
(lp2041
g69
(g70
g71
NtRp2042
(dp2043
g74
(dp2044
g82
I4
ssg83
g2038
sg76
(lp2045
g112
asbasbasbag69
(g85
g71
NtRp2046
(dp2047
g74
(dp2048
sg83
g1875
sg76
(lp2049
g69
(g90
g71
NtRp2050
(dp2051
g74
(dp2052
g94
g95
ssg83
g2046
sg76
(lp2053
g1060
asbag69
(g90
g71
NtRp2054
(dp2055
g74
(dp2056
g101
g102
ssg83
g2046
sg76
(lp2057
S':'
asbag69
(g90
g71
NtRp2058
(dp2059
g74
(dp2060
sg83
g2046
sg76
(lp2061
g69
(g70
g71
NtRp2062
(dp2063
g74
(dp2064
g82
I4
ssg83
g2058
sg76
(lp2065
g112
asbasbasbag69
(g85
g71
NtRp2066
(dp2067
g74
(dp2068
sg83
g1875
sg76
(lp2069
g69
(g90
g71
NtRp2070
(dp2071
g74
(dp2072
g94
g95
ssg83
g2066
sg76
(lp2073
g1081
asbag69
(g90
g71
NtRp2074
(dp2075
g74
(dp2076
g101
g102
ssg83
g2066
sg76
(lp2077
S':'
asbag69
(g90
g71
NtRp2078
(dp2079
g74
(dp2080
sg83
g2066
sg76
(lp2081
g69
(g70
g71
NtRp2082
(dp2083
g74
(dp2084
g82
I4
ssg83
g2078
sg76
(lp2085
g69
(g78
g71
NtRp2086
(dp2087
g74
(dp2088
g82
I3
ssg83
Nsg76
(lp2089
g69
(g85
g71
NtRp2090
(dp2091
g74
(dp2092
sg83
g2086
sg76
(lp2093
g69
(g90
g71
NtRp2094
(dp2095
g74
(dp2096
sg83
g2090
sg76
(lp2097
g69
(g70
g71
NtRp2098
(dp2099
g74
(dp2100
g82
I3
ssg83
g2094
sg76
(lp2101
g1110
asbasbasbag69
(g85
g71
NtRp2102
(dp2103
g74
(dp2104
sg83
g2086
sg76
(lp2105
g69
(g90
g71
NtRp2106
(dp2107
g74
(dp2108
sg83
g2102
sg76
(lp2109
g69
(g70
g71
NtRp2110
(dp2111
g74
(dp2112
g82
I3
ssg83
g2106
sg76
(lp2113
g1123
asbasbasbag69
(g85
g71
NtRp2114
(dp2115
g74
(dp2116
sg83
g2086
sg76
(lp2117
g69
(g90
g71
NtRp2118
(dp2119
g74
(dp2120
sg83
g2114
sg76
(lp2121
g69
(g70
g71
NtRp2122
(dp2123
g74
(dp2124
g82
I3
ssg83
g2118
sg76
(lp2125
g1136
asbasbasbag69
(g85
g71
NtRp2126
(dp2127
g74
(dp2128
sg83
g2086
sg76
(lp2129
g69
(g90
g71
NtRp2130
(dp2131
g74
(dp2132
sg83
g2126
sg76
(lp2133
g69
(g70
g71
NtRp2134
(dp2135
g74
(dp2136
g82
I3
ssg83
g2130
sg76
(lp2137
g1149
asbasbasbasbasbasbasbag69
(g85
g71
NtRp2138
(dp2139
g74
(dp2140
sg83
g1875
sg76
(lp2141
g69
(g90
g71
NtRp2142
(dp2143
g74
(dp2144
g94
g95
ssg83
g2138
sg76
(lp2145
g1441
asbag69
(g90
g71
NtRp2146
(dp2147
g74
(dp2148
g101
g102
ssg83
g2138
sg76
(lp2149
S':'
asbag69
(g90
g71
NtRp2150
(dp2151
g74
(dp2152
sg83
g2138
sg76
(lp2153
g69
(g70
g71
NtRp2154
(dp2155
g74
(dp2156
g82
I4
ssg83
g2150
sg76
(lp2157
g69
(g78
g71
NtRp2158
(dp2159
g74
(dp2160
g82
I3
ssg83
Nsg76
(lp2161
g69
(g85
g71
NtRp2162
(dp2163
g74
(dp2164
sg83
g2158
sg76
(lp2165
g69
(g90
g71
NtRp2166
(dp2167
g74
(dp2168
sg83
g2162
sg76
(lp2169
g69
(g70
g71
NtRp2170
(dp2171
g74
(dp2172
g82
I3
ssg83
g2166
sg76
(lp2173
S'2'
asbasbasbag69
(g85
g71
NtRp2174
(dp2175
g74
(dp2176
sg83
g2158
sg76
(lp2177
g69
(g90
g71
NtRp2178
(dp2179
g74
(dp2180
sg83
g2174
sg76
(lp2181
g69
(g70
g71
NtRp2182
(dp2183
g74
(dp2184
g82
I3
ssg83
g2178
sg76
(lp2185
S'3'
asbasbasbag69
(g85
g71
NtRp2186
(dp2187
g74
(dp2188
sg83
g2158
sg76
(lp2189
g69
(g90
g71
NtRp2190
(dp2191
g74
(dp2192
sg83
g2186
sg76
(lp2193
g69
(g70
g71
NtRp2194
(dp2195
g74
(dp2196
g82
I3
ssg83
g2190
sg76
(lp2197
S'2'
asbasbasbag69
(g85
g71
NtRp2198
(dp2199
g74
(dp2200
sg83
g2158
sg76
(lp2201
g69
(g90
g71
NtRp2202
(dp2203
g74
(dp2204
sg83
g2198
sg76
(lp2205
g69
(g70
g71
NtRp2206
(dp2207
g74
(dp2208
g82
I3
ssg83
g2202
sg76
(lp2209
S'datetime.datetime(2012, 12, 17, 15, 3, 30)'
p2210
asbasbasbag69
(g85
g71
NtRp2211
(dp2212
g74
(dp2213
sg83
g2158
sg76
(lp2214
g69
(g90
g71
NtRp2215
(dp2216
g74
(dp2217
sg83
g2211
sg76
(lp2218
g69
(g70
g71
NtRp2219
(dp2220
g74
(dp2221
g82
I3
ssg83
g2215
sg76
(lp2222
g1519
asbasbasbasbasbasbasbasbasbasbasbag69
(g85
g71
NtRp2223
(dp2224
g74
(dp2225
sg83
g79
sg76
(lp2226
g69
(g90
g71
NtRp2227
(dp2228
g74
(dp2229
g94
g95
ssg83
g2223
sg76
(lp2230
S'is_https'
p2231
asbag69
(g90
g71
NtRp2232
(dp2233
g74
(dp2234
g101
g102
ssg83
g2223
sg76
(lp2235
S':'
asbag69
(g90
g71
NtRp2236
(dp2237
g74
(dp2238
sg83
g2223
sg76
(lp2239
g69
(g70
g71
NtRp2240
(dp2241
g74
(dp2242
g82
I5
ssg83
g2236
sg76
(lp2243
g112
asbasbasbag69
(g85
g71
NtRp2244
(dp2245
g74
(dp2246
sg83
g79
sg76
(lp2247
g69
(g90
g71
NtRp2248
(dp2249
g74
(dp2250
g94
g95
ssg83
g2244
sg76
(lp2251
S'is_local'
p2252
asbag69
(g90
g71
NtRp2253
(dp2254
g74
(dp2255
g101
g102
ssg83
g2244
sg76
(lp2256
S':'
asbag69
(g90
g71
NtRp2257
(dp2258
g74
(dp2259
sg83
g2244
sg76
(lp2260
g69
(g70
g71
NtRp2261
(dp2262
g74
(dp2263
g82
I5
ssg83
g2257
sg76
(lp2264
g1628
asbasbasbag69
(g85
g71
NtRp2265
(dp2266
g74
(dp2267
sg83
g79
sg76
(lp2268
g69
(g90
g71
NtRp2269
(dp2270
g74
(dp2271
g94
g95
ssg83
g2265
sg76
(lp2272
S'is_restful'
p2273
asbag69
(g90
g71
NtRp2274
(dp2275
g74
(dp2276
g101
g102
ssg83
g2265
sg76
(lp2277
S':'
asbag69
(g90
g71
NtRp2278
(dp2279
g74
(dp2280
sg83
g2265
sg76
(lp2281
g69
(g70
g71
NtRp2282
(dp2283
g74
(dp2284
g82
I5
ssg83
g2278
sg76
(lp2285
g112
asbasbasbag69
(g85
g71
NtRp2286
(dp2287
g74
(dp2288
sg83
g79
sg76
(lp2289
g69
(g90
g71
NtRp2290
(dp2291
g74
(dp2292
g94
g95
ssg83
g2286
sg76
(lp2293
S'now'
p2294
asbag69
(g90
g71
NtRp2295
(dp2296
g74
(dp2297
g101
g102
ssg83
g2286
sg76
(lp2298
S':'
asbag69
(g90
g71
NtRp2299
(dp2300
g74
(dp2301
sg83
g2286
sg76
(lp2302
g69
(g70
g71
NtRp2303
(dp2304
g74
(dp2305
g82
I5
ssg83
g2299
sg76
(lp2306
S'datetime.datetime(2013, 5, 16, 10, 54, 21, 911497)'
p2307
asbasbasbag69
(g85
g71
NtRp2308
(dp2309
g74
(dp2310
sg83
g79
sg76
(lp2311
g69
(g90
g71
NtRp2312
(dp2313
g74
(dp2314
g94
g95
ssg83
g2308
sg76
(lp2315
S'post_vars'
p2316
asbag69
(g90
g71
NtRp2317
(dp2318
g74
(dp2319
g101
g102
ssg83
g2308
sg76
(lp2320
S':'
asbag69
(g90
g71
NtRp2321
(dp2322
g74
(dp2323
sg83
g2308
sg76
(lp2324
g69
(g70
g71
NtRp2325
(dp2326
g74
(dp2327
g82
I5
ssg83
g2321
sg76
(lp2328
g69
(g78
g71
NtRp2329
(dp2330
g74
(dp2331
g82
I4
ssg83
Nsg76
(lp2332
sbasbasbasbag69
(g85
g71
NtRp2333
(dp2334
g74
(dp2335
sg83
g79
sg76
(lp2336
g69
(g90
g71
NtRp2337
(dp2338
g74
(dp2339
g94
g95
ssg83
g2333
sg76
(lp2340
S'url'
p2341
asbag69
(g90
g71
NtRp2342
(dp2343
g74
(dp2344
g101
g102
ssg83
g2333
sg76
(lp2345
S':'
asbag69
(g90
g71
NtRp2346
(dp2347
g74
(dp2348
sg83
g2333
sg76
(lp2349
g69
(g70
g71
NtRp2350
(dp2351
g74
(dp2352
g82
I5
ssg83
g2346
sg76
(lp2353
g1171
asbasbasbag69
(g85
g71
NtRp2354
(dp2355
g74
(dp2356
sg83
g79
sg76
(lp2357
g69
(g90
g71
NtRp2358
(dp2359
g74
(dp2360
g94
g95
ssg83
g2354
sg76
(lp2361
S'utcnow'
p2362
asbag69
(g90
g71
NtRp2363
(dp2364
g74
(dp2365
g101
g102
ssg83
g2354
sg76
(lp2366
S':'
asbag69
(g90
g71
NtRp2367
(dp2368
g74
(dp2369
sg83
g2354
sg76
(lp2370
g69
(g70
g71
NtRp2371
(dp2372
g74
(dp2373
g82
I5
ssg83
g2367
sg76
(lp2374
S'datetime.datetime(2013, 5, 16, 13, 54, 21, 911556)'
p2375
asbasbasbag69
(g85
g71
NtRp2376
(dp2377
g74
(dp2378
sg83
g79
sg76
(lp2379
g69
(g90
g71
NtRp2380
(dp2381
g74
(dp2382
g94
g95
ssg83
g2376
sg76
(lp2383
S'uuid'
p2384
asbag69
(g90
g71
NtRp2385
(dp2386
g74
(dp2387
g101
g102
ssg83
g2376
sg76
(lp2388
S':'
asbag69
(g90
g71
NtRp2389
(dp2390
g74
(dp2391
sg83
g2376
sg76
(lp2392
g69
(g70
g71
NtRp2393
(dp2394
g74
(dp2395
g82
I5
ssg83
g2389
sg76
(lp2396
S'projeto/127.0.0.1.2013-05-16.10-54-21.cde04d55-75b0-475d-b634-d90d708e8584'
p2397
asbasbasbag69
(g85
g71
NtRp2398
(dp2399
g74
(dp2400
sg83
g79
sg76
(lp2401
g69
(g90
g71
NtRp2402
(dp2403
g74
(dp2404
g94
g95
ssg83
g2398
sg76
(lp2405
S'vars'
p2406
asbag69
(g90
g71
NtRp2407
(dp2408
g74
(dp2409
g101
g102
ssg83
g2398
sg76
(lp2410
S':'
asbag69
(g90
g71
NtRp2411
(dp2412
g74
(dp2413
sg83
g2398
sg76
(lp2414
g69
(g70
g71
NtRp2415
(dp2416
g74
(dp2417
g82
I5
ssg83
g2411
sg76
(lp2418
g69
(g78
g71
NtRp2419
(dp2420
g74
(dp2421
g82
I4
ssg83
Nsg76
(lp2422
g69
(g85
g71
NtRp2423
(dp2424
g74
(dp2425
sg83
g2419
sg76
(lp2426
g69
(g90
g71
NtRp2427
(dp2428
g74
(dp2429
g94
g95
ssg83
g2423
sg76
(lp2430
S'a'
asbag69
(g90
g71
NtRp2431
(dp2432
g74
(dp2433
g101
g102
ssg83
g2423
sg76
(lp2434
S':'
asbag69
(g90
g71
NtRp2435
(dp2436
g74
(dp2437
sg83
g2423
sg76
(lp2438
g69
(g70
g71
NtRp2439
(dp2440
g74
(dp2441
g82
I4
ssg83
g2435
sg76
(lp2442
g1832
asbasbasbag69
(g85
g71
NtRp2443
(dp2444
g74
(dp2445
sg83
g2419
sg76
(lp2446
g69
(g90
g71
NtRp2447
(dp2448
g74
(dp2449
g94
g95
ssg83
g2443
sg76
(lp2450
S'm'
asbag69
(g90
g71
NtRp2451
(dp2452
g74
(dp2453
g101
g102
ssg83
g2443
sg76
(lp2454
S':'
asbag69
(g90
g71
NtRp2455
(dp2456
g74
(dp2457
sg83
g2443
sg76
(lp2458
g69
(g70
g71
NtRp2459
(dp2460
g74
(dp2461
g82
I4
ssg83
g2455
sg76
(lp2462
g1853
asbasbasbasbasbasbasbag69
(g85
g71
NtRp2463
(dp2464
g74
(dp2465
sg83
g79
sg76
(lp2466
g69
(g90
g71
NtRp2467
(dp2468
g74
(dp2469
g94
g95
ssg83
g2463
sg76
(lp2470
S'wsgi'
p2471
asbag69
(g90
g71
NtRp2472
(dp2473
g74
(dp2474
g101
g102
ssg83
g2463
sg76
(lp2475
S':'
asbag69
(g90
g71
NtRp2476
(dp2477
g74
(dp2478
sg83
g2463
sg76
(lp2479
g69
(g70
g71
NtRp2480
(dp2481
g74
(dp2482
g82
I5
ssg83
g2476
sg76
(lp2483
g69
(g78
g71
NtRp2484
(dp2485
g74
(dp2486
g82
I4
ssg83
Nsg76
(lp2487
g69
(g85
g71
NtRp2488
(dp2489
g74
(dp2490
sg83
g2484
sg76
(lp2491
g69
(g90
g71
NtRp2492
(dp2493
g74
(dp2494
g94
g95
ssg83
g2488
sg76
(lp2495
S'environ'
p2496
asbag69
(g90
g71
NtRp2497
(dp2498
g74
(dp2499
g101
g102
ssg83
g2488
sg76
(lp2500
S':'
asbag69
(g90
g71
NtRp2501
(dp2502
g74
(dp2503
sg83
g2488
sg76
(lp2504
g69
(g70
g71
NtRp2505
(dp2506
g74
(dp2507
g82
I4
ssg83
g2501
sg76
(lp2508
g69
(g78
g71
NtRp2509
(dp2510
g74
(dp2511
g82
I3
ssg83
Nsg76
(lp2512
g69
(g85
g71
NtRp2513
(dp2514
g74
(dp2515
sg83
g2509
sg76
(lp2516
g69
(g90
g71
NtRp2517
(dp2518
g74
(dp2519
g94
g95
ssg83
g2513
sg76
(lp2520
S'HTTP_ACCEPT'
p2521
asbag69
(g90
g71
NtRp2522
(dp2523
g74
(dp2524
g101
g102
ssg83
g2513
sg76
(lp2525
S':'
asbag69
(g90
g71
NtRp2526
(dp2527
g74
(dp2528
sg83
g2513
sg76
(lp2529
g69
(g70
g71
NtRp2530
(dp2531
g74
(dp2532
g82
I3
ssg83
g2526
sg76
(lp2533
g854
asbasbasbag69
(g85
g71
NtRp2534
(dp2535
g74
(dp2536
sg83
g2509
sg76
(lp2537
g69
(g90
g71
NtRp2538
(dp2539
g74
(dp2540
g94
g95
ssg83
g2534
sg76
(lp2541
S'HTTP_ACCEPT_CHARSET'
p2542
asbag69
(g90
g71
NtRp2543
(dp2544
g74
(dp2545
g101
g102
ssg83
g2534
sg76
(lp2546
S':'
asbag69
(g90
g71
NtRp2547
(dp2548
g74
(dp2549
sg83
g2534
sg76
(lp2550
g69
(g70
g71
NtRp2551
(dp2552
g74
(dp2553
g82
I3
ssg83
g2547
sg76
(lp2554
g876
asbasbasbag69
(g85
g71
NtRp2555
(dp2556
g74
(dp2557
sg83
g2509
sg76
(lp2558
g69
(g90
g71
NtRp2559
(dp2560
g74
(dp2561
g94
g95
ssg83
g2555
sg76
(lp2562
S'HTTP_ACCEPT_ENCODING'
p2563
asbag69
(g90
g71
NtRp2564
(dp2565
g74
(dp2566
g101
g102
ssg83
g2555
sg76
(lp2567
S':'
asbag69
(g90
g71
NtRp2568
(dp2569
g74
(dp2570
sg83
g2555
sg76
(lp2571
g69
(g70
g71
NtRp2572
(dp2573
g74
(dp2574
g82
I3
ssg83
g2568
sg76
(lp2575
g898
asbasbasbag69
(g85
g71
NtRp2576
(dp2577
g74
(dp2578
sg83
g2509
sg76
(lp2579
g69
(g90
g71
NtRp2580
(dp2581
g74
(dp2582
g94
g95
ssg83
g2576
sg76
(lp2583
S'HTTP_ACCEPT_LANGUAGE'
p2584
asbag69
(g90
g71
NtRp2585
(dp2586
g74
(dp2587
g101
g102
ssg83
g2576
sg76
(lp2588
S':'
asbag69
(g90
g71
NtRp2589
(dp2590
g74
(dp2591
sg83
g2576
sg76
(lp2592
g69
(g70
g71
NtRp2593
(dp2594
g74
(dp2595
g82
I3
ssg83
g2589
sg76
(lp2596
g920
asbasbasbag69
(g85
g71
NtRp2597
(dp2598
g74
(dp2599
sg83
g2509
sg76
(lp2600
g69
(g90
g71
NtRp2601
(dp2602
g74
(dp2603
g94
g95
ssg83
g2597
sg76
(lp2604
S'HTTP_CACHE_CONTROL'
p2605
asbag69
(g90
g71
NtRp2606
(dp2607
g74
(dp2608
g101
g102
ssg83
g2597
sg76
(lp2609
S':'
asbag69
(g90
g71
NtRp2610
(dp2611
g74
(dp2612
sg83
g2597
sg76
(lp2613
g69
(g70
g71
NtRp2614
(dp2615
g74
(dp2616
g82
I3
ssg83
g2610
sg76
(lp2617
g942
asbasbasbag69
(g85
g71
NtRp2618
(dp2619
g74
(dp2620
sg83
g2509
sg76
(lp2621
g69
(g90
g71
NtRp2622
(dp2623
g74
(dp2624
g94
g95
ssg83
g2618
sg76
(lp2625
S'HTTP_CONNECTION'
p2626
asbag69
(g90
g71
NtRp2627
(dp2628
g74
(dp2629
g101
g102
ssg83
g2618
sg76
(lp2630
S':'
asbag69
(g90
g71
NtRp2631
(dp2632
g74
(dp2633
sg83
g2618
sg76
(lp2634
g69
(g70
g71
NtRp2635
(dp2636
g74
(dp2637
g82
I3
ssg83
g2631
sg76
(lp2638
g964
asbasbasbag69
(g85
g71
NtRp2639
(dp2640
g74
(dp2641
sg83
g2509
sg76
(lp2642
g69
(g90
g71
NtRp2643
(dp2644
g74
(dp2645
g94
g95
ssg83
g2639
sg76
(lp2646
S'HTTP_COOKIE'
p2647
asbag69
(g90
g71
NtRp2648
(dp2649
g74
(dp2650
g101
g102
ssg83
g2639
sg76
(lp2651
S':'
asbag69
(g90
g71
NtRp2652
(dp2653
g74
(dp2654
sg83
g2639
sg76
(lp2655
g69
(g70
g71
NtRp2656
(dp2657
g74
(dp2658
g82
I3
ssg83
g2652
sg76
(lp2659
g986
asbasbasbag69
(g85
g71
NtRp2660
(dp2661
g74
(dp2662
sg83
g2509
sg76
(lp2663
g69
(g90
g71
NtRp2664
(dp2665
g74
(dp2666
g94
g95
ssg83
g2660
sg76
(lp2667
S'HTTP_HOST'
p2668
asbag69
(g90
g71
NtRp2669
(dp2670
g74
(dp2671
g101
g102
ssg83
g2660
sg76
(lp2672
S':'
asbag69
(g90
g71
NtRp2673
(dp2674
g74
(dp2675
sg83
g2660
sg76
(lp2676
g69
(g70
g71
NtRp2677
(dp2678
g74
(dp2679
g82
I3
ssg83
g2673
sg76
(lp2680
g1008
asbasbasbag69
(g85
g71
NtRp2681
(dp2682
g74
(dp2683
sg83
g2509
sg76
(lp2684
g69
(g90
g71
NtRp2685
(dp2686
g74
(dp2687
g94
g95
ssg83
g2681
sg76
(lp2688
S'HTTP_USER_AGENT'
p2689
asbag69
(g90
g71
NtRp2690
(dp2691
g74
(dp2692
g101
g102
ssg83
g2681
sg76
(lp2693
S':'
asbag69
(g90
g71
NtRp2694
(dp2695
g74
(dp2696
sg83
g2681
sg76
(lp2697
g69
(g70
g71
NtRp2698
(dp2699
g74
(dp2700
g82
I3
ssg83
g2694
sg76
(lp2701
g1030
asbasbasbag69
(g85
g71
NtRp2702
(dp2703
g74
(dp2704
sg83
g2509
sg76
(lp2705
g69
(g90
g71
NtRp2706
(dp2707
g74
(dp2708
g94
g95
ssg83
g2702
sg76
(lp2709
S'PATH_INFO'
p2710
asbag69
(g90
g71
NtRp2711
(dp2712
g74
(dp2713
g101
g102
ssg83
g2702
sg76
(lp2714
S':'
asbag69
(g90
g71
NtRp2715
(dp2716
g74
(dp2717
sg83
g2702
sg76
(lp2718
g69
(g70
g71
NtRp2719
(dp2720
g74
(dp2721
g82
I3
ssg83
g2715
sg76
(lp2722
g1171
asbasbasbag69
(g85
g71
NtRp2723
(dp2724
g74
(dp2725
sg83
g2509
sg76
(lp2726
g69
(g90
g71
NtRp2727
(dp2728
g74
(dp2729
g94
g95
ssg83
g2723
sg76
(lp2730
S'QUERY_STRING'
p2731
asbag69
(g90
g71
NtRp2732
(dp2733
g74
(dp2734
g101
g102
ssg83
g2723
sg76
(lp2735
S':'
asbag69
(g90
g71
NtRp2736
(dp2737
g74
(dp2738
sg83
g2723
sg76
(lp2739
g69
(g70
g71
NtRp2740
(dp2741
g74
(dp2742
g82
I3
ssg83
g2736
sg76
(lp2743
g1193
asbasbasbag69
(g85
g71
NtRp2744
(dp2745
g74
(dp2746
sg83
g2509
sg76
(lp2747
g69
(g90
g71
NtRp2748
(dp2749
g74
(dp2750
g94
g95
ssg83
g2744
sg76
(lp2751
S'REMOTE_ADDR'
p2752
asbag69
(g90
g71
NtRp2753
(dp2754
g74
(dp2755
g101
g102
ssg83
g2744
sg76
(lp2756
S':'
asbag69
(g90
g71
NtRp2757
(dp2758
g74
(dp2759
sg83
g2744
sg76
(lp2760
g69
(g70
g71
NtRp2761
(dp2762
g74
(dp2763
g82
I3
ssg83
g2757
sg76
(lp2764
g224
asbasbasbag69
(g85
g71
NtRp2765
(dp2766
g74
(dp2767
sg83
g2509
sg76
(lp2768
g69
(g90
g71
NtRp2769
(dp2770
g74
(dp2771
g94
g95
ssg83
g2765
sg76
(lp2772
S'REMOTE_PORT'
p2773
asbag69
(g90
g71
NtRp2774
(dp2775
g74
(dp2776
g101
g102
ssg83
g2765
sg76
(lp2777
S':'
asbag69
(g90
g71
NtRp2778
(dp2779
g74
(dp2780
sg83
g2765
sg76
(lp2781
g69
(g70
g71
NtRp2782
(dp2783
g74
(dp2784
g82
I3
ssg83
g2778
sg76
(lp2785
g1236
asbasbasbag69
(g85
g71
NtRp2786
(dp2787
g74
(dp2788
sg83
g2509
sg76
(lp2789
g69
(g90
g71
NtRp2790
(dp2791
g74
(dp2792
g94
g95
ssg83
g2786
sg76
(lp2793
S'REQUEST_METHOD'
p2794
asbag69
(g90
g71
NtRp2795
(dp2796
g74
(dp2797
g101
g102
ssg83
g2786
sg76
(lp2798
S':'
asbag69
(g90
g71
NtRp2799
(dp2800
g74
(dp2801
sg83
g2786
sg76
(lp2802
g69
(g70
g71
NtRp2803
(dp2804
g74
(dp2805
g82
I3
ssg83
g2799
sg76
(lp2806
g1258
asbasbasbag69
(g85
g71
NtRp2807
(dp2808
g74
(dp2809
sg83
g2509
sg76
(lp2810
g69
(g90
g71
NtRp2811
(dp2812
g74
(dp2813
g94
g95
ssg83
g2807
sg76
(lp2814
S'REQUEST_URI'
p2815
asbag69
(g90
g71
NtRp2816
(dp2817
g74
(dp2818
g101
g102
ssg83
g2807
sg76
(lp2819
S':'
asbag69
(g90
g71
NtRp2820
(dp2821
g74
(dp2822
sg83
g2807
sg76
(lp2823
g69
(g70
g71
NtRp2824
(dp2825
g74
(dp2826
g82
I3
ssg83
g2820
sg76
(lp2827
g1280
asbasbasbag69
(g85
g71
NtRp2828
(dp2829
g74
(dp2830
sg83
g2509
sg76
(lp2831
g69
(g90
g71
NtRp2832
(dp2833
g74
(dp2834
g94
g95
ssg83
g2828
sg76
(lp2835
S'SCRIPT_NAME'
p2836
asbag69
(g90
g71
NtRp2837
(dp2838
g74
(dp2839
g101
g102
ssg83
g2828
sg76
(lp2840
S':'
asbag69
(g90
g71
NtRp2841
(dp2842
g74
(dp2843
sg83
g2828
sg76
(lp2844
g69
(g70
g71
NtRp2845
(dp2846
g74
(dp2847
g82
I3
ssg83
g2841
sg76
(lp2848
S''
asbasbasbag69
(g85
g71
NtRp2849
(dp2850
g74
(dp2851
sg83
g2509
sg76
(lp2852
g69
(g90
g71
NtRp2853
(dp2854
g74
(dp2855
g94
g95
ssg83
g2849
sg76
(lp2856
S'SERVER_NAME'
p2857
asbag69
(g90
g71
NtRp2858
(dp2859
g74
(dp2860
g101
g102
ssg83
g2849
sg76
(lp2861
S':'
asbag69
(g90
g71
NtRp2862
(dp2863
g74
(dp2864
sg83
g2849
sg76
(lp2865
g69
(g70
g71
NtRp2866
(dp2867
g74
(dp2868
g82
I3
ssg83
g2862
sg76
(lp2869
g1323
asbasbasbag69
(g85
g71
NtRp2870
(dp2871
g74
(dp2872
sg83
g2509
sg76
(lp2873
g69
(g90
g71
NtRp2874
(dp2875
g74
(dp2876
g94
g95
ssg83
g2870
sg76
(lp2877
S'SERVER_PORT'
p2878
asbag69
(g90
g71
NtRp2879
(dp2880
g74
(dp2881
g101
g102
ssg83
g2870
sg76
(lp2882
S':'
asbag69
(g90
g71
NtRp2883
(dp2884
g74
(dp2885
sg83
g2870
sg76
(lp2886
g69
(g70
g71
NtRp2887
(dp2888
g74
(dp2889
g82
I3
ssg83
g2883
sg76
(lp2890
g1345
asbasbasbag69
(g85
g71
NtRp2891
(dp2892
g74
(dp2893
sg83
g2509
sg76
(lp2894
g69
(g90
g71
NtRp2895
(dp2896
g74
(dp2897
g94
g95
ssg83
g2891
sg76
(lp2898
S'SERVER_PROTOCOL'
p2899
asbag69
(g90
g71
NtRp2900
(dp2901
g74
(dp2902
g101
g102
ssg83
g2891
sg76
(lp2903
S':'
asbag69
(g90
g71
NtRp2904
(dp2905
g74
(dp2906
sg83
g2891
sg76
(lp2907
g69
(g70
g71
NtRp2908
(dp2909
g74
(dp2910
g82
I3
ssg83
g2904
sg76
(lp2911
g1367
asbasbasbag69
(g85
g71
NtRp2912
(dp2913
g74
(dp2914
sg83
g2509
sg76
(lp2915
g69
(g90
g71
NtRp2916
(dp2917
g74
(dp2918
g94
g95
ssg83
g2912
sg76
(lp2919
S'SERVER_SOFTWARE'
p2920
asbag69
(g90
g71
NtRp2921
(dp2922
g74
(dp2923
g101
g102
ssg83
g2912
sg76
(lp2924
S':'
asbag69
(g90
g71
NtRp2925
(dp2926
g74
(dp2927
sg83
g2912
sg76
(lp2928
g69
(g70
g71
NtRp2929
(dp2930
g74
(dp2931
g82
I3
ssg83
g2925
sg76
(lp2932
g1389
asbasbasbag69
(g85
g71
NtRp2933
(dp2934
g74
(dp2935
sg83
g2509
sg76
(lp2936
g69
(g90
g71
NtRp2937
(dp2938
g74
(dp2939
g94
g95
ssg83
g2933
sg76
(lp2940
S'WEB2PY_ORIGINAL_URI'
p2941
asbag69
(g90
g71
NtRp2942
(dp2943
g74
(dp2944
g101
g102
ssg83
g2933
sg76
(lp2945
S':'
asbag69
(g90
g71
NtRp2946
(dp2947
g74
(dp2948
sg83
g2933
sg76
(lp2949
g69
(g70
g71
NtRp2950
(dp2951
g74
(dp2952
g82
I3
ssg83
g2946
sg76
(lp2953
g1411
asbasbasbag69
(g85
g71
NtRp2954
(dp2955
g74
(dp2956
sg83
g2509
sg76
(lp2957
g69
(g90
g71
NtRp2958
(dp2959
g74
(dp2960
g94
g95
ssg83
g2954
sg76
(lp2961
S'wsgi.errors'
p2962
asbag69
(g90
g71
NtRp2963
(dp2964
g74
(dp2965
g101
g102
ssg83
g2954
sg76
(lp2966
S':'
asbag69
(g90
g71
NtRp2967
(dp2968
g74
(dp2969
sg83
g2954
sg76
(lp2970
g69
(g70
g71
NtRp2971
(dp2972
g74
(dp2973
g82
I3
ssg83
g2967
sg76
(lp2974
S"<open file '<stderr>', mode 'w' at 0x7f457ce4e270>"
p2975
asbasbasbag69
(g85
g71
NtRp2976
(dp2977
g74
(dp2978
sg83
g2509
sg76
(lp2979
g69
(g90
g71
NtRp2980
(dp2981
g74
(dp2982
g94
g95
ssg83
g2976
sg76
(lp2983
S'wsgi.file_wrapper'
p2984
asbag69
(g90
g71
NtRp2985
(dp2986
g74
(dp2987
g101
g102
ssg83
g2976
sg76
(lp2988
S':'
asbag69
(g90
g71
NtRp2989
(dp2990
g74
(dp2991
sg83
g2976
sg76
(lp2992
g69
(g70
g71
NtRp2993
(dp2994
g74
(dp2995
g82
I3
ssg83
g2989
sg76
(lp2996
S'<class wsgiref.util.FileWrapper at 0x2c864c8>'
p2997
asbasbasbag69
(g85
g71
NtRp2998
(dp2999
g74
(dp3000
sg83
g2509
sg76
(lp3001
g69
(g90
g71
NtRp3002
(dp3003
g74
(dp3004
g94
g95
ssg83
g2998
sg76
(lp3005
S'wsgi.input'
p3006
asbag69
(g90
g71
NtRp3007
(dp3008
g74
(dp3009
g101
g102
ssg83
g2998
sg76
(lp3010
S':'
asbag69
(g90
g71
NtRp3011
(dp3012
g74
(dp3013
sg83
g2998
sg76
(lp3014
g69
(g70
g71
NtRp3015
(dp3016
g74
(dp3017
g82
I3
ssg83
g3011
sg76
(lp3018
S'<cStringIO.StringO object at 0x7f4550111ab0>'
p3019
asbasbasbag69
(g85
g71
NtRp3020
(dp3021
g74
(dp3022
sg83
g2509
sg76
(lp3023
g69
(g90
g71
NtRp3024
(dp3025
g74
(dp3026
g94
g95
ssg83
g3020
sg76
(lp3027
S'wsgi.multiprocess'
p3028
asbag69
(g90
g71
NtRp3029
(dp3030
g74
(dp3031
g101
g102
ssg83
g3020
sg76
(lp3032
S':'
asbag69
(g90
g71
NtRp3033
(dp3034
g74
(dp3035
sg83
g3020
sg76
(lp3036
g69
(g70
g71
NtRp3037
(dp3038
g74
(dp3039
g82
I3
ssg83
g3033
sg76
(lp3040
g112
asbasbasbag69
(g85
g71
NtRp3041
(dp3042
g74
(dp3043
sg83
g2509
sg76
(lp3044
g69
(g90
g71
NtRp3045
(dp3046
g74
(dp3047
g94
g95
ssg83
g3041
sg76
(lp3048
S'wsgi.multithread'
p3049
asbag69
(g90
g71
NtRp3050
(dp3051
g74
(dp3052
g101
g102
ssg83
g3041
sg76
(lp3053
S':'
asbag69
(g90
g71
NtRp3054
(dp3055
g74
(dp3056
sg83
g3041
sg76
(lp3057
g69
(g70
g71
NtRp3058
(dp3059
g74
(dp3060
g82
I3
ssg83
g3054
sg76
(lp3061
g1628
asbasbasbag69
(g85
g71
NtRp3062
(dp3063
g74
(dp3064
sg83
g2509
sg76
(lp3065
g69
(g90
g71
NtRp3066
(dp3067
g74
(dp3068
g94
g95
ssg83
g3062
sg76
(lp3069
S'wsgi.run_once'
p3070
asbag69
(g90
g71
NtRp3071
(dp3072
g74
(dp3073
g101
g102
ssg83
g3062
sg76
(lp3074
S':'
asbag69
(g90
g71
NtRp3075
(dp3076
g74
(dp3077
sg83
g3062
sg76
(lp3078
g69
(g70
g71
NtRp3079
(dp3080
g74
(dp3081
g82
I3
ssg83
g3075
sg76
(lp3082
g112
asbasbasbag69
(g85
g71
NtRp3083
(dp3084
g74
(dp3085
sg83
g2509
sg76
(lp3086
g69
(g90
g71
NtRp3087
(dp3088
g74
(dp3089
g94
g95
ssg83
g3083
sg76
(lp3090
S'wsgi.url_scheme'
p3091
asbag69
(g90
g71
NtRp3092
(dp3093
g74
(dp3094
g101
g102
ssg83
g3083
sg76
(lp3095
S':'
asbag69
(g90
g71
NtRp3096
(dp3097
g74
(dp3098
sg83
g3083
sg76
(lp3099
g69
(g70
g71
NtRp3100
(dp3101
g74
(dp3102
g82
I3
ssg83
g3096
sg76
(lp3103
g1671
asbasbasbag69
(g85
g71
NtRp3104
(dp3105
g74
(dp3106
sg83
g2509
sg76
(lp3107
g69
(g90
g71
NtRp3108
(dp3109
g74
(dp3110
g94
g95
ssg83
g3104
sg76
(lp3111
S'wsgi.version'
p3112
asbag69
(g90
g71
NtRp3113
(dp3114
g74
(dp3115
g101
g102
ssg83
g3104
sg76
(lp3116
S':'
asbag69
(g90
g71
NtRp3117
(dp3118
g74
(dp3119
sg83
g3104
sg76
(lp3120
g69
(g70
g71
NtRp3121
(dp3122
g74
(dp3123
g82
I3
ssg83
g3117
sg76
(lp3124
S'1'
asbasbasbasbasbasbasbasbasbasbasbasbasbsS'frames'
p3125
(lp3126
(dp3127
S'file'
p3128
S'/var/www/gravacao/gluon/restricted.py'
p3129
sS'dump'
p3130
(dp3131
S'code'
p3132
S"'# coding=UTF-8\\nimport datetime, os, commands\\n\\nde...\\n\\n\\n\\t\\n\\n\\n\\n\\nresponse._vars=response._caller(agenda)\\n'"
p3133
sS'layer'
p3134
S"'/var/www/gravacao/applications/projeto/controllers/initial.py'"
p3135
sS'global compile2'
p3136
S'<function compile2>'
p3137
sS'ccode'
p3138
S'undefined'
p3139
ssS'lnum'
p3140
I211
sS'lines'
p3141
(dp3142
I206
S"    environment['__name__'] = '__restricted__'"
p3143
sI207
S'    try:'
p3144
sI208
S'        if isinstance(code, types.CodeType):'
p3145
sI209
S'            ccode = code'
p3146
sI210
S'        else:'
p3147
sI211
S'            ccode = compile2(code, layer)'
p3148
sI212
S'        exec ccode in environment'
p3149
sI213
S'    except HTTP:'
p3150
sI214
S'        raise'
p3151
sI215
S'    except RestrictedError:'
p3152
ssS'call'
p3153
S"(code='# coding=UTF-8\\nimport datetime, os, commands\\n\\nde...\\n\\n\\n\\t\\n\\n\\n\\n\\nresponse._vars=response._caller(agenda)\\n', environment={'A': <class 'gluon.html.A'>, 'Auth': <class 'gluon.tools.Auth'>, 'B': <class 'gluon.html.B'>, 'BEAUTIFY': <class 'gluon.html.BEAUTIFY'>, 'BODY': <class 'gluon.html.BODY'>, 'BR': <class 'gluon.html.BR'>, 'BUTTON': <class 'gluon.html.BUTTON'>, 'CAT': <class 'gluon.html.CAT'>, 'CENTER': <class 'gluon.html.CENTER'>, 'CLEANUP': <class 'gluon.validators.CLEANUP'>, ...}, layer='/var/www/gravacao/applications/projeto/controllers/initial.py')"
p3154
sS'func'
p3155
S'restricted'
p3156
sa(dp3157
g3128
S'/var/www/gravacao/gluon/restricted.py'
p3158
sg3130
(dp3159
S'builtincompile'
p3160
S'<built-in function compile>'
p3161
sS'code'
p3162
S"'# coding=UTF-8\\nimport datetime, os, commands\\n\\nde...\\n\\n\\n\\t\\n\\n\\n\\n\\nresponse._vars=response._caller(agenda)\\n'"
p3163
sS'code.rstrip'
p3164
S'<built-in method rstrip of str object>'
p3165
sS').replace'
p3166
g3139
sS'layer'
p3167
S"'/var/www/gravacao/applications/projeto/controllers/initial.py'"
p3168
ssg3140
I194
sg3141
(dp3169
I192
S"    The +'\\n' is necessary else compile fails when code ends in a comment."
p3170
sI193
S'    """'
p3171
sI194
S"    return compile(code.rstrip().replace('\\r\\n', '\\n') + '\\n', layer, 'exec')"
p3172
sI195
S''
sI196
S''
sI197
S"def restricted(code, environment=None, layer='Unknown'):"
p3173
sI198
S'    """'
p3174
sI189
S''
sI190
S'def compile2(code, layer):'
p3175
sI191
S'    """'
p3176
ssg3153
S"(code='# coding=UTF-8\\nimport datetime, os, commands\\n\\nde...\\n\\n\\n\\t\\n\\n\\n\\n\\nresponse._vars=response._caller(agenda)\\n', layer='/var/www/gravacao/applications/projeto/controllers/initial.py')"
p3177
sg3155
S'compile2'
p3178
sasS'pyver'
p3179
S'Python 2.7.3: /usr/bin/python'
p3180
sS'session'
p3181
g69
(g70
g71
NtRp3182
(dp3183
g74
(dp3184
sg76
(lp3185
g69
(g78
g71
NtRp3186
(dp3187
g74
(dp3188
g82
I5
ssg83
Nsg76
(lp3189
g69
(g85
g71
NtRp3190
(dp3191
g74
(dp3192
sg83
g3186
sg76
(lp3193
g69
(g90
g71
NtRp3194
(dp3195
g74
(dp3196
g94
g95
ssg83
g3190
sg76
(lp3197
S'aut'
p3198
asbag69
(g90
g71
NtRp3199
(dp3200
g74
(dp3201
g101
g102
ssg83
g3190
sg76
(lp3202
S':'
asbag69
(g90
g71
NtRp3203
(dp3204
g74
(dp3205
sg83
g3190
sg76
(lp3206
g69
(g70
g71
NtRp3207
(dp3208
g74
(dp3209
g82
I5
ssg83
g3203
sg76
(lp3210
S'0'
asbasbasbag69
(g85
g71
NtRp3211
(dp3212
g74
(dp3213
sg83
g3186
sg76
(lp3214
g69
(g90
g71
NtRp3215
(dp3216
g74
(dp3217
g94
g95
ssg83
g3211
sg76
(lp3218
S'flash'
p3219
asbag69
(g90
g71
NtRp3220
(dp3221
g74
(dp3222
g101
g102
ssg83
g3211
sg76
(lp3223
S':'
asbag69
(g90
g71
NtRp3224
(dp3225
g74
(dp3226
sg83
g3211
sg76
(lp3227
g69
(g70
g71
NtRp3228
(dp3229
g74
(dp3230
g82
I5
ssg83
g3224
sg76
(lp3231
S'None'
p3232
asbasbasbag69
(g85
g71
NtRp3233
(dp3234
g74
(dp3235
sg83
g3186
sg76
(lp3236
g69
(g90
g71
NtRp3237
(dp3238
g74
(dp3239
g94
g95
ssg83
g3233
sg76
(lp3240
S'ramal'
p3241
asbag69
(g90
g71
NtRp3242
(dp3243
g74
(dp3244
g101
g102
ssg83
g3233
sg76
(lp3245
S':'
asbag69
(g90
g71
NtRp3246
(dp3247
g74
(dp3248
sg83
g3233
sg76
(lp3249
g69
(g70
g71
NtRp3250
(dp3251
g74
(dp3252
g82
I5
ssg83
g3246
sg76
(lp3253
S'0'
asbasbasbag69
(g85
g71
NtRp3254
(dp3255
g74
(dp3256
sg83
g3186
sg76
(lp3257
g69
(g90
g71
NtRp3258
(dp3259
g74
(dp3260
g94
g95
ssg83
g3254
sg76
(lp3261
S'ramal_fis'
p3262
asbag69
(g90
g71
NtRp3263
(dp3264
g74
(dp3265
g101
g102
ssg83
g3254
sg76
(lp3266
S':'
asbag69
(g90
g71
NtRp3267
(dp3268
g74
(dp3269
sg83
g3254
sg76
(lp3270
g69
(g70
g71
NtRp3271
(dp3272
g74
(dp3273
g82
I5
ssg83
g3267
sg76
(lp3274
S'0'
asbasbasbag69
(g85
g71
NtRp3275
(dp3276
g74
(dp3277
sg83
g3186
sg76
(lp3278
g69
(g90
g71
NtRp3279
(dp3280
g74
(dp3281
g94
g95
ssg83
g3275
sg76
(lp3282
S'tecnologia'
p3283
asbag69
(g90
g71
NtRp3284
(dp3285
g74
(dp3286
g101
g102
ssg83
g3275
sg76
(lp3287
S':'
asbag69
(g90
g71
NtRp3288
(dp3289
g74
(dp3290
sg83
g3275
sg76
(lp3291
g69
(g70
g71
NtRp3292
(dp3293
g74
(dp3294
g82
I5
ssg83
g3288
sg76
(lp3295
S'0'
asbasbasbasbasbsS'etype'
p3296
S"<type 'exceptions.SyntaxError'>"
p3297
sS'date'
p3298
S'Thu May 16 10:54:21 2013'
p3299
sS'response'
p3300
g69
(g70
g71
NtRp3301
(dp3302
g74
(dp3303
sg76
(lp3304
g69
(g78
g71
NtRp3305
(dp3306
g74
(dp3307
g82
I5
ssg83
Nsg76
(lp3308
g69
(g85
g71
NtRp3309
(dp3310
g74
(dp3311
sg83
g3305
sg76
(lp3312
g69
(g90
g71
NtRp3313
(dp3314
g74
(dp3315
g94
g95
ssg83
g3309
sg76
(lp3316
g167
asbag69
(g90
g71
NtRp3317
(dp3318
g74
(dp3319
g101
g102
ssg83
g3309
sg76
(lp3320
S':'
asbag69
(g90
g71
NtRp3321
(dp3322
g74
(dp3323
sg83
g3309
sg76
(lp3324
g69
(g70
g71
NtRp3325
(dp3326
g74
(dp3327
g82
I5
ssg83
g3321
sg76
(lp3328
S'<cStringIO.StringO object at 0x7f4550111c70>'
p3329
asbasbasbag69
(g85
g71
NtRp3330
(dp3331
g74
(dp3332
sg83
g3305
sg76
(lp3333
g69
(g90
g71
NtRp3334
(dp3335
g74
(dp3336
g94
g95
ssg83
g3330
sg76
(lp3337
g255
asbag69
(g90
g71
NtRp3338
(dp3339
g74
(dp3340
g101
g102
ssg83
g3330
sg76
(lp3341
S':'
asbag69
(g90
g71
NtRp3342
(dp3343
g74
(dp3344
sg83
g3330
sg76
(lp3345
g69
(g70
g71
NtRp3346
(dp3347
g74
(dp3348
g82
I5
ssg83
g3342
sg76
(lp3349
g69
(g78
g71
NtRp3350
(dp3351
g74
(dp3352
g82
I4
ssg83
Nsg76
(lp3353
g69
(g85
g71
NtRp3354
(dp3355
g74
(dp3356
sg83
g3350
sg76
(lp3357
g69
(g90
g71
NtRp3358
(dp3359
g74
(dp3360
g94
g95
ssg83
g3354
sg76
(lp3361
S'session_id_projeto'
p3362
asbag69
(g90
g71
NtRp3363
(dp3364
g74
(dp3365
g101
g102
ssg83
g3354
sg76
(lp3366
S':'
asbag69
(g90
g71
NtRp3367
(dp3368
g74
(dp3369
sg83
g3354
sg76
(lp3370
g69
(g70
g71
NtRp3371
(dp3372
g74
(dp3373
g82
I4
ssg83
g3367
sg76
(lp3374
g487
ag69
(g78
g71
NtRp3375
(dp3376
g74
(dp3377
g82
I3
ssg83
Nsg76
(lp3378
g69
(g85
g71
NtRp3379
(dp3380
g74
(dp3381
sg83
g3375
sg76
(lp3382
g69
(g90
g71
NtRp3383
(dp3384
g74
(dp3385
g94
g95
ssg83
g3379
sg76
(lp3386
g306
asbag69
(g90
g71
NtRp3387
(dp3388
g74
(dp3389
g101
g102
ssg83
g3379
sg76
(lp3390
S':'
asbag69
(g90
g71
NtRp3391
(dp3392
g74
(dp3393
sg83
g3379
sg76
(lp3394
g69
(g70
g71
NtRp3395
(dp3396
g74
(dp3397
g82
I3
ssg83
g3391
sg76
(lp3398
S''
asbasbasbag69
(g85
g71
NtRp3399
(dp3400
g74
(dp3401
sg83
g3375
sg76
(lp3402
g69
(g90
g71
NtRp3403
(dp3404
g74
(dp3405
g94
g95
ssg83
g3399
sg76
(lp3406
g327
asbag69
(g90
g71
NtRp3407
(dp3408
g74
(dp3409
g101
g102
ssg83
g3399
sg76
(lp3410
S':'
asbag69
(g90
g71
NtRp3411
(dp3412
g74
(dp3413
sg83
g3399
sg76
(lp3414
g69
(g70
g71
NtRp3415
(dp3416
g74
(dp3417
g82
I3
ssg83
g3411
sg76
(lp3418
S''
asbasbasbag69
(g85
g71
NtRp3419
(dp3420
g74
(dp3421
sg83
g3375
sg76
(lp3422
g69
(g90
g71
NtRp3423
(dp3424
g74
(dp3425
g94
g95
ssg83
g3419
sg76
(lp3426
g348
asbag69
(g90
g71
NtRp3427
(dp3428
g74
(dp3429
g101
g102
ssg83
g3419
sg76
(lp3430
S':'
asbag69
(g90
g71
NtRp3431
(dp3432
g74
(dp3433
sg83
g3419
sg76
(lp3434
g69
(g70
g71
NtRp3435
(dp3436
g74
(dp3437
g82
I3
ssg83
g3431
sg76
(lp3438
S''
asbasbasbag69
(g85
g71
NtRp3439
(dp3440
g74
(dp3441
sg83
g3375
sg76
(lp3442
g69
(g90
g71
NtRp3443
(dp3444
g74
(dp3445
g94
g95
ssg83
g3439
sg76
(lp3446
g369
asbag69
(g90
g71
NtRp3447
(dp3448
g74
(dp3449
g101
g102
ssg83
g3439
sg76
(lp3450
S':'
asbag69
(g90
g71
NtRp3451
(dp3452
g74
(dp3453
sg83
g3439
sg76
(lp3454
g69
(g70
g71
NtRp3455
(dp3456
g74
(dp3457
g82
I3
ssg83
g3451
sg76
(lp3458
S''
asbasbasbag69
(g85
g71
NtRp3459
(dp3460
g74
(dp3461
sg83
g3375
sg76
(lp3462
g69
(g90
g71
NtRp3463
(dp3464
g74
(dp3465
g94
g95
ssg83
g3459
sg76
(lp3466
g390
asbag69
(g90
g71
NtRp3467
(dp3468
g74
(dp3469
g101
g102
ssg83
g3459
sg76
(lp3470
S':'
asbag69
(g90
g71
NtRp3471
(dp3472
g74
(dp3473
sg83
g3459
sg76
(lp3474
g69
(g70
g71
NtRp3475
(dp3476
g74
(dp3477
g82
I3
ssg83
g3471
sg76
(lp3478
S''
asbasbasbag69
(g85
g71
NtRp3479
(dp3480
g74
(dp3481
sg83
g3375
sg76
(lp3482
g69
(g90
g71
NtRp3483
(dp3484
g74
(dp3485
g94
g95
ssg83
g3479
sg76
(lp3486
g411
asbag69
(g90
g71
NtRp3487
(dp3488
g74
(dp3489
g101
g102
ssg83
g3479
sg76
(lp3490
S':'
asbag69
(g90
g71
NtRp3491
(dp3492
g74
(dp3493
sg83
g3479
sg76
(lp3494
g69
(g70
g71
NtRp3495
(dp3496
g74
(dp3497
g82
I3
ssg83
g3491
sg76
(lp3498
S'/'
asbasbasbag69
(g85
g71
NtRp3499
(dp3500
g74
(dp3501
sg83
g3375
sg76
(lp3502
g69
(g90
g71
NtRp3503
(dp3504
g74
(dp3505
g94
g95
ssg83
g3499
sg76
(lp3506
g432
asbag69
(g90
g71
NtRp3507
(dp3508
g74
(dp3509
g101
g102
ssg83
g3499
sg76
(lp3510
S':'
asbag69
(g90
g71
NtRp3511
(dp3512
g74
(dp3513
sg83
g3499
sg76
(lp3514
g69
(g70
g71
NtRp3515
(dp3516
g74
(dp3517
g82
I3
ssg83
g3511
sg76
(lp3518
S''
asbasbasbag69
(g85
g71
NtRp3519
(dp3520
g74
(dp3521
sg83
g3375
sg76
(lp3522
g69
(g90
g71
NtRp3523
(dp3524
g74
(dp3525
g94
g95
ssg83
g3519
sg76
(lp3526
g453
asbag69
(g90
g71
NtRp3527
(dp3528
g74
(dp3529
g101
g102
ssg83
g3519
sg76
(lp3530
S':'
asbag69
(g90
g71
NtRp3531
(dp3532
g74
(dp3533
sg83
g3519
sg76
(lp3534
g69
(g70
g71
NtRp3535
(dp3536
g74
(dp3537
g82
I3
ssg83
g3531
sg76
(lp3538
S''
asbasbasbasbasbasbasbasbasbasbasbag69
(g85
g71
NtRp3539
(dp3540
g74
(dp3541
sg83
g3305
sg76
(lp3542
g69
(g90
g71
NtRp3543
(dp3544
g74
(dp3545
g94
g95
ssg83
g3539
sg76
(lp3546
S'delimiters'
p3547
asbag69
(g90
g71
NtRp3548
(dp3549
g74
(dp3550
g101
g102
ssg83
g3539
sg76
(lp3551
S':'
asbag69
(g90
g71
NtRp3552
(dp3553
g74
(dp3554
sg83
g3539
sg76
(lp3555
g69
(g70
g71
NtRp3556
(dp3557
g74
(dp3558
g82
I5
ssg83
g3552
sg76
(lp3559
g69
(g78
g71
NtRp3560
(dp3561
g74
(dp3562
g82
I4
ssg83
Nsg76
(lp3563
g69
(g85
g71
NtRp3564
(dp3565
g74
(dp3566
sg83
g3560
sg76
(lp3567
g69
(g90
g71
NtRp3568
(dp3569
g74
(dp3570
sg83
g3564
sg76
(lp3571
g69
(g70
g71
NtRp3572
(dp3573
g74
(dp3574
g82
I4
ssg83
g3568
sg76
(lp3575
S'{{'
p3576
asbasbasbag69
(g85
g71
NtRp3577
(dp3578
g74
(dp3579
sg83
g3560
sg76
(lp3580
g69
(g90
g71
NtRp3581
(dp3582
g74
(dp3583
sg83
g3577
sg76
(lp3584
g69
(g70
g71
NtRp3585
(dp3586
g74
(dp3587
g82
I4
ssg83
g3581
sg76
(lp3588
S'}}'
p3589
asbasbasbasbasbasbasbag69
(g85
g71
NtRp3590
(dp3591
g74
(dp3592
sg83
g3305
sg76
(lp3593
g69
(g90
g71
NtRp3594
(dp3595
g74
(dp3596
g94
g95
ssg83
g3590
sg76
(lp3597
S'files'
p3598
asbag69
(g90
g71
NtRp3599
(dp3600
g74
(dp3601
g101
g102
ssg83
g3590
sg76
(lp3602
S':'
asbag69
(g90
g71
NtRp3603
(dp3604
g74
(dp3605
sg83
g3590
sg76
(lp3606
g69
(g70
g71
NtRp3607
(dp3608
g74
(dp3609
g82
I5
ssg83
g3603
sg76
(lp3610
g69
(g78
g71
NtRp3611
(dp3612
g74
(dp3613
g82
I4
ssg83
Nsg76
(lp3614
sbasbasbasbag69
(g85
g71
NtRp3615
(dp3616
g74
(dp3617
sg83
g3305
sg76
(lp3618
g69
(g90
g71
NtRp3619
(dp3620
g74
(dp3621
g94
g95
ssg83
g3615
sg76
(lp3622
S'flash'
p3623
asbag69
(g90
g71
NtRp3624
(dp3625
g74
(dp3626
g101
g102
ssg83
g3615
sg76
(lp3627
S':'
asbag69
(g90
g71
NtRp3628
(dp3629
g74
(dp3630
sg83
g3615
sg76
(lp3631
g69
(g70
g71
NtRp3632
(dp3633
g74
(dp3634
g82
I5
ssg83
g3628
sg76
(lp3635
S''
asbasbasbag69
(g85
g71
NtRp3636
(dp3637
g74
(dp3638
sg83
g3305
sg76
(lp3639
g69
(g90
g71
NtRp3640
(dp3641
g74
(dp3642
g94
g95
ssg83
g3636
sg76
(lp3643
S'generic_patterns'
p3644
asbag69
(g90
g71
NtRp3645
(dp3646
g74
(dp3647
g101
g102
ssg83
g3636
sg76
(lp3648
S':'
asbag69
(g90
g71
NtRp3649
(dp3650
g74
(dp3651
sg83
g3636
sg76
(lp3652
g69
(g70
g71
NtRp3653
(dp3654
g74
(dp3655
g82
I5
ssg83
g3649
sg76
(lp3656
g69
(g78
g71
NtRp3657
(dp3658
g74
(dp3659
g82
I4
ssg83
Nsg76
(lp3660
g69
(g85
g71
NtRp3661
(dp3662
g74
(dp3663
sg83
g3657
sg76
(lp3664
g69
(g90
g71
NtRp3665
(dp3666
g74
(dp3667
sg83
g3661
sg76
(lp3668
g69
(g70
g71
NtRp3669
(dp3670
g74
(dp3671
g82
I4
ssg83
g3665
sg76
(lp3672
S'*'
asbasbasbasbasbasbasbag69
(g85
g71
NtRp3673
(dp3674
g74
(dp3675
sg83
g3305
sg76
(lp3676
g69
(g90
g71
NtRp3677
(dp3678
g74
(dp3679
g94
g95
ssg83
g3673
sg76
(lp3680
S'google_analytics_id'
p3681
asbag69
(g90
g71
NtRp3682
(dp3683
g74
(dp3684
g101
g102
ssg83
g3673
sg76
(lp3685
S':'
asbag69
(g90
g71
NtRp3686
(dp3687
g74
(dp3688
sg83
g3673
sg76
(lp3689
g69
(g70
g71
NtRp3690
(dp3691
g74
(dp3692
g82
I5
ssg83
g3686
sg76
(lp3693
S'None'
p3694
asbasbasbag69
(g85
g71
NtRp3695
(dp3696
g74
(dp3697
sg83
g3305
sg76
(lp3698
g69
(g90
g71
NtRp3699
(dp3700
g74
(dp3701
g94
g95
ssg83
g3695
sg76
(lp3702
S'headers'
p3703
asbag69
(g90
g71
NtRp3704
(dp3705
g74
(dp3706
g101
g102
ssg83
g3695
sg76
(lp3707
S':'
asbag69
(g90
g71
NtRp3708
(dp3709
g74
(dp3710
sg83
g3695
sg76
(lp3711
g69
(g70
g71
NtRp3712
(dp3713
g74
(dp3714
g82
I5
ssg83
g3708
sg76
(lp3715
g69
(g78
g71
NtRp3716
(dp3717
g74
(dp3718
g82
I4
ssg83
Nsg76
(lp3719
g69
(g85
g71
NtRp3720
(dp3721
g74
(dp3722
sg83
g3716
sg76
(lp3723
g69
(g90
g71
NtRp3724
(dp3725
g74
(dp3726
g94
g95
ssg83
g3720
sg76
(lp3727
S'X-Powered-By'
p3728
asbag69
(g90
g71
NtRp3729
(dp3730
g74
(dp3731
g101
g102
ssg83
g3720
sg76
(lp3732
S':'
asbag69
(g90
g71
NtRp3733
(dp3734
g74
(dp3735
sg83
g3720
sg76
(lp3736
g69
(g70
g71
NtRp3737
(dp3738
g74
(dp3739
g82
I4
ssg83
g3733
sg76
(lp3740
S'web2py'
p3741
asbasbasbasbasbasbasbag69
(g85
g71
NtRp3742
(dp3743
g74
(dp3744
sg83
g3305
sg76
(lp3745
g69
(g90
g71
NtRp3746
(dp3747
g74
(dp3748
g94
g95
ssg83
g3742
sg76
(lp3749
S'logo'
p3750
asbag69
(g90
g71
NtRp3751
(dp3752
g74
(dp3753
g101
g102
ssg83
g3742
sg76
(lp3754
S':'
asbag69
(g90
g71
NtRp3755
(dp3756
g74
(dp3757
sg83
g3742
sg76
(lp3758
g69
(g70
g71
NtRp3759
(dp3760
g74
(dp3761
g82
I5
ssg83
g3755
sg76
(lp3762
g69
(cgluon.html
A
p3763
g71
NtRp3764
(dp3765
g74
(dp3766
S'_class'
p3767
S'brand'
p3768
sS'_href'
p3769
S'principal'
p3770
ssg83
Nsg76
(lp3771
g69
(cgluon.html
B
p3772
g71
NtRp3773
(dp3774
g74
(dp3775
sg83
g3764
sg76
(lp3776
S''
ag69
(cgluon.html
SPAN
p3777
g71
NtRp3778
(dp3779
g74
(dp3780
sg83
g3773
sg76
(lp3781
S'Agenda'
p3782
asbaS''
asbacgluon.html
XML_unpickle
p3783
(S's\r\x00\x00\x00&trade;&nbsp;'
tRp3784
asbasbasbasbag69
(g85
g71
NtRp3785
(dp3786
g74
(dp3787
sg83
g3305
sg76
(lp3788
g69
(g90
g71
NtRp3789
(dp3790
g74
(dp3791
g94
g95
ssg83
g3785
sg76
(lp3792
S'menu'
p3793
asbag69
(g90
g71
NtRp3794
(dp3795
g74
(dp3796
g101
g102
ssg83
g3785
sg76
(lp3797
S':'
asbag69
(g90
g71
NtRp3798
(dp3799
g74
(dp3800
sg83
g3785
sg76
(lp3801
g69
(g70
g71
NtRp3802
(dp3803
g74
(dp3804
g82
I5
ssg83
g3798
sg76
(lp3805
g69
(g78
g71
NtRp3806
(dp3807
g74
(dp3808
g82
I4
ssg83
Nsg76
(lp3809
g69
(g85
g71
NtRp3810
(dp3811
g74
(dp3812
sg83
g3806
sg76
(lp3813
g69
(g90
g71
NtRp3814
(dp3815
g74
(dp3816
sg83
g3810
sg76
(lp3817
g69
(g70
g71
NtRp3818
(dp3819
g74
(dp3820
g82
I4
ssg83
g3814
sg76
(lp3821
g69
(g78
g71
NtRp3822
(dp3823
g74
(dp3824
g82
I3
ssg83
Nsg76
(lp3825
g69
(g85
g71
NtRp3826
(dp3827
g74
(dp3828
sg83
g3822
sg76
(lp3829
g69
(g90
g71
NtRp3830
(dp3831
g74
(dp3832
sg83
g3826
sg76
(lp3833
g69
(g70
g71
NtRp3834
(dp3835
g74
(dp3836
g82
I3
ssg83
g3830
sg76
(lp3837
cgluon.languages
lazyT_unpickle
p3838
(S't\x06\x00\x00\x00Global'
tRp3839
asbasbasbag69
(g85
g71
NtRp3840
(dp3841
g74
(dp3842
sg83
g3822
sg76
(lp3843
g69
(g90
g71
NtRp3844
(dp3845
g74
(dp3846
sg83
g3840
sg76
(lp3847
g69
(g70
g71
NtRp3848
(dp3849
g74
(dp3850
g82
I3
ssg83
g3844
sg76
(lp3851
g112
asbasbasbag69
(g85
g71
NtRp3852
(dp3853
g74
(dp3854
sg83
g3822
sg76
(lp3855
g69
(g90
g71
NtRp3856
(dp3857
g74
(dp3858
sg83
g3852
sg76
(lp3859
g69
(g70
g71
NtRp3860
(dp3861
g74
(dp3862
g82
I3
ssg83
g3856
sg76
(lp3863
S'/agenda'
p3864
asbasbasbag69
(g85
g71
NtRp3865
(dp3866
g74
(dp3867
sg83
g3822
sg76
(lp3868
g69
(g90
g71
NtRp3869
(dp3870
g74
(dp3871
sg83
g3865
sg76
(lp3872
g69
(g70
g71
NtRp3873
(dp3874
g74
(dp3875
g82
I3
ssg83
g3869
sg76
(lp3876
g69
(g78
g71
NtRp3877
(dp3878
g74
(dp3879
g82
I2
ssg83
Nsg76
(lp3880
sbasbasbasbasbasbasbasbag69
(g85
g71
NtRp3881
(dp3882
g74
(dp3883
sg83
g3806
sg76
(lp3884
g69
(g90
g71
NtRp3885
(dp3886
g74
(dp3887
sg83
g3881
sg76
(lp3888
g69
(g70
g71
NtRp3889
(dp3890
g74
(dp3891
g82
I4
ssg83
g3885
sg76
(lp3892
g69
(g78
g71
NtRp3893
(dp3894
g74
(dp3895
g82
I3
ssg83
Nsg76
(lp3896
g69
(g85
g71
NtRp3897
(dp3898
g74
(dp3899
sg83
g3893
sg76
(lp3900
g69
(g90
g71
NtRp3901
(dp3902
g74
(dp3903
sg83
g3897
sg76
(lp3904
g69
(g70
g71
NtRp3905
(dp3906
g74
(dp3907
g82
I3
ssg83
g3901
sg76
(lp3908
g3838
(S't\n\x00\x00\x00Particular'
tRp3909
asbasbasbag69
(g85
g71
NtRp3910
(dp3911
g74
(dp3912
sg83
g3893
sg76
(lp3913
g69
(g90
g71
NtRp3914
(dp3915
g74
(dp3916
sg83
g3910
sg76
(lp3917
g69
(g70
g71
NtRp3918
(dp3919
g74
(dp3920
g82
I3
ssg83
g3914
sg76
(lp3921
g112
asbasbasbag69
(g85
g71
NtRp3922
(dp3923
g74
(dp3924
sg83
g3893
sg76
(lp3925
g69
(g90
g71
NtRp3926
(dp3927
g74
(dp3928
sg83
g3922
sg76
(lp3929
g69
(g70
g71
NtRp3930
(dp3931
g74
(dp3932
g82
I3
ssg83
g3926
sg76
(lp3933
S'/redireciona?f=agenda_particular'
p3934
asbasbasbag69
(g85
g71
NtRp3935
(dp3936
g74
(dp3937
sg83
g3893
sg76
(lp3938
g69
(g90
g71
NtRp3939
(dp3940
g74
(dp3941
sg83
g3935
sg76
(lp3942
g69
(g70
g71
NtRp3943
(dp3944
g74
(dp3945
g82
I3
ssg83
g3939
sg76
(lp3946
g69
(g78
g71
NtRp3947
(dp3948
g74
(dp3949
g82
I2
ssg83
Nsg76
(lp3950
sbasbasbasbasbasbasbasbag69
(g85
g71
NtRp3951
(dp3952
g74
(dp3953
sg83
g3806
sg76
(lp3954
g69
(g90
g71
NtRp3955
(dp3956
g74
(dp3957
sg83
g3951
sg76
(lp3958
g69
(g70
g71
NtRp3959
(dp3960
g74
(dp3961
g82
I4
ssg83
g3955
sg76
(lp3962
g69
(g78
g71
NtRp3963
(dp3964
g74
(dp3965
g82
I3
ssg83
Nsg76
(lp3966
g69
(g85
g71
NtRp3967
(dp3968
g74
(dp3969
sg83
g3963
sg76
(lp3970
g69
(g90
g71
NtRp3971
(dp3972
g74
(dp3973
sg83
g3967
sg76
(lp3974
g69
(g70
g71
NtRp3975
(dp3976
g74
(dp3977
g82
I3
ssg83
g3971
sg76
(lp3978
g3838
(S's\x08\x00\x00\x00+contato'
tRp3979
asbasbasbag69
(g85
g71
NtRp3980
(dp3981
g74
(dp3982
sg83
g3963
sg76
(lp3983
g69
(g90
g71
NtRp3984
(dp3985
g74
(dp3986
sg83
g3980
sg76
(lp3987
g69
(g70
g71
NtRp3988
(dp3989
g74
(dp3990
g82
I3
ssg83
g3984
sg76
(lp3991
g112
asbasbasbag69
(g85
g71
NtRp3992
(dp3993
g74
(dp3994
sg83
g3963
sg76
(lp3995
g69
(g90
g71
NtRp3996
(dp3997
g74
(dp3998
sg83
g3992
sg76
(lp3999
g69
(g70
g71
NtRp4000
(dp4001
g74
(dp4002
g82
I3
ssg83
g3996
sg76
(lp4003
S'/permissao'
p4004
asbasbasbag69
(g85
g71
NtRp4005
(dp4006
g74
(dp4007
sg83
g3963
sg76
(lp4008
g69
(g90
g71
NtRp4009
(dp4010
g74
(dp4011
sg83
g4005
sg76
(lp4012
g69
(g70
g71
NtRp4013
(dp4014
g74
(dp4015
g82
I3
ssg83
g4009
sg76
(lp4016
g69
(g78
g71
NtRp4017
(dp4018
g74
(dp4019
g82
I2
ssg83
Nsg76
(lp4020
sbasbasbasbasbasbasbasbasbasbasbasbag69
(g85
g71
NtRp4021
(dp4022
g74
(dp4023
sg83
g3305
sg76
(lp4024
g69
(g90
g71
NtRp4025
(dp4026
g74
(dp4027
g94
g95
ssg83
g4021
sg76
(lp4028
S'menu2'
p4029
asbag69
(g90
g71
NtRp4030
(dp4031
g74
(dp4032
g101
g102
ssg83
g4021
sg76
(lp4033
S':'
asbag69
(g90
g71
NtRp4034
(dp4035
g74
(dp4036
sg83
g4021
sg76
(lp4037
g69
(g70
g71
NtRp4038
(dp4039
g74
(dp4040
g82
I5
ssg83
g4034
sg76
(lp4041
g69
(g78
g71
NtRp4042
(dp4043
g74
(dp4044
g82
I4
ssg83
Nsg76
(lp4045
g69
(g85
g71
NtRp4046
(dp4047
g74
(dp4048
sg83
g4042
sg76
(lp4049
g69
(g90
g71
NtRp4050
(dp4051
g74
(dp4052
sg83
g4046
sg76
(lp4053
g69
(g70
g71
NtRp4054
(dp4055
g74
(dp4056
g82
I4
ssg83
g4050
sg76
(lp4057
g69
(g78
g71
NtRp4058
(dp4059
g74
(dp4060
g82
I3
ssg83
Nsg76
(lp4061
g69
(g85
g71
NtRp4062
(dp4063
g74
(dp4064
sg83
g4058
sg76
(lp4065
g69
(g90
g71
NtRp4066
(dp4067
g74
(dp4068
sg83
g4062
sg76
(lp4069
g69
(g70
g71
NtRp4070
(dp4071
g74
(dp4072
g82
I3
ssg83
g4066
sg76
(lp4073
g69
(g3777
g71
NtRp4074
(dp4075
g74
(dp4076
g3767
S'dropdown-toggle'
p4077
ssg83
Nsg76
(lp4078
S'Login'
p4079
asbasbasbasbag69
(g85
g71
NtRp4080
(dp4081
g74
(dp4082
sg83
g4058
sg76
(lp4083
g69
(g90
g71
NtRp4084
(dp4085
g74
(dp4086
sg83
g4080
sg76
(lp4087
g69
(g70
g71
NtRp4088
(dp4089
g74
(dp4090
g82
I3
ssg83
g4084
sg76
(lp4091
g112
asbasbasbag69
(g85
g71
NtRp4092
(dp4093
g74
(dp4094
sg83
g4058
sg76
(lp4095
g69
(g90
g71
NtRp4096
(dp4097
g74
(dp4098
sg83
g4092
sg76
(lp4099
g69
(g70
g71
NtRp4100
(dp4101
g74
(dp4102
g82
I3
ssg83
g4096
sg76
(lp4103
S'#'
asbasbasbag69
(g85
g71
NtRp4104
(dp4105
g74
(dp4106
sg83
g4058
sg76
(lp4107
g69
(g90
g71
NtRp4108
(dp4109
g74
(dp4110
sg83
g4104
sg76
(lp4111
g69
(g70
g71
NtRp4112
(dp4113
g74
(dp4114
g82
I3
ssg83
g4108
sg76
(lp4115
g69
(g78
g71
NtRp4116
(dp4117
g74
(dp4118
g82
I2
ssg83
Nsg76
(lp4119
g69
(g85
g71
NtRp4120
(dp4121
g74
(dp4122
sg83
g4116
sg76
(lp4123
g69
(g90
g71
NtRp4124
(dp4125
g74
(dp4126
sg83
g4120
sg76
(lp4127
g69
(g70
g71
NtRp4128
(dp4129
g74
(dp4130
g82
I2
ssg83
g4124
sg76
(lp4131
g69
(g78
g71
NtRp4132
(dp4133
g74
(dp4134
g82
I1
ssg83
Nsg76
(lp4135
g69
(g85
g71
NtRp4136
(dp4137
g74
(dp4138
sg83
g4132
sg76
(lp4139
g69
(g90
g71
NtRp4140
(dp4141
g74
(dp4142
sg83
g4136
sg76
(lp4143
g69
(g70
g71
NtRp4144
(dp4145
g74
(dp4146
g82
I1
ssg83
g4140
sg76
(lp4147
g3838
(S't\x06\x00\x00\x00Logout'
tRp4148
asbasbasbag69
(g85
g71
NtRp4149
(dp4150
g74
(dp4151
sg83
g4132
sg76
(lp4152
g69
(g90
g71
NtRp4153
(dp4154
g74
(dp4155
sg83
g4149
sg76
(lp4156
g69
(g70
g71
NtRp4157
(dp4158
g74
(dp4159
g82
I1
ssg83
g4153
sg76
(lp4160
I00
asbasbasbag69
(g85
g71
NtRp4161
(dp4162
g74
(dp4163
sg83
g4132
sg76
(lp4164
g69
(g90
g71
NtRp4165
(dp4166
g74
(dp4167
sg83
g4161
sg76
(lp4168
g69
(g70
g71
NtRp4169
(dp4170
g74
(dp4171
g82
I1
ssg83
g4165
sg76
(lp4172
S'/log_out'
p4173
asbasbasbasbasbasbasbasbasbasbasbasbasbasbasbasbasbasbasbag69
(g85
g71
NtRp4174
(dp4175
g74
(dp4176
sg83
g3305
sg76
(lp4177
g69
(g90
g71
NtRp4178
(dp4179
g74
(dp4180
g94
g95
ssg83
g4174
sg76
(lp4181
S'meta'
p4182
asbag69
(g90
g71
NtRp4183
(dp4184
g74
(dp4185
g101
g102
ssg83
g4174
sg76
(lp4186
S':'
asbag69
(g90
g71
NtRp4187
(dp4188
g74
(dp4189
sg83
g4174
sg76
(lp4190
g69
(g70
g71
NtRp4191
(dp4192
g74
(dp4193
g82
I5
ssg83
g4187
sg76
(lp4194
g69
(g78
g71
NtRp4195
(dp4196
g74
(dp4197
g82
I4
ssg83
Nsg76
(lp4198
g69
(g85
g71
NtRp4199
(dp4200
g74
(dp4201
sg83
g4195
sg76
(lp4202
g69
(g90
g71
NtRp4203
(dp4204
g74
(dp4205
g94
g95
ssg83
g4199
sg76
(lp4206
S'author'
p4207
asbag69
(g90
g71
NtRp4208
(dp4209
g74
(dp4210
g101
g102
ssg83
g4199
sg76
(lp4211
S':'
asbag69
(g90
g71
NtRp4212
(dp4213
g74
(dp4214
sg83
g4199
sg76
(lp4215
g69
(g70
g71
NtRp4216
(dp4217
g74
(dp4218
g82
I4
ssg83
g4212
sg76
(lp4219
S'Your Name <you@example.com>'
p4220
asbasbasbag69
(g85
g71
NtRp4221
(dp4222
g74
(dp4223
sg83
g4195
sg76
(lp4224
g69
(g90
g71
NtRp4225
(dp4226
g74
(dp4227
g94
g95
ssg83
g4221
sg76
(lp4228
S'description'
p4229
asbag69
(g90
g71
NtRp4230
(dp4231
g74
(dp4232
g101
g102
ssg83
g4221
sg76
(lp4233
S':'
asbag69
(g90
g71
NtRp4234
(dp4235
g74
(dp4236
sg83
g4221
sg76
(lp4237
g69
(g70
g71
NtRp4238
(dp4239
g74
(dp4240
g82
I4
ssg83
g4234
sg76
(lp4241
S'a cool new app'
p4242
asbasbasbag69
(g85
g71
NtRp4243
(dp4244
g74
(dp4245
sg83
g4195
sg76
(lp4246
g69
(g90
g71
NtRp4247
(dp4248
g74
(dp4249
g94
g95
ssg83
g4243
sg76
(lp4250
S'generator'
p4251
asbag69
(g90
g71
NtRp4252
(dp4253
g74
(dp4254
g101
g102
ssg83
g4243
sg76
(lp4255
S':'
asbag69
(g90
g71
NtRp4256
(dp4257
g74
(dp4258
sg83
g4243
sg76
(lp4259
g69
(g70
g71
NtRp4260
(dp4261
g74
(dp4262
g82
I4
ssg83
g4256
sg76
(lp4263
S'Web2py Web Framework'
p4264
asbasbasbag69
(g85
g71
NtRp4265
(dp4266
g74
(dp4267
sg83
g4195
sg76
(lp4268
g69
(g90
g71
NtRp4269
(dp4270
g74
(dp4271
g94
g95
ssg83
g4265
sg76
(lp4272
S'keywords'
p4273
asbag69
(g90
g71
NtRp4274
(dp4275
g74
(dp4276
g101
g102
ssg83
g4265
sg76
(lp4277
S':'
asbag69
(g90
g71
NtRp4278
(dp4279
g74
(dp4280
sg83
g4265
sg76
(lp4281
g69
(g70
g71
NtRp4282
(dp4283
g74
(dp4284
g82
I4
ssg83
g4278
sg76
(lp4285
S'web2py, python, framework'
p4286
asbasbasbasbasbasbasbag69
(g85
g71
NtRp4287
(dp4288
g74
(dp4289
sg83
g3305
sg76
(lp4290
g69
(g90
g71
NtRp4291
(dp4292
g74
(dp4293
g94
g95
ssg83
g4287
sg76
(lp4294
S'models_to_run'
p4295
asbag69
(g90
g71
NtRp4296
(dp4297
g74
(dp4298
g101
g102
ssg83
g4287
sg76
(lp4299
S':'
asbag69
(g90
g71
NtRp4300
(dp4301
g74
(dp4302
sg83
g4287
sg76
(lp4303
g69
(g70
g71
NtRp4304
(dp4305
g74
(dp4306
g82
I5
ssg83
g4300
sg76
(lp4307
g69
(g78
g71
NtRp4308
(dp4309
g74
(dp4310
g82
I4
ssg83
Nsg76
(lp4311
g69
(g85
g71
NtRp4312
(dp4313
g74
(dp4314
sg83
g4308
sg76
(lp4315
g69
(g90
g71
NtRp4316
(dp4317
g74
(dp4318
sg83
g4312
sg76
(lp4319
g69
(g70
g71
NtRp4320
(dp4321
g74
(dp4322
g82
I4
ssg83
g4316
sg76
(lp4323
S'^\\w+\\.py$'
p4324
asbasbasbag69
(g85
g71
NtRp4325
(dp4326
g74
(dp4327
sg83
g4308
sg76
(lp4328
g69
(g90
g71
NtRp4329
(dp4330
g74
(dp4331
sg83
g4325
sg76
(lp4332
g69
(g70
g71
NtRp4333
(dp4334
g74
(dp4335
g82
I4
ssg83
g4329
sg76
(lp4336
S'^initial/\\w+\\.py$'
p4337
asbasbasbag69
(g85
g71
NtRp4338
(dp4339
g74
(dp4340
sg83
g4308
sg76
(lp4341
g69
(g90
g71
NtRp4342
(dp4343
g74
(dp4344
sg83
g4338
sg76
(lp4345
g69
(g70
g71
NtRp4346
(dp4347
g74
(dp4348
g82
I4
ssg83
g4342
sg76
(lp4349
S'^initial/agenda/\\w+\\.py$'
p4350
asbasbasbasbasbasbasbag69
(g85
g71
NtRp4351
(dp4352
g74
(dp4353
sg83
g3305
sg76
(lp4354
g69
(g90
g71
NtRp4355
(dp4356
g74
(dp4357
g94
g95
ssg83
g4351
sg76
(lp4358
S'postprocessing'
p4359
asbag69
(g90
g71
NtRp4360
(dp4361
g74
(dp4362
g101
g102
ssg83
g4351
sg76
(lp4363
S':'
asbag69
(g90
g71
NtRp4364
(dp4365
g74
(dp4366
sg83
g4351
sg76
(lp4367
g69
(g70
g71
NtRp4368
(dp4369
g74
(dp4370
g82
I5
ssg83
g4364
sg76
(lp4371
g69
(g78
g71
NtRp4372
(dp4373
g74
(dp4374
g82
I4
ssg83
Nsg76
(lp4375
sbasbasbasbag69
(g85
g71
NtRp4376
(dp4377
g74
(dp4378
sg83
g3305
sg76
(lp4379
g69
(g90
g71
NtRp4380
(dp4381
g74
(dp4382
g94
g95
ssg83
g4376
sg76
(lp4383
S'session_cookie_expires'
p4384
asbag69
(g90
g71
NtRp4385
(dp4386
g74
(dp4387
g101
g102
ssg83
g4376
sg76
(lp4388
S':'
asbag69
(g90
g71
NtRp4389
(dp4390
g74
(dp4391
sg83
g4376
sg76
(lp4392
g69
(g70
g71
NtRp4393
(dp4394
g74
(dp4395
g82
I5
ssg83
g4389
sg76
(lp4396
S'None'
p4397
asbasbasbag69
(g85
g71
NtRp4398
(dp4399
g74
(dp4400
sg83
g3305
sg76
(lp4401
g69
(g90
g71
NtRp4402
(dp4403
g74
(dp4404
g94
g95
ssg83
g4398
sg76
(lp4405
S'session_data_name'
p4406
asbag69
(g90
g71
NtRp4407
(dp4408
g74
(dp4409
g101
g102
ssg83
g4398
sg76
(lp4410
S':'
asbag69
(g90
g71
NtRp4411
(dp4412
g74
(dp4413
sg83
g4398
sg76
(lp4414
g69
(g70
g71
NtRp4415
(dp4416
g74
(dp4417
g82
I5
ssg83
g4411
sg76
(lp4418
S'session_data_projeto'
p4419
asbasbasbag69
(g85
g71
NtRp4420
(dp4421
g74
(dp4422
sg83
g3305
sg76
(lp4423
g69
(g90
g71
NtRp4424
(dp4425
g74
(dp4426
g94
g95
ssg83
g4420
sg76
(lp4427
S'session_file'
p4428
asbag69
(g90
g71
NtRp4429
(dp4430
g74
(dp4431
g101
g102
ssg83
g4420
sg76
(lp4432
S':'
asbag69
(g90
g71
NtRp4433
(dp4434
g74
(dp4435
sg83
g4420
sg76
(lp4436
g69
(g70
g71
NtRp4437
(dp4438
g74
(dp4439
g82
I5
ssg83
g4433
sg76
(lp4440
S"<open file '/var/www/gravacao/applications/projeto/sessions/127.0.0.1-4b3b1626-419c-4d91-8985-6c3f8c048672', mode 'rb+' at 0x7f4548968d20>"
p4441
asbasbasbag69
(g85
g71
NtRp4442
(dp4443
g74
(dp4444
sg83
g3305
sg76
(lp4445
g69
(g90
g71
NtRp4446
(dp4447
g74
(dp4448
g94
g95
ssg83
g4442
sg76
(lp4449
S'session_filename'
p4450
asbag69
(g90
g71
NtRp4451
(dp4452
g74
(dp4453
g101
g102
ssg83
g4442
sg76
(lp4454
S':'
asbag69
(g90
g71
NtRp4455
(dp4456
g74
(dp4457
sg83
g4442
sg76
(lp4458
g69
(g70
g71
NtRp4459
(dp4460
g74
(dp4461
g82
I5
ssg83
g4455
sg76
(lp4462
S'/var/www/gravacao/applications/projeto/sessions/127.0.0.1-4b3b1626-419c-4d91-8985-6c3f8c048672'
p4463
asbasbasbag69
(g85
g71
NtRp4464
(dp4465
g74
(dp4466
sg83
g3305
sg76
(lp4467
g69
(g90
g71
NtRp4468
(dp4469
g74
(dp4470
g94
g95
ssg83
g4464
sg76
(lp4471
S'session_id'
p4472
asbag69
(g90
g71
NtRp4473
(dp4474
g74
(dp4475
g101
g102
ssg83
g4464
sg76
(lp4476
S':'
asbag69
(g90
g71
NtRp4477
(dp4478
g74
(dp4479
sg83
g4464
sg76
(lp4480
g69
(g70
g71
NtRp4481
(dp4482
g74
(dp4483
g82
I5
ssg83
g4477
sg76
(lp4484
g487
asbasbasbag69
(g85
g71
NtRp4485
(dp4486
g74
(dp4487
sg83
g3305
sg76
(lp4488
g69
(g90
g71
NtRp4489
(dp4490
g74
(dp4491
g94
g95
ssg83
g4485
sg76
(lp4492
S'session_id_name'
p4493
asbag69
(g90
g71
NtRp4494
(dp4495
g74
(dp4496
g101
g102
ssg83
g4485
sg76
(lp4497
S':'
asbag69
(g90
g71
NtRp4498
(dp4499
g74
(dp4500
sg83
g4485
sg76
(lp4501
g69
(g70
g71
NtRp4502
(dp4503
g74
(dp4504
g82
I5
ssg83
g4498
sg76
(lp4505
g3362
asbasbasbag69
(g85
g71
NtRp4506
(dp4507
g74
(dp4508
sg83
g3305
sg76
(lp4509
g69
(g90
g71
NtRp4510
(dp4511
g74
(dp4512
g94
g95
ssg83
g4506
sg76
(lp4513
S'session_locked'
p4514
asbag69
(g90
g71
NtRp4515
(dp4516
g74
(dp4517
g101
g102
ssg83
g4506
sg76
(lp4518
S':'
asbag69
(g90
g71
NtRp4519
(dp4520
g74
(dp4521
sg83
g4506
sg76
(lp4522
g69
(g70
g71
NtRp4523
(dp4524
g74
(dp4525
g82
I5
ssg83
g4519
sg76
(lp4526
g1628
asbasbasbag69
(g85
g71
NtRp4527
(dp4528
g74
(dp4529
sg83
g3305
sg76
(lp4530
g69
(g90
g71
NtRp4531
(dp4532
g74
(dp4533
g94
g95
ssg83
g4527
sg76
(lp4534
S'session_new'
p4535
asbag69
(g90
g71
NtRp4536
(dp4537
g74
(dp4538
g101
g102
ssg83
g4527
sg76
(lp4539
S':'
asbag69
(g90
g71
NtRp4540
(dp4541
g74
(dp4542
sg83
g4527
sg76
(lp4543
g69
(g70
g71
NtRp4544
(dp4545
g74
(dp4546
g82
I5
ssg83
g4540
sg76
(lp4547
g112
asbasbasbag69
(g85
g71
NtRp4548
(dp4549
g74
(dp4550
sg83
g3305
sg76
(lp4551
g69
(g90
g71
NtRp4552
(dp4553
g74
(dp4554
g94
g95
ssg83
g4548
sg76
(lp4555
S'session_storage_type'
p4556
asbag69
(g90
g71
NtRp4557
(dp4558
g74
(dp4559
g101
g102
ssg83
g4548
sg76
(lp4560
S':'
asbag69
(g90
g71
NtRp4561
(dp4562
g74
(dp4563
sg83
g4548
sg76
(lp4564
g69
(g70
g71
NtRp4565
(dp4566
g74
(dp4567
g82
I5
ssg83
g4561
sg76
(lp4568
g3128
asbasbasbag69
(g85
g71
NtRp4569
(dp4570
g74
(dp4571
sg83
g3305
sg76
(lp4572
g69
(g90
g71
NtRp4573
(dp4574
g74
(dp4575
g94
g95
ssg83
g4569
sg76
(lp4576
S'status'
p4577
asbag69
(g90
g71
NtRp4578
(dp4579
g74
(dp4580
g101
g102
ssg83
g4569
sg76
(lp4581
S':'
asbag69
(g90
g71
NtRp4582
(dp4583
g74
(dp4584
sg83
g4569
sg76
(lp4585
g69
(g70
g71
NtRp4586
(dp4587
g74
(dp4588
g82
I5
ssg83
g4582
sg76
(lp4589
S'200'
p4590
asbasbasbag69
(g85
g71
NtRp4591
(dp4592
g74
(dp4593
sg83
g3305
sg76
(lp4594
g69
(g90
g71
NtRp4595
(dp4596
g74
(dp4597
g94
g95
ssg83
g4591
sg76
(lp4598
S'subtitle'
p4599
asbag69
(g90
g71
NtRp4600
(dp4601
g74
(dp4602
g101
g102
ssg83
g4591
sg76
(lp4603
S':'
asbag69
(g90
g71
NtRp4604
(dp4605
g74
(dp4606
sg83
g4591
sg76
(lp4607
g69
(g70
g71
NtRp4608
(dp4609
g74
(dp4610
g82
I5
ssg83
g4604
sg76
(lp4611
g3838
(S's\r\x00\x00\x00customize me!'
tRp4612
asbasbasbag69
(g85
g71
NtRp4613
(dp4614
g74
(dp4615
sg83
g3305
sg76
(lp4616
g69
(g90
g71
NtRp4617
(dp4618
g74
(dp4619
g94
g95
ssg83
g4613
sg76
(lp4620
S'title'
p4621
asbag69
(g90
g71
NtRp4622
(dp4623
g74
(dp4624
g101
g102
ssg83
g4613
sg76
(lp4625
S':'
asbag69
(g90
g71
NtRp4626
(dp4627
g74
(dp4628
sg83
g4613
sg76
(lp4629
g69
(g70
g71
NtRp4630
(dp4631
g74
(dp4632
g82
I5
ssg83
g4626
sg76
(lp4633
S'Projeto'
p4634
asbasbasbag69
(g85
g71
NtRp4635
(dp4636
g74
(dp4637
sg83
g3305
sg76
(lp4638
g69
(g90
g71
NtRp4639
(dp4640
g74
(dp4641
g94
g95
ssg83
g4635
sg76
(lp4642
S'view'
p4643
asbag69
(g90
g71
NtRp4644
(dp4645
g74
(dp4646
g101
g102
ssg83
g4635
sg76
(lp4647
S':'
asbag69
(g90
g71
NtRp4648
(dp4649
g74
(dp4650
sg83
g4635
sg76
(lp4651
g69
(g70
g71
NtRp4652
(dp4653
g74
(dp4654
g82
I5
ssg83
g4648
sg76
(lp4655
S'initial/agenda.html'
p4656
asbasbasbasbasbsS'locals'
p4657
(dp4658
g4
S"'/var/www/gravacao/applications/projeto/controllers/initial.py'"
p4659
sg6
S"'# coding=UTF-8\\nimport datetime, os, commands\\n\\nde...\\n\\n\\n\\t\\n\\n\\n\\n\\nresponse._vars=response._caller(agenda)\\n'"
p4660
sssS'traceback'
p4661
S'Traceback (most recent call last):\n  File "/var/www/gravacao/gluon/restricted.py", line 211, in restricted\n    ccode = compile2(code, layer)\n  File "/var/www/gravacao/gluon/restricted.py", line 194, in compile2\n    return compile(code.rstrip().replace(\'\\r\\n\', \'\\n\') + \'\\n\', layer, \'exec\')\n  File "/var/www/gravacao/applications/projeto/controllers/initial.py", line 49\n    data = \'%\'+ano\'-\'+mes+\'%\'\n                    ^\nSyntaxError: invalid syntax\n'
p4662
s.