(dp1
S'output'
p2
S"<type 'exceptions.SyntaxError'> invalid syntax (models.py, line 8)"
p3
sS'layer'
p4
S'/var/www/agenda/applications/projeto/models/models.py'
p5
sS'code'
p6
S'agenda = db.define_table("agenda",\n      Field("empresa", notnull=True),\n      Field("telefone", notnull=True, unique=True),\n      Field("contato"),\n      Field("dep"),\n      Field("particular", "boolean")\n      #auth.signature\n      format="%(nome)s")\n\n\n\n\n\n'
p7
sS'snapshot'
p8
(dp9
S'exception'
p10
(dp11
S'__getslice__'
p12
S"<method-wrapper '__getslice__' of exceptions.SyntaxError object>"
p13
sS'text'
p14
S'\'      format="%(nome)s")\\n\''
p15
sS'__str__'
p16
S"<method-wrapper '__str__' of exceptions.SyntaxError object>"
p17
sS'__reduce__'
p18
S'<built-in method __reduce__ of exceptions.SyntaxError object>'
p19
sS'__dict__'
p20
S'{}'
p21
sS'__sizeof__'
p22
S'<built-in method __sizeof__ of exceptions.SyntaxError object>'
p23
sS'__init__'
p24
S"<method-wrapper '__init__' of exceptions.SyntaxError object>"
p25
sS'__setattr__'
p26
S"<method-wrapper '__setattr__' of exceptions.SyntaxError object>"
p27
sS'__reduce_ex__'
p28
S'<built-in method __reduce_ex__ of exceptions.SyntaxError object>'
p29
sS'__new__'
p30
S'<built-in method __new__ of type object>'
p31
sS'__format__'
p32
S'<built-in method __format__ of exceptions.SyntaxError object>'
p33
sS'__class__'
p34
S"<type 'exceptions.SyntaxError'>"
p35
sS'filename'
p36
S"'/var/www/agenda/applications/projeto/models/models.py'"
p37
sS'lineno'
p38
S'8'
sS'msg'
p39
S"'invalid syntax'"
p40
sS'__doc__'
p41
S"'Invalid syntax.'"
p42
sS'__getitem__'
p43
S"<method-wrapper '__getitem__' of exceptions.SyntaxError object>"
p44
sS'__setstate__'
p45
S'<built-in method __setstate__ of exceptions.SyntaxError object>'
p46
sS'__getattribute__'
p47
S"<method-wrapper '__getattribute__' of exceptions.SyntaxError object>"
p48
sS'print_file_and_line'
p49
S'None'
p50
sS'args'
p51
S'(\'invalid syntax\', (\'/var/www/agenda/applications/projeto/models/models.py\', 8, 12, \'      format="%(nome)s")\\n\'))'
p52
sS'__subclasshook__'
p53
S'<built-in method __subclasshook__ of type object>'
p54
sS'offset'
p55
S'12'
p56
sS'__unicode__'
p57
S'<built-in method __unicode__ of exceptions.SyntaxError object>'
p58
sS'__delattr__'
p59
S"<method-wrapper '__delattr__' of exceptions.SyntaxError object>"
p60
sS'__repr__'
p61
S"<method-wrapper '__repr__' of exceptions.SyntaxError object>"
p62
sS'__hash__'
p63
S"<method-wrapper '__hash__' of exceptions.SyntaxError object>"
p64
ssS'evalue'
p65
S'invalid syntax (models.py, line 8)'
p66
sS'request'
p67
ccopy_reg
_reconstructor
p68
(cgluon.html
BEAUTIFY
p69
c__builtin__
object
p70
NtRp71
(dp72
S'attributes'
p73
(dp74
sS'components'
p75
(lp76
g68
(cgluon.html
TABLE
p77
g70
NtRp78
(dp79
g73
(dp80
S'level'
p81
I5
ssS'parent'
p82
Nsg75
(lp83
g68
(cgluon.html
TR
p84
g70
NtRp85
(dp86
g73
(dp87
sg82
g78
sg75
(lp88
g68
(cgluon.html
TD
p89
g70
NtRp90
(dp91
g73
(dp92
S'_style'
p93
S'font-weight:bold;vertical-align:top'
p94
ssg82
g85
sg75
(lp95
S'ajax'
p96
asbag68
(g89
g70
NtRp97
(dp98
g73
(dp99
S'_valign'
p100
S'top'
p101
ssg82
g85
sg75
(lp102
S':'
asbag68
(g89
g70
NtRp103
(dp104
g73
(dp105
sg82
g85
sg75
(lp106
g68
(g69
g70
NtRp107
(dp108
g73
(dp109
g81
I5
ssg82
g103
sg75
(lp110
S'False'
p111
asbasbasbag68
(g84
g70
NtRp112
(dp113
g73
(dp114
sg82
g78
sg75
(lp115
g68
(g89
g70
NtRp116
(dp117
g73
(dp118
g93
g94
ssg82
g112
sg75
(lp119
S'application'
p120
asbag68
(g89
g70
NtRp121
(dp122
g73
(dp123
g100
g101
ssg82
g112
sg75
(lp124
S':'
asbag68
(g89
g70
NtRp125
(dp126
g73
(dp127
sg82
g112
sg75
(lp128
g68
(g69
g70
NtRp129
(dp130
g73
(dp131
g81
I5
ssg82
g125
sg75
(lp132
S'projeto'
p133
asbasbasbag68
(g84
g70
NtRp134
(dp135
g73
(dp136
sg82
g78
sg75
(lp137
g68
(g89
g70
NtRp138
(dp139
g73
(dp140
g93
g94
ssg82
g134
sg75
(lp141
g51
asbag68
(g89
g70
NtRp142
(dp143
g73
(dp144
g100
g101
ssg82
g134
sg75
(lp145
S':'
asbag68
(g89
g70
NtRp146
(dp147
g73
(dp148
sg82
g134
sg75
(lp149
g68
(g69
g70
NtRp150
(dp151
g73
(dp152
g81
I5
ssg82
g146
sg75
(lp153
g68
(g77
g70
NtRp154
(dp155
g73
(dp156
g81
I4
ssg82
Nsg75
(lp157
sbasbasbasbag68
(g84
g70
NtRp158
(dp159
g73
(dp160
sg82
g78
sg75
(lp161
g68
(g89
g70
NtRp162
(dp163
g73
(dp164
g93
g94
ssg82
g158
sg75
(lp165
S'body'
p166
asbag68
(g89
g70
NtRp167
(dp168
g73
(dp169
g100
g101
ssg82
g158
sg75
(lp170
S':'
asbag68
(g89
g70
NtRp171
(dp172
g73
(dp173
sg82
g158
sg75
(lp174
g68
(g69
g70
NtRp175
(dp176
g73
(dp177
g81
I5
ssg82
g171
sg75
(lp178
S'<cStringIO.StringO object at 0x7f1fb8153e30>'
p179
asbasbasbag68
(g84
g70
NtRp180
(dp181
g73
(dp182
sg82
g78
sg75
(lp183
g68
(g89
g70
NtRp184
(dp185
g73
(dp186
g93
g94
ssg82
g180
sg75
(lp187
S'cid'
p188
asbag68
(g89
g70
NtRp189
(dp190
g73
(dp191
g100
g101
ssg82
g180
sg75
(lp192
S':'
asbag68
(g89
g70
NtRp193
(dp194
g73
(dp195
sg82
g180
sg75
(lp196
g68
(g69
g70
NtRp197
(dp198
g73
(dp199
g81
I5
ssg82
g193
sg75
(lp200
S'None'
p201
asbasbasbag68
(g84
g70
NtRp202
(dp203
g73
(dp204
sg82
g78
sg75
(lp205
g68
(g89
g70
NtRp206
(dp207
g73
(dp208
g93
g94
ssg82
g202
sg75
(lp209
S'client'
p210
asbag68
(g89
g70
NtRp211
(dp212
g73
(dp213
g100
g101
ssg82
g202
sg75
(lp214
S':'
asbag68
(g89
g70
NtRp215
(dp216
g73
(dp217
sg82
g202
sg75
(lp218
g68
(g69
g70
NtRp219
(dp220
g73
(dp221
g81
I5
ssg82
g215
sg75
(lp222
S'127.0.0.1'
p223
asbasbasbag68
(g84
g70
NtRp224
(dp225
g73
(dp226
sg82
g78
sg75
(lp227
g68
(g89
g70
NtRp228
(dp229
g73
(dp230
g93
g94
ssg82
g224
sg75
(lp231
S'controller'
p232
asbag68
(g89
g70
NtRp233
(dp234
g73
(dp235
g100
g101
ssg82
g224
sg75
(lp236
S':'
asbag68
(g89
g70
NtRp237
(dp238
g73
(dp239
sg82
g224
sg75
(lp240
g68
(g69
g70
NtRp241
(dp242
g73
(dp243
g81
I5
ssg82
g237
sg75
(lp244
S'initial'
p245
asbasbasbag68
(g84
g70
NtRp246
(dp247
g73
(dp248
sg82
g78
sg75
(lp249
g68
(g89
g70
NtRp250
(dp251
g73
(dp252
g93
g94
ssg82
g246
sg75
(lp253
S'cookies'
p254
asbag68
(g89
g70
NtRp255
(dp256
g73
(dp257
g100
g101
ssg82
g246
sg75
(lp258
S':'
asbag68
(g89
g70
NtRp259
(dp260
g73
(dp261
sg82
g246
sg75
(lp262
g68
(g69
g70
NtRp263
(dp264
g73
(dp265
g81
I5
ssg82
g259
sg75
(lp266
g68
(g77
g70
NtRp267
(dp268
g73
(dp269
g81
I4
ssg82
Nsg75
(lp270
g68
(g84
g70
NtRp271
(dp272
g73
(dp273
sg82
g267
sg75
(lp274
g68
(g89
g70
NtRp275
(dp276
g73
(dp277
g93
g94
ssg82
g271
sg75
(lp278
S'session_id_projeto'
p279
asbag68
(g89
g70
NtRp280
(dp281
g73
(dp282
g100
g101
ssg82
g271
sg75
(lp283
S':'
asbag68
(g89
g70
NtRp284
(dp285
g73
(dp286
sg82
g271
sg75
(lp287
g68
(g69
g70
NtRp288
(dp289
g73
(dp290
g81
I4
ssg82
g284
sg75
(lp291
S'127.0.0.1-619cd520-b2b6-4b3b-ac85-03f82b831790'
p292
ag68
(g77
g70
NtRp293
(dp294
g73
(dp295
g81
I3
ssg82
Nsg75
(lp296
g68
(g84
g70
NtRp297
(dp298
g73
(dp299
sg82
g293
sg75
(lp300
g68
(g89
g70
NtRp301
(dp302
g73
(dp303
g93
g94
ssg82
g297
sg75
(lp304
S'comment'
p305
asbag68
(g89
g70
NtRp306
(dp307
g73
(dp308
g100
g101
ssg82
g297
sg75
(lp309
S':'
asbag68
(g89
g70
NtRp310
(dp311
g73
(dp312
sg82
g297
sg75
(lp313
g68
(g69
g70
NtRp314
(dp315
g73
(dp316
g81
I3
ssg82
g310
sg75
(lp317
S''
asbasbasbag68
(g84
g70
NtRp318
(dp319
g73
(dp320
sg82
g293
sg75
(lp321
g68
(g89
g70
NtRp322
(dp323
g73
(dp324
g93
g94
ssg82
g318
sg75
(lp325
S'domain'
p326
asbag68
(g89
g70
NtRp327
(dp328
g73
(dp329
g100
g101
ssg82
g318
sg75
(lp330
S':'
asbag68
(g89
g70
NtRp331
(dp332
g73
(dp333
sg82
g318
sg75
(lp334
g68
(g69
g70
NtRp335
(dp336
g73
(dp337
g81
I3
ssg82
g331
sg75
(lp338
S''
asbasbasbag68
(g84
g70
NtRp339
(dp340
g73
(dp341
sg82
g293
sg75
(lp342
g68
(g89
g70
NtRp343
(dp344
g73
(dp345
g93
g94
ssg82
g339
sg75
(lp346
S'expires'
p347
asbag68
(g89
g70
NtRp348
(dp349
g73
(dp350
g100
g101
ssg82
g339
sg75
(lp351
S':'
asbag68
(g89
g70
NtRp352
(dp353
g73
(dp354
sg82
g339
sg75
(lp355
g68
(g69
g70
NtRp356
(dp357
g73
(dp358
g81
I3
ssg82
g352
sg75
(lp359
S''
asbasbasbag68
(g84
g70
NtRp360
(dp361
g73
(dp362
sg82
g293
sg75
(lp363
g68
(g89
g70
NtRp364
(dp365
g73
(dp366
g93
g94
ssg82
g360
sg75
(lp367
S'httponly'
p368
asbag68
(g89
g70
NtRp369
(dp370
g73
(dp371
g100
g101
ssg82
g360
sg75
(lp372
S':'
asbag68
(g89
g70
NtRp373
(dp374
g73
(dp375
sg82
g360
sg75
(lp376
g68
(g69
g70
NtRp377
(dp378
g73
(dp379
g81
I3
ssg82
g373
sg75
(lp380
S''
asbasbasbag68
(g84
g70
NtRp381
(dp382
g73
(dp383
sg82
g293
sg75
(lp384
g68
(g89
g70
NtRp385
(dp386
g73
(dp387
g93
g94
ssg82
g381
sg75
(lp388
S'max-age'
p389
asbag68
(g89
g70
NtRp390
(dp391
g73
(dp392
g100
g101
ssg82
g381
sg75
(lp393
S':'
asbag68
(g89
g70
NtRp394
(dp395
g73
(dp396
sg82
g381
sg75
(lp397
g68
(g69
g70
NtRp398
(dp399
g73
(dp400
g81
I3
ssg82
g394
sg75
(lp401
S''
asbasbasbag68
(g84
g70
NtRp402
(dp403
g73
(dp404
sg82
g293
sg75
(lp405
g68
(g89
g70
NtRp406
(dp407
g73
(dp408
g93
g94
ssg82
g402
sg75
(lp409
S'path'
p410
asbag68
(g89
g70
NtRp411
(dp412
g73
(dp413
g100
g101
ssg82
g402
sg75
(lp414
S':'
asbag68
(g89
g70
NtRp415
(dp416
g73
(dp417
sg82
g402
sg75
(lp418
g68
(g69
g70
NtRp419
(dp420
g73
(dp421
g81
I3
ssg82
g415
sg75
(lp422
S''
asbasbasbag68
(g84
g70
NtRp423
(dp424
g73
(dp425
sg82
g293
sg75
(lp426
g68
(g89
g70
NtRp427
(dp428
g73
(dp429
g93
g94
ssg82
g423
sg75
(lp430
S'secure'
p431
asbag68
(g89
g70
NtRp432
(dp433
g73
(dp434
g100
g101
ssg82
g423
sg75
(lp435
S':'
asbag68
(g89
g70
NtRp436
(dp437
g73
(dp438
sg82
g423
sg75
(lp439
g68
(g69
g70
NtRp440
(dp441
g73
(dp442
g81
I3
ssg82
g436
sg75
(lp443
S''
asbasbasbag68
(g84
g70
NtRp444
(dp445
g73
(dp446
sg82
g293
sg75
(lp447
g68
(g89
g70
NtRp448
(dp449
g73
(dp450
g93
g94
ssg82
g444
sg75
(lp451
S'version'
p452
asbag68
(g89
g70
NtRp453
(dp454
g73
(dp455
g100
g101
ssg82
g444
sg75
(lp456
S':'
asbag68
(g89
g70
NtRp457
(dp458
g73
(dp459
sg82
g444
sg75
(lp460
g68
(g69
g70
NtRp461
(dp462
g73
(dp463
g81
I3
ssg82
g457
sg75
(lp464
S''
asbasbasbasbasbasbasbasbasbasbasbag68
(g84
g70
NtRp465
(dp466
g73
(dp467
sg82
g78
sg75
(lp468
g68
(g89
g70
NtRp469
(dp470
g73
(dp471
g93
g94
ssg82
g465
sg75
(lp472
S'env'
p473
asbag68
(g89
g70
NtRp474
(dp475
g73
(dp476
g100
g101
ssg82
g465
sg75
(lp477
S':'
asbag68
(g89
g70
NtRp478
(dp479
g73
(dp480
sg82
g465
sg75
(lp481
g68
(g69
g70
NtRp482
(dp483
g73
(dp484
g81
I5
ssg82
g478
sg75
(lp485
g68
(g77
g70
NtRp486
(dp487
g73
(dp488
g81
I4
ssg82
Nsg75
(lp489
g68
(g84
g70
NtRp490
(dp491
g73
(dp492
sg82
g486
sg75
(lp493
g68
(g89
g70
NtRp494
(dp495
g73
(dp496
g93
g94
ssg82
g490
sg75
(lp497
S'app_folders'
p498
asbag68
(g89
g70
NtRp499
(dp500
g73
(dp501
g100
g101
ssg82
g490
sg75
(lp502
S':'
asbag68
(g89
g70
NtRp503
(dp504
g73
(dp505
sg82
g490
sg75
(lp506
g68
(g69
g70
NtRp507
(dp508
g73
(dp509
g81
I4
ssg82
g503
sg75
(lp510
S"set(['/var/www/agenda/applications/projeto/'])"
p511
asbasbasbag68
(g84
g70
NtRp512
(dp513
g73
(dp514
sg82
g486
sg75
(lp515
g68
(g89
g70
NtRp516
(dp517
g73
(dp518
g93
g94
ssg82
g512
sg75
(lp519
S'applications_parent'
p520
asbag68
(g89
g70
NtRp521
(dp522
g73
(dp523
g100
g101
ssg82
g512
sg75
(lp524
S':'
asbag68
(g89
g70
NtRp525
(dp526
g73
(dp527
sg82
g512
sg75
(lp528
g68
(g69
g70
NtRp529
(dp530
g73
(dp531
g81
I4
ssg82
g525
sg75
(lp532
S'/var/www/agenda'
p533
asbasbasbag68
(g84
g70
NtRp534
(dp535
g73
(dp536
sg82
g486
sg75
(lp537
g68
(g89
g70
NtRp538
(dp539
g73
(dp540
g93
g94
ssg82
g534
sg75
(lp541
S'cmd_args'
p542
asbag68
(g89
g70
NtRp543
(dp544
g73
(dp545
g100
g101
ssg82
g534
sg75
(lp546
S':'
asbag68
(g89
g70
NtRp547
(dp548
g73
(dp549
sg82
g534
sg75
(lp550
g68
(g69
g70
NtRp551
(dp552
g73
(dp553
g81
I4
ssg82
g547
sg75
(lp554
g68
(g77
g70
NtRp555
(dp556
g73
(dp557
g81
I3
ssg82
Nsg75
(lp558
sbasbasbasbag68
(g84
g70
NtRp559
(dp560
g73
(dp561
sg82
g486
sg75
(lp562
g68
(g89
g70
NtRp563
(dp564
g73
(dp565
g93
g94
ssg82
g559
sg75
(lp566
S'cmd_options'
p567
asbag68
(g89
g70
NtRp568
(dp569
g73
(dp570
g100
g101
ssg82
g559
sg75
(lp571
S':'
asbag68
(g89
g70
NtRp572
(dp573
g73
(dp574
sg82
g559
sg75
(lp575
g68
(g69
g70
NtRp576
(dp577
g73
(dp578
g81
I4
ssg82
g572
sg75
(lp579
S"<Values at 0x241e170: {'verbose': False, 'ip': '127.0.0.1', 'with_scheduler': False, 'ips': [], 'shutdown_timeout': 5, 'taskbar': False, 'port': 8000, 'maxthreads': None, 'softcron': False, 'server_name': 'fernando-workstation', 'bpython': False, 'nogui': False, 'pid_filename': 'httpserver.pid', 'extcron': False, 'runcron': False, 'run_system_tests': False, 'test': None, 'folder': '/var/www/agenda', 'config': '', 'minthreads': None, 'winservice': '', 'shell': None, 'run': '', 'log_filename': 'httpserver.log', 'debuglevel': 30, 'args': [''], 'socket_timeout': 5, 'ssl_ca_certificate': None, 'scheduler': None, 'profiler_filename': None, 'ssl_private_key': '', 'scheduler_groups': None, 'password': '123456', 'request_queue_size': 5, 'ssl_certificate': '', 'cronjob': False, 'numthreads': None, 'quiet': False, 'interfaces': None, 'import_models': False, 'timeout': 10, 'plain': False, 'nobanner': False}>"
p580
asbasbasbag68
(g84
g70
NtRp581
(dp582
g73
(dp583
sg82
g486
sg75
(lp584
g68
(g89
g70
NtRp585
(dp586
g73
(dp587
g93
g94
ssg82
g581
sg75
(lp588
S'db_sessions'
p589
asbag68
(g89
g70
NtRp590
(dp591
g73
(dp592
g100
g101
ssg82
g581
sg75
(lp593
S':'
asbag68
(g89
g70
NtRp594
(dp595
g73
(dp596
sg82
g581
sg75
(lp597
g68
(g69
g70
NtRp598
(dp599
g73
(dp600
g81
I4
ssg82
g594
sg75
(lp601
S'set([])'
p602
asbasbasbag68
(g84
g70
NtRp603
(dp604
g73
(dp605
sg82
g486
sg75
(lp606
g68
(g89
g70
NtRp607
(dp608
g73
(dp609
g93
g94
ssg82
g603
sg75
(lp610
S'debugging'
p611
asbag68
(g89
g70
NtRp612
(dp613
g73
(dp614
g100
g101
ssg82
g603
sg75
(lp615
S':'
asbag68
(g89
g70
NtRp616
(dp617
g73
(dp618
sg82
g603
sg75
(lp619
g68
(g69
g70
NtRp620
(dp621
g73
(dp622
g81
I4
ssg82
g616
sg75
(lp623
g111
asbasbasbag68
(g84
g70
NtRp624
(dp625
g73
(dp626
sg82
g486
sg75
(lp627
g68
(g89
g70
NtRp628
(dp629
g73
(dp630
g93
g94
ssg82
g624
sg75
(lp631
S'gluon_parent'
p632
asbag68
(g89
g70
NtRp633
(dp634
g73
(dp635
g100
g101
ssg82
g624
sg75
(lp636
S':'
asbag68
(g89
g70
NtRp637
(dp638
g73
(dp639
sg82
g624
sg75
(lp640
g68
(g69
g70
NtRp641
(dp642
g73
(dp643
g81
I4
ssg82
g637
sg75
(lp644
S'/var/www/agenda'
p645
asbasbasbag68
(g84
g70
NtRp646
(dp647
g73
(dp648
sg82
g486
sg75
(lp649
g68
(g89
g70
NtRp650
(dp651
g73
(dp652
g93
g94
ssg82
g646
sg75
(lp653
S'http_accept'
p654
asbag68
(g89
g70
NtRp655
(dp656
g73
(dp657
g100
g101
ssg82
g646
sg75
(lp658
S':'
asbag68
(g89
g70
NtRp659
(dp660
g73
(dp661
sg82
g646
sg75
(lp662
g68
(g69
g70
NtRp663
(dp664
g73
(dp665
g81
I4
ssg82
g659
sg75
(lp666
S'text/html,application/xhtml+xml,application/xml;q=0.9,*/*;q=0.8'
p667
asbasbasbag68
(g84
g70
NtRp668
(dp669
g73
(dp670
sg82
g486
sg75
(lp671
g68
(g89
g70
NtRp672
(dp673
g73
(dp674
g93
g94
ssg82
g668
sg75
(lp675
S'http_accept_charset'
p676
asbag68
(g89
g70
NtRp677
(dp678
g73
(dp679
g100
g101
ssg82
g668
sg75
(lp680
S':'
asbag68
(g89
g70
NtRp681
(dp682
g73
(dp683
sg82
g668
sg75
(lp684
g68
(g69
g70
NtRp685
(dp686
g73
(dp687
g81
I4
ssg82
g681
sg75
(lp688
S'ISO-8859-1,utf-8;q=0.7,*;q=0.3'
p689
asbasbasbag68
(g84
g70
NtRp690
(dp691
g73
(dp692
sg82
g486
sg75
(lp693
g68
(g89
g70
NtRp694
(dp695
g73
(dp696
g93
g94
ssg82
g690
sg75
(lp697
S'http_accept_encoding'
p698
asbag68
(g89
g70
NtRp699
(dp700
g73
(dp701
g100
g101
ssg82
g690
sg75
(lp702
S':'
asbag68
(g89
g70
NtRp703
(dp704
g73
(dp705
sg82
g690
sg75
(lp706
g68
(g69
g70
NtRp707
(dp708
g73
(dp709
g81
I4
ssg82
g703
sg75
(lp710
S'gzip,deflate,sdch'
p711
asbasbasbag68
(g84
g70
NtRp712
(dp713
g73
(dp714
sg82
g486
sg75
(lp715
g68
(g89
g70
NtRp716
(dp717
g73
(dp718
g93
g94
ssg82
g712
sg75
(lp719
S'http_accept_language'
p720
asbag68
(g89
g70
NtRp721
(dp722
g73
(dp723
g100
g101
ssg82
g712
sg75
(lp724
S':'
asbag68
(g89
g70
NtRp725
(dp726
g73
(dp727
sg82
g712
sg75
(lp728
g68
(g69
g70
NtRp729
(dp730
g73
(dp731
g81
I4
ssg82
g725
sg75
(lp732
S'pt-BR,pt;q=0.8,en-US;q=0.6,en;q=0.4'
p733
asbasbasbag68
(g84
g70
NtRp734
(dp735
g73
(dp736
sg82
g486
sg75
(lp737
g68
(g89
g70
NtRp738
(dp739
g73
(dp740
g93
g94
ssg82
g734
sg75
(lp741
S'http_connection'
p742
asbag68
(g89
g70
NtRp743
(dp744
g73
(dp745
g100
g101
ssg82
g734
sg75
(lp746
S':'
asbag68
(g89
g70
NtRp747
(dp748
g73
(dp749
sg82
g734
sg75
(lp750
g68
(g69
g70
NtRp751
(dp752
g73
(dp753
g81
I4
ssg82
g747
sg75
(lp754
S'keep-alive'
p755
asbasbasbag68
(g84
g70
NtRp756
(dp757
g73
(dp758
sg82
g486
sg75
(lp759
g68
(g89
g70
NtRp760
(dp761
g73
(dp762
g93
g94
ssg82
g756
sg75
(lp763
S'http_cookie'
p764
asbag68
(g89
g70
NtRp765
(dp766
g73
(dp767
g100
g101
ssg82
g756
sg75
(lp768
S':'
asbag68
(g89
g70
NtRp769
(dp770
g73
(dp771
sg82
g756
sg75
(lp772
g68
(g69
g70
NtRp773
(dp774
g73
(dp775
g81
I4
ssg82
g769
sg75
(lp776
S'session_id_projeto=127.0.0.1-619cd520-b2b6-4b3b-ac85-03f82b831790'
p777
asbasbasbag68
(g84
g70
NtRp778
(dp779
g73
(dp780
sg82
g486
sg75
(lp781
g68
(g89
g70
NtRp782
(dp783
g73
(dp784
g93
g94
ssg82
g778
sg75
(lp785
S'http_host'
p786
asbag68
(g89
g70
NtRp787
(dp788
g73
(dp789
g100
g101
ssg82
g778
sg75
(lp790
S':'
asbag68
(g89
g70
NtRp791
(dp792
g73
(dp793
sg82
g778
sg75
(lp794
g68
(g69
g70
NtRp795
(dp796
g73
(dp797
g81
I4
ssg82
g791
sg75
(lp798
S'127.0.0.1:8000'
p799
asbasbasbag68
(g84
g70
NtRp800
(dp801
g73
(dp802
sg82
g486
sg75
(lp803
g68
(g89
g70
NtRp804
(dp805
g73
(dp806
g93
g94
ssg82
g800
sg75
(lp807
S'http_referer'
p808
asbag68
(g89
g70
NtRp809
(dp810
g73
(dp811
g100
g101
ssg82
g800
sg75
(lp812
S':'
asbag68
(g89
g70
NtRp813
(dp814
g73
(dp815
sg82
g800
sg75
(lp816
g68
(g69
g70
NtRp817
(dp818
g73
(dp819
g81
I4
ssg82
g813
sg75
(lp820
S'http://127.0.0.1:8000/'
p821
asbasbasbag68
(g84
g70
NtRp822
(dp823
g73
(dp824
sg82
g486
sg75
(lp825
g68
(g89
g70
NtRp826
(dp827
g73
(dp828
g93
g94
ssg82
g822
sg75
(lp829
S'http_user_agent'
p830
asbag68
(g89
g70
NtRp831
(dp832
g73
(dp833
g100
g101
ssg82
g822
sg75
(lp834
S':'
asbag68
(g89
g70
NtRp835
(dp836
g73
(dp837
sg82
g822
sg75
(lp838
g68
(g69
g70
NtRp839
(dp840
g73
(dp841
g81
I4
ssg82
g835
sg75
(lp842
S'Mozilla/5.0 (X11; Linux x86_64) AppleWebKit/537.4 (KHTML, like Gecko) Ubuntu/12.10 Chromium/22.0.1229.94 Chrome/22.0.1229.94 Safari/537.4'
p843
asbasbasbag68
(g84
g70
NtRp844
(dp845
g73
(dp846
sg82
g486
sg75
(lp847
g68
(g89
g70
NtRp848
(dp849
g73
(dp850
g93
g94
ssg82
g844
sg75
(lp851
S'is_jython'
p852
asbag68
(g89
g70
NtRp853
(dp854
g73
(dp855
g100
g101
ssg82
g844
sg75
(lp856
S':'
asbag68
(g89
g70
NtRp857
(dp858
g73
(dp859
sg82
g844
sg75
(lp860
g68
(g69
g70
NtRp861
(dp862
g73
(dp863
g81
I4
ssg82
g857
sg75
(lp864
g111
asbasbasbag68
(g84
g70
NtRp865
(dp866
g73
(dp867
sg82
g486
sg75
(lp868
g68
(g89
g70
NtRp869
(dp870
g73
(dp871
g93
g94
ssg82
g865
sg75
(lp872
S'is_pypy'
p873
asbag68
(g89
g70
NtRp874
(dp875
g73
(dp876
g100
g101
ssg82
g865
sg75
(lp877
S':'
asbag68
(g89
g70
NtRp878
(dp879
g73
(dp880
sg82
g865
sg75
(lp881
g68
(g69
g70
NtRp882
(dp883
g73
(dp884
g81
I4
ssg82
g878
sg75
(lp885
g111
asbasbasbag68
(g84
g70
NtRp886
(dp887
g73
(dp888
sg82
g486
sg75
(lp889
g68
(g89
g70
NtRp890
(dp891
g73
(dp892
g93
g94
ssg82
g886
sg75
(lp893
S'local_hosts'
p894
asbag68
(g89
g70
NtRp895
(dp896
g73
(dp897
g100
g101
ssg82
g886
sg75
(lp898
S':'
asbag68
(g89
g70
NtRp899
(dp900
g73
(dp901
sg82
g886
sg75
(lp902
g68
(g69
g70
NtRp903
(dp904
g73
(dp905
g81
I4
ssg82
g899
sg75
(lp906
g68
(g77
g70
NtRp907
(dp908
g73
(dp909
g81
I3
ssg82
Nsg75
(lp910
g68
(g84
g70
NtRp911
(dp912
g73
(dp913
sg82
g907
sg75
(lp914
g68
(g89
g70
NtRp915
(dp916
g73
(dp917
sg82
g911
sg75
(lp918
g68
(g69
g70
NtRp919
(dp920
g73
(dp921
g81
I3
ssg82
g915
sg75
(lp922
S'::1'
p923
asbasbasbag68
(g84
g70
NtRp924
(dp925
g73
(dp926
sg82
g907
sg75
(lp927
g68
(g89
g70
NtRp928
(dp929
g73
(dp930
sg82
g924
sg75
(lp931
g68
(g69
g70
NtRp932
(dp933
g73
(dp934
g81
I3
ssg82
g928
sg75
(lp935
S'::ffff:127.0.0.1'
p936
asbasbasbag68
(g84
g70
NtRp937
(dp938
g73
(dp939
sg82
g907
sg75
(lp940
g68
(g89
g70
NtRp941
(dp942
g73
(dp943
sg82
g937
sg75
(lp944
g68
(g69
g70
NtRp945
(dp946
g73
(dp947
g81
I3
ssg82
g941
sg75
(lp948
S'127.0.0.1'
p949
asbasbasbag68
(g84
g70
NtRp950
(dp951
g73
(dp952
sg82
g907
sg75
(lp953
g68
(g89
g70
NtRp954
(dp955
g73
(dp956
sg82
g950
sg75
(lp957
g68
(g69
g70
NtRp958
(dp959
g73
(dp960
g81
I3
ssg82
g954
sg75
(lp961
S'fernando-workstation'
p962
asbasbasbasbasbasbasbag68
(g84
g70
NtRp963
(dp964
g73
(dp965
sg82
g486
sg75
(lp966
g68
(g89
g70
NtRp967
(dp968
g73
(dp969
g93
g94
ssg82
g963
sg75
(lp970
S'path_info'
p971
asbag68
(g89
g70
NtRp972
(dp973
g73
(dp974
g100
g101
ssg82
g963
sg75
(lp975
S':'
asbag68
(g89
g70
NtRp976
(dp977
g73
(dp978
sg82
g963
sg75
(lp979
g68
(g69
g70
NtRp980
(dp981
g73
(dp982
g81
I4
ssg82
g976
sg75
(lp983
S'/principal'
p984
asbasbasbag68
(g84
g70
NtRp985
(dp986
g73
(dp987
sg82
g486
sg75
(lp988
g68
(g89
g70
NtRp989
(dp990
g73
(dp991
g93
g94
ssg82
g985
sg75
(lp992
S'query_string'
p993
asbag68
(g89
g70
NtRp994
(dp995
g73
(dp996
g100
g101
ssg82
g985
sg75
(lp997
S':'
asbag68
(g89
g70
NtRp998
(dp999
g73
(dp1000
sg82
g985
sg75
(lp1001
g68
(g69
g70
NtRp1002
(dp1003
g73
(dp1004
g81
I4
ssg82
g998
sg75
(lp1005
S''
asbasbasbag68
(g84
g70
NtRp1006
(dp1007
g73
(dp1008
sg82
g486
sg75
(lp1009
g68
(g89
g70
NtRp1010
(dp1011
g73
(dp1012
g93
g94
ssg82
g1006
sg75
(lp1013
S'remote_addr'
p1014
asbag68
(g89
g70
NtRp1015
(dp1016
g73
(dp1017
g100
g101
ssg82
g1006
sg75
(lp1018
S':'
asbag68
(g89
g70
NtRp1019
(dp1020
g73
(dp1021
sg82
g1006
sg75
(lp1022
g68
(g69
g70
NtRp1023
(dp1024
g73
(dp1025
g81
I4
ssg82
g1019
sg75
(lp1026
g223
asbasbasbag68
(g84
g70
NtRp1027
(dp1028
g73
(dp1029
sg82
g486
sg75
(lp1030
g68
(g89
g70
NtRp1031
(dp1032
g73
(dp1033
g93
g94
ssg82
g1027
sg75
(lp1034
S'remote_port'
p1035
asbag68
(g89
g70
NtRp1036
(dp1037
g73
(dp1038
g100
g101
ssg82
g1027
sg75
(lp1039
S':'
asbag68
(g89
g70
NtRp1040
(dp1041
g73
(dp1042
sg82
g1027
sg75
(lp1043
g68
(g69
g70
NtRp1044
(dp1045
g73
(dp1046
g81
I4
ssg82
g1040
sg75
(lp1047
S'50776'
p1048
asbasbasbag68
(g84
g70
NtRp1049
(dp1050
g73
(dp1051
sg82
g486
sg75
(lp1052
g68
(g89
g70
NtRp1053
(dp1054
g73
(dp1055
g93
g94
ssg82
g1049
sg75
(lp1056
S'request_method'
p1057
asbag68
(g89
g70
NtRp1058
(dp1059
g73
(dp1060
g100
g101
ssg82
g1049
sg75
(lp1061
S':'
asbag68
(g89
g70
NtRp1062
(dp1063
g73
(dp1064
sg82
g1049
sg75
(lp1065
g68
(g69
g70
NtRp1066
(dp1067
g73
(dp1068
g81
I4
ssg82
g1062
sg75
(lp1069
S'GET'
p1070
asbasbasbag68
(g84
g70
NtRp1071
(dp1072
g73
(dp1073
sg82
g486
sg75
(lp1074
g68
(g89
g70
NtRp1075
(dp1076
g73
(dp1077
g93
g94
ssg82
g1071
sg75
(lp1078
S'request_uri'
p1079
asbag68
(g89
g70
NtRp1080
(dp1081
g73
(dp1082
g100
g101
ssg82
g1071
sg75
(lp1083
S':'
asbag68
(g89
g70
NtRp1084
(dp1085
g73
(dp1086
sg82
g1071
sg75
(lp1087
g68
(g69
g70
NtRp1088
(dp1089
g73
(dp1090
g81
I4
ssg82
g1084
sg75
(lp1091
S'/projeto/initial/principal'
p1092
asbasbasbag68
(g84
g70
NtRp1093
(dp1094
g73
(dp1095
sg82
g486
sg75
(lp1096
g68
(g89
g70
NtRp1097
(dp1098
g73
(dp1099
g93
g94
ssg82
g1093
sg75
(lp1100
S'script_name'
p1101
asbag68
(g89
g70
NtRp1102
(dp1103
g73
(dp1104
g100
g101
ssg82
g1093
sg75
(lp1105
S':'
asbag68
(g89
g70
NtRp1106
(dp1107
g73
(dp1108
sg82
g1093
sg75
(lp1109
g68
(g69
g70
NtRp1110
(dp1111
g73
(dp1112
g81
I4
ssg82
g1106
sg75
(lp1113
S''
asbasbasbag68
(g84
g70
NtRp1114
(dp1115
g73
(dp1116
sg82
g486
sg75
(lp1117
g68
(g89
g70
NtRp1118
(dp1119
g73
(dp1120
g93
g94
ssg82
g1114
sg75
(lp1121
S'server_name'
p1122
asbag68
(g89
g70
NtRp1123
(dp1124
g73
(dp1125
g100
g101
ssg82
g1114
sg75
(lp1126
S':'
asbag68
(g89
g70
NtRp1127
(dp1128
g73
(dp1129
sg82
g1114
sg75
(lp1130
g68
(g69
g70
NtRp1131
(dp1132
g73
(dp1133
g81
I4
ssg82
g1127
sg75
(lp1134
S'fernando-workstation'
p1135
asbasbasbag68
(g84
g70
NtRp1136
(dp1137
g73
(dp1138
sg82
g486
sg75
(lp1139
g68
(g89
g70
NtRp1140
(dp1141
g73
(dp1142
g93
g94
ssg82
g1136
sg75
(lp1143
S'server_port'
p1144
asbag68
(g89
g70
NtRp1145
(dp1146
g73
(dp1147
g100
g101
ssg82
g1136
sg75
(lp1148
S':'
asbag68
(g89
g70
NtRp1149
(dp1150
g73
(dp1151
sg82
g1136
sg75
(lp1152
g68
(g69
g70
NtRp1153
(dp1154
g73
(dp1155
g81
I4
ssg82
g1149
sg75
(lp1156
S'8000'
p1157
asbasbasbag68
(g84
g70
NtRp1158
(dp1159
g73
(dp1160
sg82
g486
sg75
(lp1161
g68
(g89
g70
NtRp1162
(dp1163
g73
(dp1164
g93
g94
ssg82
g1158
sg75
(lp1165
S'server_protocol'
p1166
asbag68
(g89
g70
NtRp1167
(dp1168
g73
(dp1169
g100
g101
ssg82
g1158
sg75
(lp1170
S':'
asbag68
(g89
g70
NtRp1171
(dp1172
g73
(dp1173
sg82
g1158
sg75
(lp1174
g68
(g69
g70
NtRp1175
(dp1176
g73
(dp1177
g81
I4
ssg82
g1171
sg75
(lp1178
S'HTTP/1.1'
p1179
asbasbasbag68
(g84
g70
NtRp1180
(dp1181
g73
(dp1182
sg82
g486
sg75
(lp1183
g68
(g89
g70
NtRp1184
(dp1185
g73
(dp1186
g93
g94
ssg82
g1180
sg75
(lp1187
S'server_software'
p1188
asbag68
(g89
g70
NtRp1189
(dp1190
g73
(dp1191
g100
g101
ssg82
g1180
sg75
(lp1192
S':'
asbag68
(g89
g70
NtRp1193
(dp1194
g73
(dp1195
sg82
g1180
sg75
(lp1196
g68
(g69
g70
NtRp1197
(dp1198
g73
(dp1199
g81
I4
ssg82
g1193
sg75
(lp1200
S'Rocket 1.2.6'
p1201
asbasbasbag68
(g84
g70
NtRp1202
(dp1203
g73
(dp1204
sg82
g486
sg75
(lp1205
g68
(g89
g70
NtRp1206
(dp1207
g73
(dp1208
g93
g94
ssg82
g1202
sg75
(lp1209
S'web2py_original_uri'
p1210
asbag68
(g89
g70
NtRp1211
(dp1212
g73
(dp1213
g100
g101
ssg82
g1202
sg75
(lp1214
S':'
asbag68
(g89
g70
NtRp1215
(dp1216
g73
(dp1217
sg82
g1202
sg75
(lp1218
g68
(g69
g70
NtRp1219
(dp1220
g73
(dp1221
g81
I4
ssg82
g1215
sg75
(lp1222
g984
asbasbasbag68
(g84
g70
NtRp1223
(dp1224
g73
(dp1225
sg82
g486
sg75
(lp1226
g68
(g89
g70
NtRp1227
(dp1228
g73
(dp1229
g93
g94
ssg82
g1223
sg75
(lp1230
S'web2py_path'
p1231
asbag68
(g89
g70
NtRp1232
(dp1233
g73
(dp1234
g100
g101
ssg82
g1223
sg75
(lp1235
S':'
asbag68
(g89
g70
NtRp1236
(dp1237
g73
(dp1238
sg82
g1223
sg75
(lp1239
g68
(g69
g70
NtRp1240
(dp1241
g73
(dp1242
g81
I4
ssg82
g1236
sg75
(lp1243
g533
asbasbasbag68
(g84
g70
NtRp1244
(dp1245
g73
(dp1246
sg82
g486
sg75
(lp1247
g68
(g89
g70
NtRp1248
(dp1249
g73
(dp1250
g93
g94
ssg82
g1244
sg75
(lp1251
S'web2py_version'
p1252
asbag68
(g89
g70
NtRp1253
(dp1254
g73
(dp1255
g100
g101
ssg82
g1244
sg75
(lp1256
S':'
asbag68
(g89
g70
NtRp1257
(dp1258
g73
(dp1259
sg82
g1244
sg75
(lp1260
g68
(g69
g70
NtRp1261
(dp1262
g73
(dp1263
g81
I4
ssg82
g1257
sg75
(lp1264
g68
(g77
g70
NtRp1265
(dp1266
g73
(dp1267
g81
I3
ssg82
Nsg75
(lp1268
g68
(g84
g70
NtRp1269
(dp1270
g73
(dp1271
sg82
g1265
sg75
(lp1272
g68
(g89
g70
NtRp1273
(dp1274
g73
(dp1275
sg82
g1269
sg75
(lp1276
g68
(g69
g70
NtRp1277
(dp1278
g73
(dp1279
g81
I3
ssg82
g1273
sg75
(lp1280
S'2'
asbasbasbag68
(g84
g70
NtRp1281
(dp1282
g73
(dp1283
sg82
g1265
sg75
(lp1284
g68
(g89
g70
NtRp1285
(dp1286
g73
(dp1287
sg82
g1281
sg75
(lp1288
g68
(g69
g70
NtRp1289
(dp1290
g73
(dp1291
g81
I3
ssg82
g1285
sg75
(lp1292
S'3'
asbasbasbag68
(g84
g70
NtRp1293
(dp1294
g73
(dp1295
sg82
g1265
sg75
(lp1296
g68
(g89
g70
NtRp1297
(dp1298
g73
(dp1299
sg82
g1293
sg75
(lp1300
g68
(g69
g70
NtRp1301
(dp1302
g73
(dp1303
g81
I3
ssg82
g1297
sg75
(lp1304
S'2'
asbasbasbag68
(g84
g70
NtRp1305
(dp1306
g73
(dp1307
sg82
g1265
sg75
(lp1308
g68
(g89
g70
NtRp1309
(dp1310
g73
(dp1311
sg82
g1305
sg75
(lp1312
g68
(g69
g70
NtRp1313
(dp1314
g73
(dp1315
g81
I3
ssg82
g1309
sg75
(lp1316
S'datetime.datetime(2012, 12, 17, 15, 3, 30)'
p1317
asbasbasbag68
(g84
g70
NtRp1318
(dp1319
g73
(dp1320
sg82
g1265
sg75
(lp1321
g68
(g89
g70
NtRp1322
(dp1323
g73
(dp1324
sg82
g1318
sg75
(lp1325
g68
(g69
g70
NtRp1326
(dp1327
g73
(dp1328
g81
I3
ssg82
g1322
sg75
(lp1329
S'stable'
p1330
asbasbasbasbasbasbasbag68
(g84
g70
NtRp1331
(dp1332
g73
(dp1333
sg82
g486
sg75
(lp1334
g68
(g89
g70
NtRp1335
(dp1336
g73
(dp1337
g93
g94
ssg82
g1331
sg75
(lp1338
S'wsgi_errors'
p1339
asbag68
(g89
g70
NtRp1340
(dp1341
g73
(dp1342
g100
g101
ssg82
g1331
sg75
(lp1343
S':'
asbag68
(g89
g70
NtRp1344
(dp1345
g73
(dp1346
sg82
g1331
sg75
(lp1347
g68
(g69
g70
NtRp1348
(dp1349
g73
(dp1350
g81
I4
ssg82
g1344
sg75
(lp1351
S"<open file '<stderr>', mode 'w' at 0x7f1fcbf28270>"
p1352
asbasbasbag68
(g84
g70
NtRp1353
(dp1354
g73
(dp1355
sg82
g486
sg75
(lp1356
g68
(g89
g70
NtRp1357
(dp1358
g73
(dp1359
g93
g94
ssg82
g1353
sg75
(lp1360
S'wsgi_file_wrapper'
p1361
asbag68
(g89
g70
NtRp1362
(dp1363
g73
(dp1364
g100
g101
ssg82
g1353
sg75
(lp1365
S':'
asbag68
(g89
g70
NtRp1366
(dp1367
g73
(dp1368
sg82
g1353
sg75
(lp1369
g68
(g69
g70
NtRp1370
(dp1371
g73
(dp1372
g81
I4
ssg82
g1366
sg75
(lp1373
S'<class wsgiref.util.FileWrapper at 0x23a54c8>'
p1374
asbasbasbag68
(g84
g70
NtRp1375
(dp1376
g73
(dp1377
sg82
g486
sg75
(lp1378
g68
(g89
g70
NtRp1379
(dp1380
g73
(dp1381
g93
g94
ssg82
g1375
sg75
(lp1382
S'wsgi_input'
p1383
asbag68
(g89
g70
NtRp1384
(dp1385
g73
(dp1386
g100
g101
ssg82
g1375
sg75
(lp1387
S':'
asbag68
(g89
g70
NtRp1388
(dp1389
g73
(dp1390
sg82
g1375
sg75
(lp1391
g68
(g69
g70
NtRp1392
(dp1393
g73
(dp1394
g81
I4
ssg82
g1388
sg75
(lp1395
S'<socket._fileobject object at 0x7f1fb81598d0>'
p1396
asbasbasbag68
(g84
g70
NtRp1397
(dp1398
g73
(dp1399
sg82
g486
sg75
(lp1400
g68
(g89
g70
NtRp1401
(dp1402
g73
(dp1403
g93
g94
ssg82
g1397
sg75
(lp1404
S'wsgi_multiprocess'
p1405
asbag68
(g89
g70
NtRp1406
(dp1407
g73
(dp1408
g100
g101
ssg82
g1397
sg75
(lp1409
S':'
asbag68
(g89
g70
NtRp1410
(dp1411
g73
(dp1412
sg82
g1397
sg75
(lp1413
g68
(g69
g70
NtRp1414
(dp1415
g73
(dp1416
g81
I4
ssg82
g1410
sg75
(lp1417
g111
asbasbasbag68
(g84
g70
NtRp1418
(dp1419
g73
(dp1420
sg82
g486
sg75
(lp1421
g68
(g89
g70
NtRp1422
(dp1423
g73
(dp1424
g93
g94
ssg82
g1418
sg75
(lp1425
S'wsgi_multithread'
p1426
asbag68
(g89
g70
NtRp1427
(dp1428
g73
(dp1429
g100
g101
ssg82
g1418
sg75
(lp1430
S':'
asbag68
(g89
g70
NtRp1431
(dp1432
g73
(dp1433
sg82
g1418
sg75
(lp1434
g68
(g69
g70
NtRp1435
(dp1436
g73
(dp1437
g81
I4
ssg82
g1431
sg75
(lp1438
S'True'
p1439
asbasbasbag68
(g84
g70
NtRp1440
(dp1441
g73
(dp1442
sg82
g486
sg75
(lp1443
g68
(g89
g70
NtRp1444
(dp1445
g73
(dp1446
g93
g94
ssg82
g1440
sg75
(lp1447
S'wsgi_run_once'
p1448
asbag68
(g89
g70
NtRp1449
(dp1450
g73
(dp1451
g100
g101
ssg82
g1440
sg75
(lp1452
S':'
asbag68
(g89
g70
NtRp1453
(dp1454
g73
(dp1455
sg82
g1440
sg75
(lp1456
g68
(g69
g70
NtRp1457
(dp1458
g73
(dp1459
g81
I4
ssg82
g1453
sg75
(lp1460
g111
asbasbasbag68
(g84
g70
NtRp1461
(dp1462
g73
(dp1463
sg82
g486
sg75
(lp1464
g68
(g89
g70
NtRp1465
(dp1466
g73
(dp1467
g93
g94
ssg82
g1461
sg75
(lp1468
S'wsgi_url_scheme'
p1469
asbag68
(g89
g70
NtRp1470
(dp1471
g73
(dp1472
g100
g101
ssg82
g1461
sg75
(lp1473
S':'
asbag68
(g89
g70
NtRp1474
(dp1475
g73
(dp1476
sg82
g1461
sg75
(lp1477
g68
(g69
g70
NtRp1478
(dp1479
g73
(dp1480
g81
I4
ssg82
g1474
sg75
(lp1481
S'http'
p1482
asbasbasbag68
(g84
g70
NtRp1483
(dp1484
g73
(dp1485
sg82
g486
sg75
(lp1486
g68
(g89
g70
NtRp1487
(dp1488
g73
(dp1489
g93
g94
ssg82
g1483
sg75
(lp1490
S'wsgi_version'
p1491
asbag68
(g89
g70
NtRp1492
(dp1493
g73
(dp1494
g100
g101
ssg82
g1483
sg75
(lp1495
S':'
asbag68
(g89
g70
NtRp1496
(dp1497
g73
(dp1498
sg82
g1483
sg75
(lp1499
g68
(g69
g70
NtRp1500
(dp1501
g73
(dp1502
g81
I4
ssg82
g1496
sg75
(lp1503
g68
(g77
g70
NtRp1504
(dp1505
g73
(dp1506
g81
I3
ssg82
Nsg75
(lp1507
g68
(g84
g70
NtRp1508
(dp1509
g73
(dp1510
sg82
g1504
sg75
(lp1511
g68
(g89
g70
NtRp1512
(dp1513
g73
(dp1514
sg82
g1508
sg75
(lp1515
g68
(g69
g70
NtRp1516
(dp1517
g73
(dp1518
g81
I3
ssg82
g1512
sg75
(lp1519
S'1'
asbasbasbag68
(g84
g70
NtRp1520
(dp1521
g73
(dp1522
sg82
g1504
sg75
(lp1523
g68
(g89
g70
NtRp1524
(dp1525
g73
(dp1526
sg82
g1520
sg75
(lp1527
g68
(g69
g70
NtRp1528
(dp1529
g73
(dp1530
g81
I3
ssg82
g1524
sg75
(lp1531
S'0'
asbasbasbasbasbasbasbasbasbasbasbag68
(g84
g70
NtRp1532
(dp1533
g73
(dp1534
sg82
g78
sg75
(lp1535
g68
(g89
g70
NtRp1536
(dp1537
g73
(dp1538
g93
g94
ssg82
g1532
sg75
(lp1539
S'extension'
p1540
asbag68
(g89
g70
NtRp1541
(dp1542
g73
(dp1543
g100
g101
ssg82
g1532
sg75
(lp1544
S':'
asbag68
(g89
g70
NtRp1545
(dp1546
g73
(dp1547
sg82
g1532
sg75
(lp1548
g68
(g69
g70
NtRp1549
(dp1550
g73
(dp1551
g81
I5
ssg82
g1545
sg75
(lp1552
S'html'
p1553
asbasbasbag68
(g84
g70
NtRp1554
(dp1555
g73
(dp1556
sg82
g78
sg75
(lp1557
g68
(g89
g70
NtRp1558
(dp1559
g73
(dp1560
g93
g94
ssg82
g1554
sg75
(lp1561
S'folder'
p1562
asbag68
(g89
g70
NtRp1563
(dp1564
g73
(dp1565
g100
g101
ssg82
g1554
sg75
(lp1566
S':'
asbag68
(g89
g70
NtRp1567
(dp1568
g73
(dp1569
sg82
g1554
sg75
(lp1570
g68
(g69
g70
NtRp1571
(dp1572
g73
(dp1573
g81
I5
ssg82
g1567
sg75
(lp1574
S'/var/www/agenda/applications/projeto/'
p1575
asbasbasbag68
(g84
g70
NtRp1576
(dp1577
g73
(dp1578
sg82
g78
sg75
(lp1579
g68
(g89
g70
NtRp1580
(dp1581
g73
(dp1582
g93
g94
ssg82
g1576
sg75
(lp1583
S'function'
p1584
asbag68
(g89
g70
NtRp1585
(dp1586
g73
(dp1587
g100
g101
ssg82
g1576
sg75
(lp1588
S':'
asbag68
(g89
g70
NtRp1589
(dp1590
g73
(dp1591
sg82
g1576
sg75
(lp1592
g68
(g69
g70
NtRp1593
(dp1594
g73
(dp1595
g81
I5
ssg82
g1589
sg75
(lp1596
S'principal'
p1597
asbasbasbag68
(g84
g70
NtRp1598
(dp1599
g73
(dp1600
sg82
g78
sg75
(lp1601
g68
(g89
g70
NtRp1602
(dp1603
g73
(dp1604
g93
g94
ssg82
g1598
sg75
(lp1605
S'get_vars'
p1606
asbag68
(g89
g70
NtRp1607
(dp1608
g73
(dp1609
g100
g101
ssg82
g1598
sg75
(lp1610
S':'
asbag68
(g89
g70
NtRp1611
(dp1612
g73
(dp1613
sg82
g1598
sg75
(lp1614
g68
(g69
g70
NtRp1615
(dp1616
g73
(dp1617
g81
I5
ssg82
g1611
sg75
(lp1618
g68
(g77
g70
NtRp1619
(dp1620
g73
(dp1621
g81
I4
ssg82
Nsg75
(lp1622
sbasbasbasbag68
(g84
g70
NtRp1623
(dp1624
g73
(dp1625
sg82
g78
sg75
(lp1626
g68
(g89
g70
NtRp1627
(dp1628
g73
(dp1629
g93
g94
ssg82
g1623
sg75
(lp1630
S'global_settings'
p1631
asbag68
(g89
g70
NtRp1632
(dp1633
g73
(dp1634
g100
g101
ssg82
g1623
sg75
(lp1635
S':'
asbag68
(g89
g70
NtRp1636
(dp1637
g73
(dp1638
sg82
g1623
sg75
(lp1639
g68
(g69
g70
NtRp1640
(dp1641
g73
(dp1642
g81
I5
ssg82
g1636
sg75
(lp1643
g68
(g77
g70
NtRp1644
(dp1645
g73
(dp1646
g81
I4
ssg82
Nsg75
(lp1647
g68
(g84
g70
NtRp1648
(dp1649
g73
(dp1650
sg82
g1644
sg75
(lp1651
g68
(g89
g70
NtRp1652
(dp1653
g73
(dp1654
g93
g94
ssg82
g1648
sg75
(lp1655
g498
asbag68
(g89
g70
NtRp1656
(dp1657
g73
(dp1658
g100
g101
ssg82
g1648
sg75
(lp1659
S':'
asbag68
(g89
g70
NtRp1660
(dp1661
g73
(dp1662
sg82
g1648
sg75
(lp1663
g68
(g69
g70
NtRp1664
(dp1665
g73
(dp1666
g81
I4
ssg82
g1660
sg75
(lp1667
S"set(['/var/www/agenda/applications/projeto/'])"
p1668
asbasbasbag68
(g84
g70
NtRp1669
(dp1670
g73
(dp1671
sg82
g1644
sg75
(lp1672
g68
(g89
g70
NtRp1673
(dp1674
g73
(dp1675
g93
g94
ssg82
g1669
sg75
(lp1676
g520
asbag68
(g89
g70
NtRp1677
(dp1678
g73
(dp1679
g100
g101
ssg82
g1669
sg75
(lp1680
S':'
asbag68
(g89
g70
NtRp1681
(dp1682
g73
(dp1683
sg82
g1669
sg75
(lp1684
g68
(g69
g70
NtRp1685
(dp1686
g73
(dp1687
g81
I4
ssg82
g1681
sg75
(lp1688
g533
asbasbasbag68
(g84
g70
NtRp1689
(dp1690
g73
(dp1691
sg82
g1644
sg75
(lp1692
g68
(g89
g70
NtRp1693
(dp1694
g73
(dp1695
g93
g94
ssg82
g1689
sg75
(lp1696
g542
asbag68
(g89
g70
NtRp1697
(dp1698
g73
(dp1699
g100
g101
ssg82
g1689
sg75
(lp1700
S':'
asbag68
(g89
g70
NtRp1701
(dp1702
g73
(dp1703
sg82
g1689
sg75
(lp1704
g68
(g69
g70
NtRp1705
(dp1706
g73
(dp1707
g81
I4
ssg82
g1701
sg75
(lp1708
g68
(g77
g70
NtRp1709
(dp1710
g73
(dp1711
g81
I3
ssg82
Nsg75
(lp1712
sbasbasbasbag68
(g84
g70
NtRp1713
(dp1714
g73
(dp1715
sg82
g1644
sg75
(lp1716
g68
(g89
g70
NtRp1717
(dp1718
g73
(dp1719
g93
g94
ssg82
g1713
sg75
(lp1720
g567
asbag68
(g89
g70
NtRp1721
(dp1722
g73
(dp1723
g100
g101
ssg82
g1713
sg75
(lp1724
S':'
asbag68
(g89
g70
NtRp1725
(dp1726
g73
(dp1727
sg82
g1713
sg75
(lp1728
g68
(g69
g70
NtRp1729
(dp1730
g73
(dp1731
g81
I4
ssg82
g1725
sg75
(lp1732
S"<Values at 0x241e170: {'verbose': False, 'ip': '127.0.0.1', 'with_scheduler': False, 'ips': [], 'shutdown_timeout': 5, 'taskbar': False, 'port': 8000, 'maxthreads': None, 'softcron': False, 'server_name': 'fernando-workstation', 'bpython': False, 'nogui': False, 'pid_filename': 'httpserver.pid', 'extcron': False, 'runcron': False, 'run_system_tests': False, 'test': None, 'folder': '/var/www/agenda', 'config': '', 'minthreads': None, 'winservice': '', 'shell': None, 'run': '', 'log_filename': 'httpserver.log', 'debuglevel': 30, 'args': [''], 'socket_timeout': 5, 'ssl_ca_certificate': None, 'scheduler': None, 'profiler_filename': None, 'ssl_private_key': '', 'scheduler_groups': None, 'password': '123456', 'request_queue_size': 5, 'ssl_certificate': '', 'cronjob': False, 'numthreads': None, 'quiet': False, 'interfaces': None, 'import_models': False, 'timeout': 10, 'plain': False, 'nobanner': False}>"
p1733
asbasbasbag68
(g84
g70
NtRp1734
(dp1735
g73
(dp1736
sg82
g1644
sg75
(lp1737
g68
(g89
g70
NtRp1738
(dp1739
g73
(dp1740
g93
g94
ssg82
g1734
sg75
(lp1741
g589
asbag68
(g89
g70
NtRp1742
(dp1743
g73
(dp1744
g100
g101
ssg82
g1734
sg75
(lp1745
S':'
asbag68
(g89
g70
NtRp1746
(dp1747
g73
(dp1748
sg82
g1734
sg75
(lp1749
g68
(g69
g70
NtRp1750
(dp1751
g73
(dp1752
g81
I4
ssg82
g1746
sg75
(lp1753
S'set([])'
p1754
asbasbasbag68
(g84
g70
NtRp1755
(dp1756
g73
(dp1757
sg82
g1644
sg75
(lp1758
g68
(g89
g70
NtRp1759
(dp1760
g73
(dp1761
g93
g94
ssg82
g1755
sg75
(lp1762
g611
asbag68
(g89
g70
NtRp1763
(dp1764
g73
(dp1765
g100
g101
ssg82
g1755
sg75
(lp1766
S':'
asbag68
(g89
g70
NtRp1767
(dp1768
g73
(dp1769
sg82
g1755
sg75
(lp1770
g68
(g69
g70
NtRp1771
(dp1772
g73
(dp1773
g81
I4
ssg82
g1767
sg75
(lp1774
g111
asbasbasbag68
(g84
g70
NtRp1775
(dp1776
g73
(dp1777
sg82
g1644
sg75
(lp1778
g68
(g89
g70
NtRp1779
(dp1780
g73
(dp1781
g93
g94
ssg82
g1775
sg75
(lp1782
g632
asbag68
(g89
g70
NtRp1783
(dp1784
g73
(dp1785
g100
g101
ssg82
g1775
sg75
(lp1786
S':'
asbag68
(g89
g70
NtRp1787
(dp1788
g73
(dp1789
sg82
g1775
sg75
(lp1790
g68
(g69
g70
NtRp1791
(dp1792
g73
(dp1793
g81
I4
ssg82
g1787
sg75
(lp1794
g645
asbasbasbag68
(g84
g70
NtRp1795
(dp1796
g73
(dp1797
sg82
g1644
sg75
(lp1798
g68
(g89
g70
NtRp1799
(dp1800
g73
(dp1801
g93
g94
ssg82
g1795
sg75
(lp1802
g852
asbag68
(g89
g70
NtRp1803
(dp1804
g73
(dp1805
g100
g101
ssg82
g1795
sg75
(lp1806
S':'
asbag68
(g89
g70
NtRp1807
(dp1808
g73
(dp1809
sg82
g1795
sg75
(lp1810
g68
(g69
g70
NtRp1811
(dp1812
g73
(dp1813
g81
I4
ssg82
g1807
sg75
(lp1814
g111
asbasbasbag68
(g84
g70
NtRp1815
(dp1816
g73
(dp1817
sg82
g1644
sg75
(lp1818
g68
(g89
g70
NtRp1819
(dp1820
g73
(dp1821
g93
g94
ssg82
g1815
sg75
(lp1822
g873
asbag68
(g89
g70
NtRp1823
(dp1824
g73
(dp1825
g100
g101
ssg82
g1815
sg75
(lp1826
S':'
asbag68
(g89
g70
NtRp1827
(dp1828
g73
(dp1829
sg82
g1815
sg75
(lp1830
g68
(g69
g70
NtRp1831
(dp1832
g73
(dp1833
g81
I4
ssg82
g1827
sg75
(lp1834
g111
asbasbasbag68
(g84
g70
NtRp1835
(dp1836
g73
(dp1837
sg82
g1644
sg75
(lp1838
g68
(g89
g70
NtRp1839
(dp1840
g73
(dp1841
g93
g94
ssg82
g1835
sg75
(lp1842
g894
asbag68
(g89
g70
NtRp1843
(dp1844
g73
(dp1845
g100
g101
ssg82
g1835
sg75
(lp1846
S':'
asbag68
(g89
g70
NtRp1847
(dp1848
g73
(dp1849
sg82
g1835
sg75
(lp1850
g68
(g69
g70
NtRp1851
(dp1852
g73
(dp1853
g81
I4
ssg82
g1847
sg75
(lp1854
g68
(g77
g70
NtRp1855
(dp1856
g73
(dp1857
g81
I3
ssg82
Nsg75
(lp1858
g68
(g84
g70
NtRp1859
(dp1860
g73
(dp1861
sg82
g1855
sg75
(lp1862
g68
(g89
g70
NtRp1863
(dp1864
g73
(dp1865
sg82
g1859
sg75
(lp1866
g68
(g69
g70
NtRp1867
(dp1868
g73
(dp1869
g81
I3
ssg82
g1863
sg75
(lp1870
g923
asbasbasbag68
(g84
g70
NtRp1871
(dp1872
g73
(dp1873
sg82
g1855
sg75
(lp1874
g68
(g89
g70
NtRp1875
(dp1876
g73
(dp1877
sg82
g1871
sg75
(lp1878
g68
(g69
g70
NtRp1879
(dp1880
g73
(dp1881
g81
I3
ssg82
g1875
sg75
(lp1882
g936
asbasbasbag68
(g84
g70
NtRp1883
(dp1884
g73
(dp1885
sg82
g1855
sg75
(lp1886
g68
(g89
g70
NtRp1887
(dp1888
g73
(dp1889
sg82
g1883
sg75
(lp1890
g68
(g69
g70
NtRp1891
(dp1892
g73
(dp1893
g81
I3
ssg82
g1887
sg75
(lp1894
g949
asbasbasbag68
(g84
g70
NtRp1895
(dp1896
g73
(dp1897
sg82
g1855
sg75
(lp1898
g68
(g89
g70
NtRp1899
(dp1900
g73
(dp1901
sg82
g1895
sg75
(lp1902
g68
(g69
g70
NtRp1903
(dp1904
g73
(dp1905
g81
I3
ssg82
g1899
sg75
(lp1906
g962
asbasbasbasbasbasbasbag68
(g84
g70
NtRp1907
(dp1908
g73
(dp1909
sg82
g1644
sg75
(lp1910
g68
(g89
g70
NtRp1911
(dp1912
g73
(dp1913
g93
g94
ssg82
g1907
sg75
(lp1914
g1252
asbag68
(g89
g70
NtRp1915
(dp1916
g73
(dp1917
g100
g101
ssg82
g1907
sg75
(lp1918
S':'
asbag68
(g89
g70
NtRp1919
(dp1920
g73
(dp1921
sg82
g1907
sg75
(lp1922
g68
(g69
g70
NtRp1923
(dp1924
g73
(dp1925
g81
I4
ssg82
g1919
sg75
(lp1926
g68
(g77
g70
NtRp1927
(dp1928
g73
(dp1929
g81
I3
ssg82
Nsg75
(lp1930
g68
(g84
g70
NtRp1931
(dp1932
g73
(dp1933
sg82
g1927
sg75
(lp1934
g68
(g89
g70
NtRp1935
(dp1936
g73
(dp1937
sg82
g1931
sg75
(lp1938
g68
(g69
g70
NtRp1939
(dp1940
g73
(dp1941
g81
I3
ssg82
g1935
sg75
(lp1942
S'2'
asbasbasbag68
(g84
g70
NtRp1943
(dp1944
g73
(dp1945
sg82
g1927
sg75
(lp1946
g68
(g89
g70
NtRp1947
(dp1948
g73
(dp1949
sg82
g1943
sg75
(lp1950
g68
(g69
g70
NtRp1951
(dp1952
g73
(dp1953
g81
I3
ssg82
g1947
sg75
(lp1954
S'3'
asbasbasbag68
(g84
g70
NtRp1955
(dp1956
g73
(dp1957
sg82
g1927
sg75
(lp1958
g68
(g89
g70
NtRp1959
(dp1960
g73
(dp1961
sg82
g1955
sg75
(lp1962
g68
(g69
g70
NtRp1963
(dp1964
g73
(dp1965
g81
I3
ssg82
g1959
sg75
(lp1966
S'2'
asbasbasbag68
(g84
g70
NtRp1967
(dp1968
g73
(dp1969
sg82
g1927
sg75
(lp1970
g68
(g89
g70
NtRp1971
(dp1972
g73
(dp1973
sg82
g1967
sg75
(lp1974
g68
(g69
g70
NtRp1975
(dp1976
g73
(dp1977
g81
I3
ssg82
g1971
sg75
(lp1978
S'datetime.datetime(2012, 12, 17, 15, 3, 30)'
p1979
asbasbasbag68
(g84
g70
NtRp1980
(dp1981
g73
(dp1982
sg82
g1927
sg75
(lp1983
g68
(g89
g70
NtRp1984
(dp1985
g73
(dp1986
sg82
g1980
sg75
(lp1987
g68
(g69
g70
NtRp1988
(dp1989
g73
(dp1990
g81
I3
ssg82
g1984
sg75
(lp1991
g1330
asbasbasbasbasbasbasbasbasbasbasbag68
(g84
g70
NtRp1992
(dp1993
g73
(dp1994
sg82
g78
sg75
(lp1995
g68
(g89
g70
NtRp1996
(dp1997
g73
(dp1998
g93
g94
ssg82
g1992
sg75
(lp1999
S'is_https'
p2000
asbag68
(g89
g70
NtRp2001
(dp2002
g73
(dp2003
g100
g101
ssg82
g1992
sg75
(lp2004
S':'
asbag68
(g89
g70
NtRp2005
(dp2006
g73
(dp2007
sg82
g1992
sg75
(lp2008
g68
(g69
g70
NtRp2009
(dp2010
g73
(dp2011
g81
I5
ssg82
g2005
sg75
(lp2012
g111
asbasbasbag68
(g84
g70
NtRp2013
(dp2014
g73
(dp2015
sg82
g78
sg75
(lp2016
g68
(g89
g70
NtRp2017
(dp2018
g73
(dp2019
g93
g94
ssg82
g2013
sg75
(lp2020
S'is_local'
p2021
asbag68
(g89
g70
NtRp2022
(dp2023
g73
(dp2024
g100
g101
ssg82
g2013
sg75
(lp2025
S':'
asbag68
(g89
g70
NtRp2026
(dp2027
g73
(dp2028
sg82
g2013
sg75
(lp2029
g68
(g69
g70
NtRp2030
(dp2031
g73
(dp2032
g81
I5
ssg82
g2026
sg75
(lp2033
g1439
asbasbasbag68
(g84
g70
NtRp2034
(dp2035
g73
(dp2036
sg82
g78
sg75
(lp2037
g68
(g89
g70
NtRp2038
(dp2039
g73
(dp2040
g93
g94
ssg82
g2034
sg75
(lp2041
S'is_restful'
p2042
asbag68
(g89
g70
NtRp2043
(dp2044
g73
(dp2045
g100
g101
ssg82
g2034
sg75
(lp2046
S':'
asbag68
(g89
g70
NtRp2047
(dp2048
g73
(dp2049
sg82
g2034
sg75
(lp2050
g68
(g69
g70
NtRp2051
(dp2052
g73
(dp2053
g81
I5
ssg82
g2047
sg75
(lp2054
g111
asbasbasbag68
(g84
g70
NtRp2055
(dp2056
g73
(dp2057
sg82
g78
sg75
(lp2058
g68
(g89
g70
NtRp2059
(dp2060
g73
(dp2061
g93
g94
ssg82
g2055
sg75
(lp2062
S'now'
p2063
asbag68
(g89
g70
NtRp2064
(dp2065
g73
(dp2066
g100
g101
ssg82
g2055
sg75
(lp2067
S':'
asbag68
(g89
g70
NtRp2068
(dp2069
g73
(dp2070
sg82
g2055
sg75
(lp2071
g68
(g69
g70
NtRp2072
(dp2073
g73
(dp2074
g81
I5
ssg82
g2068
sg75
(lp2075
S'datetime.datetime(2013, 5, 7, 9, 45, 38, 971400)'
p2076
asbasbasbag68
(g84
g70
NtRp2077
(dp2078
g73
(dp2079
sg82
g78
sg75
(lp2080
g68
(g89
g70
NtRp2081
(dp2082
g73
(dp2083
g93
g94
ssg82
g2077
sg75
(lp2084
S'post_vars'
p2085
asbag68
(g89
g70
NtRp2086
(dp2087
g73
(dp2088
g100
g101
ssg82
g2077
sg75
(lp2089
S':'
asbag68
(g89
g70
NtRp2090
(dp2091
g73
(dp2092
sg82
g2077
sg75
(lp2093
g68
(g69
g70
NtRp2094
(dp2095
g73
(dp2096
g81
I5
ssg82
g2090
sg75
(lp2097
g68
(g77
g70
NtRp2098
(dp2099
g73
(dp2100
g81
I4
ssg82
Nsg75
(lp2101
sbasbasbasbag68
(g84
g70
NtRp2102
(dp2103
g73
(dp2104
sg82
g78
sg75
(lp2105
g68
(g89
g70
NtRp2106
(dp2107
g73
(dp2108
g93
g94
ssg82
g2102
sg75
(lp2109
S'url'
p2110
asbag68
(g89
g70
NtRp2111
(dp2112
g73
(dp2113
g100
g101
ssg82
g2102
sg75
(lp2114
S':'
asbag68
(g89
g70
NtRp2115
(dp2116
g73
(dp2117
sg82
g2102
sg75
(lp2118
g68
(g69
g70
NtRp2119
(dp2120
g73
(dp2121
g81
I5
ssg82
g2115
sg75
(lp2122
g984
asbasbasbag68
(g84
g70
NtRp2123
(dp2124
g73
(dp2125
sg82
g78
sg75
(lp2126
g68
(g89
g70
NtRp2127
(dp2128
g73
(dp2129
g93
g94
ssg82
g2123
sg75
(lp2130
S'utcnow'
p2131
asbag68
(g89
g70
NtRp2132
(dp2133
g73
(dp2134
g100
g101
ssg82
g2123
sg75
(lp2135
S':'
asbag68
(g89
g70
NtRp2136
(dp2137
g73
(dp2138
sg82
g2123
sg75
(lp2139
g68
(g69
g70
NtRp2140
(dp2141
g73
(dp2142
g81
I5
ssg82
g2136
sg75
(lp2143
S'datetime.datetime(2013, 5, 7, 12, 45, 38, 971461)'
p2144
asbasbasbag68
(g84
g70
NtRp2145
(dp2146
g73
(dp2147
sg82
g78
sg75
(lp2148
g68
(g89
g70
NtRp2149
(dp2150
g73
(dp2151
g93
g94
ssg82
g2145
sg75
(lp2152
S'uuid'
p2153
asbag68
(g89
g70
NtRp2154
(dp2155
g73
(dp2156
g100
g101
ssg82
g2145
sg75
(lp2157
S':'
asbag68
(g89
g70
NtRp2158
(dp2159
g73
(dp2160
sg82
g2145
sg75
(lp2161
g68
(g69
g70
NtRp2162
(dp2163
g73
(dp2164
g81
I5
ssg82
g2158
sg75
(lp2165
S'projeto/127.0.0.1.2013-05-07.09-45-38.5b58ad20-204e-4050-b093-bfcd99f856c1'
p2166
asbasbasbag68
(g84
g70
NtRp2167
(dp2168
g73
(dp2169
sg82
g78
sg75
(lp2170
g68
(g89
g70
NtRp2171
(dp2172
g73
(dp2173
g93
g94
ssg82
g2167
sg75
(lp2174
S'vars'
p2175
asbag68
(g89
g70
NtRp2176
(dp2177
g73
(dp2178
g100
g101
ssg82
g2167
sg75
(lp2179
S':'
asbag68
(g89
g70
NtRp2180
(dp2181
g73
(dp2182
sg82
g2167
sg75
(lp2183
g68
(g69
g70
NtRp2184
(dp2185
g73
(dp2186
g81
I5
ssg82
g2180
sg75
(lp2187
g68
(g77
g70
NtRp2188
(dp2189
g73
(dp2190
g81
I4
ssg82
Nsg75
(lp2191
sbasbasbasbag68
(g84
g70
NtRp2192
(dp2193
g73
(dp2194
sg82
g78
sg75
(lp2195
g68
(g89
g70
NtRp2196
(dp2197
g73
(dp2198
g93
g94
ssg82
g2192
sg75
(lp2199
S'wsgi'
p2200
asbag68
(g89
g70
NtRp2201
(dp2202
g73
(dp2203
g100
g101
ssg82
g2192
sg75
(lp2204
S':'
asbag68
(g89
g70
NtRp2205
(dp2206
g73
(dp2207
sg82
g2192
sg75
(lp2208
g68
(g69
g70
NtRp2209
(dp2210
g73
(dp2211
g81
I5
ssg82
g2205
sg75
(lp2212
g68
(g77
g70
NtRp2213
(dp2214
g73
(dp2215
g81
I4
ssg82
Nsg75
(lp2216
g68
(g84
g70
NtRp2217
(dp2218
g73
(dp2219
sg82
g2213
sg75
(lp2220
g68
(g89
g70
NtRp2221
(dp2222
g73
(dp2223
g93
g94
ssg82
g2217
sg75
(lp2224
S'environ'
p2225
asbag68
(g89
g70
NtRp2226
(dp2227
g73
(dp2228
g100
g101
ssg82
g2217
sg75
(lp2229
S':'
asbag68
(g89
g70
NtRp2230
(dp2231
g73
(dp2232
sg82
g2217
sg75
(lp2233
g68
(g69
g70
NtRp2234
(dp2235
g73
(dp2236
g81
I4
ssg82
g2230
sg75
(lp2237
g68
(g77
g70
NtRp2238
(dp2239
g73
(dp2240
g81
I3
ssg82
Nsg75
(lp2241
g68
(g84
g70
NtRp2242
(dp2243
g73
(dp2244
sg82
g2238
sg75
(lp2245
g68
(g89
g70
NtRp2246
(dp2247
g73
(dp2248
g93
g94
ssg82
g2242
sg75
(lp2249
S'HTTP_ACCEPT'
p2250
asbag68
(g89
g70
NtRp2251
(dp2252
g73
(dp2253
g100
g101
ssg82
g2242
sg75
(lp2254
S':'
asbag68
(g89
g70
NtRp2255
(dp2256
g73
(dp2257
sg82
g2242
sg75
(lp2258
g68
(g69
g70
NtRp2259
(dp2260
g73
(dp2261
g81
I3
ssg82
g2255
sg75
(lp2262
g667
asbasbasbag68
(g84
g70
NtRp2263
(dp2264
g73
(dp2265
sg82
g2238
sg75
(lp2266
g68
(g89
g70
NtRp2267
(dp2268
g73
(dp2269
g93
g94
ssg82
g2263
sg75
(lp2270
S'HTTP_ACCEPT_CHARSET'
p2271
asbag68
(g89
g70
NtRp2272
(dp2273
g73
(dp2274
g100
g101
ssg82
g2263
sg75
(lp2275
S':'
asbag68
(g89
g70
NtRp2276
(dp2277
g73
(dp2278
sg82
g2263
sg75
(lp2279
g68
(g69
g70
NtRp2280
(dp2281
g73
(dp2282
g81
I3
ssg82
g2276
sg75
(lp2283
g689
asbasbasbag68
(g84
g70
NtRp2284
(dp2285
g73
(dp2286
sg82
g2238
sg75
(lp2287
g68
(g89
g70
NtRp2288
(dp2289
g73
(dp2290
g93
g94
ssg82
g2284
sg75
(lp2291
S'HTTP_ACCEPT_ENCODING'
p2292
asbag68
(g89
g70
NtRp2293
(dp2294
g73
(dp2295
g100
g101
ssg82
g2284
sg75
(lp2296
S':'
asbag68
(g89
g70
NtRp2297
(dp2298
g73
(dp2299
sg82
g2284
sg75
(lp2300
g68
(g69
g70
NtRp2301
(dp2302
g73
(dp2303
g81
I3
ssg82
g2297
sg75
(lp2304
g711
asbasbasbag68
(g84
g70
NtRp2305
(dp2306
g73
(dp2307
sg82
g2238
sg75
(lp2308
g68
(g89
g70
NtRp2309
(dp2310
g73
(dp2311
g93
g94
ssg82
g2305
sg75
(lp2312
S'HTTP_ACCEPT_LANGUAGE'
p2313
asbag68
(g89
g70
NtRp2314
(dp2315
g73
(dp2316
g100
g101
ssg82
g2305
sg75
(lp2317
S':'
asbag68
(g89
g70
NtRp2318
(dp2319
g73
(dp2320
sg82
g2305
sg75
(lp2321
g68
(g69
g70
NtRp2322
(dp2323
g73
(dp2324
g81
I3
ssg82
g2318
sg75
(lp2325
g733
asbasbasbag68
(g84
g70
NtRp2326
(dp2327
g73
(dp2328
sg82
g2238
sg75
(lp2329
g68
(g89
g70
NtRp2330
(dp2331
g73
(dp2332
g93
g94
ssg82
g2326
sg75
(lp2333
S'HTTP_CONNECTION'
p2334
asbag68
(g89
g70
NtRp2335
(dp2336
g73
(dp2337
g100
g101
ssg82
g2326
sg75
(lp2338
S':'
asbag68
(g89
g70
NtRp2339
(dp2340
g73
(dp2341
sg82
g2326
sg75
(lp2342
g68
(g69
g70
NtRp2343
(dp2344
g73
(dp2345
g81
I3
ssg82
g2339
sg75
(lp2346
g755
asbasbasbag68
(g84
g70
NtRp2347
(dp2348
g73
(dp2349
sg82
g2238
sg75
(lp2350
g68
(g89
g70
NtRp2351
(dp2352
g73
(dp2353
g93
g94
ssg82
g2347
sg75
(lp2354
S'HTTP_COOKIE'
p2355
asbag68
(g89
g70
NtRp2356
(dp2357
g73
(dp2358
g100
g101
ssg82
g2347
sg75
(lp2359
S':'
asbag68
(g89
g70
NtRp2360
(dp2361
g73
(dp2362
sg82
g2347
sg75
(lp2363
g68
(g69
g70
NtRp2364
(dp2365
g73
(dp2366
g81
I3
ssg82
g2360
sg75
(lp2367
g777
asbasbasbag68
(g84
g70
NtRp2368
(dp2369
g73
(dp2370
sg82
g2238
sg75
(lp2371
g68
(g89
g70
NtRp2372
(dp2373
g73
(dp2374
g93
g94
ssg82
g2368
sg75
(lp2375
S'HTTP_HOST'
p2376
asbag68
(g89
g70
NtRp2377
(dp2378
g73
(dp2379
g100
g101
ssg82
g2368
sg75
(lp2380
S':'
asbag68
(g89
g70
NtRp2381
(dp2382
g73
(dp2383
sg82
g2368
sg75
(lp2384
g68
(g69
g70
NtRp2385
(dp2386
g73
(dp2387
g81
I3
ssg82
g2381
sg75
(lp2388
g799
asbasbasbag68
(g84
g70
NtRp2389
(dp2390
g73
(dp2391
sg82
g2238
sg75
(lp2392
g68
(g89
g70
NtRp2393
(dp2394
g73
(dp2395
g93
g94
ssg82
g2389
sg75
(lp2396
S'HTTP_REFERER'
p2397
asbag68
(g89
g70
NtRp2398
(dp2399
g73
(dp2400
g100
g101
ssg82
g2389
sg75
(lp2401
S':'
asbag68
(g89
g70
NtRp2402
(dp2403
g73
(dp2404
sg82
g2389
sg75
(lp2405
g68
(g69
g70
NtRp2406
(dp2407
g73
(dp2408
g81
I3
ssg82
g2402
sg75
(lp2409
g821
asbasbasbag68
(g84
g70
NtRp2410
(dp2411
g73
(dp2412
sg82
g2238
sg75
(lp2413
g68
(g89
g70
NtRp2414
(dp2415
g73
(dp2416
g93
g94
ssg82
g2410
sg75
(lp2417
S'HTTP_USER_AGENT'
p2418
asbag68
(g89
g70
NtRp2419
(dp2420
g73
(dp2421
g100
g101
ssg82
g2410
sg75
(lp2422
S':'
asbag68
(g89
g70
NtRp2423
(dp2424
g73
(dp2425
sg82
g2410
sg75
(lp2426
g68
(g69
g70
NtRp2427
(dp2428
g73
(dp2429
g81
I3
ssg82
g2423
sg75
(lp2430
g843
asbasbasbag68
(g84
g70
NtRp2431
(dp2432
g73
(dp2433
sg82
g2238
sg75
(lp2434
g68
(g89
g70
NtRp2435
(dp2436
g73
(dp2437
g93
g94
ssg82
g2431
sg75
(lp2438
S'PATH_INFO'
p2439
asbag68
(g89
g70
NtRp2440
(dp2441
g73
(dp2442
g100
g101
ssg82
g2431
sg75
(lp2443
S':'
asbag68
(g89
g70
NtRp2444
(dp2445
g73
(dp2446
sg82
g2431
sg75
(lp2447
g68
(g69
g70
NtRp2448
(dp2449
g73
(dp2450
g81
I3
ssg82
g2444
sg75
(lp2451
g984
asbasbasbag68
(g84
g70
NtRp2452
(dp2453
g73
(dp2454
sg82
g2238
sg75
(lp2455
g68
(g89
g70
NtRp2456
(dp2457
g73
(dp2458
g93
g94
ssg82
g2452
sg75
(lp2459
S'QUERY_STRING'
p2460
asbag68
(g89
g70
NtRp2461
(dp2462
g73
(dp2463
g100
g101
ssg82
g2452
sg75
(lp2464
S':'
asbag68
(g89
g70
NtRp2465
(dp2466
g73
(dp2467
sg82
g2452
sg75
(lp2468
g68
(g69
g70
NtRp2469
(dp2470
g73
(dp2471
g81
I3
ssg82
g2465
sg75
(lp2472
S''
asbasbasbag68
(g84
g70
NtRp2473
(dp2474
g73
(dp2475
sg82
g2238
sg75
(lp2476
g68
(g89
g70
NtRp2477
(dp2478
g73
(dp2479
g93
g94
ssg82
g2473
sg75
(lp2480
S'REMOTE_ADDR'
p2481
asbag68
(g89
g70
NtRp2482
(dp2483
g73
(dp2484
g100
g101
ssg82
g2473
sg75
(lp2485
S':'
asbag68
(g89
g70
NtRp2486
(dp2487
g73
(dp2488
sg82
g2473
sg75
(lp2489
g68
(g69
g70
NtRp2490
(dp2491
g73
(dp2492
g81
I3
ssg82
g2486
sg75
(lp2493
g223
asbasbasbag68
(g84
g70
NtRp2494
(dp2495
g73
(dp2496
sg82
g2238
sg75
(lp2497
g68
(g89
g70
NtRp2498
(dp2499
g73
(dp2500
g93
g94
ssg82
g2494
sg75
(lp2501
S'REMOTE_PORT'
p2502
asbag68
(g89
g70
NtRp2503
(dp2504
g73
(dp2505
g100
g101
ssg82
g2494
sg75
(lp2506
S':'
asbag68
(g89
g70
NtRp2507
(dp2508
g73
(dp2509
sg82
g2494
sg75
(lp2510
g68
(g69
g70
NtRp2511
(dp2512
g73
(dp2513
g81
I3
ssg82
g2507
sg75
(lp2514
g1048
asbasbasbag68
(g84
g70
NtRp2515
(dp2516
g73
(dp2517
sg82
g2238
sg75
(lp2518
g68
(g89
g70
NtRp2519
(dp2520
g73
(dp2521
g93
g94
ssg82
g2515
sg75
(lp2522
S'REQUEST_METHOD'
p2523
asbag68
(g89
g70
NtRp2524
(dp2525
g73
(dp2526
g100
g101
ssg82
g2515
sg75
(lp2527
S':'
asbag68
(g89
g70
NtRp2528
(dp2529
g73
(dp2530
sg82
g2515
sg75
(lp2531
g68
(g69
g70
NtRp2532
(dp2533
g73
(dp2534
g81
I3
ssg82
g2528
sg75
(lp2535
g1070
asbasbasbag68
(g84
g70
NtRp2536
(dp2537
g73
(dp2538
sg82
g2238
sg75
(lp2539
g68
(g89
g70
NtRp2540
(dp2541
g73
(dp2542
g93
g94
ssg82
g2536
sg75
(lp2543
S'REQUEST_URI'
p2544
asbag68
(g89
g70
NtRp2545
(dp2546
g73
(dp2547
g100
g101
ssg82
g2536
sg75
(lp2548
S':'
asbag68
(g89
g70
NtRp2549
(dp2550
g73
(dp2551
sg82
g2536
sg75
(lp2552
g68
(g69
g70
NtRp2553
(dp2554
g73
(dp2555
g81
I3
ssg82
g2549
sg75
(lp2556
g1092
asbasbasbag68
(g84
g70
NtRp2557
(dp2558
g73
(dp2559
sg82
g2238
sg75
(lp2560
g68
(g89
g70
NtRp2561
(dp2562
g73
(dp2563
g93
g94
ssg82
g2557
sg75
(lp2564
S'SCRIPT_NAME'
p2565
asbag68
(g89
g70
NtRp2566
(dp2567
g73
(dp2568
g100
g101
ssg82
g2557
sg75
(lp2569
S':'
asbag68
(g89
g70
NtRp2570
(dp2571
g73
(dp2572
sg82
g2557
sg75
(lp2573
g68
(g69
g70
NtRp2574
(dp2575
g73
(dp2576
g81
I3
ssg82
g2570
sg75
(lp2577
S''
asbasbasbag68
(g84
g70
NtRp2578
(dp2579
g73
(dp2580
sg82
g2238
sg75
(lp2581
g68
(g89
g70
NtRp2582
(dp2583
g73
(dp2584
g93
g94
ssg82
g2578
sg75
(lp2585
S'SERVER_NAME'
p2586
asbag68
(g89
g70
NtRp2587
(dp2588
g73
(dp2589
g100
g101
ssg82
g2578
sg75
(lp2590
S':'
asbag68
(g89
g70
NtRp2591
(dp2592
g73
(dp2593
sg82
g2578
sg75
(lp2594
g68
(g69
g70
NtRp2595
(dp2596
g73
(dp2597
g81
I3
ssg82
g2591
sg75
(lp2598
g1135
asbasbasbag68
(g84
g70
NtRp2599
(dp2600
g73
(dp2601
sg82
g2238
sg75
(lp2602
g68
(g89
g70
NtRp2603
(dp2604
g73
(dp2605
g93
g94
ssg82
g2599
sg75
(lp2606
S'SERVER_PORT'
p2607
asbag68
(g89
g70
NtRp2608
(dp2609
g73
(dp2610
g100
g101
ssg82
g2599
sg75
(lp2611
S':'
asbag68
(g89
g70
NtRp2612
(dp2613
g73
(dp2614
sg82
g2599
sg75
(lp2615
g68
(g69
g70
NtRp2616
(dp2617
g73
(dp2618
g81
I3
ssg82
g2612
sg75
(lp2619
g1157
asbasbasbag68
(g84
g70
NtRp2620
(dp2621
g73
(dp2622
sg82
g2238
sg75
(lp2623
g68
(g89
g70
NtRp2624
(dp2625
g73
(dp2626
g93
g94
ssg82
g2620
sg75
(lp2627
S'SERVER_PROTOCOL'
p2628
asbag68
(g89
g70
NtRp2629
(dp2630
g73
(dp2631
g100
g101
ssg82
g2620
sg75
(lp2632
S':'
asbag68
(g89
g70
NtRp2633
(dp2634
g73
(dp2635
sg82
g2620
sg75
(lp2636
g68
(g69
g70
NtRp2637
(dp2638
g73
(dp2639
g81
I3
ssg82
g2633
sg75
(lp2640
g1179
asbasbasbag68
(g84
g70
NtRp2641
(dp2642
g73
(dp2643
sg82
g2238
sg75
(lp2644
g68
(g89
g70
NtRp2645
(dp2646
g73
(dp2647
g93
g94
ssg82
g2641
sg75
(lp2648
S'SERVER_SOFTWARE'
p2649
asbag68
(g89
g70
NtRp2650
(dp2651
g73
(dp2652
g100
g101
ssg82
g2641
sg75
(lp2653
S':'
asbag68
(g89
g70
NtRp2654
(dp2655
g73
(dp2656
sg82
g2641
sg75
(lp2657
g68
(g69
g70
NtRp2658
(dp2659
g73
(dp2660
g81
I3
ssg82
g2654
sg75
(lp2661
g1201
asbasbasbag68
(g84
g70
NtRp2662
(dp2663
g73
(dp2664
sg82
g2238
sg75
(lp2665
g68
(g89
g70
NtRp2666
(dp2667
g73
(dp2668
g93
g94
ssg82
g2662
sg75
(lp2669
S'WEB2PY_ORIGINAL_URI'
p2670
asbag68
(g89
g70
NtRp2671
(dp2672
g73
(dp2673
g100
g101
ssg82
g2662
sg75
(lp2674
S':'
asbag68
(g89
g70
NtRp2675
(dp2676
g73
(dp2677
sg82
g2662
sg75
(lp2678
g68
(g69
g70
NtRp2679
(dp2680
g73
(dp2681
g81
I3
ssg82
g2675
sg75
(lp2682
g984
asbasbasbag68
(g84
g70
NtRp2683
(dp2684
g73
(dp2685
sg82
g2238
sg75
(lp2686
g68
(g89
g70
NtRp2687
(dp2688
g73
(dp2689
g93
g94
ssg82
g2683
sg75
(lp2690
S'wsgi.errors'
p2691
asbag68
(g89
g70
NtRp2692
(dp2693
g73
(dp2694
g100
g101
ssg82
g2683
sg75
(lp2695
S':'
asbag68
(g89
g70
NtRp2696
(dp2697
g73
(dp2698
sg82
g2683
sg75
(lp2699
g68
(g69
g70
NtRp2700
(dp2701
g73
(dp2702
g81
I3
ssg82
g2696
sg75
(lp2703
S"<open file '<stderr>', mode 'w' at 0x7f1fcbf28270>"
p2704
asbasbasbag68
(g84
g70
NtRp2705
(dp2706
g73
(dp2707
sg82
g2238
sg75
(lp2708
g68
(g89
g70
NtRp2709
(dp2710
g73
(dp2711
g93
g94
ssg82
g2705
sg75
(lp2712
S'wsgi.file_wrapper'
p2713
asbag68
(g89
g70
NtRp2714
(dp2715
g73
(dp2716
g100
g101
ssg82
g2705
sg75
(lp2717
S':'
asbag68
(g89
g70
NtRp2718
(dp2719
g73
(dp2720
sg82
g2705
sg75
(lp2721
g68
(g69
g70
NtRp2722
(dp2723
g73
(dp2724
g81
I3
ssg82
g2718
sg75
(lp2725
S'<class wsgiref.util.FileWrapper at 0x23a54c8>'
p2726
asbasbasbag68
(g84
g70
NtRp2727
(dp2728
g73
(dp2729
sg82
g2238
sg75
(lp2730
g68
(g89
g70
NtRp2731
(dp2732
g73
(dp2733
g93
g94
ssg82
g2727
sg75
(lp2734
S'wsgi.input'
p2735
asbag68
(g89
g70
NtRp2736
(dp2737
g73
(dp2738
g100
g101
ssg82
g2727
sg75
(lp2739
S':'
asbag68
(g89
g70
NtRp2740
(dp2741
g73
(dp2742
sg82
g2727
sg75
(lp2743
g68
(g69
g70
NtRp2744
(dp2745
g73
(dp2746
g81
I3
ssg82
g2740
sg75
(lp2747
S'<cStringIO.StringO object at 0x7f1fb8153e30>'
p2748
asbasbasbag68
(g84
g70
NtRp2749
(dp2750
g73
(dp2751
sg82
g2238
sg75
(lp2752
g68
(g89
g70
NtRp2753
(dp2754
g73
(dp2755
g93
g94
ssg82
g2749
sg75
(lp2756
S'wsgi.multiprocess'
p2757
asbag68
(g89
g70
NtRp2758
(dp2759
g73
(dp2760
g100
g101
ssg82
g2749
sg75
(lp2761
S':'
asbag68
(g89
g70
NtRp2762
(dp2763
g73
(dp2764
sg82
g2749
sg75
(lp2765
g68
(g69
g70
NtRp2766
(dp2767
g73
(dp2768
g81
I3
ssg82
g2762
sg75
(lp2769
g111
asbasbasbag68
(g84
g70
NtRp2770
(dp2771
g73
(dp2772
sg82
g2238
sg75
(lp2773
g68
(g89
g70
NtRp2774
(dp2775
g73
(dp2776
g93
g94
ssg82
g2770
sg75
(lp2777
S'wsgi.multithread'
p2778
asbag68
(g89
g70
NtRp2779
(dp2780
g73
(dp2781
g100
g101
ssg82
g2770
sg75
(lp2782
S':'
asbag68
(g89
g70
NtRp2783
(dp2784
g73
(dp2785
sg82
g2770
sg75
(lp2786
g68
(g69
g70
NtRp2787
(dp2788
g73
(dp2789
g81
I3
ssg82
g2783
sg75
(lp2790
g1439
asbasbasbag68
(g84
g70
NtRp2791
(dp2792
g73
(dp2793
sg82
g2238
sg75
(lp2794
g68
(g89
g70
NtRp2795
(dp2796
g73
(dp2797
g93
g94
ssg82
g2791
sg75
(lp2798
S'wsgi.run_once'
p2799
asbag68
(g89
g70
NtRp2800
(dp2801
g73
(dp2802
g100
g101
ssg82
g2791
sg75
(lp2803
S':'
asbag68
(g89
g70
NtRp2804
(dp2805
g73
(dp2806
sg82
g2791
sg75
(lp2807
g68
(g69
g70
NtRp2808
(dp2809
g73
(dp2810
g81
I3
ssg82
g2804
sg75
(lp2811
g111
asbasbasbag68
(g84
g70
NtRp2812
(dp2813
g73
(dp2814
sg82
g2238
sg75
(lp2815
g68
(g89
g70
NtRp2816
(dp2817
g73
(dp2818
g93
g94
ssg82
g2812
sg75
(lp2819
S'wsgi.url_scheme'
p2820
asbag68
(g89
g70
NtRp2821
(dp2822
g73
(dp2823
g100
g101
ssg82
g2812
sg75
(lp2824
S':'
asbag68
(g89
g70
NtRp2825
(dp2826
g73
(dp2827
sg82
g2812
sg75
(lp2828
g68
(g69
g70
NtRp2829
(dp2830
g73
(dp2831
g81
I3
ssg82
g2825
sg75
(lp2832
g1482
asbasbasbag68
(g84
g70
NtRp2833
(dp2834
g73
(dp2835
sg82
g2238
sg75
(lp2836
g68
(g89
g70
NtRp2837
(dp2838
g73
(dp2839
g93
g94
ssg82
g2833
sg75
(lp2840
S'wsgi.version'
p2841
asbag68
(g89
g70
NtRp2842
(dp2843
g73
(dp2844
g100
g101
ssg82
g2833
sg75
(lp2845
S':'
asbag68
(g89
g70
NtRp2846
(dp2847
g73
(dp2848
sg82
g2833
sg75
(lp2849
g68
(g69
g70
NtRp2850
(dp2851
g73
(dp2852
g81
I3
ssg82
g2846
sg75
(lp2853
S'1'
asbasbasbasbasbasbasbasbasbasbasbasbasbsS'frames'
p2854
(lp2855
(dp2856
S'file'
p2857
S'/var/www/agenda/gluon/restricted.py'
p2858
sS'dump'
p2859
(dp2860
S'code'
p2861
S'\'agenda = db.define_table("agenda",\\n      Field("...   #auth.signature\\n      format="%(nome)s")\\n\\n\\n\\n\\n\\n\''
p2862
sS'layer'
p2863
S"'/var/www/agenda/applications/projeto/models/models.py'"
p2864
sS'global compile2'
p2865
S'<function compile2>'
p2866
sS'ccode'
p2867
S'undefined'
p2868
ssS'lnum'
p2869
I211
sS'lines'
p2870
(dp2871
I206
S"    environment['__name__'] = '__restricted__'"
p2872
sI207
S'    try:'
p2873
sI208
S'        if isinstance(code, types.CodeType):'
p2874
sI209
S'            ccode = code'
p2875
sI210
S'        else:'
p2876
sI211
S'            ccode = compile2(code, layer)'
p2877
sI212
S'        exec ccode in environment'
p2878
sI213
S'    except HTTP:'
p2879
sI214
S'        raise'
p2880
sI215
S'    except RestrictedError:'
p2881
ssS'call'
p2882
S'(code=\'agenda = db.define_table("agenda",\\n      Field("...   #auth.signature\\n      format="%(nome)s")\\n\\n\\n\\n\\n\\n\', environment={\'A\': <class \'gluon.html.A\'>, \'Auth\': <class \'gluon.tools.Auth\'>, \'B\': <class \'gluon.html.B\'>, \'BEAUTIFY\': <class \'gluon.html.BEAUTIFY\'>, \'BODY\': <class \'gluon.html.BODY\'>, \'BR\': <class \'gluon.html.BR\'>, \'BUTTON\': <class \'gluon.html.BUTTON\'>, \'CAT\': <class \'gluon.html.CAT\'>, \'CENTER\': <class \'gluon.html.CENTER\'>, \'CLEANUP\': <class \'gluon.validators.CLEANUP\'>, ...}, layer=\'/var/www/agenda/applications/projeto/models/models.py\')'
p2883
sS'func'
p2884
S'restricted'
p2885
sa(dp2886
g2857
S'/var/www/agenda/gluon/restricted.py'
p2887
sg2859
(dp2888
S'builtincompile'
p2889
S'<built-in function compile>'
p2890
sS'code'
p2891
S'\'agenda = db.define_table("agenda",\\n      Field("...   #auth.signature\\n      format="%(nome)s")\\n\\n\\n\\n\\n\\n\''
p2892
sS'code.rstrip'
p2893
S'<built-in method rstrip of str object>'
p2894
sS').replace'
p2895
g2868
sS'layer'
p2896
S"'/var/www/agenda/applications/projeto/models/models.py'"
p2897
ssg2869
I194
sg2870
(dp2898
I192
S"    The +'\\n' is necessary else compile fails when code ends in a comment."
p2899
sI193
S'    """'
p2900
sI194
S"    return compile(code.rstrip().replace('\\r\\n', '\\n') + '\\n', layer, 'exec')"
p2901
sI195
S''
sI196
S''
sI197
S"def restricted(code, environment=None, layer='Unknown'):"
p2902
sI198
S'    """'
p2903
sI189
S''
sI190
S'def compile2(code, layer):'
p2904
sI191
S'    """'
p2905
ssg2882
S'(code=\'agenda = db.define_table("agenda",\\n      Field("...   #auth.signature\\n      format="%(nome)s")\\n\\n\\n\\n\\n\\n\', layer=\'/var/www/agenda/applications/projeto/models/models.py\')'
p2906
sg2884
S'compile2'
p2907
sasS'pyver'
p2908
S'Python 2.7.3: /usr/bin/python'
p2909
sS'session'
p2910
g68
(g69
g70
NtRp2911
(dp2912
g73
(dp2913
sg75
(lp2914
g68
(g77
g70
NtRp2915
(dp2916
g73
(dp2917
g81
I5
ssg82
Nsg75
(lp2918
g68
(g84
g70
NtRp2919
(dp2920
g73
(dp2921
sg82
g2915
sg75
(lp2922
g68
(g89
g70
NtRp2923
(dp2924
g73
(dp2925
g93
g94
ssg82
g2919
sg75
(lp2926
S'aut'
p2927
asbag68
(g89
g70
NtRp2928
(dp2929
g73
(dp2930
g100
g101
ssg82
g2919
sg75
(lp2931
S':'
asbag68
(g89
g70
NtRp2932
(dp2933
g73
(dp2934
sg82
g2919
sg75
(lp2935
g68
(g69
g70
NtRp2936
(dp2937
g73
(dp2938
g81
I5
ssg82
g2932
sg75
(lp2939
S'3701'
p2940
asbasbasbag68
(g84
g70
NtRp2941
(dp2942
g73
(dp2943
sg82
g2915
sg75
(lp2944
g68
(g89
g70
NtRp2945
(dp2946
g73
(dp2947
g93
g94
ssg82
g2941
sg75
(lp2948
S'flash'
p2949
asbag68
(g89
g70
NtRp2950
(dp2951
g73
(dp2952
g100
g101
ssg82
g2941
sg75
(lp2953
S':'
asbag68
(g89
g70
NtRp2954
(dp2955
g73
(dp2956
sg82
g2941
sg75
(lp2957
g68
(g69
g70
NtRp2958
(dp2959
g73
(dp2960
g81
I5
ssg82
g2954
sg75
(lp2961
S'None'
p2962
asbasbasbag68
(g84
g70
NtRp2963
(dp2964
g73
(dp2965
sg82
g2915
sg75
(lp2966
g68
(g89
g70
NtRp2967
(dp2968
g73
(dp2969
g93
g94
ssg82
g2963
sg75
(lp2970
S'ramal'
p2971
asbag68
(g89
g70
NtRp2972
(dp2973
g73
(dp2974
g100
g101
ssg82
g2963
sg75
(lp2975
S':'
asbag68
(g89
g70
NtRp2976
(dp2977
g73
(dp2978
sg82
g2963
sg75
(lp2979
g68
(g69
g70
NtRp2980
(dp2981
g73
(dp2982
g81
I5
ssg82
g2976
sg75
(lp2983
S'3701'
p2984
asbasbasbag68
(g84
g70
NtRp2985
(dp2986
g73
(dp2987
sg82
g2915
sg75
(lp2988
g68
(g89
g70
NtRp2989
(dp2990
g73
(dp2991
g93
g94
ssg82
g2985
sg75
(lp2992
S'ramal_fis'
p2993
asbag68
(g89
g70
NtRp2994
(dp2995
g73
(dp2996
g100
g101
ssg82
g2985
sg75
(lp2997
S':'
asbag68
(g89
g70
NtRp2998
(dp2999
g73
(dp3000
sg82
g2985
sg75
(lp3001
g68
(g69
g70
NtRp3002
(dp3003
g73
(dp3004
g81
I5
ssg82
g2998
sg75
(lp3005
S'S1013'
p3006
asbasbasbasbasbsS'etype'
p3007
S"<type 'exceptions.SyntaxError'>"
p3008
sS'date'
p3009
S'Tue May  7 09:45:39 2013'
p3010
sS'response'
p3011
g68
(g69
g70
NtRp3012
(dp3013
g73
(dp3014
sg75
(lp3015
g68
(g77
g70
NtRp3016
(dp3017
g73
(dp3018
g81
I5
ssg82
Nsg75
(lp3019
g68
(g84
g70
NtRp3020
(dp3021
g73
(dp3022
sg82
g3016
sg75
(lp3023
g68
(g89
g70
NtRp3024
(dp3025
g73
(dp3026
g93
g94
ssg82
g3020
sg75
(lp3027
g166
asbag68
(g89
g70
NtRp3028
(dp3029
g73
(dp3030
g100
g101
ssg82
g3020
sg75
(lp3031
S':'
asbag68
(g89
g70
NtRp3032
(dp3033
g73
(dp3034
sg82
g3020
sg75
(lp3035
g68
(g69
g70
NtRp3036
(dp3037
g73
(dp3038
g81
I5
ssg82
g3032
sg75
(lp3039
S'<cStringIO.StringO object at 0x7f1fb8153a40>'
p3040
asbasbasbag68
(g84
g70
NtRp3041
(dp3042
g73
(dp3043
sg82
g3016
sg75
(lp3044
g68
(g89
g70
NtRp3045
(dp3046
g73
(dp3047
g93
g94
ssg82
g3041
sg75
(lp3048
g254
asbag68
(g89
g70
NtRp3049
(dp3050
g73
(dp3051
g100
g101
ssg82
g3041
sg75
(lp3052
S':'
asbag68
(g89
g70
NtRp3053
(dp3054
g73
(dp3055
sg82
g3041
sg75
(lp3056
g68
(g69
g70
NtRp3057
(dp3058
g73
(dp3059
g81
I5
ssg82
g3053
sg75
(lp3060
g68
(g77
g70
NtRp3061
(dp3062
g73
(dp3063
g81
I4
ssg82
Nsg75
(lp3064
g68
(g84
g70
NtRp3065
(dp3066
g73
(dp3067
sg82
g3061
sg75
(lp3068
g68
(g89
g70
NtRp3069
(dp3070
g73
(dp3071
g93
g94
ssg82
g3065
sg75
(lp3072
S'session_id_projeto'
p3073
asbag68
(g89
g70
NtRp3074
(dp3075
g73
(dp3076
g100
g101
ssg82
g3065
sg75
(lp3077
S':'
asbag68
(g89
g70
NtRp3078
(dp3079
g73
(dp3080
sg82
g3065
sg75
(lp3081
g68
(g69
g70
NtRp3082
(dp3083
g73
(dp3084
g81
I4
ssg82
g3078
sg75
(lp3085
g292
ag68
(g77
g70
NtRp3086
(dp3087
g73
(dp3088
g81
I3
ssg82
Nsg75
(lp3089
g68
(g84
g70
NtRp3090
(dp3091
g73
(dp3092
sg82
g3086
sg75
(lp3093
g68
(g89
g70
NtRp3094
(dp3095
g73
(dp3096
g93
g94
ssg82
g3090
sg75
(lp3097
g305
asbag68
(g89
g70
NtRp3098
(dp3099
g73
(dp3100
g100
g101
ssg82
g3090
sg75
(lp3101
S':'
asbag68
(g89
g70
NtRp3102
(dp3103
g73
(dp3104
sg82
g3090
sg75
(lp3105
g68
(g69
g70
NtRp3106
(dp3107
g73
(dp3108
g81
I3
ssg82
g3102
sg75
(lp3109
S''
asbasbasbag68
(g84
g70
NtRp3110
(dp3111
g73
(dp3112
sg82
g3086
sg75
(lp3113
g68
(g89
g70
NtRp3114
(dp3115
g73
(dp3116
g93
g94
ssg82
g3110
sg75
(lp3117
g326
asbag68
(g89
g70
NtRp3118
(dp3119
g73
(dp3120
g100
g101
ssg82
g3110
sg75
(lp3121
S':'
asbag68
(g89
g70
NtRp3122
(dp3123
g73
(dp3124
sg82
g3110
sg75
(lp3125
g68
(g69
g70
NtRp3126
(dp3127
g73
(dp3128
g81
I3
ssg82
g3122
sg75
(lp3129
S''
asbasbasbag68
(g84
g70
NtRp3130
(dp3131
g73
(dp3132
sg82
g3086
sg75
(lp3133
g68
(g89
g70
NtRp3134
(dp3135
g73
(dp3136
g93
g94
ssg82
g3130
sg75
(lp3137
g347
asbag68
(g89
g70
NtRp3138
(dp3139
g73
(dp3140
g100
g101
ssg82
g3130
sg75
(lp3141
S':'
asbag68
(g89
g70
NtRp3142
(dp3143
g73
(dp3144
sg82
g3130
sg75
(lp3145
g68
(g69
g70
NtRp3146
(dp3147
g73
(dp3148
g81
I3
ssg82
g3142
sg75
(lp3149
S''
asbasbasbag68
(g84
g70
NtRp3150
(dp3151
g73
(dp3152
sg82
g3086
sg75
(lp3153
g68
(g89
g70
NtRp3154
(dp3155
g73
(dp3156
g93
g94
ssg82
g3150
sg75
(lp3157
g368
asbag68
(g89
g70
NtRp3158
(dp3159
g73
(dp3160
g100
g101
ssg82
g3150
sg75
(lp3161
S':'
asbag68
(g89
g70
NtRp3162
(dp3163
g73
(dp3164
sg82
g3150
sg75
(lp3165
g68
(g69
g70
NtRp3166
(dp3167
g73
(dp3168
g81
I3
ssg82
g3162
sg75
(lp3169
S''
asbasbasbag68
(g84
g70
NtRp3170
(dp3171
g73
(dp3172
sg82
g3086
sg75
(lp3173
g68
(g89
g70
NtRp3174
(dp3175
g73
(dp3176
g93
g94
ssg82
g3170
sg75
(lp3177
g389
asbag68
(g89
g70
NtRp3178
(dp3179
g73
(dp3180
g100
g101
ssg82
g3170
sg75
(lp3181
S':'
asbag68
(g89
g70
NtRp3182
(dp3183
g73
(dp3184
sg82
g3170
sg75
(lp3185
g68
(g69
g70
NtRp3186
(dp3187
g73
(dp3188
g81
I3
ssg82
g3182
sg75
(lp3189
S''
asbasbasbag68
(g84
g70
NtRp3190
(dp3191
g73
(dp3192
sg82
g3086
sg75
(lp3193
g68
(g89
g70
NtRp3194
(dp3195
g73
(dp3196
g93
g94
ssg82
g3190
sg75
(lp3197
g410
asbag68
(g89
g70
NtRp3198
(dp3199
g73
(dp3200
g100
g101
ssg82
g3190
sg75
(lp3201
S':'
asbag68
(g89
g70
NtRp3202
(dp3203
g73
(dp3204
sg82
g3190
sg75
(lp3205
g68
(g69
g70
NtRp3206
(dp3207
g73
(dp3208
g81
I3
ssg82
g3202
sg75
(lp3209
S'/'
asbasbasbag68
(g84
g70
NtRp3210
(dp3211
g73
(dp3212
sg82
g3086
sg75
(lp3213
g68
(g89
g70
NtRp3214
(dp3215
g73
(dp3216
g93
g94
ssg82
g3210
sg75
(lp3217
g431
asbag68
(g89
g70
NtRp3218
(dp3219
g73
(dp3220
g100
g101
ssg82
g3210
sg75
(lp3221
S':'
asbag68
(g89
g70
NtRp3222
(dp3223
g73
(dp3224
sg82
g3210
sg75
(lp3225
g68
(g69
g70
NtRp3226
(dp3227
g73
(dp3228
g81
I3
ssg82
g3222
sg75
(lp3229
S''
asbasbasbag68
(g84
g70
NtRp3230
(dp3231
g73
(dp3232
sg82
g3086
sg75
(lp3233
g68
(g89
g70
NtRp3234
(dp3235
g73
(dp3236
g93
g94
ssg82
g3230
sg75
(lp3237
g452
asbag68
(g89
g70
NtRp3238
(dp3239
g73
(dp3240
g100
g101
ssg82
g3230
sg75
(lp3241
S':'
asbag68
(g89
g70
NtRp3242
(dp3243
g73
(dp3244
sg82
g3230
sg75
(lp3245
g68
(g69
g70
NtRp3246
(dp3247
g73
(dp3248
g81
I3
ssg82
g3242
sg75
(lp3249
S''
asbasbasbasbasbasbasbasbasbasbasbag68
(g84
g70
NtRp3250
(dp3251
g73
(dp3252
sg82
g3016
sg75
(lp3253
g68
(g89
g70
NtRp3254
(dp3255
g73
(dp3256
g93
g94
ssg82
g3250
sg75
(lp3257
S'delimiters'
p3258
asbag68
(g89
g70
NtRp3259
(dp3260
g73
(dp3261
g100
g101
ssg82
g3250
sg75
(lp3262
S':'
asbag68
(g89
g70
NtRp3263
(dp3264
g73
(dp3265
sg82
g3250
sg75
(lp3266
g68
(g69
g70
NtRp3267
(dp3268
g73
(dp3269
g81
I5
ssg82
g3263
sg75
(lp3270
g68
(g77
g70
NtRp3271
(dp3272
g73
(dp3273
g81
I4
ssg82
Nsg75
(lp3274
g68
(g84
g70
NtRp3275
(dp3276
g73
(dp3277
sg82
g3271
sg75
(lp3278
g68
(g89
g70
NtRp3279
(dp3280
g73
(dp3281
sg82
g3275
sg75
(lp3282
g68
(g69
g70
NtRp3283
(dp3284
g73
(dp3285
g81
I4
ssg82
g3279
sg75
(lp3286
S'{{'
p3287
asbasbasbag68
(g84
g70
NtRp3288
(dp3289
g73
(dp3290
sg82
g3271
sg75
(lp3291
g68
(g89
g70
NtRp3292
(dp3293
g73
(dp3294
sg82
g3288
sg75
(lp3295
g68
(g69
g70
NtRp3296
(dp3297
g73
(dp3298
g81
I4
ssg82
g3292
sg75
(lp3299
S'}}'
p3300
asbasbasbasbasbasbasbag68
(g84
g70
NtRp3301
(dp3302
g73
(dp3303
sg82
g3016
sg75
(lp3304
g68
(g89
g70
NtRp3305
(dp3306
g73
(dp3307
g93
g94
ssg82
g3301
sg75
(lp3308
S'files'
p3309
asbag68
(g89
g70
NtRp3310
(dp3311
g73
(dp3312
g100
g101
ssg82
g3301
sg75
(lp3313
S':'
asbag68
(g89
g70
NtRp3314
(dp3315
g73
(dp3316
sg82
g3301
sg75
(lp3317
g68
(g69
g70
NtRp3318
(dp3319
g73
(dp3320
g81
I5
ssg82
g3314
sg75
(lp3321
g68
(g77
g70
NtRp3322
(dp3323
g73
(dp3324
g81
I4
ssg82
Nsg75
(lp3325
sbasbasbasbag68
(g84
g70
NtRp3326
(dp3327
g73
(dp3328
sg82
g3016
sg75
(lp3329
g68
(g89
g70
NtRp3330
(dp3331
g73
(dp3332
g93
g94
ssg82
g3326
sg75
(lp3333
S'flash'
p3334
asbag68
(g89
g70
NtRp3335
(dp3336
g73
(dp3337
g100
g101
ssg82
g3326
sg75
(lp3338
S':'
asbag68
(g89
g70
NtRp3339
(dp3340
g73
(dp3341
sg82
g3326
sg75
(lp3342
g68
(g69
g70
NtRp3343
(dp3344
g73
(dp3345
g81
I5
ssg82
g3339
sg75
(lp3346
S''
asbasbasbag68
(g84
g70
NtRp3347
(dp3348
g73
(dp3349
sg82
g3016
sg75
(lp3350
g68
(g89
g70
NtRp3351
(dp3352
g73
(dp3353
g93
g94
ssg82
g3347
sg75
(lp3354
S'generic_patterns'
p3355
asbag68
(g89
g70
NtRp3356
(dp3357
g73
(dp3358
g100
g101
ssg82
g3347
sg75
(lp3359
S':'
asbag68
(g89
g70
NtRp3360
(dp3361
g73
(dp3362
sg82
g3347
sg75
(lp3363
g68
(g69
g70
NtRp3364
(dp3365
g73
(dp3366
g81
I5
ssg82
g3360
sg75
(lp3367
g68
(g77
g70
NtRp3368
(dp3369
g73
(dp3370
g81
I4
ssg82
Nsg75
(lp3371
g68
(g84
g70
NtRp3372
(dp3373
g73
(dp3374
sg82
g3368
sg75
(lp3375
g68
(g89
g70
NtRp3376
(dp3377
g73
(dp3378
sg82
g3372
sg75
(lp3379
g68
(g69
g70
NtRp3380
(dp3381
g73
(dp3382
g81
I4
ssg82
g3376
sg75
(lp3383
S'*'
asbasbasbasbasbasbasbag68
(g84
g70
NtRp3384
(dp3385
g73
(dp3386
sg82
g3016
sg75
(lp3387
g68
(g89
g70
NtRp3388
(dp3389
g73
(dp3390
g93
g94
ssg82
g3384
sg75
(lp3391
S'google_analytics_id'
p3392
asbag68
(g89
g70
NtRp3393
(dp3394
g73
(dp3395
g100
g101
ssg82
g3384
sg75
(lp3396
S':'
asbag68
(g89
g70
NtRp3397
(dp3398
g73
(dp3399
sg82
g3384
sg75
(lp3400
g68
(g69
g70
NtRp3401
(dp3402
g73
(dp3403
g81
I5
ssg82
g3397
sg75
(lp3404
S'None'
p3405
asbasbasbag68
(g84
g70
NtRp3406
(dp3407
g73
(dp3408
sg82
g3016
sg75
(lp3409
g68
(g89
g70
NtRp3410
(dp3411
g73
(dp3412
g93
g94
ssg82
g3406
sg75
(lp3413
S'headers'
p3414
asbag68
(g89
g70
NtRp3415
(dp3416
g73
(dp3417
g100
g101
ssg82
g3406
sg75
(lp3418
S':'
asbag68
(g89
g70
NtRp3419
(dp3420
g73
(dp3421
sg82
g3406
sg75
(lp3422
g68
(g69
g70
NtRp3423
(dp3424
g73
(dp3425
g81
I5
ssg82
g3419
sg75
(lp3426
g68
(g77
g70
NtRp3427
(dp3428
g73
(dp3429
g81
I4
ssg82
Nsg75
(lp3430
g68
(g84
g70
NtRp3431
(dp3432
g73
(dp3433
sg82
g3427
sg75
(lp3434
g68
(g89
g70
NtRp3435
(dp3436
g73
(dp3437
g93
g94
ssg82
g3431
sg75
(lp3438
S'X-Powered-By'
p3439
asbag68
(g89
g70
NtRp3440
(dp3441
g73
(dp3442
g100
g101
ssg82
g3431
sg75
(lp3443
S':'
asbag68
(g89
g70
NtRp3444
(dp3445
g73
(dp3446
sg82
g3431
sg75
(lp3447
g68
(g69
g70
NtRp3448
(dp3449
g73
(dp3450
g81
I4
ssg82
g3444
sg75
(lp3451
S'web2py'
p3452
asbasbasbasbasbasbasbag68
(g84
g70
NtRp3453
(dp3454
g73
(dp3455
sg82
g3016
sg75
(lp3456
g68
(g89
g70
NtRp3457
(dp3458
g73
(dp3459
g93
g94
ssg82
g3453
sg75
(lp3460
S'logo'
p3461
asbag68
(g89
g70
NtRp3462
(dp3463
g73
(dp3464
g100
g101
ssg82
g3453
sg75
(lp3465
S':'
asbag68
(g89
g70
NtRp3466
(dp3467
g73
(dp3468
sg82
g3453
sg75
(lp3469
g68
(g69
g70
NtRp3470
(dp3471
g73
(dp3472
g81
I5
ssg82
g3466
sg75
(lp3473
g68
(cgluon.html
A
p3474
g70
NtRp3475
(dp3476
g73
(dp3477
S'_class'
p3478
S'brand'
p3479
sS'_href'
p3480
S'principal'
p3481
ssg82
Nsg75
(lp3482
g68
(cgluon.html
B
p3483
g70
NtRp3484
(dp3485
g73
(dp3486
sg82
g3475
sg75
(lp3487
S'hosts'
p3488
ag68
(cgluon.html
SPAN
p3489
g70
NtRp3490
(dp3491
g73
(dp3492
sg82
g3484
sg75
(lp3493
S'3'
asbaS''
asbacgluon.html
XML_unpickle
p3494
(S's\r\x00\x00\x00&trade;&nbsp;'
tRp3495
asbasbasbasbag68
(g84
g70
NtRp3496
(dp3497
g73
(dp3498
sg82
g3016
sg75
(lp3499
g68
(g89
g70
NtRp3500
(dp3501
g73
(dp3502
g93
g94
ssg82
g3496
sg75
(lp3503
S'menu'
p3504
asbag68
(g89
g70
NtRp3505
(dp3506
g73
(dp3507
g100
g101
ssg82
g3496
sg75
(lp3508
S':'
asbag68
(g89
g70
NtRp3509
(dp3510
g73
(dp3511
sg82
g3496
sg75
(lp3512
g68
(g69
g70
NtRp3513
(dp3514
g73
(dp3515
g81
I5
ssg82
g3509
sg75
(lp3516
g68
(g77
g70
NtRp3517
(dp3518
g73
(dp3519
g81
I4
ssg82
Nsg75
(lp3520
g68
(g84
g70
NtRp3521
(dp3522
g73
(dp3523
sg82
g3517
sg75
(lp3524
g68
(g89
g70
NtRp3525
(dp3526
g73
(dp3527
sg82
g3521
sg75
(lp3528
g68
(g69
g70
NtRp3529
(dp3530
g73
(dp3531
g81
I4
ssg82
g3525
sg75
(lp3532
g68
(g77
g70
NtRp3533
(dp3534
g73
(dp3535
g81
I3
ssg82
Nsg75
(lp3536
g68
(g84
g70
NtRp3537
(dp3538
g73
(dp3539
sg82
g3533
sg75
(lp3540
g68
(g89
g70
NtRp3541
(dp3542
g73
(dp3543
sg82
g3537
sg75
(lp3544
g68
(g69
g70
NtRp3545
(dp3546
g73
(dp3547
g81
I3
ssg82
g3541
sg75
(lp3548
cgluon.languages
lazyT_unpickle
p3549
(S't\x08\x00\x00\x00Clientes'
tRp3550
asbasbasbag68
(g84
g70
NtRp3551
(dp3552
g73
(dp3553
sg82
g3533
sg75
(lp3554
g68
(g89
g70
NtRp3555
(dp3556
g73
(dp3557
sg82
g3551
sg75
(lp3558
g68
(g69
g70
NtRp3559
(dp3560
g73
(dp3561
g81
I3
ssg82
g3555
sg75
(lp3562
g111
asbasbasbag68
(g84
g70
NtRp3563
(dp3564
g73
(dp3565
sg82
g3533
sg75
(lp3566
g68
(g89
g70
NtRp3567
(dp3568
g73
(dp3569
sg82
g3563
sg75
(lp3570
g68
(g69
g70
NtRp3571
(dp3572
g73
(dp3573
g81
I3
ssg82
g3567
sg75
(lp3574
S'/show_cliente'
p3575
asbasbasbag68
(g84
g70
NtRp3576
(dp3577
g73
(dp3578
sg82
g3533
sg75
(lp3579
g68
(g89
g70
NtRp3580
(dp3581
g73
(dp3582
sg82
g3576
sg75
(lp3583
g68
(g69
g70
NtRp3584
(dp3585
g73
(dp3586
g81
I3
ssg82
g3580
sg75
(lp3587
g68
(g77
g70
NtRp3588
(dp3589
g73
(dp3590
g81
I2
ssg82
Nsg75
(lp3591
sbasbasbasbasbasbasbasbag68
(g84
g70
NtRp3592
(dp3593
g73
(dp3594
sg82
g3517
sg75
(lp3595
g68
(g89
g70
NtRp3596
(dp3597
g73
(dp3598
sg82
g3592
sg75
(lp3599
g68
(g69
g70
NtRp3600
(dp3601
g73
(dp3602
g81
I4
ssg82
g3596
sg75
(lp3603
g68
(g77
g70
NtRp3604
(dp3605
g73
(dp3606
g81
I3
ssg82
Nsg75
(lp3607
g68
(g84
g70
NtRp3608
(dp3609
g73
(dp3610
sg82
g3604
sg75
(lp3611
g68
(g89
g70
NtRp3612
(dp3613
g73
(dp3614
sg82
g3608
sg75
(lp3615
g68
(g69
g70
NtRp3616
(dp3617
g73
(dp3618
g81
I3
ssg82
g3612
sg75
(lp3619
g3549
(S't\n\x00\x00\x00Servidores'
tRp3620
asbasbasbag68
(g84
g70
NtRp3621
(dp3622
g73
(dp3623
sg82
g3604
sg75
(lp3624
g68
(g89
g70
NtRp3625
(dp3626
g73
(dp3627
sg82
g3621
sg75
(lp3628
g68
(g69
g70
NtRp3629
(dp3630
g73
(dp3631
g81
I3
ssg82
g3625
sg75
(lp3632
g111
asbasbasbag68
(g84
g70
NtRp3633
(dp3634
g73
(dp3635
sg82
g3604
sg75
(lp3636
g68
(g89
g70
NtRp3637
(dp3638
g73
(dp3639
sg82
g3633
sg75
(lp3640
g68
(g69
g70
NtRp3641
(dp3642
g73
(dp3643
g81
I3
ssg82
g3637
sg75
(lp3644
S'/show_servidor'
p3645
asbasbasbag68
(g84
g70
NtRp3646
(dp3647
g73
(dp3648
sg82
g3604
sg75
(lp3649
g68
(g89
g70
NtRp3650
(dp3651
g73
(dp3652
sg82
g3646
sg75
(lp3653
g68
(g69
g70
NtRp3654
(dp3655
g73
(dp3656
g81
I3
ssg82
g3650
sg75
(lp3657
g68
(g77
g70
NtRp3658
(dp3659
g73
(dp3660
g81
I2
ssg82
Nsg75
(lp3661
sbasbasbasbasbasbasbasbag68
(g84
g70
NtRp3662
(dp3663
g73
(dp3664
sg82
g3517
sg75
(lp3665
g68
(g89
g70
NtRp3666
(dp3667
g73
(dp3668
sg82
g3662
sg75
(lp3669
g68
(g69
g70
NtRp3670
(dp3671
g73
(dp3672
g81
I4
ssg82
g3666
sg75
(lp3673
g68
(g77
g70
NtRp3674
(dp3675
g73
(dp3676
g81
I3
ssg82
Nsg75
(lp3677
g68
(g84
g70
NtRp3678
(dp3679
g73
(dp3680
sg82
g3674
sg75
(lp3681
g68
(g89
g70
NtRp3682
(dp3683
g73
(dp3684
sg82
g3678
sg75
(lp3685
g68
(g69
g70
NtRp3686
(dp3687
g73
(dp3688
g81
I3
ssg82
g3682
sg75
(lp3689
g3549
(S't\x07\x00\x00\x00Distros'
tRp3690
asbasbasbag68
(g84
g70
NtRp3691
(dp3692
g73
(dp3693
sg82
g3674
sg75
(lp3694
g68
(g89
g70
NtRp3695
(dp3696
g73
(dp3697
sg82
g3691
sg75
(lp3698
g68
(g69
g70
NtRp3699
(dp3700
g73
(dp3701
g81
I3
ssg82
g3695
sg75
(lp3702
g111
asbasbasbag68
(g84
g70
NtRp3703
(dp3704
g73
(dp3705
sg82
g3674
sg75
(lp3706
g68
(g89
g70
NtRp3707
(dp3708
g73
(dp3709
sg82
g3703
sg75
(lp3710
g68
(g69
g70
NtRp3711
(dp3712
g73
(dp3713
g81
I3
ssg82
g3707
sg75
(lp3714
S'/show_distro'
p3715
asbasbasbag68
(g84
g70
NtRp3716
(dp3717
g73
(dp3718
sg82
g3674
sg75
(lp3719
g68
(g89
g70
NtRp3720
(dp3721
g73
(dp3722
sg82
g3716
sg75
(lp3723
g68
(g69
g70
NtRp3724
(dp3725
g73
(dp3726
g81
I3
ssg82
g3720
sg75
(lp3727
g68
(g77
g70
NtRp3728
(dp3729
g73
(dp3730
g81
I2
ssg82
Nsg75
(lp3731
sbasbasbasbasbasbasbasbag68
(g84
g70
NtRp3732
(dp3733
g73
(dp3734
sg82
g3517
sg75
(lp3735
g68
(g89
g70
NtRp3736
(dp3737
g73
(dp3738
sg82
g3732
sg75
(lp3739
g68
(g69
g70
NtRp3740
(dp3741
g73
(dp3742
g81
I4
ssg82
g3736
sg75
(lp3743
g68
(g77
g70
NtRp3744
(dp3745
g73
(dp3746
g81
I3
ssg82
Nsg75
(lp3747
g68
(g84
g70
NtRp3748
(dp3749
g73
(dp3750
sg82
g3744
sg75
(lp3751
g68
(g89
g70
NtRp3752
(dp3753
g73
(dp3754
sg82
g3748
sg75
(lp3755
g68
(g69
g70
NtRp3756
(dp3757
g73
(dp3758
g81
I3
ssg82
g3752
sg75
(lp3759
g3549
(S's\x05\x00\x00\x00+host'
tRp3760
asbasbasbag68
(g84
g70
NtRp3761
(dp3762
g73
(dp3763
sg82
g3744
sg75
(lp3764
g68
(g89
g70
NtRp3765
(dp3766
g73
(dp3767
sg82
g3761
sg75
(lp3768
g68
(g69
g70
NtRp3769
(dp3770
g73
(dp3771
g81
I3
ssg82
g3765
sg75
(lp3772
g111
asbasbasbag68
(g84
g70
NtRp3773
(dp3774
g73
(dp3775
sg82
g3744
sg75
(lp3776
g68
(g89
g70
NtRp3777
(dp3778
g73
(dp3779
sg82
g3773
sg75
(lp3780
g68
(g69
g70
NtRp3781
(dp3782
g73
(dp3783
g81
I3
ssg82
g3777
sg75
(lp3784
S'/interface'
p3785
asbasbasbag68
(g84
g70
NtRp3786
(dp3787
g73
(dp3788
sg82
g3744
sg75
(lp3789
g68
(g89
g70
NtRp3790
(dp3791
g73
(dp3792
sg82
g3786
sg75
(lp3793
g68
(g69
g70
NtRp3794
(dp3795
g73
(dp3796
g81
I3
ssg82
g3790
sg75
(lp3797
g68
(g77
g70
NtRp3798
(dp3799
g73
(dp3800
g81
I2
ssg82
Nsg75
(lp3801
sbasbasbasbasbasbasbasbasbasbasbasbag68
(g84
g70
NtRp3802
(dp3803
g73
(dp3804
sg82
g3016
sg75
(lp3805
g68
(g89
g70
NtRp3806
(dp3807
g73
(dp3808
g93
g94
ssg82
g3802
sg75
(lp3809
S'menu2'
p3810
asbag68
(g89
g70
NtRp3811
(dp3812
g73
(dp3813
g100
g101
ssg82
g3802
sg75
(lp3814
S':'
asbag68
(g89
g70
NtRp3815
(dp3816
g73
(dp3817
sg82
g3802
sg75
(lp3818
g68
(g69
g70
NtRp3819
(dp3820
g73
(dp3821
g81
I5
ssg82
g3815
sg75
(lp3822
g68
(g77
g70
NtRp3823
(dp3824
g73
(dp3825
g81
I4
ssg82
Nsg75
(lp3826
g68
(g84
g70
NtRp3827
(dp3828
g73
(dp3829
sg82
g3823
sg75
(lp3830
g68
(g89
g70
NtRp3831
(dp3832
g73
(dp3833
sg82
g3827
sg75
(lp3834
g68
(g69
g70
NtRp3835
(dp3836
g73
(dp3837
g81
I4
ssg82
g3831
sg75
(lp3838
g68
(g77
g70
NtRp3839
(dp3840
g73
(dp3841
g81
I3
ssg82
Nsg75
(lp3842
g68
(g84
g70
NtRp3843
(dp3844
g73
(dp3845
sg82
g3839
sg75
(lp3846
g68
(g89
g70
NtRp3847
(dp3848
g73
(dp3849
sg82
g3843
sg75
(lp3850
g68
(g69
g70
NtRp3851
(dp3852
g73
(dp3853
g81
I3
ssg82
g3847
sg75
(lp3854
g68
(g3489
g70
NtRp3855
(dp3856
g73
(dp3857
g3478
S'dropdown-toggle'
p3858
ssg82
Nsg75
(lp3859
S'Admin'
p3860
asbasbasbasbag68
(g84
g70
NtRp3861
(dp3862
g73
(dp3863
sg82
g3839
sg75
(lp3864
g68
(g89
g70
NtRp3865
(dp3866
g73
(dp3867
sg82
g3861
sg75
(lp3868
g68
(g69
g70
NtRp3869
(dp3870
g73
(dp3871
g81
I3
ssg82
g3865
sg75
(lp3872
g111
asbasbasbag68
(g84
g70
NtRp3873
(dp3874
g73
(dp3875
sg82
g3839
sg75
(lp3876
g68
(g89
g70
NtRp3877
(dp3878
g73
(dp3879
sg82
g3873
sg75
(lp3880
g68
(g69
g70
NtRp3881
(dp3882
g73
(dp3883
g81
I3
ssg82
g3877
sg75
(lp3884
S'#'
asbasbasbag68
(g84
g70
NtRp3885
(dp3886
g73
(dp3887
sg82
g3839
sg75
(lp3888
g68
(g89
g70
NtRp3889
(dp3890
g73
(dp3891
sg82
g3885
sg75
(lp3892
g68
(g69
g70
NtRp3893
(dp3894
g73
(dp3895
g81
I3
ssg82
g3889
sg75
(lp3896
g68
(g77
g70
NtRp3897
(dp3898
g73
(dp3899
g81
I2
ssg82
Nsg75
(lp3900
g68
(g84
g70
NtRp3901
(dp3902
g73
(dp3903
sg82
g3897
sg75
(lp3904
g68
(g89
g70
NtRp3905
(dp3906
g73
(dp3907
sg82
g3901
sg75
(lp3908
g68
(g69
g70
NtRp3909
(dp3910
g73
(dp3911
g81
I2
ssg82
g3905
sg75
(lp3912
g68
(g77
g70
NtRp3913
(dp3914
g73
(dp3915
g81
I1
ssg82
Nsg75
(lp3916
g68
(g84
g70
NtRp3917
(dp3918
g73
(dp3919
sg82
g3913
sg75
(lp3920
g68
(g89
g70
NtRp3921
(dp3922
g73
(dp3923
sg82
g3917
sg75
(lp3924
g68
(g69
g70
NtRp3925
(dp3926
g73
(dp3927
g81
I1
ssg82
g3921
sg75
(lp3928
g3549
(S's\t\x00\x00\x00Usu\xc3\xa1rios'
tRp3929
asbasbasbag68
(g84
g70
NtRp3930
(dp3931
g73
(dp3932
sg82
g3913
sg75
(lp3933
g68
(g89
g70
NtRp3934
(dp3935
g73
(dp3936
sg82
g3930
sg75
(lp3937
g68
(g69
g70
NtRp3938
(dp3939
g73
(dp3940
g81
I1
ssg82
g3934
sg75
(lp3941
I00
asbasbasbag68
(g84
g70
NtRp3942
(dp3943
g73
(dp3944
sg82
g3913
sg75
(lp3945
g68
(g89
g70
NtRp3946
(dp3947
g73
(dp3948
sg82
g3942
sg75
(lp3949
g68
(g69
g70
NtRp3950
(dp3951
g73
(dp3952
g81
I1
ssg82
g3946
sg75
(lp3953
S'/manager/users'
p3954
asbasbasbasbasbasbasbag68
(g84
g70
NtRp3955
(dp3956
g73
(dp3957
sg82
g3897
sg75
(lp3958
g68
(g89
g70
NtRp3959
(dp3960
g73
(dp3961
sg82
g3955
sg75
(lp3962
g68
(g69
g70
NtRp3963
(dp3964
g73
(dp3965
g81
I2
ssg82
g3959
sg75
(lp3966
g68
(g77
g70
NtRp3967
(dp3968
g73
(dp3969
g81
I1
ssg82
Nsg75
(lp3970
g68
(g84
g70
NtRp3971
(dp3972
g73
(dp3973
sg82
g3967
sg75
(lp3974
g68
(g89
g70
NtRp3975
(dp3976
g73
(dp3977
sg82
g3971
sg75
(lp3978
g68
(g69
g70
NtRp3979
(dp3980
g73
(dp3981
g81
I1
ssg82
g3975
sg75
(lp3982
g3549
(S't\x06\x00\x00\x00Grupos'
tRp3983
asbasbasbag68
(g84
g70
NtRp3984
(dp3985
g73
(dp3986
sg82
g3967
sg75
(lp3987
g68
(g89
g70
NtRp3988
(dp3989
g73
(dp3990
sg82
g3984
sg75
(lp3991
g68
(g69
g70
NtRp3992
(dp3993
g73
(dp3994
g81
I1
ssg82
g3988
sg75
(lp3995
I00
asbasbasbag68
(g84
g70
NtRp3996
(dp3997
g73
(dp3998
sg82
g3967
sg75
(lp3999
g68
(g89
g70
NtRp4000
(dp4001
g73
(dp4002
sg82
g3996
sg75
(lp4003
g68
(g69
g70
NtRp4004
(dp4005
g73
(dp4006
g81
I1
ssg82
g4000
sg75
(lp4007
S'/manager/groups'
p4008
asbasbasbasbasbasbasbag68
(g84
g70
NtRp4009
(dp4010
g73
(dp4011
sg82
g3897
sg75
(lp4012
g68
(g89
g70
NtRp4013
(dp4014
g73
(dp4015
sg82
g4009
sg75
(lp4016
g68
(g69
g70
NtRp4017
(dp4018
g73
(dp4019
g81
I2
ssg82
g4013
sg75
(lp4020
g68
(g77
g70
NtRp4021
(dp4022
g73
(dp4023
g81
I1
ssg82
Nsg75
(lp4024
g68
(g84
g70
NtRp4025
(dp4026
g73
(dp4027
sg82
g4021
sg75
(lp4028
g68
(g89
g70
NtRp4029
(dp4030
g73
(dp4031
sg82
g4025
sg75
(lp4032
g68
(g69
g70
NtRp4033
(dp4034
g73
(dp4035
g81
I1
ssg82
g4029
sg75
(lp4036
g3549
(S't\x07\x00\x00\x00Membros'
tRp4037
asbasbasbag68
(g84
g70
NtRp4038
(dp4039
g73
(dp4040
sg82
g4021
sg75
(lp4041
g68
(g89
g70
NtRp4042
(dp4043
g73
(dp4044
sg82
g4038
sg75
(lp4045
g68
(g69
g70
NtRp4046
(dp4047
g73
(dp4048
g81
I1
ssg82
g4042
sg75
(lp4049
I00
asbasbasbag68
(g84
g70
NtRp4050
(dp4051
g73
(dp4052
sg82
g4021
sg75
(lp4053
g68
(g89
g70
NtRp4054
(dp4055
g73
(dp4056
sg82
g4050
sg75
(lp4057
g68
(g69
g70
NtRp4058
(dp4059
g73
(dp4060
g81
I1
ssg82
g4054
sg75
(lp4061
S'/manager/membership'
p4062
asbasbasbasbasbasbasbasbasbasbasbasbasbasbasbag68
(g84
g70
NtRp4063
(dp4064
g73
(dp4065
sg82
g3823
sg75
(lp4066
g68
(g89
g70
NtRp4067
(dp4068
g73
(dp4069
sg82
g4063
sg75
(lp4070
g68
(g69
g70
NtRp4071
(dp4072
g73
(dp4073
g81
I4
ssg82
g4067
sg75
(lp4074
g68
(g77
g70
NtRp4075
(dp4076
g73
(dp4077
g81
I3
ssg82
Nsg75
(lp4078
g68
(g84
g70
NtRp4079
(dp4080
g73
(dp4081
sg82
g4075
sg75
(lp4082
g68
(g89
g70
NtRp4083
(dp4084
g73
(dp4085
sg82
g4079
sg75
(lp4086
g68
(g69
g70
NtRp4087
(dp4088
g73
(dp4089
g81
I3
ssg82
g4083
sg75
(lp4090
g68
(g3489
g70
NtRp4091
(dp4092
g73
(dp4093
g3478
g3858
ssg82
Nsg75
(lp4094
S'Login'
p4095
asbasbasbasbag68
(g84
g70
NtRp4096
(dp4097
g73
(dp4098
sg82
g4075
sg75
(lp4099
g68
(g89
g70
NtRp4100
(dp4101
g73
(dp4102
sg82
g4096
sg75
(lp4103
g68
(g69
g70
NtRp4104
(dp4105
g73
(dp4106
g81
I3
ssg82
g4100
sg75
(lp4107
g111
asbasbasbag68
(g84
g70
NtRp4108
(dp4109
g73
(dp4110
sg82
g4075
sg75
(lp4111
g68
(g89
g70
NtRp4112
(dp4113
g73
(dp4114
sg82
g4108
sg75
(lp4115
g68
(g69
g70
NtRp4116
(dp4117
g73
(dp4118
g81
I3
ssg82
g4112
sg75
(lp4119
S'#'
asbasbasbag68
(g84
g70
NtRp4120
(dp4121
g73
(dp4122
sg82
g4075
sg75
(lp4123
g68
(g89
g70
NtRp4124
(dp4125
g73
(dp4126
sg82
g4120
sg75
(lp4127
g68
(g69
g70
NtRp4128
(dp4129
g73
(dp4130
g81
I3
ssg82
g4124
sg75
(lp4131
g68
(g77
g70
NtRp4132
(dp4133
g73
(dp4134
g81
I2
ssg82
Nsg75
(lp4135
g68
(g84
g70
NtRp4136
(dp4137
g73
(dp4138
sg82
g4132
sg75
(lp4139
g68
(g89
g70
NtRp4140
(dp4141
g73
(dp4142
sg82
g4136
sg75
(lp4143
g68
(g69
g70
NtRp4144
(dp4145
g73
(dp4146
g81
I2
ssg82
g4140
sg75
(lp4147
g68
(g77
g70
NtRp4148
(dp4149
g73
(dp4150
g81
I1
ssg82
Nsg75
(lp4151
g68
(g84
g70
NtRp4152
(dp4153
g73
(dp4154
sg82
g4148
sg75
(lp4155
g68
(g89
g70
NtRp4156
(dp4157
g73
(dp4158
sg82
g4152
sg75
(lp4159
g68
(g69
g70
NtRp4160
(dp4161
g73
(dp4162
g81
I1
ssg82
g4156
sg75
(lp4163
g3549
(S't\x06\x00\x00\x00Logout'
tRp4164
asbasbasbag68
(g84
g70
NtRp4165
(dp4166
g73
(dp4167
sg82
g4148
sg75
(lp4168
g68
(g89
g70
NtRp4169
(dp4170
g73
(dp4171
sg82
g4165
sg75
(lp4172
g68
(g69
g70
NtRp4173
(dp4174
g73
(dp4175
g81
I1
ssg82
g4169
sg75
(lp4176
I00
asbasbasbag68
(g84
g70
NtRp4177
(dp4178
g73
(dp4179
sg82
g4148
sg75
(lp4180
g68
(g89
g70
NtRp4181
(dp4182
g73
(dp4183
sg82
g4177
sg75
(lp4184
g68
(g69
g70
NtRp4185
(dp4186
g73
(dp4187
g81
I1
ssg82
g4181
sg75
(lp4188
S'/log_out'
p4189
asbasbasbasbasbasbasbasbasbasbasbasbasbasbasbasbasbasbasbag68
(g84
g70
NtRp4190
(dp4191
g73
(dp4192
sg82
g3016
sg75
(lp4193
g68
(g89
g70
NtRp4194
(dp4195
g73
(dp4196
g93
g94
ssg82
g4190
sg75
(lp4197
S'meta'
p4198
asbag68
(g89
g70
NtRp4199
(dp4200
g73
(dp4201
g100
g101
ssg82
g4190
sg75
(lp4202
S':'
asbag68
(g89
g70
NtRp4203
(dp4204
g73
(dp4205
sg82
g4190
sg75
(lp4206
g68
(g69
g70
NtRp4207
(dp4208
g73
(dp4209
g81
I5
ssg82
g4203
sg75
(lp4210
g68
(g77
g70
NtRp4211
(dp4212
g73
(dp4213
g81
I4
ssg82
Nsg75
(lp4214
g68
(g84
g70
NtRp4215
(dp4216
g73
(dp4217
sg82
g4211
sg75
(lp4218
g68
(g89
g70
NtRp4219
(dp4220
g73
(dp4221
g93
g94
ssg82
g4215
sg75
(lp4222
S'author'
p4223
asbag68
(g89
g70
NtRp4224
(dp4225
g73
(dp4226
g100
g101
ssg82
g4215
sg75
(lp4227
S':'
asbag68
(g89
g70
NtRp4228
(dp4229
g73
(dp4230
sg82
g4215
sg75
(lp4231
g68
(g69
g70
NtRp4232
(dp4233
g73
(dp4234
g81
I4
ssg82
g4228
sg75
(lp4235
S'Your Name <you@example.com>'
p4236
asbasbasbag68
(g84
g70
NtRp4237
(dp4238
g73
(dp4239
sg82
g4211
sg75
(lp4240
g68
(g89
g70
NtRp4241
(dp4242
g73
(dp4243
g93
g94
ssg82
g4237
sg75
(lp4244
S'description'
p4245
asbag68
(g89
g70
NtRp4246
(dp4247
g73
(dp4248
g100
g101
ssg82
g4237
sg75
(lp4249
S':'
asbag68
(g89
g70
NtRp4250
(dp4251
g73
(dp4252
sg82
g4237
sg75
(lp4253
g68
(g69
g70
NtRp4254
(dp4255
g73
(dp4256
g81
I4
ssg82
g4250
sg75
(lp4257
S'a cool new app'
p4258
asbasbasbag68
(g84
g70
NtRp4259
(dp4260
g73
(dp4261
sg82
g4211
sg75
(lp4262
g68
(g89
g70
NtRp4263
(dp4264
g73
(dp4265
g93
g94
ssg82
g4259
sg75
(lp4266
S'generator'
p4267
asbag68
(g89
g70
NtRp4268
(dp4269
g73
(dp4270
g100
g101
ssg82
g4259
sg75
(lp4271
S':'
asbag68
(g89
g70
NtRp4272
(dp4273
g73
(dp4274
sg82
g4259
sg75
(lp4275
g68
(g69
g70
NtRp4276
(dp4277
g73
(dp4278
g81
I4
ssg82
g4272
sg75
(lp4279
S'Web2py Web Framework'
p4280
asbasbasbag68
(g84
g70
NtRp4281
(dp4282
g73
(dp4283
sg82
g4211
sg75
(lp4284
g68
(g89
g70
NtRp4285
(dp4286
g73
(dp4287
g93
g94
ssg82
g4281
sg75
(lp4288
S'keywords'
p4289
asbag68
(g89
g70
NtRp4290
(dp4291
g73
(dp4292
g100
g101
ssg82
g4281
sg75
(lp4293
S':'
asbag68
(g89
g70
NtRp4294
(dp4295
g73
(dp4296
sg82
g4281
sg75
(lp4297
g68
(g69
g70
NtRp4298
(dp4299
g73
(dp4300
g81
I4
ssg82
g4294
sg75
(lp4301
S'web2py, python, framework'
p4302
asbasbasbasbasbasbasbag68
(g84
g70
NtRp4303
(dp4304
g73
(dp4305
sg82
g3016
sg75
(lp4306
g68
(g89
g70
NtRp4307
(dp4308
g73
(dp4309
g93
g94
ssg82
g4303
sg75
(lp4310
S'models_to_run'
p4311
asbag68
(g89
g70
NtRp4312
(dp4313
g73
(dp4314
g100
g101
ssg82
g4303
sg75
(lp4315
S':'
asbag68
(g89
g70
NtRp4316
(dp4317
g73
(dp4318
sg82
g4303
sg75
(lp4319
g68
(g69
g70
NtRp4320
(dp4321
g73
(dp4322
g81
I5
ssg82
g4316
sg75
(lp4323
g68
(g77
g70
NtRp4324
(dp4325
g73
(dp4326
g81
I4
ssg82
Nsg75
(lp4327
g68
(g84
g70
NtRp4328
(dp4329
g73
(dp4330
sg82
g4324
sg75
(lp4331
g68
(g89
g70
NtRp4332
(dp4333
g73
(dp4334
sg82
g4328
sg75
(lp4335
g68
(g69
g70
NtRp4336
(dp4337
g73
(dp4338
g81
I4
ssg82
g4332
sg75
(lp4339
S'^\\w+\\.py$'
p4340
asbasbasbag68
(g84
g70
NtRp4341
(dp4342
g73
(dp4343
sg82
g4324
sg75
(lp4344
g68
(g89
g70
NtRp4345
(dp4346
g73
(dp4347
sg82
g4341
sg75
(lp4348
g68
(g69
g70
NtRp4349
(dp4350
g73
(dp4351
g81
I4
ssg82
g4345
sg75
(lp4352
S'^initial/\\w+\\.py$'
p4353
asbasbasbag68
(g84
g70
NtRp4354
(dp4355
g73
(dp4356
sg82
g4324
sg75
(lp4357
g68
(g89
g70
NtRp4358
(dp4359
g73
(dp4360
sg82
g4354
sg75
(lp4361
g68
(g69
g70
NtRp4362
(dp4363
g73
(dp4364
g81
I4
ssg82
g4358
sg75
(lp4365
S'^initial/principal/\\w+\\.py$'
p4366
asbasbasbasbasbasbasbag68
(g84
g70
NtRp4367
(dp4368
g73
(dp4369
sg82
g3016
sg75
(lp4370
g68
(g89
g70
NtRp4371
(dp4372
g73
(dp4373
g93
g94
ssg82
g4367
sg75
(lp4374
S'postprocessing'
p4375
asbag68
(g89
g70
NtRp4376
(dp4377
g73
(dp4378
g100
g101
ssg82
g4367
sg75
(lp4379
S':'
asbag68
(g89
g70
NtRp4380
(dp4381
g73
(dp4382
sg82
g4367
sg75
(lp4383
g68
(g69
g70
NtRp4384
(dp4385
g73
(dp4386
g81
I5
ssg82
g4380
sg75
(lp4387
g68
(g77
g70
NtRp4388
(dp4389
g73
(dp4390
g81
I4
ssg82
Nsg75
(lp4391
sbasbasbasbag68
(g84
g70
NtRp4392
(dp4393
g73
(dp4394
sg82
g3016
sg75
(lp4395
g68
(g89
g70
NtRp4396
(dp4397
g73
(dp4398
g93
g94
ssg82
g4392
sg75
(lp4399
S'session_cookie_expires'
p4400
asbag68
(g89
g70
NtRp4401
(dp4402
g73
(dp4403
g100
g101
ssg82
g4392
sg75
(lp4404
S':'
asbag68
(g89
g70
NtRp4405
(dp4406
g73
(dp4407
sg82
g4392
sg75
(lp4408
g68
(g69
g70
NtRp4409
(dp4410
g73
(dp4411
g81
I5
ssg82
g4405
sg75
(lp4412
S'None'
p4413
asbasbasbag68
(g84
g70
NtRp4414
(dp4415
g73
(dp4416
sg82
g3016
sg75
(lp4417
g68
(g89
g70
NtRp4418
(dp4419
g73
(dp4420
g93
g94
ssg82
g4414
sg75
(lp4421
S'session_data_name'
p4422
asbag68
(g89
g70
NtRp4423
(dp4424
g73
(dp4425
g100
g101
ssg82
g4414
sg75
(lp4426
S':'
asbag68
(g89
g70
NtRp4427
(dp4428
g73
(dp4429
sg82
g4414
sg75
(lp4430
g68
(g69
g70
NtRp4431
(dp4432
g73
(dp4433
g81
I5
ssg82
g4427
sg75
(lp4434
S'session_data_projeto'
p4435
asbasbasbag68
(g84
g70
NtRp4436
(dp4437
g73
(dp4438
sg82
g3016
sg75
(lp4439
g68
(g89
g70
NtRp4440
(dp4441
g73
(dp4442
g93
g94
ssg82
g4436
sg75
(lp4443
S'session_file'
p4444
asbag68
(g89
g70
NtRp4445
(dp4446
g73
(dp4447
g100
g101
ssg82
g4436
sg75
(lp4448
S':'
asbag68
(g89
g70
NtRp4449
(dp4450
g73
(dp4451
sg82
g4436
sg75
(lp4452
g68
(g69
g70
NtRp4453
(dp4454
g73
(dp4455
g81
I5
ssg82
g4449
sg75
(lp4456
S"<open file '/var/www/agenda/applications/projeto/sessions/127.0.0.1-619cd520-b2b6-4b3b-ac85-03f82b831790', mode 'rb+' at 0x7f1fb80eeed0>"
p4457
asbasbasbag68
(g84
g70
NtRp4458
(dp4459
g73
(dp4460
sg82
g3016
sg75
(lp4461
g68
(g89
g70
NtRp4462
(dp4463
g73
(dp4464
g93
g94
ssg82
g4458
sg75
(lp4465
S'session_filename'
p4466
asbag68
(g89
g70
NtRp4467
(dp4468
g73
(dp4469
g100
g101
ssg82
g4458
sg75
(lp4470
S':'
asbag68
(g89
g70
NtRp4471
(dp4472
g73
(dp4473
sg82
g4458
sg75
(lp4474
g68
(g69
g70
NtRp4475
(dp4476
g73
(dp4477
g81
I5
ssg82
g4471
sg75
(lp4478
S'/var/www/agenda/applications/projeto/sessions/127.0.0.1-619cd520-b2b6-4b3b-ac85-03f82b831790'
p4479
asbasbasbag68
(g84
g70
NtRp4480
(dp4481
g73
(dp4482
sg82
g3016
sg75
(lp4483
g68
(g89
g70
NtRp4484
(dp4485
g73
(dp4486
g93
g94
ssg82
g4480
sg75
(lp4487
S'session_id'
p4488
asbag68
(g89
g70
NtRp4489
(dp4490
g73
(dp4491
g100
g101
ssg82
g4480
sg75
(lp4492
S':'
asbag68
(g89
g70
NtRp4493
(dp4494
g73
(dp4495
sg82
g4480
sg75
(lp4496
g68
(g69
g70
NtRp4497
(dp4498
g73
(dp4499
g81
I5
ssg82
g4493
sg75
(lp4500
g292
asbasbasbag68
(g84
g70
NtRp4501
(dp4502
g73
(dp4503
sg82
g3016
sg75
(lp4504
g68
(g89
g70
NtRp4505
(dp4506
g73
(dp4507
g93
g94
ssg82
g4501
sg75
(lp4508
S'session_id_name'
p4509
asbag68
(g89
g70
NtRp4510
(dp4511
g73
(dp4512
g100
g101
ssg82
g4501
sg75
(lp4513
S':'
asbag68
(g89
g70
NtRp4514
(dp4515
g73
(dp4516
sg82
g4501
sg75
(lp4517
g68
(g69
g70
NtRp4518
(dp4519
g73
(dp4520
g81
I5
ssg82
g4514
sg75
(lp4521
g3073
asbasbasbag68
(g84
g70
NtRp4522
(dp4523
g73
(dp4524
sg82
g3016
sg75
(lp4525
g68
(g89
g70
NtRp4526
(dp4527
g73
(dp4528
g93
g94
ssg82
g4522
sg75
(lp4529
S'session_locked'
p4530
asbag68
(g89
g70
NtRp4531
(dp4532
g73
(dp4533
g100
g101
ssg82
g4522
sg75
(lp4534
S':'
asbag68
(g89
g70
NtRp4535
(dp4536
g73
(dp4537
sg82
g4522
sg75
(lp4538
g68
(g69
g70
NtRp4539
(dp4540
g73
(dp4541
g81
I5
ssg82
g4535
sg75
(lp4542
g1439
asbasbasbag68
(g84
g70
NtRp4543
(dp4544
g73
(dp4545
sg82
g3016
sg75
(lp4546
g68
(g89
g70
NtRp4547
(dp4548
g73
(dp4549
g93
g94
ssg82
g4543
sg75
(lp4550
S'session_new'
p4551
asbag68
(g89
g70
NtRp4552
(dp4553
g73
(dp4554
g100
g101
ssg82
g4543
sg75
(lp4555
S':'
asbag68
(g89
g70
NtRp4556
(dp4557
g73
(dp4558
sg82
g4543
sg75
(lp4559
g68
(g69
g70
NtRp4560
(dp4561
g73
(dp4562
g81
I5
ssg82
g4556
sg75
(lp4563
g111
asbasbasbag68
(g84
g70
NtRp4564
(dp4565
g73
(dp4566
sg82
g3016
sg75
(lp4567
g68
(g89
g70
NtRp4568
(dp4569
g73
(dp4570
g93
g94
ssg82
g4564
sg75
(lp4571
S'session_storage_type'
p4572
asbag68
(g89
g70
NtRp4573
(dp4574
g73
(dp4575
g100
g101
ssg82
g4564
sg75
(lp4576
S':'
asbag68
(g89
g70
NtRp4577
(dp4578
g73
(dp4579
sg82
g4564
sg75
(lp4580
g68
(g69
g70
NtRp4581
(dp4582
g73
(dp4583
g81
I5
ssg82
g4577
sg75
(lp4584
g2857
asbasbasbag68
(g84
g70
NtRp4585
(dp4586
g73
(dp4587
sg82
g3016
sg75
(lp4588
g68
(g89
g70
NtRp4589
(dp4590
g73
(dp4591
g93
g94
ssg82
g4585
sg75
(lp4592
S'status'
p4593
asbag68
(g89
g70
NtRp4594
(dp4595
g73
(dp4596
g100
g101
ssg82
g4585
sg75
(lp4597
S':'
asbag68
(g89
g70
NtRp4598
(dp4599
g73
(dp4600
sg82
g4585
sg75
(lp4601
g68
(g69
g70
NtRp4602
(dp4603
g73
(dp4604
g81
I5
ssg82
g4598
sg75
(lp4605
S'200'
p4606
asbasbasbag68
(g84
g70
NtRp4607
(dp4608
g73
(dp4609
sg82
g3016
sg75
(lp4610
g68
(g89
g70
NtRp4611
(dp4612
g73
(dp4613
g93
g94
ssg82
g4607
sg75
(lp4614
S'subtitle'
p4615
asbag68
(g89
g70
NtRp4616
(dp4617
g73
(dp4618
g100
g101
ssg82
g4607
sg75
(lp4619
S':'
asbag68
(g89
g70
NtRp4620
(dp4621
g73
(dp4622
sg82
g4607
sg75
(lp4623
g68
(g69
g70
NtRp4624
(dp4625
g73
(dp4626
g81
I5
ssg82
g4620
sg75
(lp4627
g3549
(S's\r\x00\x00\x00customize me!'
tRp4628
asbasbasbag68
(g84
g70
NtRp4629
(dp4630
g73
(dp4631
sg82
g3016
sg75
(lp4632
g68
(g89
g70
NtRp4633
(dp4634
g73
(dp4635
g93
g94
ssg82
g4629
sg75
(lp4636
S'title'
p4637
asbag68
(g89
g70
NtRp4638
(dp4639
g73
(dp4640
g100
g101
ssg82
g4629
sg75
(lp4641
S':'
asbag68
(g89
g70
NtRp4642
(dp4643
g73
(dp4644
sg82
g4629
sg75
(lp4645
g68
(g69
g70
NtRp4646
(dp4647
g73
(dp4648
g81
I5
ssg82
g4642
sg75
(lp4649
S'Projeto'
p4650
asbasbasbag68
(g84
g70
NtRp4651
(dp4652
g73
(dp4653
sg82
g3016
sg75
(lp4654
g68
(g89
g70
NtRp4655
(dp4656
g73
(dp4657
g93
g94
ssg82
g4651
sg75
(lp4658
S'view'
p4659
asbag68
(g89
g70
NtRp4660
(dp4661
g73
(dp4662
g100
g101
ssg82
g4651
sg75
(lp4663
S':'
asbag68
(g89
g70
NtRp4664
(dp4665
g73
(dp4666
sg82
g4651
sg75
(lp4667
g68
(g69
g70
NtRp4668
(dp4669
g73
(dp4670
g81
I5
ssg82
g4664
sg75
(lp4671
S'initial/principal.html'
p4672
asbasbasbasbasbsS'locals'
p4673
(dp4674
g4
S"'/var/www/agenda/applications/projeto/models/models.py'"
p4675
sg6
S'\'agenda = db.define_table("agenda",\\n      Field("...   #auth.signature\\n      format="%(nome)s")\\n\\n\\n\\n\\n\\n\''
p4676
sssS'traceback'
p4677
S'Traceback (most recent call last):\n  File "/var/www/agenda/gluon/restricted.py", line 211, in restricted\n    ccode = compile2(code, layer)\n  File "/var/www/agenda/gluon/restricted.py", line 194, in compile2\n    return compile(code.rstrip().replace(\'\\r\\n\', \'\\n\') + \'\\n\', layer, \'exec\')\n  File "/var/www/agenda/applications/projeto/models/models.py", line 8\n    format="%(nome)s")\n         ^\nSyntaxError: invalid syntax\n'
p4678
s.